ARM GAS  C:\Users\Alan\AppData\Local\Temp\ccNH6wTE.s 			page 1


   1              		.cpu cortex-m0
   2              		.fpu softvfp
   3              		.eabi_attribute 20, 1
   4              		.eabi_attribute 21, 1
   5              		.eabi_attribute 23, 3
   6              		.eabi_attribute 24, 1
   7              		.eabi_attribute 25, 1
   8              		.eabi_attribute 26, 1
   9              		.eabi_attribute 30, 1
  10              		.eabi_attribute 34, 0
  11              		.eabi_attribute 18, 4
  12              		.code	16
  13              		.file	"ble_HAL_PVT.c"
  14              		.text
  15              	.Ltext0:
  16              		.cfi_sections	.debug_frame
  17              		.section	.text.CyBLE_Nvram_Write,"ax",%progbits
  18              		.align	2
  19              		.global	CyBLE_Nvram_Write
  20              		.code	16
  21              		.thumb_func
  22              		.type	CyBLE_Nvram_Write, %function
  23              	CyBLE_Nvram_Write:
  24              	.LFB2:
  25              		.file 1 ".\\Generated_Source\\PSoC4\\ble_HAL_PVT.c"
   1:.\Generated_Source\PSoC4/ble_HAL_PVT.c **** /***************************************************************************//**
   2:.\Generated_Source\PSoC4/ble_HAL_PVT.c **** * \file CYBLE_HAL_PVT.c
   3:.\Generated_Source\PSoC4/ble_HAL_PVT.c **** * \version 2.30
   4:.\Generated_Source\PSoC4/ble_HAL_PVT.c **** *
   5:.\Generated_Source\PSoC4/ble_HAL_PVT.c **** * \brief
   6:.\Generated_Source\PSoC4/ble_HAL_PVT.c **** *  This file contains the source code for the HAL section of the BLE component
   7:.\Generated_Source\PSoC4/ble_HAL_PVT.c **** *
   8:.\Generated_Source\PSoC4/ble_HAL_PVT.c **** ********************************************************************************
   9:.\Generated_Source\PSoC4/ble_HAL_PVT.c **** * \copyright
  10:.\Generated_Source\PSoC4/ble_HAL_PVT.c **** * Copyright 2014-2015, Cypress Semiconductor Corporation.  All rights reserved.
  11:.\Generated_Source\PSoC4/ble_HAL_PVT.c **** * You may use this file only in accordance with the license, terms, conditions,
  12:.\Generated_Source\PSoC4/ble_HAL_PVT.c **** * disclaimers, and limitations in the end user license agreement accompanying
  13:.\Generated_Source\PSoC4/ble_HAL_PVT.c **** * the software package with which this file was provided.
  14:.\Generated_Source\PSoC4/ble_HAL_PVT.c **** *******************************************************************************/
  15:.\Generated_Source\PSoC4/ble_HAL_PVT.c **** 
  16:.\Generated_Source\PSoC4/ble_HAL_PVT.c **** #include "ble_HAL_PVT.h"
  17:.\Generated_Source\PSoC4/ble_HAL_PVT.c **** 
  18:.\Generated_Source\PSoC4/ble_HAL_PVT.c **** 
  19:.\Generated_Source\PSoC4/ble_HAL_PVT.c **** #if(CYBLE_MODE == CYBLE_HCI)
  20:.\Generated_Source\PSoC4/ble_HAL_PVT.c **** 
  21:.\Generated_Source\PSoC4/ble_HAL_PVT.c **** 
  22:.\Generated_Source\PSoC4/ble_HAL_PVT.c **** /*******************************************************************************
  23:.\Generated_Source\PSoC4/ble_HAL_PVT.c **** * Function Name: CyBLE_Uart_Start
  24:.\Generated_Source\PSoC4/ble_HAL_PVT.c **** ****************************************************************************//**
  25:.\Generated_Source\PSoC4/ble_HAL_PVT.c **** *
  26:.\Generated_Source\PSoC4/ble_HAL_PVT.c **** *  Enables the platform UART Tx and RX interrupts and then enables the UART
  27:.\Generated_Source\PSoC4/ble_HAL_PVT.c **** *  component.
  28:.\Generated_Source\PSoC4/ble_HAL_PVT.c **** *
  29:.\Generated_Source\PSoC4/ble_HAL_PVT.c **** * \return
  30:.\Generated_Source\PSoC4/ble_HAL_PVT.c **** *  None
  31:.\Generated_Source\PSoC4/ble_HAL_PVT.c **** *
  32:.\Generated_Source\PSoC4/ble_HAL_PVT.c **** *******************************************************************************/
ARM GAS  C:\Users\Alan\AppData\Local\Temp\ccNH6wTE.s 			page 2


  33:.\Generated_Source\PSoC4/ble_HAL_PVT.c **** void CyBLE_Uart_Start (void)
  34:.\Generated_Source\PSoC4/ble_HAL_PVT.c **** {
  35:.\Generated_Source\PSoC4/ble_HAL_PVT.c ****     /* Setup ISR */
  36:.\Generated_Source\PSoC4/ble_HAL_PVT.c ****     ble_uart_isr_StartEx(&CyBLE_Uart_Interrupt);
  37:.\Generated_Source\PSoC4/ble_HAL_PVT.c **** 
  38:.\Generated_Source\PSoC4/ble_HAL_PVT.c ****     ble_HAL_Uart_Start();
  39:.\Generated_Source\PSoC4/ble_HAL_PVT.c **** }
  40:.\Generated_Source\PSoC4/ble_HAL_PVT.c **** 
  41:.\Generated_Source\PSoC4/ble_HAL_PVT.c **** 
  42:.\Generated_Source\PSoC4/ble_HAL_PVT.c **** /*******************************************************************************
  43:.\Generated_Source\PSoC4/ble_HAL_PVT.c **** * Function Name: CyBLE_Uart_Stop
  44:.\Generated_Source\PSoC4/ble_HAL_PVT.c **** ****************************************************************************//**
  45:.\Generated_Source\PSoC4/ble_HAL_PVT.c **** *
  46:.\Generated_Source\PSoC4/ble_HAL_PVT.c **** *  Disables the UART, clears all pending interrupts and disables the UART Tx
  47:.\Generated_Source\PSoC4/ble_HAL_PVT.c **** *  and RX interrupts. This will also empty out the FIFOs.
  48:.\Generated_Source\PSoC4/ble_HAL_PVT.c **** *
  49:.\Generated_Source\PSoC4/ble_HAL_PVT.c **** * \return
  50:.\Generated_Source\PSoC4/ble_HAL_PVT.c **** *  None
  51:.\Generated_Source\PSoC4/ble_HAL_PVT.c **** *
  52:.\Generated_Source\PSoC4/ble_HAL_PVT.c **** *******************************************************************************/
  53:.\Generated_Source\PSoC4/ble_HAL_PVT.c **** void CyBLE_Uart_Stop (void)
  54:.\Generated_Source\PSoC4/ble_HAL_PVT.c **** {
  55:.\Generated_Source\PSoC4/ble_HAL_PVT.c ****     /* Stop interrupt and UART */
  56:.\Generated_Source\PSoC4/ble_HAL_PVT.c ****     ble_uart_isr_Stop();
  57:.\Generated_Source\PSoC4/ble_HAL_PVT.c **** 
  58:.\Generated_Source\PSoC4/ble_HAL_PVT.c ****     ble_HAL_Uart_Stop();
  59:.\Generated_Source\PSoC4/ble_HAL_PVT.c **** }
  60:.\Generated_Source\PSoC4/ble_HAL_PVT.c **** 
  61:.\Generated_Source\PSoC4/ble_HAL_PVT.c **** 
  62:.\Generated_Source\PSoC4/ble_HAL_PVT.c **** /*******************************************************************************
  63:.\Generated_Source\PSoC4/ble_HAL_PVT.c **** * Function Name: CyBLE_Uart_Transmit
  64:.\Generated_Source\PSoC4/ble_HAL_PVT.c **** ****************************************************************************//**
  65:.\Generated_Source\PSoC4/ble_HAL_PVT.c **** *
  66:.\Generated_Source\PSoC4/ble_HAL_PVT.c **** *  Sends the data to Uart Tx FIFO. The API handles data length up to the 
  67:.\Generated_Source\PSoC4/ble_HAL_PVT.c **** *  supported Tx FIFO length of the uart hardware module.
  68:.\Generated_Source\PSoC4/ble_HAL_PVT.c **** *
  69:.\Generated_Source\PSoC4/ble_HAL_PVT.c **** *  \param data: Pointer to the data to send through the UART
  70:.\Generated_Source\PSoC4/ble_HAL_PVT.c **** *  \param length: the length of data to transmit in bytes
  71:.\Generated_Source\PSoC4/ble_HAL_PVT.c **** *
  72:.\Generated_Source\PSoC4/ble_HAL_PVT.c **** * \return
  73:.\Generated_Source\PSoC4/ble_HAL_PVT.c **** *  None
  74:.\Generated_Source\PSoC4/ble_HAL_PVT.c **** *
  75:.\Generated_Source\PSoC4/ble_HAL_PVT.c **** *******************************************************************************/
  76:.\Generated_Source\PSoC4/ble_HAL_PVT.c **** void CyBLE_Uart_Transmit (const uint8 *dataBuf, uint8 length)
  77:.\Generated_Source\PSoC4/ble_HAL_PVT.c **** {
  78:.\Generated_Source\PSoC4/ble_HAL_PVT.c ****     ble_HAL_Uart_SpiUartPutArray(dataBuf, (uint32)length);
  79:.\Generated_Source\PSoC4/ble_HAL_PVT.c **** }
  80:.\Generated_Source\PSoC4/ble_HAL_PVT.c **** 
  81:.\Generated_Source\PSoC4/ble_HAL_PVT.c **** #endif /* (CYBLE_MODE == CYBLE_HCI) */
  82:.\Generated_Source\PSoC4/ble_HAL_PVT.c **** 
  83:.\Generated_Source\PSoC4/ble_HAL_PVT.c **** 
  84:.\Generated_Source\PSoC4/ble_HAL_PVT.c **** /*******************************************************************************
  85:.\Generated_Source\PSoC4/ble_HAL_PVT.c **** * Function Name: CyBLE_Nvram_Write
  86:.\Generated_Source\PSoC4/ble_HAL_PVT.c **** ****************************************************************************//**
  87:.\Generated_Source\PSoC4/ble_HAL_PVT.c **** *
  88:.\Generated_Source\PSoC4/ble_HAL_PVT.c **** *  This API writes the data to the NVRAM store. It will check the appropriate
  89:.\Generated_Source\PSoC4/ble_HAL_PVT.c **** *  alignment of a start address and also perform an address range check based
ARM GAS  C:\Users\Alan\AppData\Local\Temp\ccNH6wTE.s 			page 3


  90:.\Generated_Source\PSoC4/ble_HAL_PVT.c **** *  on the length before performing the write operation.
  91:.\Generated_Source\PSoC4/ble_HAL_PVT.c **** *  This function performs memory compare and writes only row where there are new
  92:.\Generated_Source\PSoC4/ble_HAL_PVT.c **** *  data to write.
  93:.\Generated_Source\PSoC4/ble_HAL_PVT.c **** *
  94:.\Generated_Source\PSoC4/ble_HAL_PVT.c **** *  \param buffer:   Pointer to the buffer containing the data to be stored.
  95:.\Generated_Source\PSoC4/ble_HAL_PVT.c **** *  \param varFlash: Pointer to the array or variable in the flash.
  96:.\Generated_Source\PSoC4/ble_HAL_PVT.c **** *  \param length:    The length of the data in bytes.
  97:.\Generated_Source\PSoC4/ble_HAL_PVT.c **** *
  98:.\Generated_Source\PSoC4/ble_HAL_PVT.c **** * \return
  99:.\Generated_Source\PSoC4/ble_HAL_PVT.c **** *  CYRET_SUCCESS    a successful write
 100:.\Generated_Source\PSoC4/ble_HAL_PVT.c **** *  CYRET_BAD_PARAM  A request to write outside the flash boundary.
 101:.\Generated_Source\PSoC4/ble_HAL_PVT.c **** *  CYRET_UNKNOWN    Other errors in writing the flash
 102:.\Generated_Source\PSoC4/ble_HAL_PVT.c **** *
 103:.\Generated_Source\PSoC4/ble_HAL_PVT.c **** * \sideeffect
 104:.\Generated_Source\PSoC4/ble_HAL_PVT.c **** *  For BLE devices with 128K of Flash memory this API will automatically 
 105:.\Generated_Source\PSoC4/ble_HAL_PVT.c **** *  modify the clock settings for the device.
 106:.\Generated_Source\PSoC4/ble_HAL_PVT.c **** *  Writing to flash requires changes to be done to the IMO (set to 48 MHz)
 107:.\Generated_Source\PSoC4/ble_HAL_PVT.c **** *  and HFCLK (source set to IMO) settings. The configuration is restored before
 108:.\Generated_Source\PSoC4/ble_HAL_PVT.c **** *  returning. This will impact the operation of most of the hardware in the
 109:.\Generated_Source\PSoC4/ble_HAL_PVT.c **** *  device.
 110:.\Generated_Source\PSoC4/ble_HAL_PVT.c **** *
 111:.\Generated_Source\PSoC4/ble_HAL_PVT.c **** *******************************************************************************/
 112:.\Generated_Source\PSoC4/ble_HAL_PVT.c **** cystatus CyBLE_Nvram_Write (const uint8 buffer[], const uint8 varFlash[], uint16 length)
 113:.\Generated_Source\PSoC4/ble_HAL_PVT.c **** {
  26              		.loc 1 113 0
  27              		.cfi_startproc
  28              	.LVL0:
  29 0000 F0B5     		push	{r4, r5, r6, r7, lr}
  30              		.cfi_def_cfa_offset 20
  31              		.cfi_offset 4, -20
  32              		.cfi_offset 5, -16
  33              		.cfi_offset 6, -12
  34              		.cfi_offset 7, -8
  35              		.cfi_offset 14, -4
  36 0002 5746     		mov	r7, r10
  37 0004 4E46     		mov	r6, r9
  38 0006 4546     		mov	r5, r8
  39 0008 E0B4     		push	{r5, r6, r7}
  40              		.cfi_def_cfa_offset 32
  41              		.cfi_offset 8, -32
  42              		.cfi_offset 9, -28
  43              		.cfi_offset 10, -24
  44 000a A0B0     		sub	sp, sp, #128
  45              		.cfi_def_cfa_offset 160
  46              	.LVL1:
 114:.\Generated_Source\PSoC4/ble_HAL_PVT.c ****     uint8 writeBuffer[CY_FLASH_SIZEOF_ROW];
 115:.\Generated_Source\PSoC4/ble_HAL_PVT.c ****     uint32 rowId;
 116:.\Generated_Source\PSoC4/ble_HAL_PVT.c ****     uint32 dstIndex;
 117:.\Generated_Source\PSoC4/ble_HAL_PVT.c ****     uint32 srcIndex = 0u;
 118:.\Generated_Source\PSoC4/ble_HAL_PVT.c ****     cystatus rc = CYRET_SUCCESS;
 119:.\Generated_Source\PSoC4/ble_HAL_PVT.c ****     uint32 eeOffset;
 120:.\Generated_Source\PSoC4/ble_HAL_PVT.c ****     uint32 byteOffset;
 121:.\Generated_Source\PSoC4/ble_HAL_PVT.c ****     uint32 rowsNotEqual;
 122:.\Generated_Source\PSoC4/ble_HAL_PVT.c **** 
 123:.\Generated_Source\PSoC4/ble_HAL_PVT.c ****     eeOffset = (uint32)varFlash;
  47              		.loc 1 123 0
  48 000c 0E1C     		mov	r6, r1
ARM GAS  C:\Users\Alan\AppData\Local\Temp\ccNH6wTE.s 			page 4


  49              	.LVL2:
 124:.\Generated_Source\PSoC4/ble_HAL_PVT.c **** 
 125:.\Generated_Source\PSoC4/ble_HAL_PVT.c ****     /* Make sure, that varFlash[] points to Flash */
 126:.\Generated_Source\PSoC4/ble_HAL_PVT.c ****     if ((eeOffset + length) < CYBLE_HAL_FLASH_END_ADDR)
  50              		.loc 1 126 0
  51 000e 171C     		mov	r7, r2
  52 0010 8A18     		add	r2, r1, r2
  53              	.LVL3:
  54 0012 214B     		ldr	r3, .L14
  55 0014 9A42     		cmp	r2, r3
  56 0016 30D8     		bhi	.L11
  57 0018 8046     		mov	r8, r0
 127:.\Generated_Source\PSoC4/ble_HAL_PVT.c ****     {
 128:.\Generated_Source\PSoC4/ble_HAL_PVT.c ****         rowId = eeOffset / CY_FLASH_SIZEOF_ROW;
  58              		.loc 1 128 0
  59 001a CB09     		lsr	r3, r1, #7
  60 001c 9946     		mov	r9, r3
  61              	.LVL4:
 129:.\Generated_Source\PSoC4/ble_HAL_PVT.c ****         byteOffset = CY_FLASH_SIZEOF_ROW * rowId;
  62              		.loc 1 129 0
  63 001e DC01     		lsl	r4, r3, #7
  64              	.LVL5:
 118:.\Generated_Source\PSoC4/ble_HAL_PVT.c ****     uint32 eeOffset;
  65              		.loc 1 118 0
  66 0020 0023     		mov	r3, #0
  67              	.LVL6:
  68 0022 9C46     		mov	ip, r3
 117:.\Generated_Source\PSoC4/ble_HAL_PVT.c ****     cystatus rc = CYRET_SUCCESS;
  69              		.loc 1 117 0
  70 0024 0025     		mov	r5, #0
 130:.\Generated_Source\PSoC4/ble_HAL_PVT.c **** 
 131:.\Generated_Source\PSoC4/ble_HAL_PVT.c ****         while ((srcIndex < length) && (CYRET_SUCCESS == rc))
  71              		.loc 1 131 0
  72 0026 22E0     		b	.L3
  73              	.LVL7:
  74              	.L7:
 132:.\Generated_Source\PSoC4/ble_HAL_PVT.c ****         {
 133:.\Generated_Source\PSoC4/ble_HAL_PVT.c ****             rowsNotEqual = 0u;
 134:.\Generated_Source\PSoC4/ble_HAL_PVT.c ****             /* Copy data to the write buffer either from the source buffer or from the flash */
 135:.\Generated_Source\PSoC4/ble_HAL_PVT.c ****             for (dstIndex = 0u; dstIndex < CY_FLASH_SIZEOF_ROW; dstIndex++)
 136:.\Generated_Source\PSoC4/ble_HAL_PVT.c ****             {
 137:.\Generated_Source\PSoC4/ble_HAL_PVT.c ****                 if ((byteOffset >= eeOffset) && (srcIndex < length))
  75              		.loc 1 137 0
  76 0028 B442     		cmp	r4, r6
  77 002a 0CD3     		bcc	.L4
  78              		.loc 1 137 0 is_stmt 0 discriminator 1
  79 002c BD42     		cmp	r5, r7
  80 002e 0AD2     		bcs	.L4
 138:.\Generated_Source\PSoC4/ble_HAL_PVT.c ****                 {
 139:.\Generated_Source\PSoC4/ble_HAL_PVT.c ****                     /* Detect that row programming is required */
 140:.\Generated_Source\PSoC4/ble_HAL_PVT.c ****                     if(writeBuffer[dstIndex] != buffer[srcIndex])
  81              		.loc 1 140 0 is_stmt 1
  82 0030 6A46     		mov	r2, sp
  83 0032 D15C     		ldrb	r1, [r2, r3]
  84 0034 4246     		mov	r2, r8
  85 0036 525D     		ldrb	r2, [r2, r5]
  86 0038 9142     		cmp	r1, r2
ARM GAS  C:\Users\Alan\AppData\Local\Temp\ccNH6wTE.s 			page 5


  87 003a 02D0     		beq	.L5
 141:.\Generated_Source\PSoC4/ble_HAL_PVT.c ****                     {
 142:.\Generated_Source\PSoC4/ble_HAL_PVT.c ****                         writeBuffer[dstIndex] = buffer[srcIndex];
  88              		.loc 1 142 0
  89 003c 6946     		mov	r1, sp
  90 003e CA54     		strb	r2, [r1, r3]
  91              	.LVL8:
 143:.\Generated_Source\PSoC4/ble_HAL_PVT.c ****                         rowsNotEqual = 1u;  
  92              		.loc 1 143 0
  93 0040 0120     		mov	r0, #1
  94              	.LVL9:
  95              	.L5:
 144:.\Generated_Source\PSoC4/ble_HAL_PVT.c ****                     }
 145:.\Generated_Source\PSoC4/ble_HAL_PVT.c ****                     srcIndex++;
  96              		.loc 1 145 0
  97 0042 0135     		add	r5, r5, #1
  98              	.LVL10:
  99 0044 02E0     		b	.L6
 100              	.L4:
 146:.\Generated_Source\PSoC4/ble_HAL_PVT.c ****                 }
 147:.\Generated_Source\PSoC4/ble_HAL_PVT.c ****                 else
 148:.\Generated_Source\PSoC4/ble_HAL_PVT.c ****                 {
 149:.\Generated_Source\PSoC4/ble_HAL_PVT.c ****                     writeBuffer[dstIndex] = CY_GET_XTND_REG8(CYDEV_FLASH_BASE + byteOffset);
 101              		.loc 1 149 0
 102 0046 2278     		ldrb	r2, [r4]
 103 0048 6946     		mov	r1, sp
 104 004a CA54     		strb	r2, [r1, r3]
 105              	.L6:
 150:.\Generated_Source\PSoC4/ble_HAL_PVT.c ****                 }
 151:.\Generated_Source\PSoC4/ble_HAL_PVT.c ****                 byteOffset++;
 106              		.loc 1 151 0 discriminator 2
 107 004c 0134     		add	r4, r4, #1
 108              	.LVL11:
 135:.\Generated_Source\PSoC4/ble_HAL_PVT.c ****             {
 109              		.loc 1 135 0 discriminator 2
 110 004e 0133     		add	r3, r3, #1
 111              	.LVL12:
 112 0050 01E0     		b	.L9
 113              	.LVL13:
 114              	.L12:
 115 0052 0020     		mov	r0, #0
 116 0054 0023     		mov	r3, #0
 117              	.LVL14:
 118              	.L9:
 135:.\Generated_Source\PSoC4/ble_HAL_PVT.c ****             {
 119              		.loc 1 135 0 is_stmt 0 discriminator 1
 120 0056 7F2B     		cmp	r3, #127
 121 0058 E6D9     		bls	.L7
 152:.\Generated_Source\PSoC4/ble_HAL_PVT.c ****             }
 153:.\Generated_Source\PSoC4/ble_HAL_PVT.c **** 
 154:.\Generated_Source\PSoC4/ble_HAL_PVT.c ****             if(rowsNotEqual != 0u)
 122              		.loc 1 154 0 is_stmt 1
 123 005a 0028     		cmp	r0, #0
 124 005c 04D0     		beq	.L8
 155:.\Generated_Source\PSoC4/ble_HAL_PVT.c ****             {
 156:.\Generated_Source\PSoC4/ble_HAL_PVT.c ****                 /* Write flash row */
 157:.\Generated_Source\PSoC4/ble_HAL_PVT.c ****                 rc = CySysFlashWriteRow(rowId, writeBuffer);
ARM GAS  C:\Users\Alan\AppData\Local\Temp\ccNH6wTE.s 			page 6


 125              		.loc 1 157 0
 126 005e 4846     		mov	r0, r9
 127              	.LVL15:
 128 0060 6946     		mov	r1, sp
 129 0062 FFF7FEFF 		bl	CySysFlashWriteRow
 130              	.LVL16:
 131 0066 8446     		mov	ip, r0
 132              	.LVL17:
 133              	.L8:
 158:.\Generated_Source\PSoC4/ble_HAL_PVT.c ****             }
 159:.\Generated_Source\PSoC4/ble_HAL_PVT.c **** 
 160:.\Generated_Source\PSoC4/ble_HAL_PVT.c ****             /* Go to the next row */
 161:.\Generated_Source\PSoC4/ble_HAL_PVT.c ****             rowId++;
 134              		.loc 1 161 0
 135 0068 0123     		mov	r3, #1
 136 006a 9A46     		mov	r10, r3
 137 006c D144     		add	r9, r9, r10
 138              	.LVL18:
 139              	.L3:
 131:.\Generated_Source\PSoC4/ble_HAL_PVT.c ****         {
 140              		.loc 1 131 0
 141 006e BD42     		cmp	r5, r7
 142 0070 05D2     		bcs	.L2
 131:.\Generated_Source\PSoC4/ble_HAL_PVT.c ****         {
 143              		.loc 1 131 0 is_stmt 0 discriminator 1
 144 0072 6346     		mov	r3, ip
 145 0074 002B     		cmp	r3, #0
 146 0076 ECD0     		beq	.L12
 147 0078 01E0     		b	.L2
 148              	.LVL19:
 149              	.L11:
 162:.\Generated_Source\PSoC4/ble_HAL_PVT.c ****         }
 163:.\Generated_Source\PSoC4/ble_HAL_PVT.c ****     }
 164:.\Generated_Source\PSoC4/ble_HAL_PVT.c ****     else
 165:.\Generated_Source\PSoC4/ble_HAL_PVT.c ****     {
 166:.\Generated_Source\PSoC4/ble_HAL_PVT.c ****         rc = CYRET_BAD_PARAM;
 150              		.loc 1 166 0 is_stmt 1
 151 007a 0123     		mov	r3, #1
 152 007c 9C46     		mov	ip, r3
 153              	.LVL20:
 154              	.L2:
 167:.\Generated_Source\PSoC4/ble_HAL_PVT.c ****     }
 168:.\Generated_Source\PSoC4/ble_HAL_PVT.c **** 
 169:.\Generated_Source\PSoC4/ble_HAL_PVT.c ****     /* Mask return codes from flash, if they are not supported */
 170:.\Generated_Source\PSoC4/ble_HAL_PVT.c ****     if ((CYRET_SUCCESS != rc) && (CYRET_BAD_PARAM != rc))
 155              		.loc 1 170 0
 156 007e 6346     		mov	r3, ip
 157 0080 012B     		cmp	r3, #1
 158 0082 02D9     		bls	.L10
 171:.\Generated_Source\PSoC4/ble_HAL_PVT.c ****     {
 172:.\Generated_Source\PSoC4/ble_HAL_PVT.c ****         rc = CYRET_UNKNOWN;
 159              		.loc 1 172 0
 160 0084 0123     		mov	r3, #1
 161 0086 5B42     		neg	r3, r3
 162 0088 9C46     		mov	ip, r3
 163              	.LVL21:
 164              	.L10:
ARM GAS  C:\Users\Alan\AppData\Local\Temp\ccNH6wTE.s 			page 7


 173:.\Generated_Source\PSoC4/ble_HAL_PVT.c ****     }
 174:.\Generated_Source\PSoC4/ble_HAL_PVT.c ****     
 175:.\Generated_Source\PSoC4/ble_HAL_PVT.c ****     return (rc);
 176:.\Generated_Source\PSoC4/ble_HAL_PVT.c **** }
 165              		.loc 1 176 0
 166 008a 6046     		mov	r0, ip
 167 008c 20B0     		add	sp, sp, #128
 168              		@ sp needed
 169              	.LVL22:
 170 008e 1CBC     		pop	{r2, r3, r4}
 171 0090 9046     		mov	r8, r2
 172 0092 9946     		mov	r9, r3
 173 0094 A246     		mov	r10, r4
 174 0096 F0BD     		pop	{r4, r5, r6, r7, pc}
 175              	.L15:
 176              		.align	2
 177              	.L14:
 178 0098 FFFF0100 		.word	131071
 179              		.cfi_endproc
 180              	.LFE2:
 181              		.size	CyBLE_Nvram_Write, .-CyBLE_Nvram_Write
 182              		.section	.text.CyBLE_Nvram_Erase,"ax",%progbits
 183              		.align	2
 184              		.global	CyBLE_Nvram_Erase
 185              		.code	16
 186              		.thumb_func
 187              		.type	CyBLE_Nvram_Erase, %function
 188              	CyBLE_Nvram_Erase:
 189              	.LFB3:
 177:.\Generated_Source\PSoC4/ble_HAL_PVT.c **** 
 178:.\Generated_Source\PSoC4/ble_HAL_PVT.c **** /*******************************************************************************
 179:.\Generated_Source\PSoC4/ble_HAL_PVT.c **** * Function Name: CyBLE_Nvram_Erase
 180:.\Generated_Source\PSoC4/ble_HAL_PVT.c **** ****************************************************************************//**
 181:.\Generated_Source\PSoC4/ble_HAL_PVT.c **** *
 182:.\Generated_Source\PSoC4/ble_HAL_PVT.c **** *  This API erases the data from the NVRAM store. This API will perform an 
 183:.\Generated_Source\PSoC4/ble_HAL_PVT.c **** *  address range check based on the length before performing erase operation.
 184:.\Generated_Source\PSoC4/ble_HAL_PVT.c **** *
 185:.\Generated_Source\PSoC4/ble_HAL_PVT.c **** *  \param varFlash: the pointer to the array or variable in the flash.
 186:.\Generated_Source\PSoC4/ble_HAL_PVT.c **** *  \param length:    the length of the data in bytes.
 187:.\Generated_Source\PSoC4/ble_HAL_PVT.c **** *
 188:.\Generated_Source\PSoC4/ble_HAL_PVT.c **** * \return
 189:.\Generated_Source\PSoC4/ble_HAL_PVT.c **** *  CYRET_SUCCESS    a successful write
 190:.\Generated_Source\PSoC4/ble_HAL_PVT.c **** *  CYRET_BAD_PARAM  A request to write outside the flash boundary.
 191:.\Generated_Source\PSoC4/ble_HAL_PVT.c **** *  CYRET_UNKNOWN    Other errors in writing the flash
 192:.\Generated_Source\PSoC4/ble_HAL_PVT.c **** *
 193:.\Generated_Source\PSoC4/ble_HAL_PVT.c **** *******************************************************************************/
 194:.\Generated_Source\PSoC4/ble_HAL_PVT.c **** cystatus CyBLE_Nvram_Erase (const uint8 *varFlash, uint16 length)
 195:.\Generated_Source\PSoC4/ble_HAL_PVT.c **** {
 190              		.loc 1 195 0
 191              		.cfi_startproc
 192              	.LVL23:
 193 0000 70B5     		push	{r4, r5, r6, lr}
 194              		.cfi_def_cfa_offset 16
 195              		.cfi_offset 4, -16
 196              		.cfi_offset 5, -12
 197              		.cfi_offset 6, -8
 198              		.cfi_offset 14, -4
ARM GAS  C:\Users\Alan\AppData\Local\Temp\ccNH6wTE.s 			page 8


 199 0002 A0B0     		sub	sp, sp, #128
 200              		.cfi_def_cfa_offset 144
 201 0004 051C     		mov	r5, r0
 202 0006 0C1C     		mov	r4, r1
 196:.\Generated_Source\PSoC4/ble_HAL_PVT.c ****     const uint8 *tempFlash;
 197:.\Generated_Source\PSoC4/ble_HAL_PVT.c ****     uint8 flashBuffer[CY_FLASH_SIZEOF_ROW] = {0u};
 203              		.loc 1 197 0
 204 0008 6846     		mov	r0, sp
 205              	.LVL24:
 206 000a 0021     		mov	r1, #0
 207              	.LVL25:
 208 000c 8022     		mov	r2, #128
 209 000e FFF7FEFF 		bl	memset
 210              	.LVL26:
 198:.\Generated_Source\PSoC4/ble_HAL_PVT.c ****     uint16 lengthFlash;
 199:.\Generated_Source\PSoC4/ble_HAL_PVT.c ****     uint16 lengthRemaining;
 200:.\Generated_Source\PSoC4/ble_HAL_PVT.c ****     cystatus rc = CYRET_UNKNOWN;
 211              		.loc 1 200 0
 212 0012 0120     		mov	r0, #1
 213 0014 4042     		neg	r0, r0
 201:.\Generated_Source\PSoC4/ble_HAL_PVT.c **** 
 202:.\Generated_Source\PSoC4/ble_HAL_PVT.c ****     tempFlash = varFlash;
 203:.\Generated_Source\PSoC4/ble_HAL_PVT.c ****     lengthRemaining = length;
 204:.\Generated_Source\PSoC4/ble_HAL_PVT.c **** 
 205:.\Generated_Source\PSoC4/ble_HAL_PVT.c ****     while(lengthRemaining > 0u)
 214              		.loc 1 205 0
 215 0016 0EE0     		b	.L17
 216              	.LVL27:
 217              	.L20:
 206:.\Generated_Source\PSoC4/ble_HAL_PVT.c ****     {
 207:.\Generated_Source\PSoC4/ble_HAL_PVT.c ****         if(lengthRemaining < CY_FLASH_SIZEOF_ROW)
 218              		.loc 1 207 0
 219 0018 7F2C     		cmp	r4, #127
 220 001a 01D9     		bls	.L21
 208:.\Generated_Source\PSoC4/ble_HAL_PVT.c ****         {
 209:.\Generated_Source\PSoC4/ble_HAL_PVT.c ****             lengthFlash = lengthRemaining;
 210:.\Generated_Source\PSoC4/ble_HAL_PVT.c ****         }
 211:.\Generated_Source\PSoC4/ble_HAL_PVT.c ****         else
 212:.\Generated_Source\PSoC4/ble_HAL_PVT.c ****         {
 213:.\Generated_Source\PSoC4/ble_HAL_PVT.c ****             lengthFlash = CY_FLASH_SIZEOF_ROW;
 221              		.loc 1 213 0
 222 001c 8026     		mov	r6, #128
 223 001e 00E0     		b	.L18
 224              	.L21:
 209:.\Generated_Source\PSoC4/ble_HAL_PVT.c ****         }
 225              		.loc 1 209 0
 226 0020 261C     		mov	r6, r4
 227              	.L18:
 228              	.LVL28:
 214:.\Generated_Source\PSoC4/ble_HAL_PVT.c ****         }
 215:.\Generated_Source\PSoC4/ble_HAL_PVT.c ****         rc = CyBLE_Nvram_Write(flashBuffer, tempFlash, lengthFlash);
 229              		.loc 1 215 0
 230 0022 6846     		mov	r0, sp
 231              	.LVL29:
 232 0024 291C     		mov	r1, r5
 233 0026 321C     		mov	r2, r6
 234 0028 FFF7FEFF 		bl	CyBLE_Nvram_Write
ARM GAS  C:\Users\Alan\AppData\Local\Temp\ccNH6wTE.s 			page 9


 235              	.LVL30:
 216:.\Generated_Source\PSoC4/ble_HAL_PVT.c ****         if(rc != CYRET_SUCCESS)
 236              		.loc 1 216 0
 237 002c 0028     		cmp	r0, #0
 238 002e 04D1     		bne	.L19
 217:.\Generated_Source\PSoC4/ble_HAL_PVT.c ****         {
 218:.\Generated_Source\PSoC4/ble_HAL_PVT.c ****             break;
 219:.\Generated_Source\PSoC4/ble_HAL_PVT.c ****         }
 220:.\Generated_Source\PSoC4/ble_HAL_PVT.c ****         tempFlash += CY_FLASH_SIZEOF_ROW;
 239              		.loc 1 220 0
 240 0030 8035     		add	r5, r5, #128
 241              	.LVL31:
 221:.\Generated_Source\PSoC4/ble_HAL_PVT.c ****         lengthRemaining -= lengthFlash;
 242              		.loc 1 221 0
 243 0032 A41B     		sub	r4, r4, r6
 244              	.LVL32:
 245 0034 A4B2     		uxth	r4, r4
 246              	.LVL33:
 247              	.L17:
 205:.\Generated_Source\PSoC4/ble_HAL_PVT.c ****     {
 248              		.loc 1 205 0
 249 0036 002C     		cmp	r4, #0
 250 0038 EED1     		bne	.L20
 251              	.L19:
 222:.\Generated_Source\PSoC4/ble_HAL_PVT.c ****     }
 223:.\Generated_Source\PSoC4/ble_HAL_PVT.c **** 
 224:.\Generated_Source\PSoC4/ble_HAL_PVT.c ****     return rc;
 225:.\Generated_Source\PSoC4/ble_HAL_PVT.c **** }
 252              		.loc 1 225 0
 253 003a 20B0     		add	sp, sp, #128
 254              		@ sp needed
 255              	.LVL34:
 256              	.LVL35:
 257 003c 70BD     		pop	{r4, r5, r6, pc}
 258              		.cfi_endproc
 259              	.LFE3:
 260              		.size	CyBLE_Nvram_Erase, .-CyBLE_Nvram_Erase
 261 003e C046     		.section	.text.CyBLE_Bless_LlRegRead,"ax",%progbits
 262              		.align	2
 263              		.global	CyBLE_Bless_LlRegRead
 264              		.code	16
 265              		.thumb_func
 266              		.type	CyBLE_Bless_LlRegRead, %function
 267              	CyBLE_Bless_LlRegRead:
 268              	.LFB4:
 226:.\Generated_Source\PSoC4/ble_HAL_PVT.c **** 
 227:.\Generated_Source\PSoC4/ble_HAL_PVT.c **** 
 228:.\Generated_Source\PSoC4/ble_HAL_PVT.c **** /*******************************************************************************
 229:.\Generated_Source\PSoC4/ble_HAL_PVT.c **** * Function Name: CyBLE_Bless_LlRegRead
 230:.\Generated_Source\PSoC4/ble_HAL_PVT.c **** ****************************************************************************//**
 231:.\Generated_Source\PSoC4/ble_HAL_PVT.c **** *
 232:.\Generated_Source\PSoC4/ble_HAL_PVT.c **** *  This API reads the content of the BLESS Link Layer register from the stack.
 233:.\Generated_Source\PSoC4/ble_HAL_PVT.c **** *
 234:.\Generated_Source\PSoC4/ble_HAL_PVT.c **** *  \param blessAddr: the pointer to the BLESS link layer address.
 235:.\Generated_Source\PSoC4/ble_HAL_PVT.c **** *  \param regValue: the pointer to the buffer space to copy the read value.
 236:.\Generated_Source\PSoC4/ble_HAL_PVT.c **** *
 237:.\Generated_Source\PSoC4/ble_HAL_PVT.c **** * \return
ARM GAS  C:\Users\Alan\AppData\Local\Temp\ccNH6wTE.s 			page 10


 238:.\Generated_Source\PSoC4/ble_HAL_PVT.c **** *  None
 239:.\Generated_Source\PSoC4/ble_HAL_PVT.c **** *
 240:.\Generated_Source\PSoC4/ble_HAL_PVT.c **** *******************************************************************************/
 241:.\Generated_Source\PSoC4/ble_HAL_PVT.c **** void CyBLE_Bless_LlRegRead (const reg32 *blessAddr, uint16 *regValue)
 242:.\Generated_Source\PSoC4/ble_HAL_PVT.c **** {
 269              		.loc 1 242 0
 270              		.cfi_startproc
 271              	.LVL36:
 243:.\Generated_Source\PSoC4/ble_HAL_PVT.c ****     *regValue = (uint16)CY_GET_REG32(blessAddr);
 272              		.loc 1 243 0
 273 0000 0368     		ldr	r3, [r0]
 274 0002 0B80     		strh	r3, [r1]
 244:.\Generated_Source\PSoC4/ble_HAL_PVT.c **** }
 275              		.loc 1 244 0
 276              		@ sp needed
 277 0004 7047     		bx	lr
 278              		.cfi_endproc
 279              	.LFE4:
 280              		.size	CyBLE_Bless_LlRegRead, .-CyBLE_Bless_LlRegRead
 281 0006 C046     		.section	.text.CyBLE_Bless_LlRegWrite,"ax",%progbits
 282              		.align	2
 283              		.global	CyBLE_Bless_LlRegWrite
 284              		.code	16
 285              		.thumb_func
 286              		.type	CyBLE_Bless_LlRegWrite, %function
 287              	CyBLE_Bless_LlRegWrite:
 288              	.LFB5:
 245:.\Generated_Source\PSoC4/ble_HAL_PVT.c **** 
 246:.\Generated_Source\PSoC4/ble_HAL_PVT.c **** 
 247:.\Generated_Source\PSoC4/ble_HAL_PVT.c **** /*******************************************************************************
 248:.\Generated_Source\PSoC4/ble_HAL_PVT.c **** * Function Name: CyBLE_Bless_LlRegWrite
 249:.\Generated_Source\PSoC4/ble_HAL_PVT.c **** ****************************************************************************//**
 250:.\Generated_Source\PSoC4/ble_HAL_PVT.c **** *
 251:.\Generated_Source\PSoC4/ble_HAL_PVT.c **** *  This API writes to the BLESS Link Layer register from the stack.
 252:.\Generated_Source\PSoC4/ble_HAL_PVT.c **** *
 253:.\Generated_Source\PSoC4/ble_HAL_PVT.c **** *  \param blessAddr: the pointer to the BLESS link layer address.
 254:.\Generated_Source\PSoC4/ble_HAL_PVT.c **** *  \param regValue: the pointer to the value to be written to the BLESS LL reg.
 255:.\Generated_Source\PSoC4/ble_HAL_PVT.c **** *
 256:.\Generated_Source\PSoC4/ble_HAL_PVT.c **** * \return
 257:.\Generated_Source\PSoC4/ble_HAL_PVT.c **** *  None
 258:.\Generated_Source\PSoC4/ble_HAL_PVT.c **** *
 259:.\Generated_Source\PSoC4/ble_HAL_PVT.c **** *******************************************************************************/
 260:.\Generated_Source\PSoC4/ble_HAL_PVT.c **** void CyBLE_Bless_LlRegWrite (reg32 *blessAddr, const uint16 regValue)
 261:.\Generated_Source\PSoC4/ble_HAL_PVT.c **** {
 289              		.loc 1 261 0
 290              		.cfi_startproc
 291              	.LVL37:
 262:.\Generated_Source\PSoC4/ble_HAL_PVT.c ****     CY_SET_REG32(blessAddr, regValue);
 292              		.loc 1 262 0
 293 0000 0160     		str	r1, [r0]
 263:.\Generated_Source\PSoC4/ble_HAL_PVT.c **** }
 294              		.loc 1 263 0
 295              		@ sp needed
 296 0002 7047     		bx	lr
 297              		.cfi_endproc
 298              	.LFE5:
 299              		.size	CyBLE_Bless_LlRegWrite, .-CyBLE_Bless_LlRegWrite
ARM GAS  C:\Users\Alan\AppData\Local\Temp\ccNH6wTE.s 			page 11


 300              		.section	.text.CyBLE_Bless_RfRegRead,"ax",%progbits
 301              		.align	2
 302              		.global	CyBLE_Bless_RfRegRead
 303              		.code	16
 304              		.thumb_func
 305              		.type	CyBLE_Bless_RfRegRead, %function
 306              	CyBLE_Bless_RfRegRead:
 307              	.LFB6:
 264:.\Generated_Source\PSoC4/ble_HAL_PVT.c **** 
 265:.\Generated_Source\PSoC4/ble_HAL_PVT.c **** 
 266:.\Generated_Source\PSoC4/ble_HAL_PVT.c **** /*******************************************************************************
 267:.\Generated_Source\PSoC4/ble_HAL_PVT.c **** * Function Name: CyBLE_Bless_RfRegRead
 268:.\Generated_Source\PSoC4/ble_HAL_PVT.c **** ****************************************************************************//**
 269:.\Generated_Source\PSoC4/ble_HAL_PVT.c **** *
 270:.\Generated_Source\PSoC4/ble_HAL_PVT.c **** *  This API reads the content of the BLESS RF register from the stack.
 271:.\Generated_Source\PSoC4/ble_HAL_PVT.c **** *
 272:.\Generated_Source\PSoC4/ble_HAL_PVT.c **** *  \param blessAddr: the pointer to BLESS RF register address.
 273:.\Generated_Source\PSoC4/ble_HAL_PVT.c **** *  \param regValue: the pointer to the buffer space to copy the read value.
 274:.\Generated_Source\PSoC4/ble_HAL_PVT.c **** *
 275:.\Generated_Source\PSoC4/ble_HAL_PVT.c **** * \return
 276:.\Generated_Source\PSoC4/ble_HAL_PVT.c **** *  None
 277:.\Generated_Source\PSoC4/ble_HAL_PVT.c **** *
 278:.\Generated_Source\PSoC4/ble_HAL_PVT.c **** *******************************************************************************/
 279:.\Generated_Source\PSoC4/ble_HAL_PVT.c **** void CyBLE_Bless_RfRegRead (const reg32 *blessAddr, uint16 *regValue)
 280:.\Generated_Source\PSoC4/ble_HAL_PVT.c **** {
 308              		.loc 1 280 0
 309              		.cfi_startproc
 310              	.LVL38:
 281:.\Generated_Source\PSoC4/ble_HAL_PVT.c ****     *regValue = (uint16)CY_GET_REG32(blessAddr);
 311              		.loc 1 281 0
 312 0000 0368     		ldr	r3, [r0]
 313 0002 0B80     		strh	r3, [r1]
 282:.\Generated_Source\PSoC4/ble_HAL_PVT.c **** }
 314              		.loc 1 282 0
 315              		@ sp needed
 316 0004 7047     		bx	lr
 317              		.cfi_endproc
 318              	.LFE6:
 319              		.size	CyBLE_Bless_RfRegRead, .-CyBLE_Bless_RfRegRead
 320 0006 C046     		.section	.text.CyBLE_Bless_RfRegWrite,"ax",%progbits
 321              		.align	2
 322              		.global	CyBLE_Bless_RfRegWrite
 323              		.code	16
 324              		.thumb_func
 325              		.type	CyBLE_Bless_RfRegWrite, %function
 326              	CyBLE_Bless_RfRegWrite:
 327              	.LFB7:
 283:.\Generated_Source\PSoC4/ble_HAL_PVT.c **** 
 284:.\Generated_Source\PSoC4/ble_HAL_PVT.c **** 
 285:.\Generated_Source\PSoC4/ble_HAL_PVT.c **** /*******************************************************************************
 286:.\Generated_Source\PSoC4/ble_HAL_PVT.c **** * Function Name: CyBLE_Bless_RfRegWrite
 287:.\Generated_Source\PSoC4/ble_HAL_PVT.c **** ****************************************************************************//**
 288:.\Generated_Source\PSoC4/ble_HAL_PVT.c **** *
 289:.\Generated_Source\PSoC4/ble_HAL_PVT.c **** *  This API writes to the BLESS RF register from the stack.
 290:.\Generated_Source\PSoC4/ble_HAL_PVT.c **** *
 291:.\Generated_Source\PSoC4/ble_HAL_PVT.c **** *  \param blessAddr: the pointer to the BLESS RF address.
 292:.\Generated_Source\PSoC4/ble_HAL_PVT.c **** *  \param regValue: the pointer to the value to be written to the BLESS RF reg.
ARM GAS  C:\Users\Alan\AppData\Local\Temp\ccNH6wTE.s 			page 12


 293:.\Generated_Source\PSoC4/ble_HAL_PVT.c **** *
 294:.\Generated_Source\PSoC4/ble_HAL_PVT.c **** * \return
 295:.\Generated_Source\PSoC4/ble_HAL_PVT.c **** *  None
 296:.\Generated_Source\PSoC4/ble_HAL_PVT.c **** *
 297:.\Generated_Source\PSoC4/ble_HAL_PVT.c **** *******************************************************************************/
 298:.\Generated_Source\PSoC4/ble_HAL_PVT.c **** void CyBLE_Bless_RfRegWrite (reg32 *blessAddr, const uint16 regValue)
 299:.\Generated_Source\PSoC4/ble_HAL_PVT.c **** {
 328              		.loc 1 299 0
 329              		.cfi_startproc
 330              	.LVL39:
 300:.\Generated_Source\PSoC4/ble_HAL_PVT.c ****      CY_SET_REG32(blessAddr, regValue);
 331              		.loc 1 300 0
 332 0000 0160     		str	r1, [r0]
 301:.\Generated_Source\PSoC4/ble_HAL_PVT.c **** }
 333              		.loc 1 301 0
 334              		@ sp needed
 335 0002 7047     		bx	lr
 336              		.cfi_endproc
 337              	.LFE7:
 338              		.size	CyBLE_Bless_RfRegWrite, .-CyBLE_Bless_RfRegWrite
 339              		.section	.text.CyBLE_BlessDeviceConfig,"ax",%progbits
 340              		.align	2
 341              		.global	CyBLE_BlessDeviceConfig
 342              		.code	16
 343              		.thumb_func
 344              		.type	CyBLE_BlessDeviceConfig, %function
 345              	CyBLE_BlessDeviceConfig:
 346              	.LFB8:
 302:.\Generated_Source\PSoC4/ble_HAL_PVT.c **** 
 303:.\Generated_Source\PSoC4/ble_HAL_PVT.c **** 
 304:.\Generated_Source\PSoC4/ble_HAL_PVT.c **** void CyBLE_BlessDeviceConfig(void)
 305:.\Generated_Source\PSoC4/ble_HAL_PVT.c **** {
 347              		.loc 1 305 0
 348              		.cfi_startproc
 306:.\Generated_Source\PSoC4/ble_HAL_PVT.c ****     uint32 trimRegValue;
 307:.\Generated_Source\PSoC4/ble_HAL_PVT.c ****     uint32 ldo;
 308:.\Generated_Source\PSoC4/ble_HAL_PVT.c **** 
 309:.\Generated_Source\PSoC4/ble_HAL_PVT.c ****     trimRegValue = ((uint32)CYBLE_SFLASH_BLESS_BB_BUMP2_HIGH_REG << 8u) | CYBLE_SFLASH_BLESS_BB_BUM
 349              		.loc 1 309 0
 350 0000 244B     		ldr	r3, .L38
 351 0002 1A78     		ldrb	r2, [r3]
 352 0004 1202     		lsl	r2, r2, #8
 353 0006 244B     		ldr	r3, .L38+4
 354 0008 1B78     		ldrb	r3, [r3]
 355 000a 1A43     		orr	r2, r3
 356              	.LVL40:
 310:.\Generated_Source\PSoC4/ble_HAL_PVT.c ****     ldo = ((uint32)CYBLE_SFLASH_BLESS_LDO_HIGH_REG << 8u) | CYBLE_SFLASH_BLESS_LDO_LOW_REG;
 357              		.loc 1 310 0
 358 000c 234B     		ldr	r3, .L38+8
 359 000e 1B78     		ldrb	r3, [r3]
 360 0010 1B02     		lsl	r3, r3, #8
 361 0012 2349     		ldr	r1, .L38+12
 362 0014 0978     		ldrb	r1, [r1]
 363 0016 0B43     		orr	r3, r1
 364              	.LVL41:
 311:.\Generated_Source\PSoC4/ble_HAL_PVT.c **** 
 312:.\Generated_Source\PSoC4/ble_HAL_PVT.c ****     if ((ldo == CYBLE_SFLASH_BLERD_LDO_REG_VAL1) && (trimRegValue == CYBLE_SFLASH_BLERD_BB_BUMP2_RE
ARM GAS  C:\Users\Alan\AppData\Local\Temp\ccNH6wTE.s 			page 13


 365              		.loc 1 312 0
 366 0018 2249     		ldr	r1, .L38+16
 367 001a 8B42     		cmp	r3, r1
 368 001c 01D1     		bne	.L27
 369              		.loc 1 312 0 is_stmt 0 discriminator 1
 370 001e 072A     		cmp	r2, #7
 371 0020 06D0     		beq	.L31
 372              	.L27:
 313:.\Generated_Source\PSoC4/ble_HAL_PVT.c ****     {
 314:.\Generated_Source\PSoC4/ble_HAL_PVT.c ****         ldo = CYBLE_BLERD_LDO_REG_VAL_FINAL;
 315:.\Generated_Source\PSoC4/ble_HAL_PVT.c ****         trimRegValue = CYBLE_BLERD_BB_BUMP2_REG_VAL_FINAL;
 316:.\Generated_Source\PSoC4/ble_HAL_PVT.c ****     }
 317:.\Generated_Source\PSoC4/ble_HAL_PVT.c ****     else if ((ldo == CYBLE_SFLASH_BLERD_LDO_REG_VAL2) && (trimRegValue == CYBLE_BLERD_BB_BUMP2_REG_
 373              		.loc 1 317 0 is_stmt 1
 374 0022 D421     		mov	r1, #212
 375 0024 0901     		lsl	r1, r1, #4
 376 0026 8B42     		cmp	r3, r1
 377 0028 06D1     		bne	.L28
 378              		.loc 1 317 0 is_stmt 0 discriminator 1
 379 002a 042A     		cmp	r2, #4
 380 002c 04D1     		bne	.L28
 381 002e 02E0     		b	.L32
 382              	.L31:
 314:.\Generated_Source\PSoC4/ble_HAL_PVT.c ****         trimRegValue = CYBLE_BLERD_BB_BUMP2_REG_VAL_FINAL;
 383              		.loc 1 314 0 is_stmt 1
 384 0030 1D4B     		ldr	r3, .L38+20
 385              	.LVL42:
 315:.\Generated_Source\PSoC4/ble_HAL_PVT.c ****     }
 386              		.loc 1 315 0
 387 0032 0422     		mov	r2, #4
 388              	.LVL43:
 389 0034 00E0     		b	.L28
 390              	.LVL44:
 391              	.L32:
 318:.\Generated_Source\PSoC4/ble_HAL_PVT.c ****     {
 319:.\Generated_Source\PSoC4/ble_HAL_PVT.c ****         ldo = CYBLE_BLERD_LDO_REG_VAL_FINAL;
 392              		.loc 1 319 0
 393 0036 1C4B     		ldr	r3, .L38+20
 394              	.LVL45:
 395              	.L28:
 320:.\Generated_Source\PSoC4/ble_HAL_PVT.c ****     }
 321:.\Generated_Source\PSoC4/ble_HAL_PVT.c ****     else
 322:.\Generated_Source\PSoC4/ble_HAL_PVT.c ****     {
 323:.\Generated_Source\PSoC4/ble_HAL_PVT.c ****     }
 324:.\Generated_Source\PSoC4/ble_HAL_PVT.c **** 
 325:.\Generated_Source\PSoC4/ble_HAL_PVT.c ****     CYBLE_BLE_BLERD_LDO_REG = ldo;
 396              		.loc 1 325 0
 397 0038 1C49     		ldr	r1, .L38+24
 398 003a 0B60     		str	r3, [r1]
 326:.\Generated_Source\PSoC4/ble_HAL_PVT.c ****     CYBLE_BLE_BLERD_BB_BUMP2_REG = trimRegValue;
 399              		.loc 1 326 0
 400 003c 1C4B     		ldr	r3, .L38+28
 401              	.LVL46:
 402 003e 1A60     		str	r2, [r3]
 403              	.LVL47:
 327:.\Generated_Source\PSoC4/ble_HAL_PVT.c **** 
 328:.\Generated_Source\PSoC4/ble_HAL_PVT.c ****     /* Edit only XTAL fast charge bit */
ARM GAS  C:\Users\Alan\AppData\Local\Temp\ccNH6wTE.s 			page 14


 329:.\Generated_Source\PSoC4/ble_HAL_PVT.c ****     trimRegValue = ((uint32)CYBLE_SFLASH_BLESS_BB_XO_HIGH_REG << 8u) | CYBLE_SFLASH_BLESS_BB_XO_LOW
 404              		.loc 1 329 0
 405 0040 1C4B     		ldr	r3, .L38+32
 406 0042 1B78     		ldrb	r3, [r3]
 407 0044 1B02     		lsl	r3, r3, #8
 408 0046 1C4A     		ldr	r2, .L38+36
 409              	.LVL48:
 410 0048 1278     		ldrb	r2, [r2]
 411 004a 1343     		orr	r3, r2
 412              	.LVL49:
 330:.\Generated_Source\PSoC4/ble_HAL_PVT.c **** 
 331:.\Generated_Source\PSoC4/ble_HAL_PVT.c ****     if ((trimRegValue == CYBLE_SFLASH_BLERD_BB_XO_REG_VAL1) || (trimRegValue == CYBLE_SFLASH_BLERD_
 413              		.loc 1 331 0
 414 004c 8022     		mov	r2, #128
 415 004e 9201     		lsl	r2, r2, #6
 416 0050 9342     		cmp	r3, r2
 417 0052 02D0     		beq	.L33
 418              		.loc 1 331 0 is_stmt 0 discriminator 1
 419 0054 002B     		cmp	r3, #0
 420 0056 02D0     		beq	.L34
 421 0058 02E0     		b	.L29
 422              	.L33:
 332:.\Generated_Source\PSoC4/ble_HAL_PVT.c ****     {
 333:.\Generated_Source\PSoC4/ble_HAL_PVT.c ****         trimRegValue = CYBLE_BLERD_BB_XO_REG_VAL_FINAL;
 423              		.loc 1 333 0 is_stmt 1
 424 005a 184B     		ldr	r3, .L38+40
 425              	.LVL50:
 426 005c 00E0     		b	.L29
 427              	.LVL51:
 428              	.L34:
 429 005e 174B     		ldr	r3, .L38+40
 430              	.LVL52:
 431              	.L29:
 334:.\Generated_Source\PSoC4/ble_HAL_PVT.c ****     }
 335:.\Generated_Source\PSoC4/ble_HAL_PVT.c ****     
 336:.\Generated_Source\PSoC4/ble_HAL_PVT.c ****     CYBLE_BLE_BLERD_BB_XO_REG = trimRegValue;
 432              		.loc 1 336 0
 433 0060 174A     		ldr	r2, .L38+44
 434 0062 1360     		str	r3, [r2]
 337:.\Generated_Source\PSoC4/ble_HAL_PVT.c ****     
 338:.\Generated_Source\PSoC4/ble_HAL_PVT.c ****     trimRegValue = ((uint32)CYBLE_SFLASH_BLESS_SY_BUMP1_HIGH_REG << 8u) | CYBLE_SFLASH_BLESS_SY_BUM
 435              		.loc 1 338 0
 436 0064 174B     		ldr	r3, .L38+48
 437              	.LVL53:
 438 0066 1B78     		ldrb	r3, [r3]
 439 0068 1B02     		lsl	r3, r3, #8
 440 006a 174A     		ldr	r2, .L38+52
 441              	.LVL54:
 442 006c 1278     		ldrb	r2, [r2]
 443 006e 1343     		orr	r3, r2
 444              	.LVL55:
 339:.\Generated_Source\PSoC4/ble_HAL_PVT.c **** 
 340:.\Generated_Source\PSoC4/ble_HAL_PVT.c ****     if ((trimRegValue == CYBLE_SFLASH_BLERD_SY_BUMP1_REG_VAL1) || 
 445              		.loc 1 340 0
 446 0070 164A     		ldr	r2, .L38+56
 447 0072 9342     		cmp	r3, r2
 448 0074 05D0     		beq	.L35
ARM GAS  C:\Users\Alan\AppData\Local\Temp\ccNH6wTE.s 			page 15


 449              		.loc 1 340 0 is_stmt 0 discriminator 1
 450 0076 164A     		ldr	r2, .L38+60
 451 0078 9342     		cmp	r3, r2
 452 007a 04D0     		beq	.L36
 341:.\Generated_Source\PSoC4/ble_HAL_PVT.c ****         (trimRegValue == CYBLE_SFLASH_BLERD_SY_BUMP1_REG_VAL2) ||  
 453              		.loc 1 341 0 is_stmt 1
 454 007c 052B     		cmp	r3, #5
 455 007e 05D1     		bne	.L30
 456 0080 03E0     		b	.L37
 457              	.L35:
 342:.\Generated_Source\PSoC4/ble_HAL_PVT.c ****         (trimRegValue == CYBLE_SFLASH_BLERD_SY_BUMP1_REG_VAL3))
 343:.\Generated_Source\PSoC4/ble_HAL_PVT.c ****     {
 344:.\Generated_Source\PSoC4/ble_HAL_PVT.c ****         trimRegValue = CYBLE_BLERD_SY_BUMP1_REG_VAL_FINAL;
 458              		.loc 1 344 0
 459 0082 144B     		ldr	r3, .L38+64
 460              	.LVL56:
 461 0084 02E0     		b	.L30
 462              	.LVL57:
 463              	.L36:
 464 0086 134B     		ldr	r3, .L38+64
 465              	.LVL58:
 466 0088 00E0     		b	.L30
 467              	.LVL59:
 468              	.L37:
 469 008a 124B     		ldr	r3, .L38+64
 470              	.LVL60:
 471              	.L30:
 345:.\Generated_Source\PSoC4/ble_HAL_PVT.c ****     }
 346:.\Generated_Source\PSoC4/ble_HAL_PVT.c ****     CYBLE_BLE_BLERD_SY_BUMP1_REG = trimRegValue;
 472              		.loc 1 346 0
 473 008c 124A     		ldr	r2, .L38+68
 474 008e 1360     		str	r3, [r2]
 347:.\Generated_Source\PSoC4/ble_HAL_PVT.c ****       
 348:.\Generated_Source\PSoC4/ble_HAL_PVT.c **** }
 475              		.loc 1 348 0
 476              		@ sp needed
 477 0090 7047     		bx	lr
 478              	.L39:
 479 0092 C046     		.align	2
 480              	.L38:
 481 0094 D9F0FF0F 		.word	268431577
 482 0098 D8F0FF0F 		.word	268431576
 483 009c DFF0FF0F 		.word	268431583
 484 00a0 DEF0FF0F 		.word	268431582
 485 00a4 580B0000 		.word	2904
 486 00a8 580D0000 		.word	3416
 487 00ac 6C002E40 		.word	1076756588
 488 00b0 74002E40 		.word	1076756596
 489 00b4 DBF0FF0F 		.word	268431579
 490 00b8 DAF0FF0F 		.word	268431578
 491 00bc 02200000 		.word	8194
 492 00c0 78002E40 		.word	1076756600
 493 00c4 DDF0FF0F 		.word	268431581
 494 00c8 DCF0FF0F 		.word	268431580
 495 00cc 0F0F0000 		.word	3855
 496 00d0 05050000 		.word	1285
 497 00d4 050F0000 		.word	3845
ARM GAS  C:\Users\Alan\AppData\Local\Temp\ccNH6wTE.s 			page 16


 498 00d8 80002E40 		.word	1076756608
 499              		.cfi_endproc
 500              	.LFE8:
 501              		.size	CyBLE_BlessDeviceConfig, .-CyBLE_BlessDeviceConfig
 502              		.section	.text.CyBleHal_DelayUs,"ax",%progbits
 503              		.align	2
 504              		.global	CyBleHal_DelayUs
 505              		.code	16
 506              		.thumb_func
 507              		.type	CyBleHal_DelayUs, %function
 508              	CyBleHal_DelayUs:
 509              	.LFB9:
 349:.\Generated_Source\PSoC4/ble_HAL_PVT.c **** 
 350:.\Generated_Source\PSoC4/ble_HAL_PVT.c **** 
 351:.\Generated_Source\PSoC4/ble_HAL_PVT.c **** void CyBleHal_DelayUs(uint16 delayVal)
 352:.\Generated_Source\PSoC4/ble_HAL_PVT.c **** {
 510              		.loc 1 352 0
 511              		.cfi_startproc
 512              	.LVL61:
 513 0000 08B5     		push	{r3, lr}
 514              		.cfi_def_cfa_offset 8
 515              		.cfi_offset 3, -8
 516              		.cfi_offset 14, -4
 353:.\Generated_Source\PSoC4/ble_HAL_PVT.c ****     CyDelayUs(delayVal);
 517              		.loc 1 353 0
 518 0002 FFF7FEFF 		bl	CyDelayUs
 519              	.LVL62:
 354:.\Generated_Source\PSoC4/ble_HAL_PVT.c **** }
 520              		.loc 1 354 0
 521              		@ sp needed
 522 0006 08BD     		pop	{r3, pc}
 523              		.cfi_endproc
 524              	.LFE9:
 525              		.size	CyBleHal_DelayUs, .-CyBleHal_DelayUs
 526              		.section	.text.CyBleHal_DelayMs,"ax",%progbits
 527              		.align	2
 528              		.global	CyBleHal_DelayMs
 529              		.code	16
 530              		.thumb_func
 531              		.type	CyBleHal_DelayMs, %function
 532              	CyBleHal_DelayMs:
 533              	.LFB10:
 355:.\Generated_Source\PSoC4/ble_HAL_PVT.c **** 
 356:.\Generated_Source\PSoC4/ble_HAL_PVT.c **** void CyBleHal_DelayMs(uint32 delayVal)
 357:.\Generated_Source\PSoC4/ble_HAL_PVT.c **** {
 534              		.loc 1 357 0
 535              		.cfi_startproc
 536              	.LVL63:
 537 0000 08B5     		push	{r3, lr}
 538              		.cfi_def_cfa_offset 8
 539              		.cfi_offset 3, -8
 540              		.cfi_offset 14, -4
 358:.\Generated_Source\PSoC4/ble_HAL_PVT.c ****     CyDelay(delayVal);
 541              		.loc 1 358 0
 542 0002 FFF7FEFF 		bl	CyDelay
 543              	.LVL64:
 359:.\Generated_Source\PSoC4/ble_HAL_PVT.c **** }
ARM GAS  C:\Users\Alan\AppData\Local\Temp\ccNH6wTE.s 			page 17


 544              		.loc 1 359 0
 545              		@ sp needed
 546 0006 08BD     		pop	{r3, pc}
 547              		.cfi_endproc
 548              	.LFE10:
 549              		.size	CyBleHal_DelayMs, .-CyBleHal_DelayMs
 550              		.section	.text.CyBleHal_EnableGlobalInterrupts,"ax",%progbits
 551              		.align	2
 552              		.global	CyBleHal_EnableGlobalInterrupts
 553              		.code	16
 554              		.thumb_func
 555              		.type	CyBleHal_EnableGlobalInterrupts, %function
 556              	CyBleHal_EnableGlobalInterrupts:
 557              	.LFB11:
 360:.\Generated_Source\PSoC4/ble_HAL_PVT.c **** 
 361:.\Generated_Source\PSoC4/ble_HAL_PVT.c **** void CyBleHal_EnableGlobalInterrupts(void)
 362:.\Generated_Source\PSoC4/ble_HAL_PVT.c **** {
 558              		.loc 1 362 0
 559              		.cfi_startproc
 560 0000 08B5     		push	{r3, lr}
 561              		.cfi_def_cfa_offset 8
 562              		.cfi_offset 3, -8
 563              		.cfi_offset 14, -4
 363:.\Generated_Source\PSoC4/ble_HAL_PVT.c ****     ble_bless_isr_Enable();
 564              		.loc 1 363 0
 565 0002 FFF7FEFF 		bl	ble_bless_isr_Enable
 566              	.LVL65:
 364:.\Generated_Source\PSoC4/ble_HAL_PVT.c **** }
 567              		.loc 1 364 0
 568              		@ sp needed
 569 0006 08BD     		pop	{r3, pc}
 570              		.cfi_endproc
 571              	.LFE11:
 572              		.size	CyBleHal_EnableGlobalInterrupts, .-CyBleHal_EnableGlobalInterrupts
 573              		.section	.text.CyBleHal_DisableGlobalInterrupts,"ax",%progbits
 574              		.align	2
 575              		.global	CyBleHal_DisableGlobalInterrupts
 576              		.code	16
 577              		.thumb_func
 578              		.type	CyBleHal_DisableGlobalInterrupts, %function
 579              	CyBleHal_DisableGlobalInterrupts:
 580              	.LFB12:
 365:.\Generated_Source\PSoC4/ble_HAL_PVT.c **** 
 366:.\Generated_Source\PSoC4/ble_HAL_PVT.c **** void CyBleHal_DisableGlobalInterrupts(void)
 367:.\Generated_Source\PSoC4/ble_HAL_PVT.c **** {
 581              		.loc 1 367 0
 582              		.cfi_startproc
 583 0000 08B5     		push	{r3, lr}
 584              		.cfi_def_cfa_offset 8
 585              		.cfi_offset 3, -8
 586              		.cfi_offset 14, -4
 368:.\Generated_Source\PSoC4/ble_HAL_PVT.c ****     ble_bless_isr_Disable();
 587              		.loc 1 368 0
 588 0002 FFF7FEFF 		bl	ble_bless_isr_Disable
 589              	.LVL66:
 369:.\Generated_Source\PSoC4/ble_HAL_PVT.c **** }
 590              		.loc 1 369 0
ARM GAS  C:\Users\Alan\AppData\Local\Temp\ccNH6wTE.s 			page 18


 591              		@ sp needed
 592 0006 08BD     		pop	{r3, pc}
 593              		.cfi_endproc
 594              	.LFE12:
 595              		.size	CyBleHal_DisableGlobalInterrupts, .-CyBleHal_DisableGlobalInterrupts
 596              		.section	.text.CyBle_HalInit,"ax",%progbits
 597              		.align	2
 598              		.global	CyBle_HalInit
 599              		.code	16
 600              		.thumb_func
 601              		.type	CyBle_HalInit, %function
 602              	CyBle_HalInit:
 603              	.LFB13:
 370:.\Generated_Source\PSoC4/ble_HAL_PVT.c **** 
 371:.\Generated_Source\PSoC4/ble_HAL_PVT.c **** void CyBle_HalInit(void)
 372:.\Generated_Source\PSoC4/ble_HAL_PVT.c **** {
 604              		.loc 1 372 0
 605              		.cfi_startproc
 606 0000 08B5     		push	{r3, lr}
 607              		.cfi_def_cfa_offset 8
 608              		.cfi_offset 3, -8
 609              		.cfi_offset 14, -4
 373:.\Generated_Source\PSoC4/ble_HAL_PVT.c ****     /* For all we know the interrupt is active. */
 374:.\Generated_Source\PSoC4/ble_HAL_PVT.c ****     ble_bless_isr_Disable();
 610              		.loc 1 374 0
 611 0002 FFF7FEFF 		bl	ble_bless_isr_Disable
 612              	.LVL67:
 375:.\Generated_Source\PSoC4/ble_HAL_PVT.c **** 
 376:.\Generated_Source\PSoC4/ble_HAL_PVT.c ****     /* Set the ISR to point to the BLE_bless_isr Interrupt. */
 377:.\Generated_Source\PSoC4/ble_HAL_PVT.c ****     ble_bless_isr_SetVector(&CyBLE_Bless_Interrupt);
 613              		.loc 1 377 0
 614 0006 0348     		ldr	r0, .L45
 615 0008 FFF7FEFF 		bl	ble_bless_isr_SetVector
 616              	.LVL68:
 378:.\Generated_Source\PSoC4/ble_HAL_PVT.c **** 
 379:.\Generated_Source\PSoC4/ble_HAL_PVT.c ****     /* Set the priority. */
 380:.\Generated_Source\PSoC4/ble_HAL_PVT.c ****     ble_bless_isr_SetPriority((uint8)ble_bless_isr_INTC_PRIOR_NUMBER);
 617              		.loc 1 380 0
 618 000c 0320     		mov	r0, #3
 619 000e FFF7FEFF 		bl	ble_bless_isr_SetPriority
 620              	.LVL69:
 381:.\Generated_Source\PSoC4/ble_HAL_PVT.c **** }
 621              		.loc 1 381 0
 622              		@ sp needed
 623 0012 08BD     		pop	{r3, pc}
 624              	.L46:
 625              		.align	2
 626              	.L45:
 627 0014 00000000 		.word	CyBLE_Bless_Interrupt
 628              		.cfi_endproc
 629              	.LFE13:
 630              		.size	CyBle_HalInit, .-CyBle_HalInit
 631              		.section	.text.CYBLE_BlessStart,"ax",%progbits
 632              		.align	2
 633              		.global	CYBLE_BlessStart
 634              		.code	16
 635              		.thumb_func
ARM GAS  C:\Users\Alan\AppData\Local\Temp\ccNH6wTE.s 			page 19


 636              		.type	CYBLE_BlessStart, %function
 637              	CYBLE_BlessStart:
 638              	.LFB14:
 382:.\Generated_Source\PSoC4/ble_HAL_PVT.c **** 
 383:.\Generated_Source\PSoC4/ble_HAL_PVT.c **** /* Start Interrupt Controller API. */
 384:.\Generated_Source\PSoC4/ble_HAL_PVT.c **** void CYBLE_BlessStart(void)
 385:.\Generated_Source\PSoC4/ble_HAL_PVT.c **** {
 639              		.loc 1 385 0
 640              		.cfi_startproc
 641 0000 08B5     		push	{r3, lr}
 642              		.cfi_def_cfa_offset 8
 643              		.cfi_offset 3, -8
 644              		.cfi_offset 14, -4
 386:.\Generated_Source\PSoC4/ble_HAL_PVT.c ****     ble_bless_isr_StartEx(&CyBLE_Bless_Interrupt);
 645              		.loc 1 386 0
 646 0002 0248     		ldr	r0, .L48
 647 0004 FFF7FEFF 		bl	ble_bless_isr_StartEx
 648              	.LVL70:
 387:.\Generated_Source\PSoC4/ble_HAL_PVT.c **** }
 649              		.loc 1 387 0
 650              		@ sp needed
 651 0008 08BD     		pop	{r3, pc}
 652              	.L49:
 653 000a C046     		.align	2
 654              	.L48:
 655 000c 00000000 		.word	CyBLE_Bless_Interrupt
 656              		.cfi_endproc
 657              	.LFE14:
 658              		.size	CYBLE_BlessStart, .-CYBLE_BlessStart
 659              		.text
 660              	.Letext0:
 661              		.file 2 ".\\Generated_Source\\PSoC4\\cytypes.h"
 662              		.file 3 ".\\Generated_Source\\PSoC4\\CyLib.h"
 663              		.file 4 ".\\Generated_Source\\PSoC4\\ble_bless_isr.h"
 664              		.file 5 ".\\Generated_Source\\PSoC4\\CyFlash.h"