ARM GAS  C:\Users\Alan\AppData\Local\Temp\cccxLanG.s 			page 1


   1              		.cpu cortex-m0
   2              		.fpu softvfp
   3              		.eabi_attribute 20, 1
   4              		.eabi_attribute 21, 1
   5              		.eabi_attribute 23, 3
   6              		.eabi_attribute 24, 1
   7              		.eabi_attribute 25, 1
   8              		.eabi_attribute 26, 1
   9              		.eabi_attribute 30, 1
  10              		.eabi_attribute 34, 0
  11              		.eabi_attribute 18, 4
  12              		.code	16
  13              		.file	"capsense_PM.c"
  14              		.text
  15              	.Ltext0:
  16              		.cfi_sections	.debug_frame
  17              		.section	.text.capsense_SaveConfig,"ax",%progbits
  18              		.align	2
  19              		.global	capsense_SaveConfig
  20              		.code	16
  21              		.thumb_func
  22              		.type	capsense_SaveConfig, %function
  23              	capsense_SaveConfig:
  24              	.LFB35:
  25              		.file 1 ".\\Generated_Source\\PSoC4\\capsense_PM.c"
   1:.\Generated_Source\PSoC4/capsense_PM.c **** /*******************************************************************************
   2:.\Generated_Source\PSoC4/capsense_PM.c **** * File Name: capsense_PM.c
   3:.\Generated_Source\PSoC4/capsense_PM.c **** * Version 2.30
   4:.\Generated_Source\PSoC4/capsense_PM.c **** *
   5:.\Generated_Source\PSoC4/capsense_PM.c **** * Description:
   6:.\Generated_Source\PSoC4/capsense_PM.c **** *  This file provides Sleep APIs for CapSense CSD Component.
   7:.\Generated_Source\PSoC4/capsense_PM.c **** *
   8:.\Generated_Source\PSoC4/capsense_PM.c **** * Note:
   9:.\Generated_Source\PSoC4/capsense_PM.c **** *
  10:.\Generated_Source\PSoC4/capsense_PM.c **** ********************************************************************************
  11:.\Generated_Source\PSoC4/capsense_PM.c **** * Copyright 2013-2015, Cypress Semiconductor Corporation.  All rights reserved.
  12:.\Generated_Source\PSoC4/capsense_PM.c **** * You may use this file only in accordance with the license, terms, conditions,
  13:.\Generated_Source\PSoC4/capsense_PM.c **** * disclaimers, and limitations in the end user license agreement accompanying
  14:.\Generated_Source\PSoC4/capsense_PM.c **** * the software package with which this file was provided.
  15:.\Generated_Source\PSoC4/capsense_PM.c **** *******************************************************************************/
  16:.\Generated_Source\PSoC4/capsense_PM.c **** 
  17:.\Generated_Source\PSoC4/capsense_PM.c **** #include "capsense.h"
  18:.\Generated_Source\PSoC4/capsense_PM.c **** 
  19:.\Generated_Source\PSoC4/capsense_PM.c **** static capsense_BACKUP_STRUCT capsense_backup =
  20:.\Generated_Source\PSoC4/capsense_PM.c **** {
  21:.\Generated_Source\PSoC4/capsense_PM.c ****     0x00u, /* enableState; */
  22:.\Generated_Source\PSoC4/capsense_PM.c **** };
  23:.\Generated_Source\PSoC4/capsense_PM.c **** 
  24:.\Generated_Source\PSoC4/capsense_PM.c **** 
  25:.\Generated_Source\PSoC4/capsense_PM.c **** /*******************************************************************************
  26:.\Generated_Source\PSoC4/capsense_PM.c **** * Function Name: capsense_SaveConfig
  27:.\Generated_Source\PSoC4/capsense_PM.c **** ********************************************************************************
  28:.\Generated_Source\PSoC4/capsense_PM.c **** *
  29:.\Generated_Source\PSoC4/capsense_PM.c **** * Summary:
  30:.\Generated_Source\PSoC4/capsense_PM.c **** *  Saves the customer configuration of CapSense.
  31:.\Generated_Source\PSoC4/capsense_PM.c **** *
  32:.\Generated_Source\PSoC4/capsense_PM.c **** * Parameters:
ARM GAS  C:\Users\Alan\AppData\Local\Temp\cccxLanG.s 			page 2


  33:.\Generated_Source\PSoC4/capsense_PM.c **** *  None
  34:.\Generated_Source\PSoC4/capsense_PM.c **** *
  35:.\Generated_Source\PSoC4/capsense_PM.c **** * Return:
  36:.\Generated_Source\PSoC4/capsense_PM.c **** *  None
  37:.\Generated_Source\PSoC4/capsense_PM.c **** *
  38:.\Generated_Source\PSoC4/capsense_PM.c **** * Global Variables:
  39:.\Generated_Source\PSoC4/capsense_PM.c **** *  capsense_backup - used to save the component state before entering the  sleep
  40:.\Generated_Source\PSoC4/capsense_PM.c **** *  mode and none-retention registers.
  41:.\Generated_Source\PSoC4/capsense_PM.c **** *
  42:.\Generated_Source\PSoC4/capsense_PM.c **** * Side Effects:
  43:.\Generated_Source\PSoC4/capsense_PM.c **** *  None
  44:.\Generated_Source\PSoC4/capsense_PM.c **** *
  45:.\Generated_Source\PSoC4/capsense_PM.c **** *******************************************************************************/
  46:.\Generated_Source\PSoC4/capsense_PM.c **** void capsense_SaveConfig(void)
  47:.\Generated_Source\PSoC4/capsense_PM.c **** {
  26              		.loc 1 47 0
  27              		.cfi_startproc
  48:.\Generated_Source\PSoC4/capsense_PM.c ****     if ((capsense_CSD_CFG_REG & capsense_CSD_CFG_ENABLE) != 0u)
  28              		.loc 1 48 0
  29 0000 034B     		ldr	r3, .L3
  30 0002 1B68     		ldr	r3, [r3]
  31 0004 002B     		cmp	r3, #0
  32 0006 02DA     		bge	.L1
  49:.\Generated_Source\PSoC4/capsense_PM.c ****     {
  50:.\Generated_Source\PSoC4/capsense_PM.c ****         capsense_backup.enableState = 1u;
  33              		.loc 1 50 0
  34 0008 0122     		mov	r2, #1
  35 000a 024B     		ldr	r3, .L3+4
  36 000c 1A70     		strb	r2, [r3]
  37              	.L1:
  51:.\Generated_Source\PSoC4/capsense_PM.c ****     }
  52:.\Generated_Source\PSoC4/capsense_PM.c **** }
  38              		.loc 1 52 0
  39              		@ sp needed
  40 000e 7047     		bx	lr
  41              	.L4:
  42              		.align	2
  43              	.L3:
  44 0010 04002840 		.word	1076363268
  45 0014 00000000 		.word	.LANCHOR0
  46              		.cfi_endproc
  47              	.LFE35:
  48              		.size	capsense_SaveConfig, .-capsense_SaveConfig
  49              		.section	.text.capsense_Sleep,"ax",%progbits
  50              		.align	2
  51              		.global	capsense_Sleep
  52              		.code	16
  53              		.thumb_func
  54              		.type	capsense_Sleep, %function
  55              	capsense_Sleep:
  56              	.LFB36:
  53:.\Generated_Source\PSoC4/capsense_PM.c **** 
  54:.\Generated_Source\PSoC4/capsense_PM.c **** 
  55:.\Generated_Source\PSoC4/capsense_PM.c **** /*******************************************************************************
  56:.\Generated_Source\PSoC4/capsense_PM.c **** * Function Name: capsense_Sleep
  57:.\Generated_Source\PSoC4/capsense_PM.c **** ********************************************************************************
  58:.\Generated_Source\PSoC4/capsense_PM.c **** *
ARM GAS  C:\Users\Alan\AppData\Local\Temp\cccxLanG.s 			page 3


  59:.\Generated_Source\PSoC4/capsense_PM.c **** * Summary:
  60:.\Generated_Source\PSoC4/capsense_PM.c **** *  Disables the Active mode power.
  61:.\Generated_Source\PSoC4/capsense_PM.c **** *
  62:.\Generated_Source\PSoC4/capsense_PM.c **** * Parameters:
  63:.\Generated_Source\PSoC4/capsense_PM.c **** *  None
  64:.\Generated_Source\PSoC4/capsense_PM.c **** *
  65:.\Generated_Source\PSoC4/capsense_PM.c **** * Return:
  66:.\Generated_Source\PSoC4/capsense_PM.c **** *  None
  67:.\Generated_Source\PSoC4/capsense_PM.c **** *
  68:.\Generated_Source\PSoC4/capsense_PM.c **** * Global Variables:
  69:.\Generated_Source\PSoC4/capsense_PM.c **** *  capsense_backup - used to save the component state before entering the sleep
  70:.\Generated_Source\PSoC4/capsense_PM.c **** *  mode.
  71:.\Generated_Source\PSoC4/capsense_PM.c **** *
  72:.\Generated_Source\PSoC4/capsense_PM.c **** *******************************************************************************/
  73:.\Generated_Source\PSoC4/capsense_PM.c **** void capsense_Sleep(void)
  74:.\Generated_Source\PSoC4/capsense_PM.c **** {
  57              		.loc 1 74 0
  58              		.cfi_startproc
  59 0000 08B5     		push	{r3, lr}
  60              		.cfi_def_cfa_offset 8
  61              		.cfi_offset 3, -8
  62              		.cfi_offset 14, -4
  75:.\Generated_Source\PSoC4/capsense_PM.c ****     capsense_SaveConfig();
  63              		.loc 1 75 0
  64 0002 FFF7FEFF 		bl	capsense_SaveConfig
  65              	.LVL0:
  76:.\Generated_Source\PSoC4/capsense_PM.c **** 
  77:.\Generated_Source\PSoC4/capsense_PM.c ****     /* Disable interrupt */
  78:.\Generated_Source\PSoC4/capsense_PM.c ****     CyIntDisable(capsense_ISR_NUMBER);
  66              		.loc 1 78 0
  67 0006 1020     		mov	r0, #16
  68 0008 FFF7FEFF 		bl	CyIntDisable
  69              	.LVL1:
  79:.\Generated_Source\PSoC4/capsense_PM.c **** 
  80:.\Generated_Source\PSoC4/capsense_PM.c ****     capsense_CSD_CFG_REG &= ~(capsense_CSD_CFG_SENSE_COMP_EN | capsense_CSD_CFG_SENSE_EN);
  70              		.loc 1 80 0
  71 000c 064A     		ldr	r2, .L6
  72 000e 1168     		ldr	r1, [r2]
  73 0010 064B     		ldr	r3, .L6+4
  74 0012 0B40     		and	r3, r1
  75 0014 1360     		str	r3, [r2]
  81:.\Generated_Source\PSoC4/capsense_PM.c **** 
  82:.\Generated_Source\PSoC4/capsense_PM.c ****     #if(capsense_IDAC_CNT == 2u)
  83:.\Generated_Source\PSoC4/capsense_PM.c ****         capsense_CSD_CFG_REG &= ~(capsense_CSD_CFG_ENABLE);
  76              		.loc 1 83 0
  77 0016 1368     		ldr	r3, [r2]
  78 0018 5B00     		lsl	r3, r3, #1
  79 001a 5B08     		lsr	r3, r3, #1
  80 001c 1360     		str	r3, [r2]
  84:.\Generated_Source\PSoC4/capsense_PM.c ****     #endif /* (capsense_IDAC_CNT == 2u) */
  85:.\Generated_Source\PSoC4/capsense_PM.c **** 
  86:.\Generated_Source\PSoC4/capsense_PM.c ****     /* Disable Clocks */
  87:.\Generated_Source\PSoC4/capsense_PM.c ****     capsense_SenseClk_Stop();
  81              		.loc 1 87 0
  82 001e FFF7FEFF 		bl	capsense_SenseClk_Stop
  83              	.LVL2:
  88:.\Generated_Source\PSoC4/capsense_PM.c ****     capsense_SampleClk_Stop();
ARM GAS  C:\Users\Alan\AppData\Local\Temp\cccxLanG.s 			page 4


  84              		.loc 1 88 0
  85 0022 FFF7FEFF 		bl	capsense_SampleClk_Stop
  86              	.LVL3:
  89:.\Generated_Source\PSoC4/capsense_PM.c **** }
  87              		.loc 1 89 0
  88              		@ sp needed
  89 0026 08BD     		pop	{r3, pc}
  90              	.L7:
  91              		.align	2
  92              	.L6:
  93 0028 04002840 		.word	1076363268
  94 002c FFEFF7FF 		.word	-528385
  95              		.cfi_endproc
  96              	.LFE36:
  97              		.size	capsense_Sleep, .-capsense_Sleep
  98              		.section	.text.capsense_RestoreConfig,"ax",%progbits
  99              		.align	2
 100              		.global	capsense_RestoreConfig
 101              		.code	16
 102              		.thumb_func
 103              		.type	capsense_RestoreConfig, %function
 104              	capsense_RestoreConfig:
 105              	.LFB37:
  90:.\Generated_Source\PSoC4/capsense_PM.c **** 
  91:.\Generated_Source\PSoC4/capsense_PM.c **** 
  92:.\Generated_Source\PSoC4/capsense_PM.c **** /*******************************************************************************
  93:.\Generated_Source\PSoC4/capsense_PM.c **** * Function Name: capsense_RestoreConfig
  94:.\Generated_Source\PSoC4/capsense_PM.c **** ********************************************************************************
  95:.\Generated_Source\PSoC4/capsense_PM.c **** *
  96:.\Generated_Source\PSoC4/capsense_PM.c **** * Summary:
  97:.\Generated_Source\PSoC4/capsense_PM.c **** *  Restores the CapSense configuration.
  98:.\Generated_Source\PSoC4/capsense_PM.c **** *
  99:.\Generated_Source\PSoC4/capsense_PM.c **** * Parameters:
 100:.\Generated_Source\PSoC4/capsense_PM.c **** *  None
 101:.\Generated_Source\PSoC4/capsense_PM.c **** *
 102:.\Generated_Source\PSoC4/capsense_PM.c **** * Return:
 103:.\Generated_Source\PSoC4/capsense_PM.c **** *  None
 104:.\Generated_Source\PSoC4/capsense_PM.c **** *
 105:.\Generated_Source\PSoC4/capsense_PM.c **** * Side Effects:
 106:.\Generated_Source\PSoC4/capsense_PM.c **** *  Must be called only after capsense_SaveConfig() routine. Otherwise
 107:.\Generated_Source\PSoC4/capsense_PM.c **** *  the component configuration will be overwritten with its initial setting.
 108:.\Generated_Source\PSoC4/capsense_PM.c **** *
 109:.\Generated_Source\PSoC4/capsense_PM.c **** * Global Variables:
 110:.\Generated_Source\PSoC4/capsense_PM.c **** *  capsense_backup - used to save the component state before entering the sleep
 111:.\Generated_Source\PSoC4/capsense_PM.c **** *  mode and none-retention registers.
 112:.\Generated_Source\PSoC4/capsense_PM.c **** *
 113:.\Generated_Source\PSoC4/capsense_PM.c **** *******************************************************************************/
 114:.\Generated_Source\PSoC4/capsense_PM.c **** void capsense_RestoreConfig(void)
 115:.\Generated_Source\PSoC4/capsense_PM.c **** {
 106              		.loc 1 115 0
 107              		.cfi_startproc
 116:.\Generated_Source\PSoC4/capsense_PM.c **** 
 117:.\Generated_Source\PSoC4/capsense_PM.c **** }
 108              		.loc 1 117 0
 109              		@ sp needed
 110 0000 7047     		bx	lr
 111              		.cfi_endproc
ARM GAS  C:\Users\Alan\AppData\Local\Temp\cccxLanG.s 			page 5


 112              	.LFE37:
 113              		.size	capsense_RestoreConfig, .-capsense_RestoreConfig
 114 0002 C046     		.section	.text.capsense_Wakeup,"ax",%progbits
 115              		.align	2
 116              		.global	capsense_Wakeup
 117              		.code	16
 118              		.thumb_func
 119              		.type	capsense_Wakeup, %function
 120              	capsense_Wakeup:
 121              	.LFB38:
 118:.\Generated_Source\PSoC4/capsense_PM.c **** 
 119:.\Generated_Source\PSoC4/capsense_PM.c **** 
 120:.\Generated_Source\PSoC4/capsense_PM.c **** /*******************************************************************************
 121:.\Generated_Source\PSoC4/capsense_PM.c **** * Function Name: capsense_Wakeup
 122:.\Generated_Source\PSoC4/capsense_PM.c **** ********************************************************************************
 123:.\Generated_Source\PSoC4/capsense_PM.c **** *
 124:.\Generated_Source\PSoC4/capsense_PM.c **** * Summary:
 125:.\Generated_Source\PSoC4/capsense_PM.c **** *  Restores the CapSense configuration and non-retention register values.
 126:.\Generated_Source\PSoC4/capsense_PM.c **** *  Restores the enabled state of the component by setting the Active mode power template
 127:.\Generated_Source\PSoC4/capsense_PM.c **** *  bits for a number of components used within CapSense.
 128:.\Generated_Source\PSoC4/capsense_PM.c **** *
 129:.\Generated_Source\PSoC4/capsense_PM.c **** * Parameters:
 130:.\Generated_Source\PSoC4/capsense_PM.c **** *  None
 131:.\Generated_Source\PSoC4/capsense_PM.c **** *
 132:.\Generated_Source\PSoC4/capsense_PM.c **** * Return:
 133:.\Generated_Source\PSoC4/capsense_PM.c **** *  None
 134:.\Generated_Source\PSoC4/capsense_PM.c **** *
 135:.\Generated_Source\PSoC4/capsense_PM.c **** * Global Variables:
 136:.\Generated_Source\PSoC4/capsense_PM.c **** *  capsense_backup - used to save the component state before entering the sleep
 137:.\Generated_Source\PSoC4/capsense_PM.c **** *  mode and none-retention registers.
 138:.\Generated_Source\PSoC4/capsense_PM.c **** *
 139:.\Generated_Source\PSoC4/capsense_PM.c **** *******************************************************************************/
 140:.\Generated_Source\PSoC4/capsense_PM.c **** void capsense_Wakeup(void)
 141:.\Generated_Source\PSoC4/capsense_PM.c **** {
 122              		.loc 1 141 0
 123              		.cfi_startproc
 124 0000 08B5     		push	{r3, lr}
 125              		.cfi_def_cfa_offset 8
 126              		.cfi_offset 3, -8
 127              		.cfi_offset 14, -4
 142:.\Generated_Source\PSoC4/capsense_PM.c ****     /* Enable the Clocks */
 143:.\Generated_Source\PSoC4/capsense_PM.c ****     capsense_SenseClk_Start();
 128              		.loc 1 143 0
 129 0002 FF20     		mov	r0, #255
 130 0004 FFF7FEFF 		bl	capsense_SenseClk_StartEx
 131              	.LVL4:
 144:.\Generated_Source\PSoC4/capsense_PM.c ****     capsense_SampleClk_Start();
 132              		.loc 1 144 0
 133 0008 FF20     		mov	r0, #255
 134 000a FFF7FEFF 		bl	capsense_SampleClk_StartEx
 135              	.LVL5:
 145:.\Generated_Source\PSoC4/capsense_PM.c **** 
 146:.\Generated_Source\PSoC4/capsense_PM.c ****     /* Restore CapSense Enable state */
 147:.\Generated_Source\PSoC4/capsense_PM.c ****     if (capsense_backup.enableState != 0u)
 136              		.loc 1 147 0
 137 000e 034B     		ldr	r3, .L11
 138 0010 1B78     		ldrb	r3, [r3]
ARM GAS  C:\Users\Alan\AppData\Local\Temp\cccxLanG.s 			page 6


 139 0012 002B     		cmp	r3, #0
 140 0014 01D0     		beq	.L9
 148:.\Generated_Source\PSoC4/capsense_PM.c ****     {
 149:.\Generated_Source\PSoC4/capsense_PM.c ****         capsense_Enable();
 141              		.loc 1 149 0
 142 0016 FFF7FEFF 		bl	capsense_Enable
 143              	.LVL6:
 144              	.L9:
 150:.\Generated_Source\PSoC4/capsense_PM.c ****     }
 151:.\Generated_Source\PSoC4/capsense_PM.c **** }
 145              		.loc 1 151 0
 146              		@ sp needed
 147 001a 08BD     		pop	{r3, pc}
 148              	.L12:
 149              		.align	2
 150              	.L11:
 151 001c 00000000 		.word	.LANCHOR0
 152              		.cfi_endproc
 153              	.LFE38:
 154              		.size	capsense_Wakeup, .-capsense_Wakeup
 155              		.bss
 156              		.align	2
 157              		.set	.LANCHOR0,. + 0
 158              		.type	capsense_backup, %object
 159              		.size	capsense_backup, 1
 160              	capsense_backup:
 161 0000 00       		.space	1
 162 0001 000000   		.text
 163              	.Letext0:
 164              		.file 2 ".\\Generated_Source\\PSoC4\\cytypes.h"
 165              		.file 3 ".\\Generated_Source\\PSoC4\\capsense.h"
 166              		.file 4 ".\\Generated_Source\\PSoC4\\capsense_SenseClk.h"
 167              		.file 5 ".\\Generated_Source\\PSoC4\\capsense_SampleClk.h"
 168              		.file 6 ".\\Generated_Source\\PSoC4\\CyLib.h"