ARM GAS  C:\Users\Alan\AppData\Local\Temp\ccCQ5qXe.s 			page 1


   1              		.cpu cortex-m0
   2              		.fpu softvfp
   3              		.eabi_attribute 20, 1
   4              		.eabi_attribute 21, 1
   5              		.eabi_attribute 23, 3
   6              		.eabi_attribute 24, 1
   7              		.eabi_attribute 25, 1
   8              		.eabi_attribute 26, 1
   9              		.eabi_attribute 30, 1
  10              		.eabi_attribute 34, 0
  11              		.eabi_attribute 18, 4
  12              		.code	16
  13              		.file	"cyfitter_cfg.c"
  14              		.text
  15              	.Ltext0:
  16              		.cfi_sections	.debug_frame
  17              		.section	.text.cfg_write_bytes32,"ax",%progbits
  18              		.align	2
  19              		.code	16
  20              		.thumb_func
  21              		.type	cfg_write_bytes32, %function
  22              	cfg_write_bytes32:
  23              	.LFB5:
  24              		.file 1 ".\\Generated_Source\\PSoC4\\cyfitter_cfg.c"
   1:.\Generated_Source\PSoC4/cyfitter_cfg.c **** /*******************************************************************************
   2:.\Generated_Source\PSoC4/cyfitter_cfg.c **** * File Name: cyfitter_cfg.c
   3:.\Generated_Source\PSoC4/cyfitter_cfg.c **** * 
   4:.\Generated_Source\PSoC4/cyfitter_cfg.c **** * PSoC Creator  3.3 SP1
   5:.\Generated_Source\PSoC4/cyfitter_cfg.c **** *
   6:.\Generated_Source\PSoC4/cyfitter_cfg.c **** * Description:
   7:.\Generated_Source\PSoC4/cyfitter_cfg.c **** * This file contains device initialization code.
   8:.\Generated_Source\PSoC4/cyfitter_cfg.c **** * Except for the user defined sections in CyClockStartupError(), this file should not be modified.
   9:.\Generated_Source\PSoC4/cyfitter_cfg.c **** * This file is automatically generated by PSoC Creator.
  10:.\Generated_Source\PSoC4/cyfitter_cfg.c **** *
  11:.\Generated_Source\PSoC4/cyfitter_cfg.c **** ********************************************************************************
  12:.\Generated_Source\PSoC4/cyfitter_cfg.c **** * Copyright (c) 2007-2015 Cypress Semiconductor.  All rights reserved.
  13:.\Generated_Source\PSoC4/cyfitter_cfg.c **** * You may use this file only in accordance with the license, terms, conditions, 
  14:.\Generated_Source\PSoC4/cyfitter_cfg.c **** * disclaimers, and limitations in the end user license agreement accompanying 
  15:.\Generated_Source\PSoC4/cyfitter_cfg.c **** * the software package with which this file was provided.
  16:.\Generated_Source\PSoC4/cyfitter_cfg.c **** ********************************************************************************/
  17:.\Generated_Source\PSoC4/cyfitter_cfg.c **** 
  18:.\Generated_Source\PSoC4/cyfitter_cfg.c **** #include <string.h>
  19:.\Generated_Source\PSoC4/cyfitter_cfg.c **** #include "cytypes.h"
  20:.\Generated_Source\PSoC4/cyfitter_cfg.c **** #include "cydevice_trm.h"
  21:.\Generated_Source\PSoC4/cyfitter_cfg.c **** #include "cyfitter.h"
  22:.\Generated_Source\PSoC4/cyfitter_cfg.c **** #include "CyLib.h"
  23:.\Generated_Source\PSoC4/cyfitter_cfg.c **** #include "CyLFClk.h"
  24:.\Generated_Source\PSoC4/cyfitter_cfg.c **** #include "cyfitter_cfg.h"
  25:.\Generated_Source\PSoC4/cyfitter_cfg.c **** 
  26:.\Generated_Source\PSoC4/cyfitter_cfg.c **** 
  27:.\Generated_Source\PSoC4/cyfitter_cfg.c **** #if defined(__GNUC__) || defined(__ARMCC_VERSION)
  28:.\Generated_Source\PSoC4/cyfitter_cfg.c ****     #define CYPACKED 
  29:.\Generated_Source\PSoC4/cyfitter_cfg.c ****     #define CYPACKED_ATTR __attribute__ ((packed))
  30:.\Generated_Source\PSoC4/cyfitter_cfg.c ****     #define CYALIGNED __attribute__ ((aligned))
  31:.\Generated_Source\PSoC4/cyfitter_cfg.c ****     #define CY_CFG_UNUSED __attribute__ ((unused))
  32:.\Generated_Source\PSoC4/cyfitter_cfg.c ****     #ifndef CY_CFG_SECTION
  33:.\Generated_Source\PSoC4/cyfitter_cfg.c ****         #define CY_CFG_SECTION __attribute__ ((section(".psocinit")))
ARM GAS  C:\Users\Alan\AppData\Local\Temp\ccCQ5qXe.s 			page 2


  34:.\Generated_Source\PSoC4/cyfitter_cfg.c ****     #endif
  35:.\Generated_Source\PSoC4/cyfitter_cfg.c ****     
  36:.\Generated_Source\PSoC4/cyfitter_cfg.c ****     #if defined(__ARMCC_VERSION)
  37:.\Generated_Source\PSoC4/cyfitter_cfg.c ****         #define CY_CFG_MEMORY_BARRIER() __memory_changed()
  38:.\Generated_Source\PSoC4/cyfitter_cfg.c ****     #else
  39:.\Generated_Source\PSoC4/cyfitter_cfg.c ****         #define CY_CFG_MEMORY_BARRIER() __sync_synchronize()
  40:.\Generated_Source\PSoC4/cyfitter_cfg.c ****     #endif
  41:.\Generated_Source\PSoC4/cyfitter_cfg.c ****     
  42:.\Generated_Source\PSoC4/cyfitter_cfg.c **** #elif defined(__ICCARM__)
  43:.\Generated_Source\PSoC4/cyfitter_cfg.c ****     #include <intrinsics.h>
  44:.\Generated_Source\PSoC4/cyfitter_cfg.c **** 
  45:.\Generated_Source\PSoC4/cyfitter_cfg.c ****     #define CYPACKED __packed
  46:.\Generated_Source\PSoC4/cyfitter_cfg.c ****     #define CYPACKED_ATTR 
  47:.\Generated_Source\PSoC4/cyfitter_cfg.c ****     #define CYALIGNED _Pragma("data_alignment=4")
  48:.\Generated_Source\PSoC4/cyfitter_cfg.c ****     #define CY_CFG_UNUSED _Pragma("diag_suppress=Pe177")
  49:.\Generated_Source\PSoC4/cyfitter_cfg.c ****     #define CY_CFG_SECTION _Pragma("location=\".psocinit\"")
  50:.\Generated_Source\PSoC4/cyfitter_cfg.c ****     
  51:.\Generated_Source\PSoC4/cyfitter_cfg.c ****     #define CY_CFG_MEMORY_BARRIER() __DMB()
  52:.\Generated_Source\PSoC4/cyfitter_cfg.c ****     
  53:.\Generated_Source\PSoC4/cyfitter_cfg.c **** #else
  54:.\Generated_Source\PSoC4/cyfitter_cfg.c ****     #error Unsupported toolchain
  55:.\Generated_Source\PSoC4/cyfitter_cfg.c **** #endif
  56:.\Generated_Source\PSoC4/cyfitter_cfg.c **** 
  57:.\Generated_Source\PSoC4/cyfitter_cfg.c **** 
  58:.\Generated_Source\PSoC4/cyfitter_cfg.c **** CY_CFG_UNUSED
  59:.\Generated_Source\PSoC4/cyfitter_cfg.c **** static void CYMEMZERO(void *s, size_t n);
  60:.\Generated_Source\PSoC4/cyfitter_cfg.c **** CY_CFG_UNUSED
  61:.\Generated_Source\PSoC4/cyfitter_cfg.c **** static void CYMEMZERO(void *s, size_t n)
  62:.\Generated_Source\PSoC4/cyfitter_cfg.c **** {
  63:.\Generated_Source\PSoC4/cyfitter_cfg.c **** 	(void)memset(s, 0, n);
  64:.\Generated_Source\PSoC4/cyfitter_cfg.c **** }
  65:.\Generated_Source\PSoC4/cyfitter_cfg.c **** CY_CFG_UNUSED
  66:.\Generated_Source\PSoC4/cyfitter_cfg.c **** static void CYCONFIGCPY(void *dest, const void *src, size_t n);
  67:.\Generated_Source\PSoC4/cyfitter_cfg.c **** CY_CFG_UNUSED
  68:.\Generated_Source\PSoC4/cyfitter_cfg.c **** static void CYCONFIGCPY(void *dest, const void *src, size_t n)
  69:.\Generated_Source\PSoC4/cyfitter_cfg.c **** {
  70:.\Generated_Source\PSoC4/cyfitter_cfg.c **** 	(void)memcpy(dest, src, n);
  71:.\Generated_Source\PSoC4/cyfitter_cfg.c **** }
  72:.\Generated_Source\PSoC4/cyfitter_cfg.c **** CY_CFG_UNUSED
  73:.\Generated_Source\PSoC4/cyfitter_cfg.c **** static void CYCONFIGCPYCODE(void *dest, const void *src, size_t n);
  74:.\Generated_Source\PSoC4/cyfitter_cfg.c **** CY_CFG_UNUSED
  75:.\Generated_Source\PSoC4/cyfitter_cfg.c **** static void CYCONFIGCPYCODE(void *dest, const void *src, size_t n)
  76:.\Generated_Source\PSoC4/cyfitter_cfg.c **** {
  77:.\Generated_Source\PSoC4/cyfitter_cfg.c **** 	(void)memcpy(dest, src, n);
  78:.\Generated_Source\PSoC4/cyfitter_cfg.c **** }
  79:.\Generated_Source\PSoC4/cyfitter_cfg.c **** 
  80:.\Generated_Source\PSoC4/cyfitter_cfg.c **** 
  81:.\Generated_Source\PSoC4/cyfitter_cfg.c **** 
  82:.\Generated_Source\PSoC4/cyfitter_cfg.c **** /* Clock startup error codes                                                   */
  83:.\Generated_Source\PSoC4/cyfitter_cfg.c **** #define CYCLOCKSTART_NO_ERROR    0u
  84:.\Generated_Source\PSoC4/cyfitter_cfg.c **** #define CYCLOCKSTART_XTAL_ERROR  1u
  85:.\Generated_Source\PSoC4/cyfitter_cfg.c **** #define CYCLOCKSTART_32KHZ_ERROR 2u
  86:.\Generated_Source\PSoC4/cyfitter_cfg.c **** #define CYCLOCKSTART_PLL_ERROR   3u
  87:.\Generated_Source\PSoC4/cyfitter_cfg.c **** 
  88:.\Generated_Source\PSoC4/cyfitter_cfg.c **** #ifdef CY_NEED_CYCLOCKSTARTUPERROR
  89:.\Generated_Source\PSoC4/cyfitter_cfg.c **** /*******************************************************************************
  90:.\Generated_Source\PSoC4/cyfitter_cfg.c **** * Function Name: CyClockStartupError
ARM GAS  C:\Users\Alan\AppData\Local\Temp\ccCQ5qXe.s 			page 3


  91:.\Generated_Source\PSoC4/cyfitter_cfg.c **** ********************************************************************************
  92:.\Generated_Source\PSoC4/cyfitter_cfg.c **** * Summary:
  93:.\Generated_Source\PSoC4/cyfitter_cfg.c **** *  If an error is encountered during clock configuration (crystal startup error,
  94:.\Generated_Source\PSoC4/cyfitter_cfg.c **** *  PLL lock error, etc.), the system will end up here.  Unless reimplemented by
  95:.\Generated_Source\PSoC4/cyfitter_cfg.c **** *  the customer, this function will stop in an infinite loop.
  96:.\Generated_Source\PSoC4/cyfitter_cfg.c **** *
  97:.\Generated_Source\PSoC4/cyfitter_cfg.c **** * Parameters:
  98:.\Generated_Source\PSoC4/cyfitter_cfg.c **** *   void
  99:.\Generated_Source\PSoC4/cyfitter_cfg.c **** *
 100:.\Generated_Source\PSoC4/cyfitter_cfg.c **** * Return:
 101:.\Generated_Source\PSoC4/cyfitter_cfg.c **** *   void
 102:.\Generated_Source\PSoC4/cyfitter_cfg.c **** *
 103:.\Generated_Source\PSoC4/cyfitter_cfg.c **** *******************************************************************************/
 104:.\Generated_Source\PSoC4/cyfitter_cfg.c **** CY_CFG_UNUSED
 105:.\Generated_Source\PSoC4/cyfitter_cfg.c **** static void CyClockStartupError(uint8 errorCode);
 106:.\Generated_Source\PSoC4/cyfitter_cfg.c **** CY_CFG_UNUSED
 107:.\Generated_Source\PSoC4/cyfitter_cfg.c **** static void CyClockStartupError(uint8 errorCode)
 108:.\Generated_Source\PSoC4/cyfitter_cfg.c **** {
 109:.\Generated_Source\PSoC4/cyfitter_cfg.c ****     /* To remove the compiler warning if errorCode not used.                */
 110:.\Generated_Source\PSoC4/cyfitter_cfg.c ****     errorCode = errorCode;
 111:.\Generated_Source\PSoC4/cyfitter_cfg.c **** 
 112:.\Generated_Source\PSoC4/cyfitter_cfg.c ****     /* `#START CyClockStartupError` */
 113:.\Generated_Source\PSoC4/cyfitter_cfg.c **** 
 114:.\Generated_Source\PSoC4/cyfitter_cfg.c ****     /* If we have a clock startup error (bad MHz crystal, PLL lock, etc.),  */
 115:.\Generated_Source\PSoC4/cyfitter_cfg.c ****     /* we will end up here to allow the customer to implement something to  */
 116:.\Generated_Source\PSoC4/cyfitter_cfg.c ****     /* deal with the clock condition.                                       */
 117:.\Generated_Source\PSoC4/cyfitter_cfg.c **** 
 118:.\Generated_Source\PSoC4/cyfitter_cfg.c ****     /* `#END` */
 119:.\Generated_Source\PSoC4/cyfitter_cfg.c **** 
 120:.\Generated_Source\PSoC4/cyfitter_cfg.c ****     /* If nothing else, stop here since the clocks have not started         */
 121:.\Generated_Source\PSoC4/cyfitter_cfg.c ****     /* correctly.                                                           */
 122:.\Generated_Source\PSoC4/cyfitter_cfg.c ****     while(1) {}
 123:.\Generated_Source\PSoC4/cyfitter_cfg.c **** }
 124:.\Generated_Source\PSoC4/cyfitter_cfg.c **** #endif
 125:.\Generated_Source\PSoC4/cyfitter_cfg.c **** 
 126:.\Generated_Source\PSoC4/cyfitter_cfg.c **** #define CY_CFG_BASE_ADDR_COUNT 6u
 127:.\Generated_Source\PSoC4/cyfitter_cfg.c **** CYPACKED typedef struct
 128:.\Generated_Source\PSoC4/cyfitter_cfg.c **** {
 129:.\Generated_Source\PSoC4/cyfitter_cfg.c **** 	uint8 offset;
 130:.\Generated_Source\PSoC4/cyfitter_cfg.c **** 	uint8 value;
 131:.\Generated_Source\PSoC4/cyfitter_cfg.c **** } CYPACKED_ATTR cy_cfg_addrvalue_t;
 132:.\Generated_Source\PSoC4/cyfitter_cfg.c **** 
 133:.\Generated_Source\PSoC4/cyfitter_cfg.c **** 
 134:.\Generated_Source\PSoC4/cyfitter_cfg.c **** 
 135:.\Generated_Source\PSoC4/cyfitter_cfg.c **** /*******************************************************************************
 136:.\Generated_Source\PSoC4/cyfitter_cfg.c **** * Function Name: cfg_write_bytes32
 137:.\Generated_Source\PSoC4/cyfitter_cfg.c **** ********************************************************************************
 138:.\Generated_Source\PSoC4/cyfitter_cfg.c **** * Summary:
 139:.\Generated_Source\PSoC4/cyfitter_cfg.c **** *  This function is used for setting up the chip configuration areas that
 140:.\Generated_Source\PSoC4/cyfitter_cfg.c **** *  contain relatively sparse data.
 141:.\Generated_Source\PSoC4/cyfitter_cfg.c **** *
 142:.\Generated_Source\PSoC4/cyfitter_cfg.c **** * Parameters:
 143:.\Generated_Source\PSoC4/cyfitter_cfg.c **** *   void
 144:.\Generated_Source\PSoC4/cyfitter_cfg.c **** *
 145:.\Generated_Source\PSoC4/cyfitter_cfg.c **** * Return:
 146:.\Generated_Source\PSoC4/cyfitter_cfg.c **** *   void
 147:.\Generated_Source\PSoC4/cyfitter_cfg.c **** *
ARM GAS  C:\Users\Alan\AppData\Local\Temp\ccCQ5qXe.s 			page 4


 148:.\Generated_Source\PSoC4/cyfitter_cfg.c **** *******************************************************************************/
 149:.\Generated_Source\PSoC4/cyfitter_cfg.c **** static void cfg_write_bytes32(const uint32 addr_table[], const cy_cfg_addrvalue_t data_table[]);
 150:.\Generated_Source\PSoC4/cyfitter_cfg.c **** static void cfg_write_bytes32(const uint32 addr_table[], const cy_cfg_addrvalue_t data_table[])
 151:.\Generated_Source\PSoC4/cyfitter_cfg.c **** {
  25              		.loc 1 151 0
  26              		.cfi_startproc
  27              	.LVL0:
  28 0000 F0B5     		push	{r4, r5, r6, r7, lr}
  29              		.cfi_def_cfa_offset 20
  30              		.cfi_offset 4, -20
  31              		.cfi_offset 5, -16
  32              		.cfi_offset 6, -12
  33              		.cfi_offset 7, -8
  34              		.cfi_offset 14, -4
  35              	.LVL1:
 152:.\Generated_Source\PSoC4/cyfitter_cfg.c **** 	/* For 32-bit little-endian architectures */
 153:.\Generated_Source\PSoC4/cyfitter_cfg.c **** 	uint32 i, j = 0u;
  36              		.loc 1 153 0
  37 0002 0025     		mov	r5, #0
 154:.\Generated_Source\PSoC4/cyfitter_cfg.c **** 	for (i = 0u; i < CY_CFG_BASE_ADDR_COUNT; i++)
  38              		.loc 1 154 0
  39 0004 0027     		mov	r7, #0
  40 0006 11E0     		b	.L2
  41              	.LVL2:
  42              	.L5:
  43              	.LBB2:
 155:.\Generated_Source\PSoC4/cyfitter_cfg.c **** 	{
 156:.\Generated_Source\PSoC4/cyfitter_cfg.c **** 		uint32 baseAddr = addr_table[i];
  44              		.loc 1 156 0
  45 0008 BB00     		lsl	r3, r7, #2
  46 000a C658     		ldr	r6, [r0, r3]
  47              	.LVL3:
 157:.\Generated_Source\PSoC4/cyfitter_cfg.c **** 		uint8 count = (uint8)baseAddr;
  48              		.loc 1 157 0
  49 000c F3B2     		uxtb	r3, r6
  50              	.LVL4:
 158:.\Generated_Source\PSoC4/cyfitter_cfg.c **** 		baseAddr &= 0xFFFFFF00u;
  51              		.loc 1 158 0
  52 000e FF22     		mov	r2, #255
  53 0010 9643     		bic	r6, r2
  54              	.LVL5:
 159:.\Generated_Source\PSoC4/cyfitter_cfg.c **** 		while (count != 0u)
  55              		.loc 1 159 0
  56 0012 08E0     		b	.L3
  57              	.L4:
 160:.\Generated_Source\PSoC4/cyfitter_cfg.c **** 		{
 161:.\Generated_Source\PSoC4/cyfitter_cfg.c **** 			CY_SET_XTND_REG8((void CYFAR *)(baseAddr + data_table[j].offset), data_table[j].value);
  58              		.loc 1 161 0
  59 0014 6A00     		lsl	r2, r5, #1
  60 0016 8A18     		add	r2, r1, r2
  61 0018 1478     		ldrb	r4, [r2]
  62 001a A419     		add	r4, r4, r6
  63 001c 5278     		ldrb	r2, [r2, #1]
  64 001e 2270     		strb	r2, [r4]
 162:.\Generated_Source\PSoC4/cyfitter_cfg.c **** 			j++;
  65              		.loc 1 162 0
  66 0020 0135     		add	r5, r5, #1
ARM GAS  C:\Users\Alan\AppData\Local\Temp\ccCQ5qXe.s 			page 5


  67              	.LVL6:
 163:.\Generated_Source\PSoC4/cyfitter_cfg.c **** 			count--;
  68              		.loc 1 163 0
  69 0022 013B     		sub	r3, r3, #1
  70              	.LVL7:
  71 0024 DBB2     		uxtb	r3, r3
  72              	.LVL8:
  73              	.L3:
 159:.\Generated_Source\PSoC4/cyfitter_cfg.c **** 		{
  74              		.loc 1 159 0
  75 0026 002B     		cmp	r3, #0
  76 0028 F4D1     		bne	.L4
  77              	.LBE2:
 154:.\Generated_Source\PSoC4/cyfitter_cfg.c **** 	{
  78              		.loc 1 154 0 discriminator 2
  79 002a 0137     		add	r7, r7, #1
  80              	.LVL9:
  81              	.L2:
 154:.\Generated_Source\PSoC4/cyfitter_cfg.c **** 	{
  82              		.loc 1 154 0 is_stmt 0 discriminator 1
  83 002c 052F     		cmp	r7, #5
  84 002e EBD9     		bls	.L5
 164:.\Generated_Source\PSoC4/cyfitter_cfg.c **** 		}
 165:.\Generated_Source\PSoC4/cyfitter_cfg.c **** 	}
 166:.\Generated_Source\PSoC4/cyfitter_cfg.c **** }
  85              		.loc 1 166 0 is_stmt 1
  86              		@ sp needed
  87              	.LVL10:
  88              	.LVL11:
  89 0030 F0BD     		pop	{r4, r5, r6, r7, pc}
  90              		.cfi_endproc
  91              	.LFE5:
  92              		.size	cfg_write_bytes32, .-cfg_write_bytes32
  93 0032 C046     		.section	.text.CYMEMZERO,"ax",%progbits
  94              		.align	2
  95              		.code	16
  96              		.thumb_func
  97              		.type	CYMEMZERO, %function
  98              	CYMEMZERO:
  99              	.LFB2:
  62:.\Generated_Source\PSoC4/cyfitter_cfg.c **** 	(void)memset(s, 0, n);
 100              		.loc 1 62 0
 101              		.cfi_startproc
 102              	.LVL12:
 103 0000 08B5     		push	{r3, lr}
 104              		.cfi_def_cfa_offset 8
 105              		.cfi_offset 3, -8
 106              		.cfi_offset 14, -4
 107 0002 0A1C     		mov	r2, r1
  63:.\Generated_Source\PSoC4/cyfitter_cfg.c **** }
 108              		.loc 1 63 0
 109 0004 0021     		mov	r1, #0
 110              	.LVL13:
 111 0006 FFF7FEFF 		bl	memset
 112              	.LVL14:
  64:.\Generated_Source\PSoC4/cyfitter_cfg.c **** CY_CFG_UNUSED
 113              		.loc 1 64 0
ARM GAS  C:\Users\Alan\AppData\Local\Temp\ccCQ5qXe.s 			page 6


 114              		@ sp needed
 115 000a 08BD     		pop	{r3, pc}
 116              		.cfi_endproc
 117              	.LFE2:
 118              		.size	CYMEMZERO, .-CYMEMZERO
 119              		.section	.psocinit,"ax",%progbits
 120              		.align	2
 121              		.code	16
 122              		.thumb_func
 123              		.type	ClockSetup, %function
 124              	ClockSetup:
 125              	.LFB6:
 167:.\Generated_Source\PSoC4/cyfitter_cfg.c **** 
 168:.\Generated_Source\PSoC4/cyfitter_cfg.c **** 
 169:.\Generated_Source\PSoC4/cyfitter_cfg.c **** /*******************************************************************************
 170:.\Generated_Source\PSoC4/cyfitter_cfg.c **** * Function Name: ClockSetup
 171:.\Generated_Source\PSoC4/cyfitter_cfg.c **** ********************************************************************************
 172:.\Generated_Source\PSoC4/cyfitter_cfg.c **** *
 173:.\Generated_Source\PSoC4/cyfitter_cfg.c **** * Summary:
 174:.\Generated_Source\PSoC4/cyfitter_cfg.c **** *   Performs the initialization of all of the clocks in the device based on the
 175:.\Generated_Source\PSoC4/cyfitter_cfg.c **** *   settings in the Clock tab of the DWR.  This includes enabling the requested
 176:.\Generated_Source\PSoC4/cyfitter_cfg.c **** *   clocks and setting the necessary dividers to produce the desired frequency. 
 177:.\Generated_Source\PSoC4/cyfitter_cfg.c **** *
 178:.\Generated_Source\PSoC4/cyfitter_cfg.c **** * Parameters:
 179:.\Generated_Source\PSoC4/cyfitter_cfg.c **** *   void
 180:.\Generated_Source\PSoC4/cyfitter_cfg.c **** *
 181:.\Generated_Source\PSoC4/cyfitter_cfg.c **** * Return:
 182:.\Generated_Source\PSoC4/cyfitter_cfg.c **** *   void
 183:.\Generated_Source\PSoC4/cyfitter_cfg.c **** *
 184:.\Generated_Source\PSoC4/cyfitter_cfg.c **** *******************************************************************************/
 185:.\Generated_Source\PSoC4/cyfitter_cfg.c **** static void ClockSetup(void);
 186:.\Generated_Source\PSoC4/cyfitter_cfg.c **** CY_CFG_SECTION
 187:.\Generated_Source\PSoC4/cyfitter_cfg.c **** static void ClockSetup(void)
 188:.\Generated_Source\PSoC4/cyfitter_cfg.c **** {
 126              		.loc 1 188 0
 127              		.cfi_startproc
 128 0000 38B5     		push	{r3, r4, r5, lr}
 129              		.cfi_def_cfa_offset 16
 130              		.cfi_offset 3, -16
 131              		.cfi_offset 4, -12
 132              		.cfi_offset 5, -8
 133              		.cfi_offset 14, -4
 189:.\Generated_Source\PSoC4/cyfitter_cfg.c **** 
 190:.\Generated_Source\PSoC4/cyfitter_cfg.c **** 	/* Set Flash Cycles based on max possible frequency in case a glitch occurs during ClockSetup(). *
 191:.\Generated_Source\PSoC4/cyfitter_cfg.c **** 	CY_SET_REG32((void CYXDATA *)(CYREG_CPUSS_FLASH_CTL), (0x0012u));
 134              		.loc 1 191 0
 135 0002 1222     		mov	r2, #18
 136 0004 284B     		ldr	r3, .L8
 137 0006 1A60     		str	r2, [r3]
 192:.\Generated_Source\PSoC4/cyfitter_cfg.c **** 
 193:.\Generated_Source\PSoC4/cyfitter_cfg.c **** 	/* Start the WCO */
 194:.\Generated_Source\PSoC4/cyfitter_cfg.c **** 	CySysClkWcoStart();
 138              		.loc 1 194 0
 139 0008 FFF7FEFF 		bl	CySysClkWcoStart
 140              	.LVL15:
 195:.\Generated_Source\PSoC4/cyfitter_cfg.c **** 	CyDelayCycles(12000000u); /* WCO may take up to 500ms to start */
 141              		.loc 1 195 0
ARM GAS  C:\Users\Alan\AppData\Local\Temp\ccCQ5qXe.s 			page 7


 142 000c 2748     		ldr	r0, .L8+4
 143 000e FFF7FEFF 		bl	CyDelayCycles
 144              	.LVL16:
 196:.\Generated_Source\PSoC4/cyfitter_cfg.c **** 	(void)CySysClkWcoSetPowerMode(CY_SYS_CLK_WCO_LPM);    /* Switch to the low power mode */
 145              		.loc 1 196 0
 146 0012 0120     		mov	r0, #1
 147 0014 FFF7FEFF 		bl	CySysClkWcoSetPowerMode
 148              	.LVL17:
 197:.\Generated_Source\PSoC4/cyfitter_cfg.c **** 
 198:.\Generated_Source\PSoC4/cyfitter_cfg.c **** 	/* Setup and trim IMO based on desired frequency. */
 199:.\Generated_Source\PSoC4/cyfitter_cfg.c **** 	CySysClkWriteImoFreq(48u);
 149              		.loc 1 199 0
 150 0018 3020     		mov	r0, #48
 151 001a FFF7FEFF 		bl	CySysClkWriteImoFreq
 152              	.LVL18:
 200:.\Generated_Source\PSoC4/cyfitter_cfg.c **** 	/* CYDEV_CLK_ILO_CONFIG Starting address: CYDEV_CLK_ILO_CONFIG */
 201:.\Generated_Source\PSoC4/cyfitter_cfg.c **** 	CY_SET_XTND_REG32((void CYFAR *)(CYREG_CLK_ILO_CONFIG), 0x80000006u);
 153              		.loc 1 201 0
 154 001e 244A     		ldr	r2, .L8+8
 155 0020 244B     		ldr	r3, .L8+12
 156 0022 1A60     		str	r2, [r3]
 202:.\Generated_Source\PSoC4/cyfitter_cfg.c **** 
 203:.\Generated_Source\PSoC4/cyfitter_cfg.c **** 	/* CYDEV_WDT_CONFIG Starting address: CYDEV_WDT_CONFIG */
 204:.\Generated_Source\PSoC4/cyfitter_cfg.c **** 	CY_SET_XTND_REG32((void CYFAR *)(CYREG_WDT_CONFIG), 0x40000000u);
 157              		.loc 1 204 0
 158 0024 244C     		ldr	r4, .L8+16
 159 0026 8025     		mov	r5, #128
 160 0028 ED05     		lsl	r5, r5, #23
 161 002a 2560     		str	r5, [r4]
 205:.\Generated_Source\PSoC4/cyfitter_cfg.c **** 
 206:.\Generated_Source\PSoC4/cyfitter_cfg.c **** 
 207:.\Generated_Source\PSoC4/cyfitter_cfg.c **** 	/* Enable fast start mode for XO */
 208:.\Generated_Source\PSoC4/cyfitter_cfg.c **** 	CY_SET_REG32((void*)CYREG_BLE_BLERD_BB_XO, CY_GET_REG32((void*)CYREG_BLE_BLERD_BB_XO) | (uint32)0x
 162              		.loc 1 208 0
 163 002c 234A     		ldr	r2, .L8+20
 164 002e 1168     		ldr	r1, [r2]
 165 0030 0223     		mov	r3, #2
 166 0032 0B43     		orr	r3, r1
 167 0034 1360     		str	r3, [r2]
 209:.\Generated_Source\PSoC4/cyfitter_cfg.c **** 	CY_SET_XTND_REG32((void CYFAR *)(CYREG_BLE_BLERD_BB_XO_CAPTRIM), 0x00003E2Du);
 168              		.loc 1 209 0
 169 0036 224A     		ldr	r2, .L8+24
 170 0038 224B     		ldr	r3, .L8+28
 171 003a 1A60     		str	r2, [r3]
 210:.\Generated_Source\PSoC4/cyfitter_cfg.c **** 	/* Disable Crystal Stable Interrupt before enabling ECO */
 211:.\Generated_Source\PSoC4/cyfitter_cfg.c **** 	CY_SET_REG32((void*)CYREG_BLE_BLESS_LL_DSM_CTRL, CY_GET_REG32((void*)CYREG_BLE_BLESS_LL_DSM_CTRL) 
 172              		.loc 1 211 0
 173 003c 224A     		ldr	r2, .L8+32
 174 003e 1368     		ldr	r3, [r2]
 175 0040 0821     		mov	r1, #8
 176 0042 8B43     		bic	r3, r1
 177 0044 1360     		str	r3, [r2]
 212:.\Generated_Source\PSoC4/cyfitter_cfg.c **** 	/* Start the ECO and do not check status since it is not needed for HFCLK */
 213:.\Generated_Source\PSoC4/cyfitter_cfg.c **** 	(void)CySysClkEcoStart(2000u);
 178              		.loc 1 213 0
 179 0046 FA20     		mov	r0, #250
 180 0048 C000     		lsl	r0, r0, #3
ARM GAS  C:\Users\Alan\AppData\Local\Temp\ccCQ5qXe.s 			page 8


 181 004a FFF7FEFF 		bl	CySysClkEcoStart
 182              	.LVL19:
 214:.\Generated_Source\PSoC4/cyfitter_cfg.c **** 	CyDelayUs(1500u); /* Wait to stabalize */
 183              		.loc 1 214 0
 184 004e 1F48     		ldr	r0, .L8+36
 185 0050 FFF7FEFF 		bl	CyDelayUs
 186              	.LVL20:
 215:.\Generated_Source\PSoC4/cyfitter_cfg.c **** 
 216:.\Generated_Source\PSoC4/cyfitter_cfg.c **** 	/* Setup phase aligned clocks */
 217:.\Generated_Source\PSoC4/cyfitter_cfg.c **** 	CY_SET_REG32((void *)CYREG_PERI_DIV_16_CTL2, 0x00BB7F00u);
 187              		.loc 1 217 0
 188 0054 1E4A     		ldr	r2, .L8+40
 189 0056 1F4B     		ldr	r3, .L8+44
 190 0058 1A60     		str	r2, [r3]
 218:.\Generated_Source\PSoC4/cyfitter_cfg.c **** 	CY_SET_REG32((void *)CYREG_PERI_DIV_CMD, 0x8000FF42u);
 191              		.loc 1 218 0
 192 005a 1F4B     		ldr	r3, .L8+48
 193 005c 1F4A     		ldr	r2, .L8+52
 194 005e 1A60     		str	r2, [r3]
 219:.\Generated_Source\PSoC4/cyfitter_cfg.c **** 	CY_SET_REG32((void *)CYREG_PERI_DIV_16_CTL0, 0x0000FE00u);
 195              		.loc 1 219 0
 196 0060 FE22     		mov	r2, #254
 197 0062 1202     		lsl	r2, r2, #8
 198 0064 1E49     		ldr	r1, .L8+56
 199 0066 0A60     		str	r2, [r1]
 220:.\Generated_Source\PSoC4/cyfitter_cfg.c **** 	CY_SET_REG32((void *)CYREG_PERI_DIV_CMD, 0x8000FF40u);
 200              		.loc 1 220 0
 201 0068 1E49     		ldr	r1, .L8+60
 202 006a 1960     		str	r1, [r3]
 221:.\Generated_Source\PSoC4/cyfitter_cfg.c **** 	CY_SET_REG32((void *)CYREG_PERI_DIV_16_CTL1, 0x0000FE00u);
 203              		.loc 1 221 0
 204 006c 1E49     		ldr	r1, .L8+64
 205 006e 0A60     		str	r2, [r1]
 222:.\Generated_Source\PSoC4/cyfitter_cfg.c **** 	CY_SET_REG32((void *)CYREG_PERI_DIV_CMD, 0x8000FF41u);
 206              		.loc 1 222 0
 207 0070 1E4A     		ldr	r2, .L8+68
 208 0072 1A60     		str	r2, [r3]
 223:.\Generated_Source\PSoC4/cyfitter_cfg.c **** 
 224:.\Generated_Source\PSoC4/cyfitter_cfg.c **** 	/* CYDEV_CLK_IMO_CONFIG Starting address: CYDEV_CLK_IMO_CONFIG */
 225:.\Generated_Source\PSoC4/cyfitter_cfg.c **** 	CY_SET_XTND_REG32((void CYFAR *)(CYREG_CLK_IMO_CONFIG), 0x80000000u);
 209              		.loc 1 225 0
 210 0074 8022     		mov	r2, #128
 211 0076 1206     		lsl	r2, r2, #24
 212 0078 1D4B     		ldr	r3, .L8+72
 213 007a 1A60     		str	r2, [r3]
 226:.\Generated_Source\PSoC4/cyfitter_cfg.c **** 
 227:.\Generated_Source\PSoC4/cyfitter_cfg.c **** 	/* CYDEV_CLK_SELECT Starting address: CYDEV_CLK_SELECT */
 228:.\Generated_Source\PSoC4/cyfitter_cfg.c **** 	CY_SET_XTND_REG32((void CYFAR *)(CYREG_CLK_SELECT), 0x00040000u);
 214              		.loc 1 228 0
 215 007c 8022     		mov	r2, #128
 216 007e D202     		lsl	r2, r2, #11
 217 0080 1C4B     		ldr	r3, .L8+76
 218 0082 1A60     		str	r2, [r3]
 229:.\Generated_Source\PSoC4/cyfitter_cfg.c **** 
 230:.\Generated_Source\PSoC4/cyfitter_cfg.c **** 	/* CYDEV_PERI_PCLK_CTL11 Starting address: CYDEV_PERI_PCLK_CTL11 */
 231:.\Generated_Source\PSoC4/cyfitter_cfg.c **** 	CY_SET_XTND_REG32((void CYFAR *)(CYREG_PERI_PCLK_CTL11), 0x00000042u);
 219              		.loc 1 231 0
ARM GAS  C:\Users\Alan\AppData\Local\Temp\ccCQ5qXe.s 			page 9


 220 0084 4222     		mov	r2, #66
 221 0086 1C4B     		ldr	r3, .L8+80
 222 0088 1A60     		str	r2, [r3]
 232:.\Generated_Source\PSoC4/cyfitter_cfg.c **** 
 233:.\Generated_Source\PSoC4/cyfitter_cfg.c **** 	/* CYDEV_PERI_PCLK_CTL5 Starting address: CYDEV_PERI_PCLK_CTL5 */
 234:.\Generated_Source\PSoC4/cyfitter_cfg.c **** 	CY_SET_XTND_REG32((void CYFAR *)(CYREG_PERI_PCLK_CTL5), 0x00000040u);
 223              		.loc 1 234 0
 224 008a 023A     		sub	r2, r2, #2
 225 008c 1B4B     		ldr	r3, .L8+84
 226 008e 1A60     		str	r2, [r3]
 235:.\Generated_Source\PSoC4/cyfitter_cfg.c **** 
 236:.\Generated_Source\PSoC4/cyfitter_cfg.c **** 	/* CYDEV_PERI_PCLK_CTL4 Starting address: CYDEV_PERI_PCLK_CTL4 */
 237:.\Generated_Source\PSoC4/cyfitter_cfg.c **** 	CY_SET_XTND_REG32((void CYFAR *)(CYREG_PERI_PCLK_CTL4), 0x00000041u);
 227              		.loc 1 237 0
 228 0090 0132     		add	r2, r2, #1
 229 0092 1B4B     		ldr	r3, .L8+88
 230 0094 1A60     		str	r2, [r3]
 238:.\Generated_Source\PSoC4/cyfitter_cfg.c **** 
 239:.\Generated_Source\PSoC4/cyfitter_cfg.c **** 	(void)CyIntSetVector(8u, &CySysWdtIsr);
 231              		.loc 1 239 0
 232 0096 0820     		mov	r0, #8
 233 0098 1A49     		ldr	r1, .L8+92
 234 009a FFF7FEFF 		bl	CyIntSetVector
 235              	.LVL21:
 240:.\Generated_Source\PSoC4/cyfitter_cfg.c **** 	CyIntEnable(8u);
 236              		.loc 1 240 0
 237 009e 0820     		mov	r0, #8
 238 00a0 FFF7FEFF 		bl	CyIntEnable
 239              	.LVL22:
 241:.\Generated_Source\PSoC4/cyfitter_cfg.c **** 	CY_SET_XTND_REG32((void CYFAR *)(CYREG_WDT_CONFIG), 0x40000000u);
 240              		.loc 1 241 0
 241 00a4 2560     		str	r5, [r4]
 242:.\Generated_Source\PSoC4/cyfitter_cfg.c **** }
 242              		.loc 1 242 0
 243              		@ sp needed
 244 00a6 38BD     		pop	{r3, r4, r5, pc}
 245              	.L9:
 246              		.align	2
 247              	.L8:
 248 00a8 30001040 		.word	1074790448
 249 00ac 001BB700 		.word	12000000
 250 00b0 06000080 		.word	-2147483642
 251 00b4 04010B40 		.word	1074462980
 252 00b8 0C020B40 		.word	1074463244
 253 00bc 78002E40 		.word	1076756600
 254 00c0 2D3E0000 		.word	15917
 255 00c4 7C002E40 		.word	1076756604
 256 00c8 6CF02E40 		.word	1076818028
 257 00cc DC050000 		.word	1500
 258 00d0 007FBB00 		.word	12287744
 259 00d4 08030140 		.word	1073808136
 260 00d8 00000140 		.word	1073807360
 261 00dc 42FF0080 		.word	-2147418302
 262 00e0 00030140 		.word	1073808128
 263 00e4 40FF0080 		.word	-2147418304
 264 00e8 04030140 		.word	1073808132
 265 00ec 41FF0080 		.word	-2147418303
ARM GAS  C:\Users\Alan\AppData\Local\Temp\ccCQ5qXe.s 			page 10


 266 00f0 08010B40 		.word	1074462984
 267 00f4 00010B40 		.word	1074462976
 268 00f8 2C010140 		.word	1073807660
 269 00fc 14010140 		.word	1073807636
 270 0100 10010140 		.word	1073807632
 271 0104 00000000 		.word	CySysWdtIsr
 272              		.cfi_endproc
 273              	.LFE6:
 274              		.size	ClockSetup, .-ClockSetup
 275              		.section	.text.SetAnalogRoutingPumps,"ax",%progbits
 276              		.align	2
 277              		.global	SetAnalogRoutingPumps
 278              		.code	16
 279              		.thumb_func
 280              		.type	SetAnalogRoutingPumps, %function
 281              	SetAnalogRoutingPumps:
 282              	.LFB8:
 243:.\Generated_Source\PSoC4/cyfitter_cfg.c **** 
 244:.\Generated_Source\PSoC4/cyfitter_cfg.c **** 
 245:.\Generated_Source\PSoC4/cyfitter_cfg.c **** /* Analog API Functions */
 246:.\Generated_Source\PSoC4/cyfitter_cfg.c **** 
 247:.\Generated_Source\PSoC4/cyfitter_cfg.c **** 
 248:.\Generated_Source\PSoC4/cyfitter_cfg.c **** /*******************************************************************************
 249:.\Generated_Source\PSoC4/cyfitter_cfg.c **** * Function Name: AnalogSetDefault
 250:.\Generated_Source\PSoC4/cyfitter_cfg.c **** ********************************************************************************
 251:.\Generated_Source\PSoC4/cyfitter_cfg.c **** *
 252:.\Generated_Source\PSoC4/cyfitter_cfg.c **** * Summary:
 253:.\Generated_Source\PSoC4/cyfitter_cfg.c **** *  Sets up the analog portions of the chip to default values based on chip
 254:.\Generated_Source\PSoC4/cyfitter_cfg.c **** *  configuration options from the project.
 255:.\Generated_Source\PSoC4/cyfitter_cfg.c **** *
 256:.\Generated_Source\PSoC4/cyfitter_cfg.c **** * Parameters:
 257:.\Generated_Source\PSoC4/cyfitter_cfg.c **** *  void
 258:.\Generated_Source\PSoC4/cyfitter_cfg.c **** *
 259:.\Generated_Source\PSoC4/cyfitter_cfg.c **** * Return:
 260:.\Generated_Source\PSoC4/cyfitter_cfg.c **** *  void
 261:.\Generated_Source\PSoC4/cyfitter_cfg.c **** *
 262:.\Generated_Source\PSoC4/cyfitter_cfg.c **** *******************************************************************************/
 263:.\Generated_Source\PSoC4/cyfitter_cfg.c **** static void AnalogSetDefault(void);
 264:.\Generated_Source\PSoC4/cyfitter_cfg.c **** static void AnalogSetDefault(void)
 265:.\Generated_Source\PSoC4/cyfitter_cfg.c **** {
 266:.\Generated_Source\PSoC4/cyfitter_cfg.c **** 	CY_SET_XTND_REG32((void CYFAR *)CYREG_CTBM0_DFT_CTRL, 0x00000003u);
 267:.\Generated_Source\PSoC4/cyfitter_cfg.c **** 	CY_SET_XTND_REG32((void CYFAR *)CYREG_CTBM1_DFT_CTRL, 0x00000003u);
 268:.\Generated_Source\PSoC4/cyfitter_cfg.c **** 	CY_SET_XTND_REG32((void CYFAR *)CYREG_PASS_DSAB_DSAB_CTRL, 0x00000000u);
 269:.\Generated_Source\PSoC4/cyfitter_cfg.c **** 	SetAnalogRoutingPumps(1);
 270:.\Generated_Source\PSoC4/cyfitter_cfg.c **** }
 271:.\Generated_Source\PSoC4/cyfitter_cfg.c **** 
 272:.\Generated_Source\PSoC4/cyfitter_cfg.c **** 
 273:.\Generated_Source\PSoC4/cyfitter_cfg.c **** /*******************************************************************************
 274:.\Generated_Source\PSoC4/cyfitter_cfg.c **** * Function Name: SetAnalogRoutingPumps
 275:.\Generated_Source\PSoC4/cyfitter_cfg.c **** ********************************************************************************
 276:.\Generated_Source\PSoC4/cyfitter_cfg.c **** *
 277:.\Generated_Source\PSoC4/cyfitter_cfg.c **** * Summary:
 278:.\Generated_Source\PSoC4/cyfitter_cfg.c **** * Enables or disables the analog pumps feeding analog routing switches.
 279:.\Generated_Source\PSoC4/cyfitter_cfg.c **** * Intended to be called at startup, based on the Vdda system configuration;
 280:.\Generated_Source\PSoC4/cyfitter_cfg.c **** * may be called during operation when the user informs us that the Vdda voltage crossed the pump th
 281:.\Generated_Source\PSoC4/cyfitter_cfg.c **** *
 282:.\Generated_Source\PSoC4/cyfitter_cfg.c **** * Parameters:
ARM GAS  C:\Users\Alan\AppData\Local\Temp\ccCQ5qXe.s 			page 11


 283:.\Generated_Source\PSoC4/cyfitter_cfg.c **** *  enabled - 1 to enable the pumps, 0 to disable the pumps
 284:.\Generated_Source\PSoC4/cyfitter_cfg.c **** *
 285:.\Generated_Source\PSoC4/cyfitter_cfg.c **** * Return:
 286:.\Generated_Source\PSoC4/cyfitter_cfg.c **** *  void
 287:.\Generated_Source\PSoC4/cyfitter_cfg.c **** *
 288:.\Generated_Source\PSoC4/cyfitter_cfg.c **** *******************************************************************************/
 289:.\Generated_Source\PSoC4/cyfitter_cfg.c **** void SetAnalogRoutingPumps(uint8 enabled)
 290:.\Generated_Source\PSoC4/cyfitter_cfg.c **** {
 283              		.loc 1 290 0
 284              		.cfi_startproc
 285              	.LVL23:
 291:.\Generated_Source\PSoC4/cyfitter_cfg.c **** 	uint32 regValue = CY_GET_XTND_REG32((void *)(CYREG_SAR_PUMP_CTRL));
 286              		.loc 1 291 0
 287 0000 0C4B     		ldr	r3, .L15
 288 0002 1B68     		ldr	r3, [r3]
 289              	.LVL24:
 292:.\Generated_Source\PSoC4/cyfitter_cfg.c **** 	if (enabled != 0u)
 290              		.loc 1 292 0
 291 0004 0028     		cmp	r0, #0
 292 0006 03D0     		beq	.L11
 293:.\Generated_Source\PSoC4/cyfitter_cfg.c **** 	{
 294:.\Generated_Source\PSoC4/cyfitter_cfg.c **** 		regValue |= 0x80000000u;
 293              		.loc 1 294 0
 294 0008 8022     		mov	r2, #128
 295 000a 1206     		lsl	r2, r2, #24
 296 000c 1343     		orr	r3, r2
 297              	.LVL25:
 298 000e 01E0     		b	.L12
 299              	.L11:
 295:.\Generated_Source\PSoC4/cyfitter_cfg.c **** 	}
 296:.\Generated_Source\PSoC4/cyfitter_cfg.c **** 	else
 297:.\Generated_Source\PSoC4/cyfitter_cfg.c **** 	{
 298:.\Generated_Source\PSoC4/cyfitter_cfg.c **** 		regValue &= ~0x80000000u;
 300              		.loc 1 298 0
 301 0010 5B00     		lsl	r3, r3, #1
 302              	.LVL26:
 303 0012 5B08     		lsr	r3, r3, #1
 304              	.LVL27:
 305              	.L12:
 299:.\Generated_Source\PSoC4/cyfitter_cfg.c **** 	}
 300:.\Generated_Source\PSoC4/cyfitter_cfg.c **** 	CY_SET_XTND_REG32((void *)(CYREG_SAR_PUMP_CTRL), regValue);
 306              		.loc 1 300 0
 307 0014 074A     		ldr	r2, .L15
 308 0016 1360     		str	r3, [r2]
 301:.\Generated_Source\PSoC4/cyfitter_cfg.c **** 	regValue = CY_GET_XTND_REG32((void *)(CYREG_CLK_IMO_CONFIG));
 309              		.loc 1 301 0
 310 0018 074B     		ldr	r3, .L15+4
 311              	.LVL28:
 312 001a 1B68     		ldr	r3, [r3]
 313              	.LVL29:
 302:.\Generated_Source\PSoC4/cyfitter_cfg.c **** 	if (enabled != 0u)
 314              		.loc 1 302 0
 315 001c 0028     		cmp	r0, #0
 316 001e 03D0     		beq	.L13
 303:.\Generated_Source\PSoC4/cyfitter_cfg.c **** 	{
 304:.\Generated_Source\PSoC4/cyfitter_cfg.c **** 		regValue |= 0x02000000u;
 317              		.loc 1 304 0
ARM GAS  C:\Users\Alan\AppData\Local\Temp\ccCQ5qXe.s 			page 12


 318 0020 8022     		mov	r2, #128
 319 0022 9204     		lsl	r2, r2, #18
 320 0024 1343     		orr	r3, r2
 321              	.LVL30:
 322 0026 01E0     		b	.L14
 323              	.L13:
 305:.\Generated_Source\PSoC4/cyfitter_cfg.c **** 	}
 306:.\Generated_Source\PSoC4/cyfitter_cfg.c **** 	else
 307:.\Generated_Source\PSoC4/cyfitter_cfg.c **** 	{
 308:.\Generated_Source\PSoC4/cyfitter_cfg.c **** 		regValue &= ~0x02000000u;
 324              		.loc 1 308 0
 325 0028 044A     		ldr	r2, .L15+8
 326 002a 1340     		and	r3, r2
 327              	.LVL31:
 328              	.L14:
 309:.\Generated_Source\PSoC4/cyfitter_cfg.c **** 	}
 310:.\Generated_Source\PSoC4/cyfitter_cfg.c **** 	CY_SET_XTND_REG32((void *)(CYREG_CLK_IMO_CONFIG), regValue);
 329              		.loc 1 310 0
 330 002c 024A     		ldr	r2, .L15+4
 331 002e 1360     		str	r3, [r2]
 311:.\Generated_Source\PSoC4/cyfitter_cfg.c **** }
 332              		.loc 1 311 0
 333              		@ sp needed
 334 0030 7047     		bx	lr
 335              	.L16:
 336 0032 C046     		.align	2
 337              	.L15:
 338 0034 80033A40 		.word	1077543808
 339 0038 08010B40 		.word	1074462984
 340 003c FFFFFFFD 		.word	-33554433
 341              		.cfi_endproc
 342              	.LFE8:
 343              		.size	SetAnalogRoutingPumps, .-SetAnalogRoutingPumps
 344              		.section	.text.AnalogSetDefault,"ax",%progbits
 345              		.align	2
 346              		.code	16
 347              		.thumb_func
 348              		.type	AnalogSetDefault, %function
 349              	AnalogSetDefault:
 350              	.LFB7:
 265:.\Generated_Source\PSoC4/cyfitter_cfg.c **** 	CY_SET_XTND_REG32((void CYFAR *)CYREG_CTBM0_DFT_CTRL, 0x00000003u);
 351              		.loc 1 265 0
 352              		.cfi_startproc
 353 0000 08B5     		push	{r3, lr}
 354              		.cfi_def_cfa_offset 8
 355              		.cfi_offset 3, -8
 356              		.cfi_offset 14, -4
 266:.\Generated_Source\PSoC4/cyfitter_cfg.c **** 	CY_SET_XTND_REG32((void CYFAR *)CYREG_CTBM1_DFT_CTRL, 0x00000003u);
 357              		.loc 1 266 0
 358 0002 0323     		mov	r3, #3
 359 0004 054A     		ldr	r2, .L18
 360 0006 1360     		str	r3, [r2]
 267:.\Generated_Source\PSoC4/cyfitter_cfg.c **** 	CY_SET_XTND_REG32((void CYFAR *)CYREG_PASS_DSAB_DSAB_CTRL, 0x00000000u);
 361              		.loc 1 267 0
 362 0008 054A     		ldr	r2, .L18+4
 363 000a 1360     		str	r3, [r2]
 268:.\Generated_Source\PSoC4/cyfitter_cfg.c **** 	SetAnalogRoutingPumps(1);
ARM GAS  C:\Users\Alan\AppData\Local\Temp\ccCQ5qXe.s 			page 13


 364              		.loc 1 268 0
 365 000c 0022     		mov	r2, #0
 366 000e 054B     		ldr	r3, .L18+8
 367 0010 1A60     		str	r2, [r3]
 269:.\Generated_Source\PSoC4/cyfitter_cfg.c **** }
 368              		.loc 1 269 0
 369 0012 0120     		mov	r0, #1
 370 0014 FFF7FEFF 		bl	SetAnalogRoutingPumps
 371              	.LVL32:
 270:.\Generated_Source\PSoC4/cyfitter_cfg.c **** 
 372              		.loc 1 270 0
 373              		@ sp needed
 374 0018 08BD     		pop	{r3, pc}
 375              	.L19:
 376 001a C046     		.align	2
 377              	.L18:
 378 001c 30003040 		.word	1076887600
 379 0020 30003140 		.word	1076953136
 380 0024 000E3F40 		.word	1077874176
 381              		.cfi_endproc
 382              	.LFE7:
 383              		.size	AnalogSetDefault, .-AnalogSetDefault
 384              		.section	.psocinit
 385              		.align	2
 386              		.global	cyfitter_cfg
 387              		.code	16
 388              		.thumb_func
 389              		.type	cyfitter_cfg, %function
 390              	cyfitter_cfg:
 391              	.LFB9:
 312:.\Generated_Source\PSoC4/cyfitter_cfg.c **** 
 313:.\Generated_Source\PSoC4/cyfitter_cfg.c **** #define CY_AMUX_UNUSED CYREG_CM0_ROM_DWT
 314:.\Generated_Source\PSoC4/cyfitter_cfg.c **** 
 315:.\Generated_Source\PSoC4/cyfitter_cfg.c **** 
 316:.\Generated_Source\PSoC4/cyfitter_cfg.c **** /*******************************************************************************
 317:.\Generated_Source\PSoC4/cyfitter_cfg.c **** * Function Name: cyfitter_cfg
 318:.\Generated_Source\PSoC4/cyfitter_cfg.c **** ********************************************************************************
 319:.\Generated_Source\PSoC4/cyfitter_cfg.c **** * Summary:
 320:.\Generated_Source\PSoC4/cyfitter_cfg.c **** *  This function is called by the start-up code for the selected device. It
 321:.\Generated_Source\PSoC4/cyfitter_cfg.c **** *  performs all of the necessary device configuration based on the design
 322:.\Generated_Source\PSoC4/cyfitter_cfg.c **** *  settings.  This includes settings from the Design Wide Resources (DWR) such
 323:.\Generated_Source\PSoC4/cyfitter_cfg.c **** *  as Clocks and Pins as well as any component configuration that is necessary.
 324:.\Generated_Source\PSoC4/cyfitter_cfg.c **** *
 325:.\Generated_Source\PSoC4/cyfitter_cfg.c **** * Parameters:  
 326:.\Generated_Source\PSoC4/cyfitter_cfg.c **** *   void
 327:.\Generated_Source\PSoC4/cyfitter_cfg.c **** *
 328:.\Generated_Source\PSoC4/cyfitter_cfg.c **** * Return:
 329:.\Generated_Source\PSoC4/cyfitter_cfg.c **** *   void
 330:.\Generated_Source\PSoC4/cyfitter_cfg.c **** *
 331:.\Generated_Source\PSoC4/cyfitter_cfg.c **** *******************************************************************************/
 332:.\Generated_Source\PSoC4/cyfitter_cfg.c **** CY_CFG_SECTION
 333:.\Generated_Source\PSoC4/cyfitter_cfg.c **** void cyfitter_cfg(void)
 334:.\Generated_Source\PSoC4/cyfitter_cfg.c **** {
 392              		.loc 1 334 0
 393              		.cfi_startproc
 394 0108 10B5     		push	{r4, lr}
 395              		.cfi_def_cfa_offset 8
ARM GAS  C:\Users\Alan\AppData\Local\Temp\ccCQ5qXe.s 			page 14


 396              		.cfi_offset 4, -8
 397              		.cfi_offset 14, -4
 335:.\Generated_Source\PSoC4/cyfitter_cfg.c **** 	/* Disable interrupts by default. Let user enable if/when they want. */
 336:.\Generated_Source\PSoC4/cyfitter_cfg.c **** 	CyGlobalIntDisable;
 398              		.loc 1 336 0
 399              	@ 336 ".\Generated_Source\PSoC4\cyfitter_cfg.c" 1
 400 010a 72B6     		CPSID   i
 401              	@ 0 "" 2
 337:.\Generated_Source\PSoC4/cyfitter_cfg.c **** 
 338:.\Generated_Source\PSoC4/cyfitter_cfg.c **** 	CY_SET_XTND_REG32((void CYFAR *)(CYREG_BLE_BLESS_LL_DSM_CTRL), 0x00000000u);
 402              		.loc 1 338 0
 403              		.code	16
 404 010c 0022     		mov	r2, #0
 405 010e 324B     		ldr	r3, .L23
 406 0110 1A60     		str	r2, [r3]
 407              	.LVL33:
 408              	.LBB3:
 339:.\Generated_Source\PSoC4/cyfitter_cfg.c **** 
 340:.\Generated_Source\PSoC4/cyfitter_cfg.c **** 	{
 341:.\Generated_Source\PSoC4/cyfitter_cfg.c **** 		static const uint32 CYCODE cy_cfg_addr_table[] = {
 342:.\Generated_Source\PSoC4/cyfitter_cfg.c **** 			0x400F0001u, /* Base address: 0x400F0000 Count: 1 */
 343:.\Generated_Source\PSoC4/cyfitter_cfg.c **** 			0x400F322Du, /* Base address: 0x400F3200 Count: 45 */
 344:.\Generated_Source\PSoC4/cyfitter_cfg.c **** 			0x400F3320u, /* Base address: 0x400F3300 Count: 32 */
 345:.\Generated_Source\PSoC4/cyfitter_cfg.c **** 			0x400F4105u, /* Base address: 0x400F4100 Count: 5 */
 346:.\Generated_Source\PSoC4/cyfitter_cfg.c **** 			0x400F4304u, /* Base address: 0x400F4300 Count: 4 */
 347:.\Generated_Source\PSoC4/cyfitter_cfg.c **** 			0x400F6002u, /* Base address: 0x400F6000 Count: 2 */
 348:.\Generated_Source\PSoC4/cyfitter_cfg.c **** 		};
 349:.\Generated_Source\PSoC4/cyfitter_cfg.c **** 
 350:.\Generated_Source\PSoC4/cyfitter_cfg.c **** 		static const cy_cfg_addrvalue_t CYCODE cy_cfg_data_table[] = {
 351:.\Generated_Source\PSoC4/cyfitter_cfg.c **** 			{0x82u, 0x0Du},
 352:.\Generated_Source\PSoC4/cyfitter_cfg.c **** 			{0x08u, 0x08u},
 353:.\Generated_Source\PSoC4/cyfitter_cfg.c **** 			{0x0Bu, 0x03u},
 354:.\Generated_Source\PSoC4/cyfitter_cfg.c **** 			{0x16u, 0x04u},
 355:.\Generated_Source\PSoC4/cyfitter_cfg.c **** 			{0x19u, 0x02u},
 356:.\Generated_Source\PSoC4/cyfitter_cfg.c **** 			{0x1Eu, 0x05u},
 357:.\Generated_Source\PSoC4/cyfitter_cfg.c **** 			{0x22u, 0x01u},
 358:.\Generated_Source\PSoC4/cyfitter_cfg.c **** 			{0x2Eu, 0x02u},
 359:.\Generated_Source\PSoC4/cyfitter_cfg.c **** 			{0x30u, 0x08u},
 360:.\Generated_Source\PSoC4/cyfitter_cfg.c **** 			{0x31u, 0x02u},
 361:.\Generated_Source\PSoC4/cyfitter_cfg.c **** 			{0x32u, 0x04u},
 362:.\Generated_Source\PSoC4/cyfitter_cfg.c **** 			{0x33u, 0x01u},
 363:.\Generated_Source\PSoC4/cyfitter_cfg.c **** 			{0x34u, 0x01u},
 364:.\Generated_Source\PSoC4/cyfitter_cfg.c **** 			{0x36u, 0x02u},
 365:.\Generated_Source\PSoC4/cyfitter_cfg.c **** 			{0x3Eu, 0x11u},
 366:.\Generated_Source\PSoC4/cyfitter_cfg.c **** 			{0x40u, 0x10u},
 367:.\Generated_Source\PSoC4/cyfitter_cfg.c **** 			{0x41u, 0x05u},
 368:.\Generated_Source\PSoC4/cyfitter_cfg.c **** 			{0x45u, 0xD0u},
 369:.\Generated_Source\PSoC4/cyfitter_cfg.c **** 			{0x46u, 0x12u},
 370:.\Generated_Source\PSoC4/cyfitter_cfg.c **** 			{0x48u, 0x0Eu},
 371:.\Generated_Source\PSoC4/cyfitter_cfg.c **** 			{0x49u, 0xFFu},
 372:.\Generated_Source\PSoC4/cyfitter_cfg.c **** 			{0x4Au, 0xFFu},
 373:.\Generated_Source\PSoC4/cyfitter_cfg.c **** 			{0x4Bu, 0xFFu},
 374:.\Generated_Source\PSoC4/cyfitter_cfg.c **** 			{0x4Du, 0xA0u},
 375:.\Generated_Source\PSoC4/cyfitter_cfg.c **** 			{0x4Fu, 0x04u},
 376:.\Generated_Source\PSoC4/cyfitter_cfg.c **** 			{0x50u, 0x18u},
 377:.\Generated_Source\PSoC4/cyfitter_cfg.c **** 			{0x52u, 0x80u},
 378:.\Generated_Source\PSoC4/cyfitter_cfg.c **** 			{0x54u, 0x05u},
ARM GAS  C:\Users\Alan\AppData\Local\Temp\ccCQ5qXe.s 			page 15


 379:.\Generated_Source\PSoC4/cyfitter_cfg.c **** 			{0x58u, 0x04u},
 380:.\Generated_Source\PSoC4/cyfitter_cfg.c **** 			{0x59u, 0x04u},
 381:.\Generated_Source\PSoC4/cyfitter_cfg.c **** 			{0x5Au, 0x04u},
 382:.\Generated_Source\PSoC4/cyfitter_cfg.c **** 			{0x5Bu, 0x04u},
 383:.\Generated_Source\PSoC4/cyfitter_cfg.c **** 			{0x5Fu, 0x01u},
 384:.\Generated_Source\PSoC4/cyfitter_cfg.c **** 			{0x60u, 0x40u},
 385:.\Generated_Source\PSoC4/cyfitter_cfg.c **** 			{0x62u, 0xC0u},
 386:.\Generated_Source\PSoC4/cyfitter_cfg.c **** 			{0x64u, 0x40u},
 387:.\Generated_Source\PSoC4/cyfitter_cfg.c **** 			{0x65u, 0x40u},
 388:.\Generated_Source\PSoC4/cyfitter_cfg.c **** 			{0x66u, 0xC0u},
 389:.\Generated_Source\PSoC4/cyfitter_cfg.c **** 			{0x68u, 0xC0u},
 390:.\Generated_Source\PSoC4/cyfitter_cfg.c **** 			{0x6Au, 0xC0u},
 391:.\Generated_Source\PSoC4/cyfitter_cfg.c **** 			{0x6Cu, 0xC0u},
 392:.\Generated_Source\PSoC4/cyfitter_cfg.c **** 			{0x6Eu, 0xC0u},
 393:.\Generated_Source\PSoC4/cyfitter_cfg.c **** 			{0xB8u, 0x20u},
 394:.\Generated_Source\PSoC4/cyfitter_cfg.c **** 			{0xBEu, 0x10u},
 395:.\Generated_Source\PSoC4/cyfitter_cfg.c **** 			{0xD8u, 0x04u},
 396:.\Generated_Source\PSoC4/cyfitter_cfg.c **** 			{0xDFu, 0x01u},
 397:.\Generated_Source\PSoC4/cyfitter_cfg.c **** 			{0x04u, 0x10u},
 398:.\Generated_Source\PSoC4/cyfitter_cfg.c **** 			{0x0Du, 0x80u},
 399:.\Generated_Source\PSoC4/cyfitter_cfg.c **** 			{0x0Fu, 0x20u},
 400:.\Generated_Source\PSoC4/cyfitter_cfg.c **** 			{0x16u, 0x80u},
 401:.\Generated_Source\PSoC4/cyfitter_cfg.c **** 			{0x17u, 0x40u},
 402:.\Generated_Source\PSoC4/cyfitter_cfg.c **** 			{0x1Au, 0x04u},
 403:.\Generated_Source\PSoC4/cyfitter_cfg.c **** 			{0x1Cu, 0x10u},
 404:.\Generated_Source\PSoC4/cyfitter_cfg.c **** 			{0x1Du, 0x80u},
 405:.\Generated_Source\PSoC4/cyfitter_cfg.c **** 			{0x1Eu, 0x08u},
 406:.\Generated_Source\PSoC4/cyfitter_cfg.c **** 			{0x1Fu, 0x01u},
 407:.\Generated_Source\PSoC4/cyfitter_cfg.c **** 			{0x24u, 0x40u},
 408:.\Generated_Source\PSoC4/cyfitter_cfg.c **** 			{0x27u, 0x20u},
 409:.\Generated_Source\PSoC4/cyfitter_cfg.c **** 			{0x37u, 0x20u},
 410:.\Generated_Source\PSoC4/cyfitter_cfg.c **** 			{0x3Fu, 0x20u},
 411:.\Generated_Source\PSoC4/cyfitter_cfg.c **** 			{0x45u, 0x80u},
 412:.\Generated_Source\PSoC4/cyfitter_cfg.c **** 			{0x4Fu, 0x81u},
 413:.\Generated_Source\PSoC4/cyfitter_cfg.c **** 			{0x56u, 0x80u},
 414:.\Generated_Source\PSoC4/cyfitter_cfg.c **** 			{0x57u, 0x50u},
 415:.\Generated_Source\PSoC4/cyfitter_cfg.c **** 			{0x5Cu, 0x40u},
 416:.\Generated_Source\PSoC4/cyfitter_cfg.c **** 			{0x5Eu, 0x08u},
 417:.\Generated_Source\PSoC4/cyfitter_cfg.c **** 			{0x5Fu, 0x01u},
 418:.\Generated_Source\PSoC4/cyfitter_cfg.c **** 			{0x77u, 0x40u},
 419:.\Generated_Source\PSoC4/cyfitter_cfg.c **** 			{0x86u, 0x04u},
 420:.\Generated_Source\PSoC4/cyfitter_cfg.c **** 			{0x8Fu, 0x01u},
 421:.\Generated_Source\PSoC4/cyfitter_cfg.c **** 			{0xC0u, 0x40u},
 422:.\Generated_Source\PSoC4/cyfitter_cfg.c **** 			{0xC2u, 0xA0u},
 423:.\Generated_Source\PSoC4/cyfitter_cfg.c **** 			{0xC4u, 0x90u},
 424:.\Generated_Source\PSoC4/cyfitter_cfg.c **** 			{0xCCu, 0x20u},
 425:.\Generated_Source\PSoC4/cyfitter_cfg.c **** 			{0xCEu, 0x20u},
 426:.\Generated_Source\PSoC4/cyfitter_cfg.c **** 			{0xD0u, 0x10u},
 427:.\Generated_Source\PSoC4/cyfitter_cfg.c **** 			{0xD2u, 0x10u},
 428:.\Generated_Source\PSoC4/cyfitter_cfg.c **** 			{0xD6u, 0xD0u},
 429:.\Generated_Source\PSoC4/cyfitter_cfg.c **** 			{0x3Bu, 0x04u},
 430:.\Generated_Source\PSoC4/cyfitter_cfg.c **** 			{0x3Fu, 0x04u},
 431:.\Generated_Source\PSoC4/cyfitter_cfg.c **** 			{0x87u, 0x04u},
 432:.\Generated_Source\PSoC4/cyfitter_cfg.c **** 			{0xCEu, 0xC0u},
 433:.\Generated_Source\PSoC4/cyfitter_cfg.c **** 			{0xE2u, 0x40u},
 434:.\Generated_Source\PSoC4/cyfitter_cfg.c **** 			{0x63u, 0x08u},
 435:.\Generated_Source\PSoC4/cyfitter_cfg.c **** 			{0x8Fu, 0x04u},
ARM GAS  C:\Users\Alan\AppData\Local\Temp\ccCQ5qXe.s 			page 16


 436:.\Generated_Source\PSoC4/cyfitter_cfg.c **** 			{0xD8u, 0x02u},
 437:.\Generated_Source\PSoC4/cyfitter_cfg.c **** 			{0xE0u, 0x02u},
 438:.\Generated_Source\PSoC4/cyfitter_cfg.c **** 			{0x01u, 0x01u},
 439:.\Generated_Source\PSoC4/cyfitter_cfg.c **** 			{0x10u, 0x01u},
 440:.\Generated_Source\PSoC4/cyfitter_cfg.c **** 		};
 441:.\Generated_Source\PSoC4/cyfitter_cfg.c **** 
 442:.\Generated_Source\PSoC4/cyfitter_cfg.c **** 
 443:.\Generated_Source\PSoC4/cyfitter_cfg.c **** 
 444:.\Generated_Source\PSoC4/cyfitter_cfg.c **** 		CYPACKED typedef struct {
 445:.\Generated_Source\PSoC4/cyfitter_cfg.c **** 			void CYFAR *address;
 446:.\Generated_Source\PSoC4/cyfitter_cfg.c **** 			uint16 size;
 447:.\Generated_Source\PSoC4/cyfitter_cfg.c **** 		} CYPACKED_ATTR cfg_memset_t;
 448:.\Generated_Source\PSoC4/cyfitter_cfg.c **** 
 449:.\Generated_Source\PSoC4/cyfitter_cfg.c **** 		static const cfg_memset_t CYCODE cfg_memset_list [] = {
 450:.\Generated_Source\PSoC4/cyfitter_cfg.c **** 			/* address, size */
 451:.\Generated_Source\PSoC4/cyfitter_cfg.c **** 			{(void CYFAR *)(CYDEV_UDB_P0_U0_BASE), 1024u},
 452:.\Generated_Source\PSoC4/cyfitter_cfg.c **** 			{(void CYFAR *)(CYDEV_UDB_DSI0_BASE), 1024u},
 453:.\Generated_Source\PSoC4/cyfitter_cfg.c **** 		};
 454:.\Generated_Source\PSoC4/cyfitter_cfg.c **** 
 455:.\Generated_Source\PSoC4/cyfitter_cfg.c **** 		uint8 CYDATA i;
 456:.\Generated_Source\PSoC4/cyfitter_cfg.c **** 
 457:.\Generated_Source\PSoC4/cyfitter_cfg.c **** 		/* Zero out critical memory blocks before beginning configuration */
 458:.\Generated_Source\PSoC4/cyfitter_cfg.c **** 		for (i = 0u; i < (sizeof(cfg_memset_list)/sizeof(cfg_memset_list[0])); i++)
 409              		.loc 1 458 0
 410 0112 0024     		mov	r4, #0
 411 0114 10E0     		b	.L21
 412              	.LVL34:
 413              	.L22:
 414              	.LBB4:
 459:.\Generated_Source\PSoC4/cyfitter_cfg.c **** 		{
 460:.\Generated_Source\PSoC4/cyfitter_cfg.c **** 			const cfg_memset_t CYCODE * CYDATA ms = &cfg_memset_list[i];
 461:.\Generated_Source\PSoC4/cyfitter_cfg.c **** 			CYMEMZERO(ms->address, (size_t)(uint32)(ms->size));
 415              		.loc 1 461 0 discriminator 3
 416 0116 3148     		ldr	r0, .L23+4
 417 0118 6300     		lsl	r3, r4, #1
 418 011a 1A19     		add	r2, r3, r4
 419 011c 5200     		lsl	r2, r2, #1
 420 011e 8218     		add	r2, r0, r2
 421 0120 9188     		ldrh	r1, [r2, #4]
 422 0122 1B19     		add	r3, r3, r4
 423 0124 5B00     		lsl	r3, r3, #1
 424 0126 1A5A     		ldrh	r2, [r3, r0]
 425 0128 C318     		add	r3, r0, r3
 426 012a 5888     		ldrh	r0, [r3, #2]
 427 012c 0004     		lsl	r0, r0, #16
 428 012e 1043     		orr	r0, r2
 429 0130 FFF7FEFF 		bl	CYMEMZERO
 430              	.LVL35:
 431              	.LBE4:
 458:.\Generated_Source\PSoC4/cyfitter_cfg.c **** 		{
 432              		.loc 1 458 0 discriminator 3
 433 0134 0134     		add	r4, r4, #1
 434              	.LVL36:
 435 0136 E4B2     		uxtb	r4, r4
 436              	.LVL37:
 437              	.L21:
 458:.\Generated_Source\PSoC4/cyfitter_cfg.c **** 		{
ARM GAS  C:\Users\Alan\AppData\Local\Temp\ccCQ5qXe.s 			page 17


 438              		.loc 1 458 0 is_stmt 0 discriminator 1
 439 0138 012C     		cmp	r4, #1
 440 013a ECD9     		bls	.L22
 462:.\Generated_Source\PSoC4/cyfitter_cfg.c **** 		}
 463:.\Generated_Source\PSoC4/cyfitter_cfg.c **** 
 464:.\Generated_Source\PSoC4/cyfitter_cfg.c **** 		cfg_write_bytes32(cy_cfg_addr_table, cy_cfg_data_table);
 441              		.loc 1 464 0 is_stmt 1
 442 013c 2749     		ldr	r1, .L23+4
 443 013e 081C     		mov	r0, r1
 444 0140 0C30     		add	r0, r0, #12
 445 0142 2431     		add	r1, r1, #36
 446 0144 FFF7FEFF 		bl	cfg_write_bytes32
 447              	.LVL38:
 465:.\Generated_Source\PSoC4/cyfitter_cfg.c **** 
 466:.\Generated_Source\PSoC4/cyfitter_cfg.c **** 		/* PWR_BG_CONFIG Starting address: CYDEV_PWR_BG_CONFIG */
 467:.\Generated_Source\PSoC4/cyfitter_cfg.c **** 		CY_SET_XTND_REG32((void CYFAR *)(CYREG_PWR_BG_CONFIG), 0x00040000u);
 448              		.loc 1 467 0
 449 0148 8022     		mov	r2, #128
 450 014a D202     		lsl	r2, r2, #11
 451 014c 244B     		ldr	r3, .L23+8
 452 014e 1A60     		str	r2, [r3]
 468:.\Generated_Source\PSoC4/cyfitter_cfg.c **** 
 469:.\Generated_Source\PSoC4/cyfitter_cfg.c **** 		/* HSIOM Starting address: CYDEV_HSIOM_BASE */
 470:.\Generated_Source\PSoC4/cyfitter_cfg.c **** 		CY_SET_XTND_REG32((void CYFAR *)(CYDEV_HSIOM_BASE), 0xEE000000u);
 453              		.loc 1 470 0
 454 0150 EE22     		mov	r2, #238
 455 0152 1206     		lsl	r2, r2, #24
 456 0154 234B     		ldr	r3, .L23+12
 457 0156 1A60     		str	r2, [r3]
 471:.\Generated_Source\PSoC4/cyfitter_cfg.c **** 		CY_SET_XTND_REG32((void CYFAR *)(CYREG_HSIOM_PORT_SEL3), 0x30000000u);
 458              		.loc 1 471 0
 459 0158 C022     		mov	r2, #192
 460 015a 9205     		lsl	r2, r2, #22
 461 015c 224B     		ldr	r3, .L23+16
 462 015e 1A60     		str	r2, [r3]
 472:.\Generated_Source\PSoC4/cyfitter_cfg.c **** 
 473:.\Generated_Source\PSoC4/cyfitter_cfg.c **** 		/* UDB_PA_0 Starting address: CYDEV_UDB_PA0_BASE */
 474:.\Generated_Source\PSoC4/cyfitter_cfg.c **** 		CY_SET_XTND_REG32((void CYFAR *)(CYDEV_UDB_PA0_BASE), 0x00990000u);
 463              		.loc 1 474 0
 464 0160 9923     		mov	r3, #153
 465 0162 1B04     		lsl	r3, r3, #16
 466 0164 214A     		ldr	r2, .L23+20
 467 0166 1360     		str	r3, [r2]
 475:.\Generated_Source\PSoC4/cyfitter_cfg.c **** 
 476:.\Generated_Source\PSoC4/cyfitter_cfg.c **** 		/* UDB_PA_2 Starting address: CYDEV_UDB_PA2_BASE */
 477:.\Generated_Source\PSoC4/cyfitter_cfg.c **** 		CY_SET_XTND_REG32((void CYFAR *)(CYDEV_UDB_PA2_BASE), 0x00990000u);
 468              		.loc 1 477 0
 469 0168 214A     		ldr	r2, .L23+24
 470 016a 1360     		str	r3, [r2]
 478:.\Generated_Source\PSoC4/cyfitter_cfg.c **** 
 479:.\Generated_Source\PSoC4/cyfitter_cfg.c **** 		/* UDB_PA_3 Starting address: CYDEV_UDB_PA3_BASE */
 480:.\Generated_Source\PSoC4/cyfitter_cfg.c **** 		CY_SET_XTND_REG32((void CYFAR *)(CYDEV_UDB_PA3_BASE), 0x00990000u);
 471              		.loc 1 480 0
 472 016c 214A     		ldr	r2, .L23+28
 473 016e 1360     		str	r3, [r2]
 481:.\Generated_Source\PSoC4/cyfitter_cfg.c **** 		CY_SET_XTND_REG32((void CYFAR *)(CYREG_UDB_PA3_CFG8), 0x80000000u);
 474              		.loc 1 481 0
ARM GAS  C:\Users\Alan\AppData\Local\Temp\ccCQ5qXe.s 			page 18


 475 0170 8022     		mov	r2, #128
 476 0172 1206     		lsl	r2, r2, #24
 477 0174 204B     		ldr	r3, .L23+32
 478 0176 1A60     		str	r2, [r3]
 482:.\Generated_Source\PSoC4/cyfitter_cfg.c **** 
 483:.\Generated_Source\PSoC4/cyfitter_cfg.c **** 		/* Enable digital routing */
 484:.\Generated_Source\PSoC4/cyfitter_cfg.c **** 		CY_SET_XTND_REG8((void *)CYREG_UDB_UDBIF_BANK_CTL, CY_GET_XTND_REG8((void *)CYREG_UDB_UDBIF_BANK_
 479              		.loc 1 484 0
 480 0178 204B     		ldr	r3, .L23+36
 481 017a 1978     		ldrb	r1, [r3]
 482 017c 0222     		mov	r2, #2
 483 017e 0A43     		orr	r2, r1
 484 0180 1A70     		strb	r2, [r3]
 485:.\Generated_Source\PSoC4/cyfitter_cfg.c **** 
 486:.\Generated_Source\PSoC4/cyfitter_cfg.c **** 		/* Enable UDB array */
 487:.\Generated_Source\PSoC4/cyfitter_cfg.c **** 		CY_SET_XTND_REG8((void *)CYREG_UDB_UDBIF_WAIT_CFG, (uint8)((CY_GET_XTND_REG8((void *)CYREG_UDB_UD
 485              		.loc 1 487 0
 486 0182 1F48     		ldr	r0, .L23+40
 487 0184 0278     		ldrb	r2, [r0]
 488 0186 3C21     		mov	r1, #60
 489 0188 8A43     		bic	r2, r1
 490 018a 2839     		sub	r1, r1, #40
 491 018c 0A43     		orr	r2, r1
 492 018e 0270     		strb	r2, [r0]
 488:.\Generated_Source\PSoC4/cyfitter_cfg.c **** 		CY_SET_XTND_REG8((void *)CYREG_UDB_UDBIF_BANK_CTL, (uint8)(CY_GET_XTND_REG8((void *)CYREG_UDB_UDB
 493              		.loc 1 488 0
 494 0190 1978     		ldrb	r1, [r3]
 495 0192 1622     		mov	r2, #22
 496 0194 0A43     		orr	r2, r1
 497 0196 1A70     		strb	r2, [r3]
 498              	.LBE3:
 489:.\Generated_Source\PSoC4/cyfitter_cfg.c **** 	}
 490:.\Generated_Source\PSoC4/cyfitter_cfg.c **** 
 491:.\Generated_Source\PSoC4/cyfitter_cfg.c **** 	/* Perform second pass device configuration. These items must be configured in specific order afte
 492:.\Generated_Source\PSoC4/cyfitter_cfg.c **** 	/* IOPINS0_0 Starting address: CYDEV_GPIO_PRT0_BASE */
 493:.\Generated_Source\PSoC4/cyfitter_cfg.c **** 	CY_SET_XTND_REG32((void CYFAR *)(CYREG_GPIO_PRT0_PC), 0x00D80000u);
 499              		.loc 1 493 0
 500 0198 D822     		mov	r2, #216
 501 019a 1204     		lsl	r2, r2, #16
 502 019c 194B     		ldr	r3, .L23+44
 503 019e 1A60     		str	r2, [r3]
 494:.\Generated_Source\PSoC4/cyfitter_cfg.c **** 
 495:.\Generated_Source\PSoC4/cyfitter_cfg.c **** 	/* IOPINS0_2 Starting address: CYDEV_GPIO_PRT2_BASE */
 496:.\Generated_Source\PSoC4/cyfitter_cfg.c **** 	CY_SET_XTND_REG32((void CYFAR *)(CYDEV_GPIO_PRT2_BASE), 0x0000007Eu);
 504              		.loc 1 496 0
 505 01a0 7E22     		mov	r2, #126
 506 01a2 194B     		ldr	r3, .L23+48
 507 01a4 1A60     		str	r2, [r3]
 497:.\Generated_Source\PSoC4/cyfitter_cfg.c **** 	CY_SET_XTND_REG32((void CYFAR *)(CYREG_GPIO_PRT2_PC), 0x00180000u);
 508              		.loc 1 497 0
 509 01a6 C022     		mov	r2, #192
 510 01a8 5203     		lsl	r2, r2, #13
 511 01aa 184B     		ldr	r3, .L23+52
 512 01ac 1A60     		str	r2, [r3]
 498:.\Generated_Source\PSoC4/cyfitter_cfg.c **** 	CY_SET_XTND_REG32((void CYFAR *)(CYREG_GPIO_PRT2_PC2), 0x0000003Eu);
 513              		.loc 1 498 0
 514 01ae 3E22     		mov	r2, #62
ARM GAS  C:\Users\Alan\AppData\Local\Temp\ccCQ5qXe.s 			page 19


 515 01b0 174B     		ldr	r3, .L23+56
 516 01b2 1A60     		str	r2, [r3]
 499:.\Generated_Source\PSoC4/cyfitter_cfg.c **** 
 500:.\Generated_Source\PSoC4/cyfitter_cfg.c **** 	/* IOPINS0_3 Starting address: CYDEV_GPIO_PRT3_BASE */
 501:.\Generated_Source\PSoC4/cyfitter_cfg.c **** 	CY_SET_XTND_REG32((void CYFAR *)(CYDEV_GPIO_PRT3_BASE), 0x00000080u);
 517              		.loc 1 501 0
 518 01b4 4232     		add	r2, r2, #66
 519 01b6 174B     		ldr	r3, .L23+60
 520 01b8 1A60     		str	r2, [r3]
 502:.\Generated_Source\PSoC4/cyfitter_cfg.c **** 	CY_SET_XTND_REG32((void CYFAR *)(CYREG_GPIO_PRT3_PC), 0x00C00000u);
 521              		.loc 1 502 0
 522 01ba C022     		mov	r2, #192
 523 01bc 1204     		lsl	r2, r2, #16
 524 01be 164B     		ldr	r3, .L23+64
 525 01c0 1A60     		str	r2, [r3]
 503:.\Generated_Source\PSoC4/cyfitter_cfg.c **** 
 504:.\Generated_Source\PSoC4/cyfitter_cfg.c **** 	/* IOPINS0_4 Starting address: CYDEV_GPIO_PRT4_BASE */
 505:.\Generated_Source\PSoC4/cyfitter_cfg.c **** 	CY_SET_XTND_REG32((void CYFAR *)(CYDEV_GPIO_PRT4_BASE), 0x00000001u);
 526              		.loc 1 505 0
 527 01c2 0123     		mov	r3, #1
 528 01c4 154A     		ldr	r2, .L23+68
 529 01c6 1360     		str	r3, [r2]
 506:.\Generated_Source\PSoC4/cyfitter_cfg.c **** 	CY_SET_XTND_REG32((void CYFAR *)(CYREG_GPIO_PRT4_PC2), 0x00000001u);
 530              		.loc 1 506 0
 531 01c8 154A     		ldr	r2, .L23+72
 532 01ca 1360     		str	r3, [r2]
 507:.\Generated_Source\PSoC4/cyfitter_cfg.c **** 
 508:.\Generated_Source\PSoC4/cyfitter_cfg.c **** 
 509:.\Generated_Source\PSoC4/cyfitter_cfg.c **** 	/* Setup clocks based on selections from Clock DWR */
 510:.\Generated_Source\PSoC4/cyfitter_cfg.c **** 	ClockSetup();
 533              		.loc 1 510 0
 534 01cc FFF718FF 		bl	ClockSetup
 535              	.LVL39:
 511:.\Generated_Source\PSoC4/cyfitter_cfg.c **** 
 512:.\Generated_Source\PSoC4/cyfitter_cfg.c **** 	/* Perform basic analog initialization to defaults */
 513:.\Generated_Source\PSoC4/cyfitter_cfg.c **** 	AnalogSetDefault();
 536              		.loc 1 513 0
 537 01d0 FFF7FEFF 		bl	AnalogSetDefault
 538              	.LVL40:
 514:.\Generated_Source\PSoC4/cyfitter_cfg.c **** 
 515:.\Generated_Source\PSoC4/cyfitter_cfg.c **** }
 539              		.loc 1 515 0
 540              		@ sp needed
 541              	.LVL41:
 542 01d4 10BD     		pop	{r4, pc}
 543              	.L24:
 544 01d6 C046     		.align	2
 545              	.L23:
 546 01d8 6CF02E40 		.word	1076818028
 547 01dc 00000000 		.word	.LANCHOR0
 548 01e0 14000B40 		.word	1074462740
 549 01e4 00000240 		.word	1073872896
 550 01e8 00030240 		.word	1073873664
 551 01ec 00500F40 		.word	1074745344
 552 01f0 20500F40 		.word	1074745376
 553 01f4 30500F40 		.word	1074745392
 554 01f8 38500F40 		.word	1074745400
ARM GAS  C:\Users\Alan\AppData\Local\Temp\ccCQ5qXe.s 			page 20


 555 01fc 00700F40 		.word	1074753536
 556 0200 01700F40 		.word	1074753537
 557 0204 08000440 		.word	1074003976
 558 0208 00020440 		.word	1074004480
 559 020c 08020440 		.word	1074004488
 560 0210 18020440 		.word	1074004504
 561 0214 00030440 		.word	1074004736
 562 0218 08030440 		.word	1074004744
 563 021c 00040440 		.word	1074004992
 564 0220 18040440 		.word	1074005016
 565              		.cfi_endproc
 566              	.LFE9:
 567              		.size	cyfitter_cfg, .-cyfitter_cfg
 568              		.section	.rodata
 569              		.align	2
 570              		.set	.LANCHOR0,. + 0
 571              		.type	cfg_memset_list.4771, %object
 572              		.size	cfg_memset_list.4771, 12
 573              	cfg_memset_list.4771:
 574 0000 00300F40 		.word	1074737152
 575 0004 0004     		.short	1024
 576 0006 00400F40 		.4byte	1074741248
 577 000a 0004     		.short	1024
 578              		.type	cy_cfg_addr_table.4765, %object
 579              		.size	cy_cfg_addr_table.4765, 24
 580              	cy_cfg_addr_table.4765:
 581 000c 01000F40 		.word	1074724865
 582 0010 2D320F40 		.word	1074737709
 583 0014 20330F40 		.word	1074737952
 584 0018 05410F40 		.word	1074741509
 585 001c 04430F40 		.word	1074742020
 586 0020 02600F40 		.word	1074749442
 587              		.type	cy_cfg_data_table.4766, %object
 588              		.size	cy_cfg_data_table.4766, 178
 589              	cy_cfg_data_table.4766:
 590 0024 82       		.byte	-126
 591 0025 0D       		.byte	13
 592 0026 08       		.byte	8
 593 0027 08       		.byte	8
 594 0028 0B       		.byte	11
 595 0029 03       		.byte	3
 596 002a 16       		.byte	22
 597 002b 04       		.byte	4
 598 002c 19       		.byte	25
 599 002d 02       		.byte	2
 600 002e 1E       		.byte	30
 601 002f 05       		.byte	5
 602 0030 22       		.byte	34
 603 0031 01       		.byte	1
 604 0032 2E       		.byte	46
 605 0033 02       		.byte	2
 606 0034 30       		.byte	48
 607 0035 08       		.byte	8
 608 0036 31       		.byte	49
 609 0037 02       		.byte	2
 610 0038 32       		.byte	50
 611 0039 04       		.byte	4
ARM GAS  C:\Users\Alan\AppData\Local\Temp\ccCQ5qXe.s 			page 21


 612 003a 33       		.byte	51
 613 003b 01       		.byte	1
 614 003c 34       		.byte	52
 615 003d 01       		.byte	1
 616 003e 36       		.byte	54
 617 003f 02       		.byte	2
 618 0040 3E       		.byte	62
 619 0041 11       		.byte	17
 620 0042 40       		.byte	64
 621 0043 10       		.byte	16
 622 0044 41       		.byte	65
 623 0045 05       		.byte	5
 624 0046 45       		.byte	69
 625 0047 D0       		.byte	-48
 626 0048 46       		.byte	70
 627 0049 12       		.byte	18
 628 004a 48       		.byte	72
 629 004b 0E       		.byte	14
 630 004c 49       		.byte	73
 631 004d FF       		.byte	-1
 632 004e 4A       		.byte	74
 633 004f FF       		.byte	-1
 634 0050 4B       		.byte	75
 635 0051 FF       		.byte	-1
 636 0052 4D       		.byte	77
 637 0053 A0       		.byte	-96
 638 0054 4F       		.byte	79
 639 0055 04       		.byte	4
 640 0056 50       		.byte	80
 641 0057 18       		.byte	24
 642 0058 52       		.byte	82
 643 0059 80       		.byte	-128
 644 005a 54       		.byte	84
 645 005b 05       		.byte	5
 646 005c 58       		.byte	88
 647 005d 04       		.byte	4
 648 005e 59       		.byte	89
 649 005f 04       		.byte	4
 650 0060 5A       		.byte	90
 651 0061 04       		.byte	4
 652 0062 5B       		.byte	91
 653 0063 04       		.byte	4
 654 0064 5F       		.byte	95
 655 0065 01       		.byte	1
 656 0066 60       		.byte	96
 657 0067 40       		.byte	64
 658 0068 62       		.byte	98
 659 0069 C0       		.byte	-64
 660 006a 64       		.byte	100
 661 006b 40       		.byte	64
 662 006c 65       		.byte	101
 663 006d 40       		.byte	64
 664 006e 66       		.byte	102
 665 006f C0       		.byte	-64
 666 0070 68       		.byte	104
 667 0071 C0       		.byte	-64
 668 0072 6A       		.byte	106
ARM GAS  C:\Users\Alan\AppData\Local\Temp\ccCQ5qXe.s 			page 22


 669 0073 C0       		.byte	-64
 670 0074 6C       		.byte	108
 671 0075 C0       		.byte	-64
 672 0076 6E       		.byte	110
 673 0077 C0       		.byte	-64
 674 0078 B8       		.byte	-72
 675 0079 20       		.byte	32
 676 007a BE       		.byte	-66
 677 007b 10       		.byte	16
 678 007c D8       		.byte	-40
 679 007d 04       		.byte	4
 680 007e DF       		.byte	-33
 681 007f 01       		.byte	1
 682 0080 04       		.byte	4
 683 0081 10       		.byte	16
 684 0082 0D       		.byte	13
 685 0083 80       		.byte	-128
 686 0084 0F       		.byte	15
 687 0085 20       		.byte	32
 688 0086 16       		.byte	22
 689 0087 80       		.byte	-128
 690 0088 17       		.byte	23
 691 0089 40       		.byte	64
 692 008a 1A       		.byte	26
 693 008b 04       		.byte	4
 694 008c 1C       		.byte	28
 695 008d 10       		.byte	16
 696 008e 1D       		.byte	29
 697 008f 80       		.byte	-128
 698 0090 1E       		.byte	30
 699 0091 08       		.byte	8
 700 0092 1F       		.byte	31
 701 0093 01       		.byte	1
 702 0094 24       		.byte	36
 703 0095 40       		.byte	64
 704 0096 27       		.byte	39
 705 0097 20       		.byte	32
 706 0098 37       		.byte	55
 707 0099 20       		.byte	32
 708 009a 3F       		.byte	63
 709 009b 20       		.byte	32
 710 009c 45       		.byte	69
 711 009d 80       		.byte	-128
 712 009e 4F       		.byte	79
 713 009f 81       		.byte	-127
 714 00a0 56       		.byte	86
 715 00a1 80       		.byte	-128
 716 00a2 57       		.byte	87
 717 00a3 50       		.byte	80
 718 00a4 5C       		.byte	92
 719 00a5 40       		.byte	64
 720 00a6 5E       		.byte	94
 721 00a7 08       		.byte	8
 722 00a8 5F       		.byte	95
 723 00a9 01       		.byte	1
 724 00aa 77       		.byte	119
 725 00ab 40       		.byte	64
ARM GAS  C:\Users\Alan\AppData\Local\Temp\ccCQ5qXe.s 			page 23


 726 00ac 86       		.byte	-122
 727 00ad 04       		.byte	4
 728 00ae 8F       		.byte	-113
 729 00af 01       		.byte	1
 730 00b0 C0       		.byte	-64
 731 00b1 40       		.byte	64
 732 00b2 C2       		.byte	-62
 733 00b3 A0       		.byte	-96
 734 00b4 C4       		.byte	-60
 735 00b5 90       		.byte	-112
 736 00b6 CC       		.byte	-52
 737 00b7 20       		.byte	32
 738 00b8 CE       		.byte	-50
 739 00b9 20       		.byte	32
 740 00ba D0       		.byte	-48
 741 00bb 10       		.byte	16
 742 00bc D2       		.byte	-46
 743 00bd 10       		.byte	16
 744 00be D6       		.byte	-42
 745 00bf D0       		.byte	-48
 746 00c0 3B       		.byte	59
 747 00c1 04       		.byte	4
 748 00c2 3F       		.byte	63
 749 00c3 04       		.byte	4
 750 00c4 87       		.byte	-121
 751 00c5 04       		.byte	4
 752 00c6 CE       		.byte	-50
 753 00c7 C0       		.byte	-64
 754 00c8 E2       		.byte	-30
 755 00c9 40       		.byte	64
 756 00ca 63       		.byte	99
 757 00cb 08       		.byte	8
 758 00cc 8F       		.byte	-113
 759 00cd 04       		.byte	4
 760 00ce D8       		.byte	-40
 761 00cf 02       		.byte	2
 762 00d0 E0       		.byte	-32
 763 00d1 02       		.byte	2
 764 00d2 01       		.byte	1
 765 00d3 01       		.byte	1
 766 00d4 10       		.byte	16
 767 00d5 01       		.byte	1
 768 00d6 0000     		.text
 769              	.Letext0:
 770              		.file 2 "c:\\program files (x86)\\cypress\\psoc creator\\3.3\\psoc creator\\import\\gnu\\arm\\4.9.
 771              		.file 3 ".\\Generated_Source\\PSoC4\\cytypes.h"
 772              		.file 4 ".\\Generated_Source\\PSoC4\\CyLib.h"
 773              		.file 5 ".\\Generated_Source\\PSoC4\\CyLFClk.h"