ARM GAS  C:\Users\Alan\AppData\Local\Temp\ccxKTOkA.s 			page 1


   1              		.cpu cortex-m0
   2              		.fpu softvfp
   3              		.eabi_attribute 20, 1
   4              		.eabi_attribute 21, 1
   5              		.eabi_attribute 23, 3
   6              		.eabi_attribute 24, 1
   7              		.eabi_attribute 25, 1
   8              		.eabi_attribute 26, 1
   9              		.eabi_attribute 30, 1
  10              		.eabi_attribute 34, 0
  11              		.eabi_attribute 18, 4
  12              		.code	16
  13              		.file	"pwm_PM.c"
  14              		.text
  15              	.Ltext0:
  16              		.cfi_sections	.debug_frame
  17              		.section	.text.pwm_SaveConfig,"ax",%progbits
  18              		.align	2
  19              		.global	pwm_SaveConfig
  20              		.code	16
  21              		.thumb_func
  22              		.type	pwm_SaveConfig, %function
  23              	pwm_SaveConfig:
  24              	.LFB2:
  25              		.file 1 ".\\Generated_Source\\PSoC4\\pwm_PM.c"
   1:.\Generated_Source\PSoC4/pwm_PM.c **** /*******************************************************************************
   2:.\Generated_Source\PSoC4/pwm_PM.c **** * File Name: pwm_PM.c
   3:.\Generated_Source\PSoC4/pwm_PM.c **** * Version 3.30
   4:.\Generated_Source\PSoC4/pwm_PM.c **** *
   5:.\Generated_Source\PSoC4/pwm_PM.c **** * Description:
   6:.\Generated_Source\PSoC4/pwm_PM.c **** *  This file provides the power management source code to API for the
   7:.\Generated_Source\PSoC4/pwm_PM.c **** *  PWM.
   8:.\Generated_Source\PSoC4/pwm_PM.c **** *
   9:.\Generated_Source\PSoC4/pwm_PM.c **** * Note:
  10:.\Generated_Source\PSoC4/pwm_PM.c **** *
  11:.\Generated_Source\PSoC4/pwm_PM.c **** ********************************************************************************
  12:.\Generated_Source\PSoC4/pwm_PM.c **** * Copyright 2008-2014, Cypress Semiconductor Corporation.  All rights reserved.
  13:.\Generated_Source\PSoC4/pwm_PM.c **** * You may use this file only in accordance with the license, terms, conditions,
  14:.\Generated_Source\PSoC4/pwm_PM.c **** * disclaimers, and limitations in the end user license agreement accompanying
  15:.\Generated_Source\PSoC4/pwm_PM.c **** * the software package with which this file was provided.
  16:.\Generated_Source\PSoC4/pwm_PM.c **** *******************************************************************************/
  17:.\Generated_Source\PSoC4/pwm_PM.c **** 
  18:.\Generated_Source\PSoC4/pwm_PM.c **** #include "pwm.h"
  19:.\Generated_Source\PSoC4/pwm_PM.c **** 
  20:.\Generated_Source\PSoC4/pwm_PM.c **** static pwm_backupStruct pwm_backup;
  21:.\Generated_Source\PSoC4/pwm_PM.c **** 
  22:.\Generated_Source\PSoC4/pwm_PM.c **** 
  23:.\Generated_Source\PSoC4/pwm_PM.c **** /*******************************************************************************
  24:.\Generated_Source\PSoC4/pwm_PM.c **** * Function Name: pwm_SaveConfig
  25:.\Generated_Source\PSoC4/pwm_PM.c **** ********************************************************************************
  26:.\Generated_Source\PSoC4/pwm_PM.c **** *
  27:.\Generated_Source\PSoC4/pwm_PM.c **** * Summary:
  28:.\Generated_Source\PSoC4/pwm_PM.c **** *  Saves the current user configuration of the component.
  29:.\Generated_Source\PSoC4/pwm_PM.c **** *
  30:.\Generated_Source\PSoC4/pwm_PM.c **** * Parameters:
  31:.\Generated_Source\PSoC4/pwm_PM.c **** *  None
  32:.\Generated_Source\PSoC4/pwm_PM.c **** *
ARM GAS  C:\Users\Alan\AppData\Local\Temp\ccxKTOkA.s 			page 2


  33:.\Generated_Source\PSoC4/pwm_PM.c **** * Return:
  34:.\Generated_Source\PSoC4/pwm_PM.c **** *  None
  35:.\Generated_Source\PSoC4/pwm_PM.c **** *
  36:.\Generated_Source\PSoC4/pwm_PM.c **** * Global variables:
  37:.\Generated_Source\PSoC4/pwm_PM.c **** *  pwm_backup:  Variables of this global structure are modified to
  38:.\Generated_Source\PSoC4/pwm_PM.c **** *  store the values of non retention configuration registers when Sleep() API is
  39:.\Generated_Source\PSoC4/pwm_PM.c **** *  called.
  40:.\Generated_Source\PSoC4/pwm_PM.c **** *
  41:.\Generated_Source\PSoC4/pwm_PM.c **** *******************************************************************************/
  42:.\Generated_Source\PSoC4/pwm_PM.c **** void pwm_SaveConfig(void) 
  43:.\Generated_Source\PSoC4/pwm_PM.c **** {
  26              		.loc 1 43 0
  27              		.cfi_startproc
  28 0000 10B5     		push	{r4, lr}
  29              		.cfi_def_cfa_offset 8
  30              		.cfi_offset 4, -8
  31              		.cfi_offset 14, -4
  44:.\Generated_Source\PSoC4/pwm_PM.c **** 
  45:.\Generated_Source\PSoC4/pwm_PM.c ****     #if(!pwm_UsingFixedFunction)
  46:.\Generated_Source\PSoC4/pwm_PM.c ****         #if(!pwm_PWMModeIsCenterAligned)
  47:.\Generated_Source\PSoC4/pwm_PM.c ****             pwm_backup.PWMPeriod = pwm_ReadPeriod();
  32              		.loc 1 47 0
  33 0002 FFF7FEFF 		bl	pwm_ReadPeriod
  34              	.LVL0:
  35 0006 064C     		ldr	r4, .L2
  36 0008 A070     		strb	r0, [r4, #2]
  48:.\Generated_Source\PSoC4/pwm_PM.c ****         #endif /* (!pwm_PWMModeIsCenterAligned) */
  49:.\Generated_Source\PSoC4/pwm_PM.c ****         pwm_backup.PWMUdb = pwm_ReadCounter();
  37              		.loc 1 49 0
  38 000a FFF7FEFF 		bl	pwm_ReadCounter
  39              	.LVL1:
  40 000e 6070     		strb	r0, [r4, #1]
  50:.\Generated_Source\PSoC4/pwm_PM.c ****         #if (pwm_UseStatus)
  51:.\Generated_Source\PSoC4/pwm_PM.c ****             pwm_backup.InterruptMaskValue = pwm_STATUS_MASK;
  41              		.loc 1 51 0
  42 0010 044B     		ldr	r3, .L2+4
  43 0012 1B78     		ldrb	r3, [r3]
  44 0014 E370     		strb	r3, [r4, #3]
  52:.\Generated_Source\PSoC4/pwm_PM.c ****         #endif /* (pwm_UseStatus) */
  53:.\Generated_Source\PSoC4/pwm_PM.c **** 
  54:.\Generated_Source\PSoC4/pwm_PM.c ****         #if(pwm_DeadBandMode == pwm__B_PWM__DBM_256_CLOCKS || \
  55:.\Generated_Source\PSoC4/pwm_PM.c ****             pwm_DeadBandMode == pwm__B_PWM__DBM_2_4_CLOCKS)
  56:.\Generated_Source\PSoC4/pwm_PM.c ****             pwm_backup.PWMdeadBandValue = pwm_ReadDeadTime();
  57:.\Generated_Source\PSoC4/pwm_PM.c ****         #endif /*  deadband count is either 2-4 clocks or 256 clocks */
  58:.\Generated_Source\PSoC4/pwm_PM.c **** 
  59:.\Generated_Source\PSoC4/pwm_PM.c ****         #if(pwm_KillModeMinTime)
  60:.\Generated_Source\PSoC4/pwm_PM.c ****              pwm_backup.PWMKillCounterPeriod = pwm_ReadKillTime();
  61:.\Generated_Source\PSoC4/pwm_PM.c ****         #endif /* (pwm_KillModeMinTime) */
  62:.\Generated_Source\PSoC4/pwm_PM.c **** 
  63:.\Generated_Source\PSoC4/pwm_PM.c ****         #if(pwm_UseControl)
  64:.\Generated_Source\PSoC4/pwm_PM.c ****             pwm_backup.PWMControlRegister = pwm_ReadControlRegister();
  45              		.loc 1 64 0
  46 0016 FFF7FEFF 		bl	pwm_ReadControlRegister
  47              	.LVL2:
  48 001a 2071     		strb	r0, [r4, #4]
  65:.\Generated_Source\PSoC4/pwm_PM.c ****         #endif /* (pwm_UseControl) */
  66:.\Generated_Source\PSoC4/pwm_PM.c ****     #endif  /* (!pwm_UsingFixedFunction) */
ARM GAS  C:\Users\Alan\AppData\Local\Temp\ccxKTOkA.s 			page 3


  67:.\Generated_Source\PSoC4/pwm_PM.c **** }
  49              		.loc 1 67 0
  50              		@ sp needed
  51 001c 10BD     		pop	{r4, pc}
  52              	.L3:
  53 001e C046     		.align	2
  54              	.L2:
  55 0020 00000000 		.word	.LANCHOR0
  56 0024 82000F40 		.word	1074724994
  57              		.cfi_endproc
  58              	.LFE2:
  59              		.size	pwm_SaveConfig, .-pwm_SaveConfig
  60              		.section	.text.pwm_RestoreConfig,"ax",%progbits
  61              		.align	2
  62              		.global	pwm_RestoreConfig
  63              		.code	16
  64              		.thumb_func
  65              		.type	pwm_RestoreConfig, %function
  66              	pwm_RestoreConfig:
  67              	.LFB3:
  68:.\Generated_Source\PSoC4/pwm_PM.c **** 
  69:.\Generated_Source\PSoC4/pwm_PM.c **** 
  70:.\Generated_Source\PSoC4/pwm_PM.c **** /*******************************************************************************
  71:.\Generated_Source\PSoC4/pwm_PM.c **** * Function Name: pwm_RestoreConfig
  72:.\Generated_Source\PSoC4/pwm_PM.c **** ********************************************************************************
  73:.\Generated_Source\PSoC4/pwm_PM.c **** *
  74:.\Generated_Source\PSoC4/pwm_PM.c **** * Summary:
  75:.\Generated_Source\PSoC4/pwm_PM.c **** *  Restores the current user configuration of the component.
  76:.\Generated_Source\PSoC4/pwm_PM.c **** *
  77:.\Generated_Source\PSoC4/pwm_PM.c **** * Parameters:
  78:.\Generated_Source\PSoC4/pwm_PM.c **** *  None
  79:.\Generated_Source\PSoC4/pwm_PM.c **** *
  80:.\Generated_Source\PSoC4/pwm_PM.c **** * Return:
  81:.\Generated_Source\PSoC4/pwm_PM.c **** *  None
  82:.\Generated_Source\PSoC4/pwm_PM.c **** *
  83:.\Generated_Source\PSoC4/pwm_PM.c **** * Global variables:
  84:.\Generated_Source\PSoC4/pwm_PM.c **** *  pwm_backup:  Variables of this global structure are used to
  85:.\Generated_Source\PSoC4/pwm_PM.c **** *  restore the values of non retention registers on wakeup from sleep mode.
  86:.\Generated_Source\PSoC4/pwm_PM.c **** *
  87:.\Generated_Source\PSoC4/pwm_PM.c **** *******************************************************************************/
  88:.\Generated_Source\PSoC4/pwm_PM.c **** void pwm_RestoreConfig(void) 
  89:.\Generated_Source\PSoC4/pwm_PM.c **** {
  68              		.loc 1 89 0
  69              		.cfi_startproc
  70 0000 10B5     		push	{r4, lr}
  71              		.cfi_def_cfa_offset 8
  72              		.cfi_offset 4, -8
  73              		.cfi_offset 14, -4
  90:.\Generated_Source\PSoC4/pwm_PM.c ****         #if(!pwm_UsingFixedFunction)
  91:.\Generated_Source\PSoC4/pwm_PM.c ****             #if(!pwm_PWMModeIsCenterAligned)
  92:.\Generated_Source\PSoC4/pwm_PM.c ****                 pwm_WritePeriod(pwm_backup.PWMPeriod);
  74              		.loc 1 92 0
  75 0002 074C     		ldr	r4, .L5
  76 0004 A078     		ldrb	r0, [r4, #2]
  77 0006 FFF7FEFF 		bl	pwm_WritePeriod
  78              	.LVL3:
  93:.\Generated_Source\PSoC4/pwm_PM.c ****             #endif /* (!pwm_PWMModeIsCenterAligned) */
ARM GAS  C:\Users\Alan\AppData\Local\Temp\ccxKTOkA.s 			page 4


  94:.\Generated_Source\PSoC4/pwm_PM.c **** 
  95:.\Generated_Source\PSoC4/pwm_PM.c ****             pwm_WriteCounter(pwm_backup.PWMUdb);
  79              		.loc 1 95 0
  80 000a 6078     		ldrb	r0, [r4, #1]
  81 000c FFF7FEFF 		bl	pwm_WriteCounter
  82              	.LVL4:
  96:.\Generated_Source\PSoC4/pwm_PM.c **** 
  97:.\Generated_Source\PSoC4/pwm_PM.c ****             #if (pwm_UseStatus)
  98:.\Generated_Source\PSoC4/pwm_PM.c ****                 pwm_STATUS_MASK = pwm_backup.InterruptMaskValue;
  83              		.loc 1 98 0
  84 0010 E278     		ldrb	r2, [r4, #3]
  85 0012 044B     		ldr	r3, .L5+4
  86 0014 1A70     		strb	r2, [r3]
  99:.\Generated_Source\PSoC4/pwm_PM.c ****             #endif /* (pwm_UseStatus) */
 100:.\Generated_Source\PSoC4/pwm_PM.c **** 
 101:.\Generated_Source\PSoC4/pwm_PM.c ****             #if(pwm_DeadBandMode == pwm__B_PWM__DBM_256_CLOCKS || \
 102:.\Generated_Source\PSoC4/pwm_PM.c ****                 pwm_DeadBandMode == pwm__B_PWM__DBM_2_4_CLOCKS)
 103:.\Generated_Source\PSoC4/pwm_PM.c ****                 pwm_WriteDeadTime(pwm_backup.PWMdeadBandValue);
 104:.\Generated_Source\PSoC4/pwm_PM.c ****             #endif /* deadband count is either 2-4 clocks or 256 clocks */
 105:.\Generated_Source\PSoC4/pwm_PM.c **** 
 106:.\Generated_Source\PSoC4/pwm_PM.c ****             #if(pwm_KillModeMinTime)
 107:.\Generated_Source\PSoC4/pwm_PM.c ****                 pwm_WriteKillTime(pwm_backup.PWMKillCounterPeriod);
 108:.\Generated_Source\PSoC4/pwm_PM.c ****             #endif /* (pwm_KillModeMinTime) */
 109:.\Generated_Source\PSoC4/pwm_PM.c **** 
 110:.\Generated_Source\PSoC4/pwm_PM.c ****             #if(pwm_UseControl)
 111:.\Generated_Source\PSoC4/pwm_PM.c ****                 pwm_WriteControlRegister(pwm_backup.PWMControlRegister);
  87              		.loc 1 111 0
  88 0016 2079     		ldrb	r0, [r4, #4]
  89 0018 FFF7FEFF 		bl	pwm_WriteControlRegister
  90              	.LVL5:
 112:.\Generated_Source\PSoC4/pwm_PM.c ****             #endif /* (pwm_UseControl) */
 113:.\Generated_Source\PSoC4/pwm_PM.c ****         #endif  /* (!pwm_UsingFixedFunction) */
 114:.\Generated_Source\PSoC4/pwm_PM.c ****     }
  91              		.loc 1 114 0
  92              		@ sp needed
  93 001c 10BD     		pop	{r4, pc}
  94              	.L6:
  95 001e C046     		.align	2
  96              	.L5:
  97 0020 00000000 		.word	.LANCHOR0
  98 0024 82000F40 		.word	1074724994
  99              		.cfi_endproc
 100              	.LFE3:
 101              		.size	pwm_RestoreConfig, .-pwm_RestoreConfig
 102              		.section	.text.pwm_Sleep,"ax",%progbits
 103              		.align	2
 104              		.global	pwm_Sleep
 105              		.code	16
 106              		.thumb_func
 107              		.type	pwm_Sleep, %function
 108              	pwm_Sleep:
 109              	.LFB4:
 115:.\Generated_Source\PSoC4/pwm_PM.c **** 
 116:.\Generated_Source\PSoC4/pwm_PM.c **** 
 117:.\Generated_Source\PSoC4/pwm_PM.c **** /*******************************************************************************
 118:.\Generated_Source\PSoC4/pwm_PM.c **** * Function Name: pwm_Sleep
 119:.\Generated_Source\PSoC4/pwm_PM.c **** ********************************************************************************
ARM GAS  C:\Users\Alan\AppData\Local\Temp\ccxKTOkA.s 			page 5


 120:.\Generated_Source\PSoC4/pwm_PM.c **** *
 121:.\Generated_Source\PSoC4/pwm_PM.c **** * Summary:
 122:.\Generated_Source\PSoC4/pwm_PM.c **** *  Disables block's operation and saves the user configuration. Should be called
 123:.\Generated_Source\PSoC4/pwm_PM.c **** *  just prior to entering sleep.
 124:.\Generated_Source\PSoC4/pwm_PM.c **** *
 125:.\Generated_Source\PSoC4/pwm_PM.c **** * Parameters:
 126:.\Generated_Source\PSoC4/pwm_PM.c **** *  None
 127:.\Generated_Source\PSoC4/pwm_PM.c **** *
 128:.\Generated_Source\PSoC4/pwm_PM.c **** * Return:
 129:.\Generated_Source\PSoC4/pwm_PM.c **** *  None
 130:.\Generated_Source\PSoC4/pwm_PM.c **** *
 131:.\Generated_Source\PSoC4/pwm_PM.c **** * Global variables:
 132:.\Generated_Source\PSoC4/pwm_PM.c **** *  pwm_backup.PWMEnableState:  Is modified depending on the enable
 133:.\Generated_Source\PSoC4/pwm_PM.c **** *  state of the block before entering sleep mode.
 134:.\Generated_Source\PSoC4/pwm_PM.c **** *
 135:.\Generated_Source\PSoC4/pwm_PM.c **** *******************************************************************************/
 136:.\Generated_Source\PSoC4/pwm_PM.c **** void pwm_Sleep(void) 
 137:.\Generated_Source\PSoC4/pwm_PM.c **** {
 110              		.loc 1 137 0
 111              		.cfi_startproc
 112 0000 08B5     		push	{r3, lr}
 113              		.cfi_def_cfa_offset 8
 114              		.cfi_offset 3, -8
 115              		.cfi_offset 14, -4
 138:.\Generated_Source\PSoC4/pwm_PM.c ****     #if(pwm_UseControl)
 139:.\Generated_Source\PSoC4/pwm_PM.c ****         if(pwm_CTRL_ENABLE == (pwm_CONTROL & pwm_CTRL_ENABLE))
 116              		.loc 1 139 0
 117 0002 084B     		ldr	r3, .L10
 118 0004 1B78     		ldrb	r3, [r3]
 119 0006 5BB2     		sxtb	r3, r3
 120 0008 002B     		cmp	r3, #0
 121 000a 03DA     		bge	.L8
 140:.\Generated_Source\PSoC4/pwm_PM.c ****         {
 141:.\Generated_Source\PSoC4/pwm_PM.c ****             /*Component is enabled */
 142:.\Generated_Source\PSoC4/pwm_PM.c ****             pwm_backup.PWMEnableState = 1u;
 122              		.loc 1 142 0
 123 000c 0122     		mov	r2, #1
 124 000e 064B     		ldr	r3, .L10+4
 125 0010 1A70     		strb	r2, [r3]
 126 0012 02E0     		b	.L9
 127              	.L8:
 143:.\Generated_Source\PSoC4/pwm_PM.c ****         }
 144:.\Generated_Source\PSoC4/pwm_PM.c ****         else
 145:.\Generated_Source\PSoC4/pwm_PM.c ****         {
 146:.\Generated_Source\PSoC4/pwm_PM.c ****             /* Component is disabled */
 147:.\Generated_Source\PSoC4/pwm_PM.c ****             pwm_backup.PWMEnableState = 0u;
 128              		.loc 1 147 0
 129 0014 0022     		mov	r2, #0
 130 0016 044B     		ldr	r3, .L10+4
 131 0018 1A70     		strb	r2, [r3]
 132              	.L9:
 148:.\Generated_Source\PSoC4/pwm_PM.c ****         }
 149:.\Generated_Source\PSoC4/pwm_PM.c ****     #endif /* (pwm_UseControl) */
 150:.\Generated_Source\PSoC4/pwm_PM.c **** 
 151:.\Generated_Source\PSoC4/pwm_PM.c ****     /* Stop component */
 152:.\Generated_Source\PSoC4/pwm_PM.c ****     pwm_Stop();
 133              		.loc 1 152 0
ARM GAS  C:\Users\Alan\AppData\Local\Temp\ccxKTOkA.s 			page 6


 134 001a FFF7FEFF 		bl	pwm_Stop
 135              	.LVL6:
 153:.\Generated_Source\PSoC4/pwm_PM.c **** 
 154:.\Generated_Source\PSoC4/pwm_PM.c ****     /* Save registers configuration */
 155:.\Generated_Source\PSoC4/pwm_PM.c ****     pwm_SaveConfig();
 136              		.loc 1 155 0
 137 001e FFF7FEFF 		bl	pwm_SaveConfig
 138              	.LVL7:
 156:.\Generated_Source\PSoC4/pwm_PM.c **** }
 139              		.loc 1 156 0
 140              		@ sp needed
 141 0022 08BD     		pop	{r3, pc}
 142              	.L11:
 143              		.align	2
 144              	.L10:
 145 0024 72000F40 		.word	1074724978
 146 0028 00000000 		.word	.LANCHOR0
 147              		.cfi_endproc
 148              	.LFE4:
 149              		.size	pwm_Sleep, .-pwm_Sleep
 150              		.section	.text.pwm_Wakeup,"ax",%progbits
 151              		.align	2
 152              		.global	pwm_Wakeup
 153              		.code	16
 154              		.thumb_func
 155              		.type	pwm_Wakeup, %function
 156              	pwm_Wakeup:
 157              	.LFB5:
 157:.\Generated_Source\PSoC4/pwm_PM.c **** 
 158:.\Generated_Source\PSoC4/pwm_PM.c **** 
 159:.\Generated_Source\PSoC4/pwm_PM.c **** /*******************************************************************************
 160:.\Generated_Source\PSoC4/pwm_PM.c **** * Function Name: pwm_Wakeup
 161:.\Generated_Source\PSoC4/pwm_PM.c **** ********************************************************************************
 162:.\Generated_Source\PSoC4/pwm_PM.c **** *
 163:.\Generated_Source\PSoC4/pwm_PM.c **** * Summary:
 164:.\Generated_Source\PSoC4/pwm_PM.c **** *  Restores and enables the user configuration. Should be called just after
 165:.\Generated_Source\PSoC4/pwm_PM.c **** *  awaking from sleep.
 166:.\Generated_Source\PSoC4/pwm_PM.c **** *
 167:.\Generated_Source\PSoC4/pwm_PM.c **** * Parameters:
 168:.\Generated_Source\PSoC4/pwm_PM.c **** *  None
 169:.\Generated_Source\PSoC4/pwm_PM.c **** *
 170:.\Generated_Source\PSoC4/pwm_PM.c **** * Return:
 171:.\Generated_Source\PSoC4/pwm_PM.c **** *  None
 172:.\Generated_Source\PSoC4/pwm_PM.c **** *
 173:.\Generated_Source\PSoC4/pwm_PM.c **** * Global variables:
 174:.\Generated_Source\PSoC4/pwm_PM.c **** *  pwm_backup.pwmEnable:  Is used to restore the enable state of
 175:.\Generated_Source\PSoC4/pwm_PM.c **** *  block on wakeup from sleep mode.
 176:.\Generated_Source\PSoC4/pwm_PM.c **** *
 177:.\Generated_Source\PSoC4/pwm_PM.c **** *******************************************************************************/
 178:.\Generated_Source\PSoC4/pwm_PM.c **** void pwm_Wakeup(void) 
 179:.\Generated_Source\PSoC4/pwm_PM.c **** {
 158              		.loc 1 179 0
 159              		.cfi_startproc
 160 0000 08B5     		push	{r3, lr}
 161              		.cfi_def_cfa_offset 8
 162              		.cfi_offset 3, -8
 163              		.cfi_offset 14, -4
ARM GAS  C:\Users\Alan\AppData\Local\Temp\ccxKTOkA.s 			page 7


 180:.\Generated_Source\PSoC4/pwm_PM.c ****      /* Restore registers values */
 181:.\Generated_Source\PSoC4/pwm_PM.c ****     pwm_RestoreConfig();
 164              		.loc 1 181 0
 165 0002 FFF7FEFF 		bl	pwm_RestoreConfig
 166              	.LVL8:
 182:.\Generated_Source\PSoC4/pwm_PM.c **** 
 183:.\Generated_Source\PSoC4/pwm_PM.c ****     if(pwm_backup.PWMEnableState != 0u)
 167              		.loc 1 183 0
 168 0006 034B     		ldr	r3, .L14
 169 0008 1B78     		ldrb	r3, [r3]
 170 000a 002B     		cmp	r3, #0
 171 000c 01D0     		beq	.L12
 184:.\Generated_Source\PSoC4/pwm_PM.c ****     {
 185:.\Generated_Source\PSoC4/pwm_PM.c ****         /* Enable component's operation */
 186:.\Generated_Source\PSoC4/pwm_PM.c ****         pwm_Enable();
 172              		.loc 1 186 0
 173 000e FFF7FEFF 		bl	pwm_Enable
 174              	.LVL9:
 175              	.L12:
 187:.\Generated_Source\PSoC4/pwm_PM.c ****     } /* Do nothing if component's block was disabled before */
 188:.\Generated_Source\PSoC4/pwm_PM.c **** 
 189:.\Generated_Source\PSoC4/pwm_PM.c **** }
 176              		.loc 1 189 0
 177              		@ sp needed
 178 0012 08BD     		pop	{r3, pc}
 179              	.L15:
 180              		.align	2
 181              	.L14:
 182 0014 00000000 		.word	.LANCHOR0
 183              		.cfi_endproc
 184              	.LFE5:
 185              		.size	pwm_Wakeup, .-pwm_Wakeup
 186              		.bss
 187              		.align	2
 188              		.set	.LANCHOR0,. + 0
 189              		.type	pwm_backup, %object
 190              		.size	pwm_backup, 5
 191              	pwm_backup:
 192 0000 00000000 		.space	5
 192      00
 193 0005 000000   		.text
 194              	.Letext0:
 195              		.file 2 ".\\Generated_Source\\PSoC4\\cytypes.h"
 196              		.file 3 ".\\Generated_Source\\PSoC4\\pwm.h"