ARM GAS  C:\Users\Alan\AppData\Local\Temp\ccbjvqhO.s 			page 1


   1              		.cpu cortex-m0
   2              		.fpu softvfp
   3              		.eabi_attribute 20, 1
   4              		.eabi_attribute 21, 1
   5              		.eabi_attribute 23, 3
   6              		.eabi_attribute 24, 1
   7              		.eabi_attribute 25, 1
   8              		.eabi_attribute 26, 1
   9              		.eabi_attribute 30, 1
  10              		.eabi_attribute 34, 0
  11              		.eabi_attribute 18, 4
  12              		.code	16
  13              		.file	"ble_eventHandler.c"
  14              		.text
  15              	.Ltext0:
  16              		.cfi_sections	.debug_frame
  17              		.section	.text.CyBle_GattDisconnectEventHandler,"ax",%progbits
  18              		.align	2
  19              		.code	16
  20              		.thumb_func
  21              		.type	CyBle_GattDisconnectEventHandler, %function
  22              	CyBle_GattDisconnectEventHandler:
  23              	.LFB4:
  24              		.file 1 ".\\Generated_Source\\PSoC4\\ble_eventHandler.c"
   1:.\Generated_Source\PSoC4/ble_eventHandler.c **** /***************************************************************************//**
   2:.\Generated_Source\PSoC4/ble_eventHandler.c **** * \file CYBLE_eventHandler.c
   3:.\Generated_Source\PSoC4/ble_eventHandler.c **** * \version 2.30
   4:.\Generated_Source\PSoC4/ble_eventHandler.c **** * 
   5:.\Generated_Source\PSoC4/ble_eventHandler.c **** * \brief
   6:.\Generated_Source\PSoC4/ble_eventHandler.c **** *  This file contains the source code for the Event Handler State Machine
   7:.\Generated_Source\PSoC4/ble_eventHandler.c **** *  of the BLE Component.
   8:.\Generated_Source\PSoC4/ble_eventHandler.c **** * 
   9:.\Generated_Source\PSoC4/ble_eventHandler.c **** ********************************************************************************
  10:.\Generated_Source\PSoC4/ble_eventHandler.c **** * \copyright
  11:.\Generated_Source\PSoC4/ble_eventHandler.c **** * Copyright 2014-2015, Cypress Semiconductor Corporation.  All rights reserved.
  12:.\Generated_Source\PSoC4/ble_eventHandler.c **** * You may use this file only in accordance with the license, terms, conditions,
  13:.\Generated_Source\PSoC4/ble_eventHandler.c **** * disclaimers, and limitations in the end user license agreement accompanying
  14:.\Generated_Source\PSoC4/ble_eventHandler.c **** * the software package with which this file was provided.
  15:.\Generated_Source\PSoC4/ble_eventHandler.c **** *******************************************************************************/
  16:.\Generated_Source\PSoC4/ble_eventHandler.c **** 
  17:.\Generated_Source\PSoC4/ble_eventHandler.c **** #include "BLE_eventHandler.h"
  18:.\Generated_Source\PSoC4/ble_eventHandler.c **** 
  19:.\Generated_Source\PSoC4/ble_eventHandler.c **** 
  20:.\Generated_Source\PSoC4/ble_eventHandler.c **** /***************************************
  21:.\Generated_Source\PSoC4/ble_eventHandler.c **** * Private Function Prototypes
  22:.\Generated_Source\PSoC4/ble_eventHandler.c **** ***************************************/
  23:.\Generated_Source\PSoC4/ble_eventHandler.c **** 
  24:.\Generated_Source\PSoC4/ble_eventHandler.c **** #if (CYBLE_GATT_ROLE_SERVER || CYBLE_GATT_ROLE_CLIENT)
  25:.\Generated_Source\PSoC4/ble_eventHandler.c **** 
  26:.\Generated_Source\PSoC4/ble_eventHandler.c **** static uint8 CyBle_IsDeviceAddressValid(const CYBLE_GAP_BD_ADDR_T *sflashDeviceAddress);
  27:.\Generated_Source\PSoC4/ble_eventHandler.c **** 
  28:.\Generated_Source\PSoC4/ble_eventHandler.c **** #endif /* CYBLE_GATT_ROLE_SERVER || CYBLE_GATT_ROLE_CLIENT */
  29:.\Generated_Source\PSoC4/ble_eventHandler.c **** 
  30:.\Generated_Source\PSoC4/ble_eventHandler.c **** static void CyBle_GattDisconnectEventHandler(void);
  31:.\Generated_Source\PSoC4/ble_eventHandler.c **** static void CyBle_TimeOutEventHandler(const CYBLE_TO_REASON_CODE_T *eventParam);
  32:.\Generated_Source\PSoC4/ble_eventHandler.c **** static void CyBle_GattConnectReqHandler(void);
  33:.\Generated_Source\PSoC4/ble_eventHandler.c **** static void CyBle_L2Cap_ConnParamUpdateRspEventHandler(uint16 response);
ARM GAS  C:\Users\Alan\AppData\Local\Temp\ccbjvqhO.s 			page 2


  34:.\Generated_Source\PSoC4/ble_eventHandler.c **** static void CyBle_GapConnUpdateCompleteEventHandler(const CYBLE_GAP_CONN_PARAM_UPDATED_IN_CONTROLLE
  35:.\Generated_Source\PSoC4/ble_eventHandler.c **** 
  36:.\Generated_Source\PSoC4/ble_eventHandler.c **** 
  37:.\Generated_Source\PSoC4/ble_eventHandler.c **** #if (CYBLE_GATT_ROLE_SERVER)
  38:.\Generated_Source\PSoC4/ble_eventHandler.c **** 
  39:.\Generated_Source\PSoC4/ble_eventHandler.c **** static void CyBle_WriteReqHandler(CYBLE_GATTS_WRITE_REQ_PARAM_T *eventParam);
  40:.\Generated_Source\PSoC4/ble_eventHandler.c **** static void CyBle_ValueConfirmation(const CYBLE_CONN_HANDLE_T *eventParam);
  41:.\Generated_Source\PSoC4/ble_eventHandler.c **** 
  42:.\Generated_Source\PSoC4/ble_eventHandler.c **** #endif /* CYBLE_GATT_ROLE_SERVER */
  43:.\Generated_Source\PSoC4/ble_eventHandler.c **** 
  44:.\Generated_Source\PSoC4/ble_eventHandler.c **** #if (CYBLE_GATT_ROLE_CLIENT)
  45:.\Generated_Source\PSoC4/ble_eventHandler.c **** 
  46:.\Generated_Source\PSoC4/ble_eventHandler.c **** static void CyBle_GapcDiscoverCharacteristicsEventHandler(CYBLE_DISC_CHAR_INFO_T *discCharInfo);
  47:.\Generated_Source\PSoC4/ble_eventHandler.c **** static CYBLE_GATT_ATTR_HANDLE_RANGE_T CyBle_GetCharRange(void);
  48:.\Generated_Source\PSoC4/ble_eventHandler.c **** static void CyBle_GattcWriteResponseEventHandler(const CYBLE_CONN_HANDLE_T *eventParam);
  49:.\Generated_Source\PSoC4/ble_eventHandler.c **** static void CyBle_NotificationEventHandler(CYBLE_GATTC_HANDLE_VALUE_NTF_PARAM_T *eventParam);
  50:.\Generated_Source\PSoC4/ble_eventHandler.c **** static void CyBle_IndicationEventHandler(CYBLE_GATTC_HANDLE_VALUE_IND_PARAM_T *eventParam);
  51:.\Generated_Source\PSoC4/ble_eventHandler.c **** static void CyBle_ReadResponseEventHandler(CYBLE_GATTC_READ_RSP_PARAM_T *eventParam);
  52:.\Generated_Source\PSoC4/ble_eventHandler.c **** 
  53:.\Generated_Source\PSoC4/ble_eventHandler.c **** #endif /* CYBLE_GATT_ROLE_CLIENT */
  54:.\Generated_Source\PSoC4/ble_eventHandler.c **** 
  55:.\Generated_Source\PSoC4/ble_eventHandler.c **** 
  56:.\Generated_Source\PSoC4/ble_eventHandler.c **** /***************************************
  57:.\Generated_Source\PSoC4/ble_eventHandler.c **** * Global Variables
  58:.\Generated_Source\PSoC4/ble_eventHandler.c **** ***************************************/
  59:.\Generated_Source\PSoC4/ble_eventHandler.c **** 
  60:.\Generated_Source\PSoC4/ble_eventHandler.c **** /* This global variable is initialized after connection with peer device, 
  61:.\Generated_Source\PSoC4/ble_eventHandler.c ****    after CYBLE_EVT_GATT_CONNECT_IND event, and could be used by application code
  62:.\Generated_Source\PSoC4/ble_eventHandler.c ****    to send data to peer device. 
  63:.\Generated_Source\PSoC4/ble_eventHandler.c **** */
  64:.\Generated_Source\PSoC4/ble_eventHandler.c **** CYBLE_CONN_HANDLE_T cyBle_connHandle;
  65:.\Generated_Source\PSoC4/ble_eventHandler.c **** 
  66:.\Generated_Source\PSoC4/ble_eventHandler.c **** volatile uint8 cyBle_eventHandlerFlag;
  67:.\Generated_Source\PSoC4/ble_eventHandler.c **** volatile uint8 cyBle_busyStatus;
  68:.\Generated_Source\PSoC4/ble_eventHandler.c **** 
  69:.\Generated_Source\PSoC4/ble_eventHandler.c **** #if(CYBLE_GAP_ROLE_PERIPHERAL || CYBLE_GAP_ROLE_BROADCASTER) 
  70:.\Generated_Source\PSoC4/ble_eventHandler.c ****     uint8 cyBle_advertisingIntervalType;
  71:.\Generated_Source\PSoC4/ble_eventHandler.c **** #endif /* CYBLE_GAP_ROLE_PERIPHERAL || CYBLE_GAP_ROLE_BROADCASTER) */
  72:.\Generated_Source\PSoC4/ble_eventHandler.c **** 
  73:.\Generated_Source\PSoC4/ble_eventHandler.c **** #if(CYBLE_GAP_ROLE_CENTRAL || CYBLE_GAP_ROLE_OBSERVER) 
  74:.\Generated_Source\PSoC4/ble_eventHandler.c ****     uint8 cyBle_scanningIntervalType;
  75:.\Generated_Source\PSoC4/ble_eventHandler.c **** #endif /* CYBLE_GAP_ROLE_CENTRAL || CYBLE_GAP_ROLE_OBSERVER */
  76:.\Generated_Source\PSoC4/ble_eventHandler.c **** 
  77:.\Generated_Source\PSoC4/ble_eventHandler.c **** #if(CYBLE_GATT_ROLE_SERVER)
  78:.\Generated_Source\PSoC4/ble_eventHandler.c **** #if defined CYBLE_CTS_SERVER || defined CYBLE_ESS_SERVER
  79:.\Generated_Source\PSoC4/ble_eventHandler.c **** CYBLE_GATT_ERR_CODE_T cyBle_gattError;
  80:.\Generated_Source\PSoC4/ble_eventHandler.c **** #endif /* defined CYBLE_CTS_SERVER || defined CYBLE_ESS_SERVER */
  81:.\Generated_Source\PSoC4/ble_eventHandler.c **** #endif /* CYBLE_GATT_ROLE_SERVER */
  82:.\Generated_Source\PSoC4/ble_eventHandler.c **** 
  83:.\Generated_Source\PSoC4/ble_eventHandler.c **** #if(CYBLE_GATT_ROLE_CLIENT)
  84:.\Generated_Source\PSoC4/ble_eventHandler.c **** uint8 cyBle_disCount; /* Counter for discovery procedures */
  85:.\Generated_Source\PSoC4/ble_eventHandler.c **** static CYBLE_GATT_DB_ATTR_HANDLE_T cyBle_charEndHandle;
  86:.\Generated_Source\PSoC4/ble_eventHandler.c **** /* Discovery included service information, used for 128-bit UUID read response handle 
  87:.\Generated_Source\PSoC4/ble_eventHandler.c ****    and for continue discovery. 
  88:.\Generated_Source\PSoC4/ble_eventHandler.c **** */
  89:.\Generated_Source\PSoC4/ble_eventHandler.c **** static CYBLE_DISC_INCL_INFO_T cyBle_discInclInfo;
  90:.\Generated_Source\PSoC4/ble_eventHandler.c **** #ifdef CYBLE_HIDS_CLIENT
ARM GAS  C:\Users\Alan\AppData\Local\Temp\ccbjvqhO.s 			page 3


  91:.\Generated_Source\PSoC4/ble_eventHandler.c ****     static uint8 disServiceIndex;      /* To discovery descriptors for multiple HID service instanc
  92:.\Generated_Source\PSoC4/ble_eventHandler.c **** #endif /* CYBLE_HIDS_CLIENT */
  93:.\Generated_Source\PSoC4/ble_eventHandler.c **** 
  94:.\Generated_Source\PSoC4/ble_eventHandler.c **** CYBLE_DISC_SRVC_INFO_T cyBle_serverInfo[CYBLE_SRVI_COUNT] = /*3*/
  95:.\Generated_Source\PSoC4/ble_eventHandler.c **** {
  96:.\Generated_Source\PSoC4/ble_eventHandler.c ****     {{CYBLE_GATT_INVALID_ATTR_HANDLE_VALUE, CYBLE_GATT_INVALID_ATTR_HANDLE_VALUE}, CYBLE_UUID_GAP_S
  97:.\Generated_Source\PSoC4/ble_eventHandler.c ****     {{CYBLE_GATT_INVALID_ATTR_HANDLE_VALUE, CYBLE_GATT_INVALID_ATTR_HANDLE_VALUE}, CYBLE_UUID_GATT_
  98:.\Generated_Source\PSoC4/ble_eventHandler.c **** #ifdef CYBLE_ANCS_CLIENT
  99:.\Generated_Source\PSoC4/ble_eventHandler.c ****     {{CYBLE_GATT_INVALID_ATTR_HANDLE_VALUE, CYBLE_GATT_INVALID_ATTR_HANDLE_VALUE}, 0x0000u},
 100:.\Generated_Source\PSoC4/ble_eventHandler.c **** #endif /* CYBLE_ANCS_CLIENT */
 101:.\Generated_Source\PSoC4/ble_eventHandler.c **** #ifdef CYBLE_ANS_CLIENT
 102:.\Generated_Source\PSoC4/ble_eventHandler.c ****     {{CYBLE_GATT_INVALID_ATTR_HANDLE_VALUE, CYBLE_GATT_INVALID_ATTR_HANDLE_VALUE}, 
 103:.\Generated_Source\PSoC4/ble_eventHandler.c ****         CYBLE_UUID_ALERT_NOTIFICATION_SERVICE},
 104:.\Generated_Source\PSoC4/ble_eventHandler.c **** #endif /* CYBLE_ANS_CLIENT */
 105:.\Generated_Source\PSoC4/ble_eventHandler.c **** #ifdef CYBLE_BAS_CLIENT
 106:.\Generated_Source\PSoC4/ble_eventHandler.c ****     {{CYBLE_GATT_INVALID_ATTR_HANDLE_VALUE, CYBLE_GATT_INVALID_ATTR_HANDLE_VALUE}, CYBLE_UUID_BAS_S
 107:.\Generated_Source\PSoC4/ble_eventHandler.c ****     #if(CYBLE_BASC_SERVICE_COUNT > 1u) /* Generate it by GUI */
 108:.\Generated_Source\PSoC4/ble_eventHandler.c ****         
 109:.\Generated_Source\PSoC4/ble_eventHandler.c ****     #endif /* CYBLE_BASC_SERVICE_COUNT > 1u */
 110:.\Generated_Source\PSoC4/ble_eventHandler.c **** #endif /* CYBLE_BAS_CLIENT */
 111:.\Generated_Source\PSoC4/ble_eventHandler.c **** #ifdef CYBLE_BCS_CLIENT
 112:.\Generated_Source\PSoC4/ble_eventHandler.c ****     {{CYBLE_GATT_INVALID_ATTR_HANDLE_VALUE, CYBLE_GATT_INVALID_ATTR_HANDLE_VALUE}, CYBLE_UUID_BODY_
 113:.\Generated_Source\PSoC4/ble_eventHandler.c **** #endif /* CYBLE_BCS_CLIENT */
 114:.\Generated_Source\PSoC4/ble_eventHandler.c **** #ifdef CYBLE_BLS_CLIENT
 115:.\Generated_Source\PSoC4/ble_eventHandler.c ****     {{CYBLE_GATT_INVALID_ATTR_HANDLE_VALUE, CYBLE_GATT_INVALID_ATTR_HANDLE_VALUE}, CYBLE_UUID_BLOOD
 116:.\Generated_Source\PSoC4/ble_eventHandler.c **** #endif /* CYBLE_BLS_CLIENT */
 117:.\Generated_Source\PSoC4/ble_eventHandler.c **** #ifdef CYBLE_BMS_CLIENT
 118:.\Generated_Source\PSoC4/ble_eventHandler.c ****     {{CYBLE_GATT_INVALID_ATTR_HANDLE_VALUE, CYBLE_GATT_INVALID_ATTR_HANDLE_VALUE}, CYBLE_UUID_BOND_
 119:.\Generated_Source\PSoC4/ble_eventHandler.c **** #endif /* CYBLE_BMS_CLIENT */
 120:.\Generated_Source\PSoC4/ble_eventHandler.c **** #ifdef CYBLE_CGMS_CLIENT
 121:.\Generated_Source\PSoC4/ble_eventHandler.c ****     {{CYBLE_GATT_INVALID_ATTR_HANDLE_VALUE, CYBLE_GATT_INVALID_ATTR_HANDLE_VALUE}, CYBLE_UUID_CGM_S
 122:.\Generated_Source\PSoC4/ble_eventHandler.c **** #endif /* CYBLE_CGMS_CLIENT */
 123:.\Generated_Source\PSoC4/ble_eventHandler.c **** #ifdef CYBLE_CPS_CLIENT
 124:.\Generated_Source\PSoC4/ble_eventHandler.c ****     {{CYBLE_GATT_INVALID_ATTR_HANDLE_VALUE, CYBLE_GATT_INVALID_ATTR_HANDLE_VALUE}, CYBLE_UUID_CPS_S
 125:.\Generated_Source\PSoC4/ble_eventHandler.c **** #endif /* CYBLE_CPS_CLIENT */
 126:.\Generated_Source\PSoC4/ble_eventHandler.c **** #ifdef CYBLE_CSCS_CLIENT
 127:.\Generated_Source\PSoC4/ble_eventHandler.c ****     {{CYBLE_GATT_INVALID_ATTR_HANDLE_VALUE, CYBLE_GATT_INVALID_ATTR_HANDLE_VALUE}, 
 128:.\Generated_Source\PSoC4/ble_eventHandler.c ****         CYBLE_UUID_CYCLING_SPEED_AND_CADENCE_SERVICE},
 129:.\Generated_Source\PSoC4/ble_eventHandler.c **** #endif /* CYBLE_CSCS_CLIENT */
 130:.\Generated_Source\PSoC4/ble_eventHandler.c **** #ifdef CYBLE_CTS_CLIENT
 131:.\Generated_Source\PSoC4/ble_eventHandler.c ****     {{CYBLE_GATT_INVALID_ATTR_HANDLE_VALUE, CYBLE_GATT_INVALID_ATTR_HANDLE_VALUE}, CYBLE_UUID_CURRE
 132:.\Generated_Source\PSoC4/ble_eventHandler.c **** #endif /* CYBLE_CTS_CLIENT */
 133:.\Generated_Source\PSoC4/ble_eventHandler.c **** #ifdef CYBLE_CUSTOM_CLIENT
 134:.\Generated_Source\PSoC4/ble_eventHandler.c ****     
 135:.\Generated_Source\PSoC4/ble_eventHandler.c **** #endif /* CYBLE_CUSTOM_CLIENT */
 136:.\Generated_Source\PSoC4/ble_eventHandler.c **** #ifdef CYBLE_DIS_CLIENT
 137:.\Generated_Source\PSoC4/ble_eventHandler.c ****     {{CYBLE_GATT_INVALID_ATTR_HANDLE_VALUE, CYBLE_GATT_INVALID_ATTR_HANDLE_VALUE}, CYBLE_UUID_DEVIC
 138:.\Generated_Source\PSoC4/ble_eventHandler.c **** #endif /* CYBLE_DIS_CLIENT */
 139:.\Generated_Source\PSoC4/ble_eventHandler.c **** #ifdef CYBLE_ESS_CLIENT
 140:.\Generated_Source\PSoC4/ble_eventHandler.c ****     {{CYBLE_GATT_INVALID_ATTR_HANDLE_VALUE, CYBLE_GATT_INVALID_ATTR_HANDLE_VALUE}, 
 141:.\Generated_Source\PSoC4/ble_eventHandler.c ****         CYBLE_UUID_ENVIRONMENTAL_SENSING_SERVICE},
 142:.\Generated_Source\PSoC4/ble_eventHandler.c **** #endif /* CYBLE_ESS_CLIENT */
 143:.\Generated_Source\PSoC4/ble_eventHandler.c **** #ifdef CYBLE_GLS_CLIENT
 144:.\Generated_Source\PSoC4/ble_eventHandler.c ****     {{CYBLE_GATT_INVALID_ATTR_HANDLE_VALUE, CYBLE_GATT_INVALID_ATTR_HANDLE_VALUE}, CYBLE_UUID_GLUCO
 145:.\Generated_Source\PSoC4/ble_eventHandler.c **** #endif /* CYBLE_GLS_CLIENT */
 146:.\Generated_Source\PSoC4/ble_eventHandler.c **** #ifdef CYBLE_HIDS_CLIENT
 147:.\Generated_Source\PSoC4/ble_eventHandler.c ****     {{CYBLE_GATT_INVALID_ATTR_HANDLE_VALUE, CYBLE_GATT_INVALID_ATTR_HANDLE_VALUE}, CYBLE_UUID_HIDS_
ARM GAS  C:\Users\Alan\AppData\Local\Temp\ccbjvqhO.s 			page 4


 148:.\Generated_Source\PSoC4/ble_eventHandler.c ****     #if(CYBLE_HIDSC_SERVICE_COUNT > 1u) /* Generate it by GUI */
 149:.\Generated_Source\PSoC4/ble_eventHandler.c ****         
 150:.\Generated_Source\PSoC4/ble_eventHandler.c ****     #endif /* CYBLE_HIDSC_SERVICE_COUNT > 1u */
 151:.\Generated_Source\PSoC4/ble_eventHandler.c **** #endif /* CYBLE_HIDS_CLIENT */
 152:.\Generated_Source\PSoC4/ble_eventHandler.c **** #ifdef CYBLE_HRS_CLIENT
 153:.\Generated_Source\PSoC4/ble_eventHandler.c ****     {{CYBLE_GATT_INVALID_ATTR_HANDLE_VALUE, CYBLE_GATT_INVALID_ATTR_HANDLE_VALUE}, CYBLE_UUID_HEART
 154:.\Generated_Source\PSoC4/ble_eventHandler.c **** #endif /* CYBLE_HRS_CLIENT */
 155:.\Generated_Source\PSoC4/ble_eventHandler.c **** #ifdef CYBLE_HTS_CLIENT
 156:.\Generated_Source\PSoC4/ble_eventHandler.c ****     {{CYBLE_GATT_INVALID_ATTR_HANDLE_VALUE, CYBLE_GATT_INVALID_ATTR_HANDLE_VALUE}, CYBLE_UUID_HEALT
 157:.\Generated_Source\PSoC4/ble_eventHandler.c **** #endif /* CYBLE_HTS_CLIENT */
 158:.\Generated_Source\PSoC4/ble_eventHandler.c **** #ifdef CYBLE_IAS_CLIENT
 159:.\Generated_Source\PSoC4/ble_eventHandler.c ****     {{CYBLE_GATT_INVALID_ATTR_HANDLE_VALUE, CYBLE_GATT_INVALID_ATTR_HANDLE_VALUE}, CYBLE_UUID_IMMED
 160:.\Generated_Source\PSoC4/ble_eventHandler.c **** #endif /* CYBLE_IAS_CLIENT */
 161:.\Generated_Source\PSoC4/ble_eventHandler.c **** #ifdef CYBLE_LLS_CLIENT
 162:.\Generated_Source\PSoC4/ble_eventHandler.c ****     {{CYBLE_GATT_INVALID_ATTR_HANDLE_VALUE, CYBLE_GATT_INVALID_ATTR_HANDLE_VALUE}, CYBLE_UUID_LINK_
 163:.\Generated_Source\PSoC4/ble_eventHandler.c **** #endif /* CYBLE_LLS_CLIENT */
 164:.\Generated_Source\PSoC4/ble_eventHandler.c **** #ifdef CYBLE_LNS_CLIENT
 165:.\Generated_Source\PSoC4/ble_eventHandler.c ****     {{CYBLE_GATT_INVALID_ATTR_HANDLE_VALUE, CYBLE_GATT_INVALID_ATTR_HANDLE_VALUE}, CYBLE_UUID_LOCAT
 166:.\Generated_Source\PSoC4/ble_eventHandler.c **** #endif /* CYBLE_LNS_CLIENT */
 167:.\Generated_Source\PSoC4/ble_eventHandler.c **** #ifdef CYBLE_NDCS_CLIENT
 168:.\Generated_Source\PSoC4/ble_eventHandler.c ****     {{CYBLE_GATT_INVALID_ATTR_HANDLE_VALUE, CYBLE_GATT_INVALID_ATTR_HANDLE_VALUE}, CYBLE_UUID_NEXT_
 169:.\Generated_Source\PSoC4/ble_eventHandler.c **** #endif /* CYBLE_NDCS_CLIENT */
 170:.\Generated_Source\PSoC4/ble_eventHandler.c **** #ifdef CYBLE_IPSS_CLIENT
 171:.\Generated_Source\PSoC4/ble_eventHandler.c ****     {{CYBLE_GATT_INVALID_ATTR_HANDLE_VALUE, CYBLE_GATT_INVALID_ATTR_HANDLE_VALUE}, CYBLE_UUID_INTER
 172:.\Generated_Source\PSoC4/ble_eventHandler.c **** #endif /* CYBLE_IPSS_CLIENT */
 173:.\Generated_Source\PSoC4/ble_eventHandler.c **** #ifdef CYBLE_PASS_CLIENT
 174:.\Generated_Source\PSoC4/ble_eventHandler.c ****     {{CYBLE_GATT_INVALID_ATTR_HANDLE_VALUE, CYBLE_GATT_INVALID_ATTR_HANDLE_VALUE}, CYBLE_UUID_PHONE
 175:.\Generated_Source\PSoC4/ble_eventHandler.c **** #endif /* CYBLE_PASS_CLIENT */
 176:.\Generated_Source\PSoC4/ble_eventHandler.c **** #ifdef CYBLE_RSCS_CLIENT
 177:.\Generated_Source\PSoC4/ble_eventHandler.c ****     {{CYBLE_GATT_INVALID_ATTR_HANDLE_VALUE, CYBLE_GATT_INVALID_ATTR_HANDLE_VALUE}, CYBLE_UUID_RUNNI
 178:.\Generated_Source\PSoC4/ble_eventHandler.c **** #endif /* CYBLE_RSCS_CLIENT */
 179:.\Generated_Source\PSoC4/ble_eventHandler.c **** #ifdef CYBLE_RTUS_CLIENT
 180:.\Generated_Source\PSoC4/ble_eventHandler.c ****     {{CYBLE_GATT_INVALID_ATTR_HANDLE_VALUE, CYBLE_GATT_INVALID_ATTR_HANDLE_VALUE}, CYBLE_UUID_REF_T
 181:.\Generated_Source\PSoC4/ble_eventHandler.c **** #endif /* CYBLE_RTUS_CLIENT */
 182:.\Generated_Source\PSoC4/ble_eventHandler.c **** #ifdef CYBLE_SCPS_CLIENT
 183:.\Generated_Source\PSoC4/ble_eventHandler.c ****     {{CYBLE_GATT_INVALID_ATTR_HANDLE_VALUE, CYBLE_GATT_INVALID_ATTR_HANDLE_VALUE}, CYBLE_UUID_SCAN_
 184:.\Generated_Source\PSoC4/ble_eventHandler.c **** #endif /* CYBLE_SCPS_CLIENT */
 185:.\Generated_Source\PSoC4/ble_eventHandler.c **** #ifdef CYBLE_TPS_CLIENT
 186:.\Generated_Source\PSoC4/ble_eventHandler.c ****     {{CYBLE_GATT_INVALID_ATTR_HANDLE_VALUE, CYBLE_GATT_INVALID_ATTR_HANDLE_VALUE}, CYBLE_UUID_TX_PO
 187:.\Generated_Source\PSoC4/ble_eventHandler.c **** #endif /* CYBLE_TPS_CLIENT */
 188:.\Generated_Source\PSoC4/ble_eventHandler.c **** #ifdef CYBLE_UDS_CLIENT
 189:.\Generated_Source\PSoC4/ble_eventHandler.c ****     {{CYBLE_GATT_INVALID_ATTR_HANDLE_VALUE, CYBLE_GATT_INVALID_ATTR_HANDLE_VALUE}, CYBLE_UUID_USER_
 190:.\Generated_Source\PSoC4/ble_eventHandler.c **** #endif /* CYBLE_UDS_CLIENT */
 191:.\Generated_Source\PSoC4/ble_eventHandler.c **** #ifdef CYBLE_WSS_CLIENT
 192:.\Generated_Source\PSoC4/ble_eventHandler.c ****     {{CYBLE_GATT_INVALID_ATTR_HANDLE_VALUE, CYBLE_GATT_INVALID_ATTR_HANDLE_VALUE}, CYBLE_UUID_WEIGH
 193:.\Generated_Source\PSoC4/ble_eventHandler.c **** #endif /* CYBLE_WSS_CLIENT */
 194:.\Generated_Source\PSoC4/ble_eventHandler.c **** #ifdef CYBLE_WPTS_CLIENT
 195:.\Generated_Source\PSoC4/ble_eventHandler.c ****     {{CYBLE_GATT_INVALID_ATTR_HANDLE_VALUE, CYBLE_GATT_INVALID_ATTR_HANDLE_VALUE}, CYBLE_UUID_WIREL
 196:.\Generated_Source\PSoC4/ble_eventHandler.c **** #endif /* CYBLE_WPTS_CLIENT */
 197:.\Generated_Source\PSoC4/ble_eventHandler.c **** };
 198:.\Generated_Source\PSoC4/ble_eventHandler.c **** 
 199:.\Generated_Source\PSoC4/ble_eventHandler.c **** CYBLE_GAPC_T cyBle_gapc;
 200:.\Generated_Source\PSoC4/ble_eventHandler.c **** 
 201:.\Generated_Source\PSoC4/ble_eventHandler.c **** #endif /* CYBLE_GATT_ROLE_CLIENT */
 202:.\Generated_Source\PSoC4/ble_eventHandler.c **** 
 203:.\Generated_Source\PSoC4/ble_eventHandler.c **** /* Default device security */
 204:.\Generated_Source\PSoC4/ble_eventHandler.c **** CYBLE_GAP_AUTH_INFO_T cyBle_authInfo =
ARM GAS  C:\Users\Alan\AppData\Local\Temp\ccbjvqhO.s 			page 5


 205:.\Generated_Source\PSoC4/ble_eventHandler.c **** {
 206:.\Generated_Source\PSoC4/ble_eventHandler.c ****     (CYBLE_GAP_SEC_MODE_1 | CYBLE_GAP_SEC_LEVEL_1 ), /* uint8 security */
 207:.\Generated_Source\PSoC4/ble_eventHandler.c ****     CYBLE_GAP_BONDING, /* uint8 bonding */
 208:.\Generated_Source\PSoC4/ble_eventHandler.c ****     0x10u,      /* uint8 ekeySize */
 209:.\Generated_Source\PSoC4/ble_eventHandler.c ****     CYBLE_GAP_AUTH_ERROR_NONE, /* CYBLE_AUTH_FAILED_REASON_T authErr */
 210:.\Generated_Source\PSoC4/ble_eventHandler.c **** };
 211:.\Generated_Source\PSoC4/ble_eventHandler.c **** 
 212:.\Generated_Source\PSoC4/ble_eventHandler.c **** #if(CYBLE_GATT_ROLE_SERVER)
 213:.\Generated_Source\PSoC4/ble_eventHandler.c **** 
 214:.\Generated_Source\PSoC4/ble_eventHandler.c **** 
 215:.\Generated_Source\PSoC4/ble_eventHandler.c **** /******************************************************************************    
 216:.\Generated_Source\PSoC4/ble_eventHandler.c **** * Function Name: CyBle_WriteReqHandler
 217:.\Generated_Source\PSoC4/ble_eventHandler.c **** ***************************************************************************//**
 218:.\Generated_Source\PSoC4/ble_eventHandler.c **** * 
 219:.\Generated_Source\PSoC4/ble_eventHandler.c **** *  Handles the Write Request event from BLE stack.
 220:.\Generated_Source\PSoC4/ble_eventHandler.c **** * 
 221:.\Generated_Source\PSoC4/ble_eventHandler.c **** *  CYBLE_GATTS_WRITE_REQ_PARAM_T * eventParam - event parameter
 222:.\Generated_Source\PSoC4/ble_eventHandler.c **** * 
 223:.\Generated_Source\PSoC4/ble_eventHandler.c **** * \return
 224:.\Generated_Source\PSoC4/ble_eventHandler.c **** *  None
 225:.\Generated_Source\PSoC4/ble_eventHandler.c **** * 
 226:.\Generated_Source\PSoC4/ble_eventHandler.c **** ******************************************************************************/
 227:.\Generated_Source\PSoC4/ble_eventHandler.c **** static void CyBle_WriteReqHandler(CYBLE_GATTS_WRITE_REQ_PARAM_T *eventParam)
 228:.\Generated_Source\PSoC4/ble_eventHandler.c **** {
 229:.\Generated_Source\PSoC4/ble_eventHandler.c ****     CYBLE_GATT_ERR_CODE_T gattErr;
 230:.\Generated_Source\PSoC4/ble_eventHandler.c **** #if defined CYBLE_CTS_SERVER || defined CYBLE_ESS_SERVER
 231:.\Generated_Source\PSoC4/ble_eventHandler.c ****     cyBle_gattError = CYBLE_GATT_ERR_NONE;
 232:.\Generated_Source\PSoC4/ble_eventHandler.c **** #endif /* defined CYBLE_CTS_SERVER || defined CYBLE_ESS_SERVER */
 233:.\Generated_Source\PSoC4/ble_eventHandler.c ****     
 234:.\Generated_Source\PSoC4/ble_eventHandler.c ****     gattErr = CyBle_GattsWriteEventHandler(eventParam);
 235:.\Generated_Source\PSoC4/ble_eventHandler.c **** #ifdef CYBLE_ANCS_SERVER
 236:.\Generated_Source\PSoC4/ble_eventHandler.c ****     if(((cyBle_eventHandlerFlag & CYBLE_CALLBACK) != 0u) && (gattErr == CYBLE_GATT_ERR_NONE))
 237:.\Generated_Source\PSoC4/ble_eventHandler.c ****     {
 238:.\Generated_Source\PSoC4/ble_eventHandler.c ****         gattErr = CyBle_AncssWriteEventHandler(eventParam);
 239:.\Generated_Source\PSoC4/ble_eventHandler.c ****     }
 240:.\Generated_Source\PSoC4/ble_eventHandler.c **** #endif /* CYBLE_ANCS_SERVER */
 241:.\Generated_Source\PSoC4/ble_eventHandler.c **** #ifdef CYBLE_ANS_SERVER
 242:.\Generated_Source\PSoC4/ble_eventHandler.c ****     if(((cyBle_eventHandlerFlag & CYBLE_CALLBACK) != 0u) && (gattErr == CYBLE_GATT_ERR_NONE))
 243:.\Generated_Source\PSoC4/ble_eventHandler.c ****     {
 244:.\Generated_Source\PSoC4/ble_eventHandler.c ****         gattErr = CyBle_AnssWriteEventHandler(eventParam);
 245:.\Generated_Source\PSoC4/ble_eventHandler.c ****     }
 246:.\Generated_Source\PSoC4/ble_eventHandler.c **** #endif /* CYBLE_ANS_SERVER */
 247:.\Generated_Source\PSoC4/ble_eventHandler.c **** #ifdef CYBLE_BAS_SERVER
 248:.\Generated_Source\PSoC4/ble_eventHandler.c ****     if(((cyBle_eventHandlerFlag & CYBLE_CALLBACK) != 0u) && (gattErr == CYBLE_GATT_ERR_NONE))
 249:.\Generated_Source\PSoC4/ble_eventHandler.c ****     {
 250:.\Generated_Source\PSoC4/ble_eventHandler.c ****         gattErr = CyBle_BassWriteEventHandler(eventParam);
 251:.\Generated_Source\PSoC4/ble_eventHandler.c ****     }
 252:.\Generated_Source\PSoC4/ble_eventHandler.c **** #endif /* CYBLE_BAS_SERVER */
 253:.\Generated_Source\PSoC4/ble_eventHandler.c **** #ifdef CYBLE_BCS_SERVER
 254:.\Generated_Source\PSoC4/ble_eventHandler.c ****     if(((cyBle_eventHandlerFlag & CYBLE_CALLBACK) != 0u) && (gattErr == CYBLE_GATT_ERR_NONE))
 255:.\Generated_Source\PSoC4/ble_eventHandler.c ****     {
 256:.\Generated_Source\PSoC4/ble_eventHandler.c ****         gattErr = CyBle_BcssWriteEventHandler(eventParam);
 257:.\Generated_Source\PSoC4/ble_eventHandler.c ****     }
 258:.\Generated_Source\PSoC4/ble_eventHandler.c **** #endif /* CYBLE_BCS_SERVER */
 259:.\Generated_Source\PSoC4/ble_eventHandler.c **** #ifdef CYBLE_BLS_SERVER
 260:.\Generated_Source\PSoC4/ble_eventHandler.c ****     if(((cyBle_eventHandlerFlag & CYBLE_CALLBACK) != 0u) && (gattErr == CYBLE_GATT_ERR_NONE))
 261:.\Generated_Source\PSoC4/ble_eventHandler.c ****     {
ARM GAS  C:\Users\Alan\AppData\Local\Temp\ccbjvqhO.s 			page 6


 262:.\Generated_Source\PSoC4/ble_eventHandler.c ****         gattErr = CyBle_BlssWriteEventHandler(eventParam);
 263:.\Generated_Source\PSoC4/ble_eventHandler.c ****     }
 264:.\Generated_Source\PSoC4/ble_eventHandler.c **** #endif /* CYBLE_BLS_SERVER */
 265:.\Generated_Source\PSoC4/ble_eventHandler.c **** #ifdef CYBLE_BMS_SERVER
 266:.\Generated_Source\PSoC4/ble_eventHandler.c ****     if(((cyBle_eventHandlerFlag & CYBLE_CALLBACK) != 0u) && (gattErr == CYBLE_GATT_ERR_NONE))
 267:.\Generated_Source\PSoC4/ble_eventHandler.c ****     {
 268:.\Generated_Source\PSoC4/ble_eventHandler.c ****         gattErr = CyBle_BmssWriteEventHandler(eventParam);
 269:.\Generated_Source\PSoC4/ble_eventHandler.c ****     }
 270:.\Generated_Source\PSoC4/ble_eventHandler.c **** #endif /* CYBLE_BMS_SERVER */
 271:.\Generated_Source\PSoC4/ble_eventHandler.c **** #ifdef CYBLE_BTS_SERVER
 272:.\Generated_Source\PSoC4/ble_eventHandler.c ****     if((cyBle_eventHandlerFlag & CYBLE_CALLBACK) != 0u)
 273:.\Generated_Source\PSoC4/ble_eventHandler.c ****     {
 274:.\Generated_Source\PSoC4/ble_eventHandler.c ****         gattErr = CyBle_BtsWriteEventHandler(eventParam);
 275:.\Generated_Source\PSoC4/ble_eventHandler.c ****     }
 276:.\Generated_Source\PSoC4/ble_eventHandler.c **** #endif /* CYBLE_BTS_SERVER */
 277:.\Generated_Source\PSoC4/ble_eventHandler.c **** #ifdef CYBLE_CGMS_SERVER
 278:.\Generated_Source\PSoC4/ble_eventHandler.c ****     if(((cyBle_eventHandlerFlag & CYBLE_CALLBACK) != 0u) && (gattErr == CYBLE_GATT_ERR_NONE))
 279:.\Generated_Source\PSoC4/ble_eventHandler.c ****     {
 280:.\Generated_Source\PSoC4/ble_eventHandler.c ****         gattErr = CyBle_CgmssWriteEventHandler(eventParam);
 281:.\Generated_Source\PSoC4/ble_eventHandler.c ****     }
 282:.\Generated_Source\PSoC4/ble_eventHandler.c **** #endif /* CYBLE_CGMS_SERVER */
 283:.\Generated_Source\PSoC4/ble_eventHandler.c **** #ifdef CYBLE_CPS_SERVER
 284:.\Generated_Source\PSoC4/ble_eventHandler.c ****     if(((cyBle_eventHandlerFlag & CYBLE_CALLBACK) != 0u) && (gattErr == CYBLE_GATT_ERR_NONE))
 285:.\Generated_Source\PSoC4/ble_eventHandler.c ****     {
 286:.\Generated_Source\PSoC4/ble_eventHandler.c ****         gattErr = CyBle_CpssWriteEventHandler(eventParam);
 287:.\Generated_Source\PSoC4/ble_eventHandler.c ****     }
 288:.\Generated_Source\PSoC4/ble_eventHandler.c **** #endif /* CYBLE_CPS_SERVER */
 289:.\Generated_Source\PSoC4/ble_eventHandler.c **** #ifdef CYBLE_CSCS_SERVER
 290:.\Generated_Source\PSoC4/ble_eventHandler.c ****     if(((cyBle_eventHandlerFlag & CYBLE_CALLBACK) != 0u) && (gattErr == CYBLE_GATT_ERR_NONE))
 291:.\Generated_Source\PSoC4/ble_eventHandler.c ****     {
 292:.\Generated_Source\PSoC4/ble_eventHandler.c ****         gattErr = CyBle_CscssWriteEventHandler(eventParam);
 293:.\Generated_Source\PSoC4/ble_eventHandler.c ****     }
 294:.\Generated_Source\PSoC4/ble_eventHandler.c **** #endif /* CYBLE_CSCS_SERVER */
 295:.\Generated_Source\PSoC4/ble_eventHandler.c **** #ifdef CYBLE_CTS_SERVER
 296:.\Generated_Source\PSoC4/ble_eventHandler.c ****     if(((cyBle_eventHandlerFlag & CYBLE_CALLBACK) != 0u) && (gattErr == CYBLE_GATT_ERR_NONE))
 297:.\Generated_Source\PSoC4/ble_eventHandler.c ****     {
 298:.\Generated_Source\PSoC4/ble_eventHandler.c ****         gattErr = CyBle_CtssWriteEventHandler(eventParam);
 299:.\Generated_Source\PSoC4/ble_eventHandler.c ****     }
 300:.\Generated_Source\PSoC4/ble_eventHandler.c **** #endif /* CYBLE_CTS_SERVER */
 301:.\Generated_Source\PSoC4/ble_eventHandler.c **** #ifdef CYBLE_ESS_SERVER
 302:.\Generated_Source\PSoC4/ble_eventHandler.c ****     if(((cyBle_eventHandlerFlag & CYBLE_CALLBACK) != 0u) && (gattErr == CYBLE_GATT_ERR_NONE))
 303:.\Generated_Source\PSoC4/ble_eventHandler.c ****     {
 304:.\Generated_Source\PSoC4/ble_eventHandler.c ****         gattErr = CyBle_EsssWriteEventHandler(eventParam);
 305:.\Generated_Source\PSoC4/ble_eventHandler.c ****     }
 306:.\Generated_Source\PSoC4/ble_eventHandler.c **** #endif /* CYBLE_ESS_SERVER */
 307:.\Generated_Source\PSoC4/ble_eventHandler.c **** #ifdef CYBLE_GLS_SERVER
 308:.\Generated_Source\PSoC4/ble_eventHandler.c ****     if(((cyBle_eventHandlerFlag & CYBLE_CALLBACK) != 0u) && (gattErr == CYBLE_GATT_ERR_NONE))
 309:.\Generated_Source\PSoC4/ble_eventHandler.c ****     {
 310:.\Generated_Source\PSoC4/ble_eventHandler.c ****         gattErr = CyBle_GlssWriteEventHandler(eventParam);
 311:.\Generated_Source\PSoC4/ble_eventHandler.c ****     }
 312:.\Generated_Source\PSoC4/ble_eventHandler.c **** #endif /* CYBLE_GLS_SERVER */
 313:.\Generated_Source\PSoC4/ble_eventHandler.c **** #ifdef CYBLE_HIDS_SERVER
 314:.\Generated_Source\PSoC4/ble_eventHandler.c ****     if(((cyBle_eventHandlerFlag & CYBLE_CALLBACK) != 0u) && (gattErr == CYBLE_GATT_ERR_NONE))
 315:.\Generated_Source\PSoC4/ble_eventHandler.c ****     {
 316:.\Generated_Source\PSoC4/ble_eventHandler.c ****         gattErr = CyBle_HidssWriteEventHandler(eventParam);
 317:.\Generated_Source\PSoC4/ble_eventHandler.c ****     }
 318:.\Generated_Source\PSoC4/ble_eventHandler.c **** #endif /* CYBLE_HIDS_SERVER */
ARM GAS  C:\Users\Alan\AppData\Local\Temp\ccbjvqhO.s 			page 7


 319:.\Generated_Source\PSoC4/ble_eventHandler.c **** #ifdef CYBLE_HRS_SERVER
 320:.\Generated_Source\PSoC4/ble_eventHandler.c ****     if(((cyBle_eventHandlerFlag & CYBLE_CALLBACK) != 0u) && (gattErr == CYBLE_GATT_ERR_NONE))
 321:.\Generated_Source\PSoC4/ble_eventHandler.c ****     {
 322:.\Generated_Source\PSoC4/ble_eventHandler.c ****         gattErr = CyBle_HrssWriteEventHandler(eventParam);
 323:.\Generated_Source\PSoC4/ble_eventHandler.c ****     }
 324:.\Generated_Source\PSoC4/ble_eventHandler.c **** #endif /* CYBLE_HRS_SERVER */
 325:.\Generated_Source\PSoC4/ble_eventHandler.c **** #ifdef CYBLE_HTS_SERVER
 326:.\Generated_Source\PSoC4/ble_eventHandler.c ****     if(((cyBle_eventHandlerFlag & CYBLE_CALLBACK) != 0u) && (gattErr == CYBLE_GATT_ERR_NONE))
 327:.\Generated_Source\PSoC4/ble_eventHandler.c ****     {
 328:.\Generated_Source\PSoC4/ble_eventHandler.c ****         gattErr = CyBle_HtssWriteEventHandler(eventParam);
 329:.\Generated_Source\PSoC4/ble_eventHandler.c ****     }
 330:.\Generated_Source\PSoC4/ble_eventHandler.c **** #endif /* CYBLE_HTS_SERVER */
 331:.\Generated_Source\PSoC4/ble_eventHandler.c **** #ifdef CYBLE_LLS_SERVER
 332:.\Generated_Source\PSoC4/ble_eventHandler.c ****     if(((cyBle_eventHandlerFlag & CYBLE_CALLBACK) != 0u) && (gattErr == CYBLE_GATT_ERR_NONE))
 333:.\Generated_Source\PSoC4/ble_eventHandler.c ****     {
 334:.\Generated_Source\PSoC4/ble_eventHandler.c ****         gattErr = CyBle_LlssWriteEventHandler(eventParam);
 335:.\Generated_Source\PSoC4/ble_eventHandler.c ****     }
 336:.\Generated_Source\PSoC4/ble_eventHandler.c **** #endif /* CYBLE_LLS_SERVER */
 337:.\Generated_Source\PSoC4/ble_eventHandler.c **** #ifdef CYBLE_LNS_SERVER
 338:.\Generated_Source\PSoC4/ble_eventHandler.c ****     if(((cyBle_eventHandlerFlag & CYBLE_CALLBACK) != 0u) && (gattErr == CYBLE_GATT_ERR_NONE))
 339:.\Generated_Source\PSoC4/ble_eventHandler.c ****     {
 340:.\Generated_Source\PSoC4/ble_eventHandler.c ****         gattErr = CyBle_LnssWriteEventHandler(eventParam);
 341:.\Generated_Source\PSoC4/ble_eventHandler.c ****     }
 342:.\Generated_Source\PSoC4/ble_eventHandler.c **** #endif /* CYBLE_LNS_SERVER */
 343:.\Generated_Source\PSoC4/ble_eventHandler.c **** #ifdef CYBLE_PASS_SERVER
 344:.\Generated_Source\PSoC4/ble_eventHandler.c ****     if(((cyBle_eventHandlerFlag & CYBLE_CALLBACK) != 0u) && (gattErr == CYBLE_GATT_ERR_NONE))
 345:.\Generated_Source\PSoC4/ble_eventHandler.c ****     {
 346:.\Generated_Source\PSoC4/ble_eventHandler.c ****         gattErr = CyBle_PasssWriteEventHandler(eventParam);
 347:.\Generated_Source\PSoC4/ble_eventHandler.c ****     }
 348:.\Generated_Source\PSoC4/ble_eventHandler.c **** #endif /* CYBLE_PASS_SERVER */
 349:.\Generated_Source\PSoC4/ble_eventHandler.c **** #ifdef CYBLE_RSCS_SERVER
 350:.\Generated_Source\PSoC4/ble_eventHandler.c ****     if(((cyBle_eventHandlerFlag & CYBLE_CALLBACK) != 0u) && (gattErr == CYBLE_GATT_ERR_NONE))
 351:.\Generated_Source\PSoC4/ble_eventHandler.c ****     {
 352:.\Generated_Source\PSoC4/ble_eventHandler.c ****         gattErr = CyBle_RscssWriteEventHandler(eventParam);
 353:.\Generated_Source\PSoC4/ble_eventHandler.c ****     }
 354:.\Generated_Source\PSoC4/ble_eventHandler.c **** #endif /* CYBLE_RSCS_SERVER */
 355:.\Generated_Source\PSoC4/ble_eventHandler.c **** #ifdef CYBLE_SCPS_SERVER
 356:.\Generated_Source\PSoC4/ble_eventHandler.c ****     if(((cyBle_eventHandlerFlag & CYBLE_CALLBACK) != 0u) && (gattErr == CYBLE_GATT_ERR_NONE))
 357:.\Generated_Source\PSoC4/ble_eventHandler.c ****     {
 358:.\Generated_Source\PSoC4/ble_eventHandler.c ****         gattErr = CyBle_ScpssWriteEventHandler(eventParam);
 359:.\Generated_Source\PSoC4/ble_eventHandler.c ****     }
 360:.\Generated_Source\PSoC4/ble_eventHandler.c **** #endif /* CYBLE_SCPS_SERVER */
 361:.\Generated_Source\PSoC4/ble_eventHandler.c **** #ifdef CYBLE_TPS_SERVER
 362:.\Generated_Source\PSoC4/ble_eventHandler.c ****     if(((cyBle_eventHandlerFlag & CYBLE_CALLBACK) != 0u) && (gattErr == CYBLE_GATT_ERR_NONE))
 363:.\Generated_Source\PSoC4/ble_eventHandler.c ****     {
 364:.\Generated_Source\PSoC4/ble_eventHandler.c ****         gattErr = CyBle_TpssWriteEventHandler(eventParam);
 365:.\Generated_Source\PSoC4/ble_eventHandler.c ****     }
 366:.\Generated_Source\PSoC4/ble_eventHandler.c **** #endif /* CYBLE_TPS_SERVER */
 367:.\Generated_Source\PSoC4/ble_eventHandler.c **** #ifdef CYBLE_UDS_SERVER
 368:.\Generated_Source\PSoC4/ble_eventHandler.c ****     if(((cyBle_eventHandlerFlag & CYBLE_CALLBACK) != 0u) && (gattErr == CYBLE_GATT_ERR_NONE))
 369:.\Generated_Source\PSoC4/ble_eventHandler.c ****     {
 370:.\Generated_Source\PSoC4/ble_eventHandler.c ****         gattErr = CyBle_UdssWriteEventHandler(eventParam);
 371:.\Generated_Source\PSoC4/ble_eventHandler.c ****     }
 372:.\Generated_Source\PSoC4/ble_eventHandler.c **** #endif /* CYBLE_UDS_SERVER */
 373:.\Generated_Source\PSoC4/ble_eventHandler.c **** #ifdef CYBLE_WPTS_SERVER
 374:.\Generated_Source\PSoC4/ble_eventHandler.c ****     if(((cyBle_eventHandlerFlag & CYBLE_CALLBACK) != 0u) && (gattErr == CYBLE_GATT_ERR_NONE))
 375:.\Generated_Source\PSoC4/ble_eventHandler.c ****     {
ARM GAS  C:\Users\Alan\AppData\Local\Temp\ccbjvqhO.s 			page 8


 376:.\Generated_Source\PSoC4/ble_eventHandler.c ****         gattErr = CyBle_WptssWriteEventHandler(eventParam);
 377:.\Generated_Source\PSoC4/ble_eventHandler.c ****     }
 378:.\Generated_Source\PSoC4/ble_eventHandler.c **** #endif /* CYBLE_WPTS_SERVER */
 379:.\Generated_Source\PSoC4/ble_eventHandler.c **** #ifdef CYBLE_WSS_SERVER
 380:.\Generated_Source\PSoC4/ble_eventHandler.c ****     if(((cyBle_eventHandlerFlag & CYBLE_CALLBACK) != 0u) && (gattErr == CYBLE_GATT_ERR_NONE))
 381:.\Generated_Source\PSoC4/ble_eventHandler.c ****     {
 382:.\Generated_Source\PSoC4/ble_eventHandler.c ****         gattErr = CyBle_WsssWriteEventHandler(eventParam);
 383:.\Generated_Source\PSoC4/ble_eventHandler.c ****     }
 384:.\Generated_Source\PSoC4/ble_eventHandler.c **** #endif /* CYBLE_WSS_SERVER */
 385:.\Generated_Source\PSoC4/ble_eventHandler.c **** 
 386:.\Generated_Source\PSoC4/ble_eventHandler.c ****     /* Send response when event was handled by service */
 387:.\Generated_Source\PSoC4/ble_eventHandler.c ****     if((cyBle_eventHandlerFlag & CYBLE_CALLBACK) == 0u)
 388:.\Generated_Source\PSoC4/ble_eventHandler.c ****     {
 389:.\Generated_Source\PSoC4/ble_eventHandler.c ****         if(gattErr != CYBLE_GATT_ERR_NONE)
 390:.\Generated_Source\PSoC4/ble_eventHandler.c ****         {
 391:.\Generated_Source\PSoC4/ble_eventHandler.c ****             CYBLE_GATTS_ERR_PARAM_T err_param;
 392:.\Generated_Source\PSoC4/ble_eventHandler.c ****             
 393:.\Generated_Source\PSoC4/ble_eventHandler.c ****             err_param.opcode = (uint8) CYBLE_GATT_WRITE_REQ;
 394:.\Generated_Source\PSoC4/ble_eventHandler.c ****             err_param.attrHandle = eventParam->handleValPair.attrHandle;
 395:.\Generated_Source\PSoC4/ble_eventHandler.c ****             err_param.errorCode = gattErr;
 396:.\Generated_Source\PSoC4/ble_eventHandler.c **** 
 397:.\Generated_Source\PSoC4/ble_eventHandler.c ****             /* Send Error Response */
 398:.\Generated_Source\PSoC4/ble_eventHandler.c ****             (void)CyBle_GattsErrorRsp(eventParam->connHandle, &err_param);
 399:.\Generated_Source\PSoC4/ble_eventHandler.c ****         }
 400:.\Generated_Source\PSoC4/ble_eventHandler.c ****         else
 401:.\Generated_Source\PSoC4/ble_eventHandler.c ****         {
 402:.\Generated_Source\PSoC4/ble_eventHandler.c ****             (void)CyBle_GattsWriteRsp(eventParam->connHandle);
 403:.\Generated_Source\PSoC4/ble_eventHandler.c ****         }
 404:.\Generated_Source\PSoC4/ble_eventHandler.c ****     }
 405:.\Generated_Source\PSoC4/ble_eventHandler.c **** }
 406:.\Generated_Source\PSoC4/ble_eventHandler.c **** 
 407:.\Generated_Source\PSoC4/ble_eventHandler.c **** 
 408:.\Generated_Source\PSoC4/ble_eventHandler.c **** /****************************************************************************** 
 409:.\Generated_Source\PSoC4/ble_eventHandler.c **** * Function Name: CyBle_ValueConfirmation
 410:.\Generated_Source\PSoC4/ble_eventHandler.c **** ***************************************************************************//**
 411:.\Generated_Source\PSoC4/ble_eventHandler.c **** * 
 412:.\Generated_Source\PSoC4/ble_eventHandler.c **** *  Handles the Value Confirmation request event from the BLE stack.
 413:.\Generated_Source\PSoC4/ble_eventHandler.c **** * 
 414:.\Generated_Source\PSoC4/ble_eventHandler.c **** *  \param eventParam: Pointer to a structure of type 'CYBLE_CONN_HANDLE_T'
 415:.\Generated_Source\PSoC4/ble_eventHandler.c **** * 
 416:.\Generated_Source\PSoC4/ble_eventHandler.c **** * \return
 417:.\Generated_Source\PSoC4/ble_eventHandler.c **** *  None
 418:.\Generated_Source\PSoC4/ble_eventHandler.c **** * 
 419:.\Generated_Source\PSoC4/ble_eventHandler.c **** ******************************************************************************/
 420:.\Generated_Source\PSoC4/ble_eventHandler.c **** static void CyBle_ValueConfirmation(const CYBLE_CONN_HANDLE_T *eventParam)
 421:.\Generated_Source\PSoC4/ble_eventHandler.c **** {
 422:.\Generated_Source\PSoC4/ble_eventHandler.c ****     if(eventParam != NULL)
 423:.\Generated_Source\PSoC4/ble_eventHandler.c ****     {
 424:.\Generated_Source\PSoC4/ble_eventHandler.c ****     #ifdef CYBLE_BCS_SERVER
 425:.\Generated_Source\PSoC4/ble_eventHandler.c ****         CyBle_BcssConfirmationEventHandler(eventParam);
 426:.\Generated_Source\PSoC4/ble_eventHandler.c ****     #endif /* CYBLE_BCS_SERVER */
 427:.\Generated_Source\PSoC4/ble_eventHandler.c ****     #ifdef CYBLE_BLS_SERVER
 428:.\Generated_Source\PSoC4/ble_eventHandler.c ****         if((cyBle_eventHandlerFlag & CYBLE_CALLBACK) != 0u)
 429:.\Generated_Source\PSoC4/ble_eventHandler.c ****         {
 430:.\Generated_Source\PSoC4/ble_eventHandler.c ****             CyBle_BlssConfirmationEventHandler(eventParam);
 431:.\Generated_Source\PSoC4/ble_eventHandler.c ****         }
 432:.\Generated_Source\PSoC4/ble_eventHandler.c ****     #endif /* CYBLE_BLS_SERVER */
ARM GAS  C:\Users\Alan\AppData\Local\Temp\ccbjvqhO.s 			page 9


 433:.\Generated_Source\PSoC4/ble_eventHandler.c ****     
 434:.\Generated_Source\PSoC4/ble_eventHandler.c ****     #ifdef CYBLE_CGMS_SERVER
 435:.\Generated_Source\PSoC4/ble_eventHandler.c ****         if((cyBle_eventHandlerFlag & CYBLE_CALLBACK) != 0u)
 436:.\Generated_Source\PSoC4/ble_eventHandler.c ****         {
 437:.\Generated_Source\PSoC4/ble_eventHandler.c ****             CyBle_CgmssConfirmationEventHandler(eventParam);
 438:.\Generated_Source\PSoC4/ble_eventHandler.c ****         }
 439:.\Generated_Source\PSoC4/ble_eventHandler.c ****     #endif /* CYBLE_CGMS_SERVER */
 440:.\Generated_Source\PSoC4/ble_eventHandler.c ****     
 441:.\Generated_Source\PSoC4/ble_eventHandler.c ****     #ifdef CYBLE_CPS_SERVER
 442:.\Generated_Source\PSoC4/ble_eventHandler.c ****         if((cyBle_eventHandlerFlag & CYBLE_CALLBACK) != 0u)
 443:.\Generated_Source\PSoC4/ble_eventHandler.c ****         {
 444:.\Generated_Source\PSoC4/ble_eventHandler.c ****             CyBle_CpssConfirmationEventHandler(eventParam);
 445:.\Generated_Source\PSoC4/ble_eventHandler.c ****         }
 446:.\Generated_Source\PSoC4/ble_eventHandler.c ****     #endif /* CYBLE_CPS_SERVER */
 447:.\Generated_Source\PSoC4/ble_eventHandler.c ****     
 448:.\Generated_Source\PSoC4/ble_eventHandler.c ****     #ifdef CYBLE_CSCS_SERVER
 449:.\Generated_Source\PSoC4/ble_eventHandler.c ****         if((cyBle_eventHandlerFlag & CYBLE_CALLBACK) != 0u)
 450:.\Generated_Source\PSoC4/ble_eventHandler.c ****         {
 451:.\Generated_Source\PSoC4/ble_eventHandler.c ****             CyBle_CscssConfirmationEventHandler(eventParam);
 452:.\Generated_Source\PSoC4/ble_eventHandler.c ****         }
 453:.\Generated_Source\PSoC4/ble_eventHandler.c ****     #endif /* CYBLE_CSCS_SERVER */
 454:.\Generated_Source\PSoC4/ble_eventHandler.c ****     
 455:.\Generated_Source\PSoC4/ble_eventHandler.c ****     #ifdef CYBLE_ESS_SERVER
 456:.\Generated_Source\PSoC4/ble_eventHandler.c ****         if((cyBle_eventHandlerFlag & CYBLE_CALLBACK) != 0u)
 457:.\Generated_Source\PSoC4/ble_eventHandler.c ****         {
 458:.\Generated_Source\PSoC4/ble_eventHandler.c ****             CyBle_EsssConfirmationEventHandler(eventParam);
 459:.\Generated_Source\PSoC4/ble_eventHandler.c ****         }
 460:.\Generated_Source\PSoC4/ble_eventHandler.c ****     #endif /* CYBLE_ESS_SERVER */
 461:.\Generated_Source\PSoC4/ble_eventHandler.c ****     
 462:.\Generated_Source\PSoC4/ble_eventHandler.c ****     #ifdef CYBLE_GLS_SERVER
 463:.\Generated_Source\PSoC4/ble_eventHandler.c ****         if((cyBle_eventHandlerFlag & CYBLE_CALLBACK) != 0u)
 464:.\Generated_Source\PSoC4/ble_eventHandler.c ****         {
 465:.\Generated_Source\PSoC4/ble_eventHandler.c ****             CyBle_GlssConfirmationEventHandler(eventParam);
 466:.\Generated_Source\PSoC4/ble_eventHandler.c ****         }
 467:.\Generated_Source\PSoC4/ble_eventHandler.c ****     #endif /* CYBLE_GLS_SERVER */
 468:.\Generated_Source\PSoC4/ble_eventHandler.c ****     
 469:.\Generated_Source\PSoC4/ble_eventHandler.c ****     #ifdef CYBLE_HTS_SERVER
 470:.\Generated_Source\PSoC4/ble_eventHandler.c ****         if((cyBle_eventHandlerFlag & CYBLE_CALLBACK) != 0u)
 471:.\Generated_Source\PSoC4/ble_eventHandler.c ****         {
 472:.\Generated_Source\PSoC4/ble_eventHandler.c ****             CyBle_HtssConfirmationEventHandler(eventParam);
 473:.\Generated_Source\PSoC4/ble_eventHandler.c ****         }
 474:.\Generated_Source\PSoC4/ble_eventHandler.c ****     #endif /* CYBLE_HTS_SERVER */
 475:.\Generated_Source\PSoC4/ble_eventHandler.c **** 
 476:.\Generated_Source\PSoC4/ble_eventHandler.c ****     #ifdef CYBLE_LNS_SERVER
 477:.\Generated_Source\PSoC4/ble_eventHandler.c ****         if((cyBle_eventHandlerFlag & CYBLE_CALLBACK) != 0u)
 478:.\Generated_Source\PSoC4/ble_eventHandler.c ****         {
 479:.\Generated_Source\PSoC4/ble_eventHandler.c ****             CyBle_LnssConfirmationEventHandler(eventParam);
 480:.\Generated_Source\PSoC4/ble_eventHandler.c ****         }
 481:.\Generated_Source\PSoC4/ble_eventHandler.c ****     #endif /* CYBLE_LNS_SERVER */
 482:.\Generated_Source\PSoC4/ble_eventHandler.c ****     
 483:.\Generated_Source\PSoC4/ble_eventHandler.c ****     #ifdef CYBLE_RSCS_SERVER
 484:.\Generated_Source\PSoC4/ble_eventHandler.c ****         if((cyBle_eventHandlerFlag & CYBLE_CALLBACK) != 0u)
 485:.\Generated_Source\PSoC4/ble_eventHandler.c ****         {
 486:.\Generated_Source\PSoC4/ble_eventHandler.c ****             CyBle_RscssConfirmationEventHandler(eventParam);
 487:.\Generated_Source\PSoC4/ble_eventHandler.c ****         }
 488:.\Generated_Source\PSoC4/ble_eventHandler.c ****     #endif /* CYBLE_RSCS_SERVER */
 489:.\Generated_Source\PSoC4/ble_eventHandler.c ****     
ARM GAS  C:\Users\Alan\AppData\Local\Temp\ccbjvqhO.s 			page 10


 490:.\Generated_Source\PSoC4/ble_eventHandler.c ****     #ifdef CYBLE_UDS_SERVER
 491:.\Generated_Source\PSoC4/ble_eventHandler.c ****         if((cyBle_eventHandlerFlag & CYBLE_CALLBACK) != 0u)
 492:.\Generated_Source\PSoC4/ble_eventHandler.c ****         {
 493:.\Generated_Source\PSoC4/ble_eventHandler.c ****             CyBle_UdssConfirmationEventHandler(eventParam);
 494:.\Generated_Source\PSoC4/ble_eventHandler.c ****         }
 495:.\Generated_Source\PSoC4/ble_eventHandler.c ****     #endif /* CYBLE_UDS_SERVER */
 496:.\Generated_Source\PSoC4/ble_eventHandler.c ****     
 497:.\Generated_Source\PSoC4/ble_eventHandler.c ****     #ifdef CYBLE_WPTS_SERVER
 498:.\Generated_Source\PSoC4/ble_eventHandler.c ****         if((cyBle_eventHandlerFlag & CYBLE_CALLBACK) != 0u)
 499:.\Generated_Source\PSoC4/ble_eventHandler.c ****         {
 500:.\Generated_Source\PSoC4/ble_eventHandler.c ****             CyBle_WptssConfirmationEventHandler(eventParam);
 501:.\Generated_Source\PSoC4/ble_eventHandler.c ****         }
 502:.\Generated_Source\PSoC4/ble_eventHandler.c ****     #endif /* CYBLE_WPTS_SERVER */
 503:.\Generated_Source\PSoC4/ble_eventHandler.c ****     
 504:.\Generated_Source\PSoC4/ble_eventHandler.c ****     #ifdef CYBLE_WSS_SERVER
 505:.\Generated_Source\PSoC4/ble_eventHandler.c ****         if((cyBle_eventHandlerFlag & CYBLE_CALLBACK) != 0u)
 506:.\Generated_Source\PSoC4/ble_eventHandler.c ****         {
 507:.\Generated_Source\PSoC4/ble_eventHandler.c ****             CyBle_WsssConfirmationEventHandler(eventParam);
 508:.\Generated_Source\PSoC4/ble_eventHandler.c ****         }
 509:.\Generated_Source\PSoC4/ble_eventHandler.c ****     #endif /* CYBLE_WSS_SERVER */
 510:.\Generated_Source\PSoC4/ble_eventHandler.c ****     }
 511:.\Generated_Source\PSoC4/ble_eventHandler.c **** }
 512:.\Generated_Source\PSoC4/ble_eventHandler.c **** 
 513:.\Generated_Source\PSoC4/ble_eventHandler.c **** #endif /* CYBLE_GATT_ROLE_SERVER */
 514:.\Generated_Source\PSoC4/ble_eventHandler.c **** 
 515:.\Generated_Source\PSoC4/ble_eventHandler.c **** 
 516:.\Generated_Source\PSoC4/ble_eventHandler.c **** #if (CYBLE_GATT_ROLE_CLIENT)
 517:.\Generated_Source\PSoC4/ble_eventHandler.c **** 
 518:.\Generated_Source\PSoC4/ble_eventHandler.c **** /****************************************************************************** 
 519:.\Generated_Source\PSoC4/ble_eventHandler.c **** * Function Name: CyBle_GattcWriteResponseEventHandler
 520:.\Generated_Source\PSoC4/ble_eventHandler.c **** ***************************************************************************//**
 521:.\Generated_Source\PSoC4/ble_eventHandler.c **** * 
 522:.\Generated_Source\PSoC4/ble_eventHandler.c **** *  Handles the Write response event from the BLE stack.
 523:.\Generated_Source\PSoC4/ble_eventHandler.c **** * 
 524:.\Generated_Source\PSoC4/ble_eventHandler.c **** *  \param eventParam: Pointer to a structure of type 'CYBLE_CONN_HANDLE_T'
 525:.\Generated_Source\PSoC4/ble_eventHandler.c **** * 
 526:.\Generated_Source\PSoC4/ble_eventHandler.c **** * \return
 527:.\Generated_Source\PSoC4/ble_eventHandler.c **** *  None
 528:.\Generated_Source\PSoC4/ble_eventHandler.c **** * 
 529:.\Generated_Source\PSoC4/ble_eventHandler.c **** ******************************************************************************/
 530:.\Generated_Source\PSoC4/ble_eventHandler.c **** static void CyBle_GattcWriteResponseEventHandler(const CYBLE_CONN_HANDLE_T *eventParam)
 531:.\Generated_Source\PSoC4/ble_eventHandler.c **** {
 532:.\Generated_Source\PSoC4/ble_eventHandler.c **** #ifdef CYBLE_ANCS_CLIENT
 533:.\Generated_Source\PSoC4/ble_eventHandler.c ****     CyBle_AncscWriteResponseEventHandler(eventParam);
 534:.\Generated_Source\PSoC4/ble_eventHandler.c **** #endif /* CYBLE_ANCS_CLIENT */
 535:.\Generated_Source\PSoC4/ble_eventHandler.c **** 
 536:.\Generated_Source\PSoC4/ble_eventHandler.c **** #ifdef CYBLE_ANS_CLIENT
 537:.\Generated_Source\PSoC4/ble_eventHandler.c ****     if((cyBle_eventHandlerFlag & CYBLE_CALLBACK) != 0u)
 538:.\Generated_Source\PSoC4/ble_eventHandler.c ****     {
 539:.\Generated_Source\PSoC4/ble_eventHandler.c ****         CyBle_AnscWriteResponseEventHandler(eventParam);
 540:.\Generated_Source\PSoC4/ble_eventHandler.c ****     }
 541:.\Generated_Source\PSoC4/ble_eventHandler.c **** #endif /* CYBLE_ANS_CLIENT */
 542:.\Generated_Source\PSoC4/ble_eventHandler.c **** 
 543:.\Generated_Source\PSoC4/ble_eventHandler.c **** #ifdef CYBLE_BAS_CLIENT
 544:.\Generated_Source\PSoC4/ble_eventHandler.c ****     if((cyBle_eventHandlerFlag & CYBLE_CALLBACK) != 0u)
 545:.\Generated_Source\PSoC4/ble_eventHandler.c ****     {
 546:.\Generated_Source\PSoC4/ble_eventHandler.c ****         CyBle_BascWriteResponseEventHandler(eventParam);
ARM GAS  C:\Users\Alan\AppData\Local\Temp\ccbjvqhO.s 			page 11


 547:.\Generated_Source\PSoC4/ble_eventHandler.c ****     }
 548:.\Generated_Source\PSoC4/ble_eventHandler.c **** #endif /* CYBLE_BAS_CLIENT */
 549:.\Generated_Source\PSoC4/ble_eventHandler.c **** 
 550:.\Generated_Source\PSoC4/ble_eventHandler.c **** #ifdef CYBLE_BCS_CLIENT
 551:.\Generated_Source\PSoC4/ble_eventHandler.c ****     if((cyBle_eventHandlerFlag & CYBLE_CALLBACK) != 0u)
 552:.\Generated_Source\PSoC4/ble_eventHandler.c ****     {
 553:.\Generated_Source\PSoC4/ble_eventHandler.c ****         CyBle_BcscWriteResponseEventHandler(eventParam);
 554:.\Generated_Source\PSoC4/ble_eventHandler.c ****     }
 555:.\Generated_Source\PSoC4/ble_eventHandler.c **** #endif /* CYBLE_BCS_CLIENT */
 556:.\Generated_Source\PSoC4/ble_eventHandler.c **** 
 557:.\Generated_Source\PSoC4/ble_eventHandler.c **** #ifdef CYBLE_BLS_CLIENT
 558:.\Generated_Source\PSoC4/ble_eventHandler.c ****     if((cyBle_eventHandlerFlag & CYBLE_CALLBACK) != 0u)
 559:.\Generated_Source\PSoC4/ble_eventHandler.c ****     {
 560:.\Generated_Source\PSoC4/ble_eventHandler.c ****         CyBle_BlscWriteResponseEventHandler(eventParam);
 561:.\Generated_Source\PSoC4/ble_eventHandler.c ****     }
 562:.\Generated_Source\PSoC4/ble_eventHandler.c **** #endif /* CYBLE_BLS_CLIENT */
 563:.\Generated_Source\PSoC4/ble_eventHandler.c **** 
 564:.\Generated_Source\PSoC4/ble_eventHandler.c **** #ifdef CYBLE_BMS_CLIENT
 565:.\Generated_Source\PSoC4/ble_eventHandler.c ****     if((cyBle_eventHandlerFlag & CYBLE_CALLBACK) != 0u)
 566:.\Generated_Source\PSoC4/ble_eventHandler.c ****     {
 567:.\Generated_Source\PSoC4/ble_eventHandler.c ****         CyBle_BmscWriteResponseEventHandler(eventParam);
 568:.\Generated_Source\PSoC4/ble_eventHandler.c ****     }
 569:.\Generated_Source\PSoC4/ble_eventHandler.c **** #endif /* CYBLE_BMS_CLIENT */
 570:.\Generated_Source\PSoC4/ble_eventHandler.c **** 
 571:.\Generated_Source\PSoC4/ble_eventHandler.c **** #ifdef CYBLE_CGMS_CLIENT
 572:.\Generated_Source\PSoC4/ble_eventHandler.c ****     if((cyBle_eventHandlerFlag & CYBLE_CALLBACK) != 0u)
 573:.\Generated_Source\PSoC4/ble_eventHandler.c ****     {
 574:.\Generated_Source\PSoC4/ble_eventHandler.c ****         CyBle_CgmscWriteResponseEventHandler(eventParam);
 575:.\Generated_Source\PSoC4/ble_eventHandler.c ****     }
 576:.\Generated_Source\PSoC4/ble_eventHandler.c **** #endif /* CYBLE_CGMS_CLIENT */
 577:.\Generated_Source\PSoC4/ble_eventHandler.c **** 
 578:.\Generated_Source\PSoC4/ble_eventHandler.c **** #ifdef CYBLE_CPS_CLIENT
 579:.\Generated_Source\PSoC4/ble_eventHandler.c ****     if((cyBle_eventHandlerFlag & CYBLE_CALLBACK) != 0u)
 580:.\Generated_Source\PSoC4/ble_eventHandler.c ****     {
 581:.\Generated_Source\PSoC4/ble_eventHandler.c ****         CyBle_CpscWriteResponseEventHandler(eventParam);
 582:.\Generated_Source\PSoC4/ble_eventHandler.c ****     }
 583:.\Generated_Source\PSoC4/ble_eventHandler.c **** #endif /* CYBLE_CPS_CLIENT */
 584:.\Generated_Source\PSoC4/ble_eventHandler.c **** 
 585:.\Generated_Source\PSoC4/ble_eventHandler.c **** #ifdef CYBLE_CSCS_CLIENT
 586:.\Generated_Source\PSoC4/ble_eventHandler.c ****     if((cyBle_eventHandlerFlag & CYBLE_CALLBACK) != 0u)
 587:.\Generated_Source\PSoC4/ble_eventHandler.c ****     {
 588:.\Generated_Source\PSoC4/ble_eventHandler.c ****         CyBle_CscscWriteResponseEventHandler(eventParam);
 589:.\Generated_Source\PSoC4/ble_eventHandler.c ****     }
 590:.\Generated_Source\PSoC4/ble_eventHandler.c **** #endif /* CYBLE_CSCS_CLIENT */
 591:.\Generated_Source\PSoC4/ble_eventHandler.c **** 
 592:.\Generated_Source\PSoC4/ble_eventHandler.c **** #ifdef CYBLE_CTS_CLIENT
 593:.\Generated_Source\PSoC4/ble_eventHandler.c ****     if((cyBle_eventHandlerFlag & CYBLE_CALLBACK) != 0u)
 594:.\Generated_Source\PSoC4/ble_eventHandler.c ****     {
 595:.\Generated_Source\PSoC4/ble_eventHandler.c ****         CyBle_CtscWriteResponseEventHandler(eventParam);
 596:.\Generated_Source\PSoC4/ble_eventHandler.c ****     }
 597:.\Generated_Source\PSoC4/ble_eventHandler.c **** #endif /* CYBLE_CTS_CLIENT */
 598:.\Generated_Source\PSoC4/ble_eventHandler.c **** 
 599:.\Generated_Source\PSoC4/ble_eventHandler.c **** #ifdef CYBLE_ESS_CLIENT
 600:.\Generated_Source\PSoC4/ble_eventHandler.c ****     if((cyBle_eventHandlerFlag & CYBLE_CALLBACK) != 0u)
 601:.\Generated_Source\PSoC4/ble_eventHandler.c ****     {
 602:.\Generated_Source\PSoC4/ble_eventHandler.c ****         CyBle_EsscWriteResponseEventHandler(eventParam);
 603:.\Generated_Source\PSoC4/ble_eventHandler.c ****     }
ARM GAS  C:\Users\Alan\AppData\Local\Temp\ccbjvqhO.s 			page 12


 604:.\Generated_Source\PSoC4/ble_eventHandler.c **** #endif /* CYBLE_ESS_CLIENT */
 605:.\Generated_Source\PSoC4/ble_eventHandler.c **** 
 606:.\Generated_Source\PSoC4/ble_eventHandler.c **** #ifdef CYBLE_GLS_CLIENT
 607:.\Generated_Source\PSoC4/ble_eventHandler.c ****     if((cyBle_eventHandlerFlag & CYBLE_CALLBACK) != 0u)
 608:.\Generated_Source\PSoC4/ble_eventHandler.c ****     {
 609:.\Generated_Source\PSoC4/ble_eventHandler.c ****         CyBle_GlscWriteResponseEventHandler(eventParam);
 610:.\Generated_Source\PSoC4/ble_eventHandler.c ****     }
 611:.\Generated_Source\PSoC4/ble_eventHandler.c **** #endif /* CYBLE_GLS_CLIENT */
 612:.\Generated_Source\PSoC4/ble_eventHandler.c **** 
 613:.\Generated_Source\PSoC4/ble_eventHandler.c **** #ifdef CYBLE_HIDS_CLIENT
 614:.\Generated_Source\PSoC4/ble_eventHandler.c ****     if((cyBle_eventHandlerFlag & CYBLE_CALLBACK) != 0u)
 615:.\Generated_Source\PSoC4/ble_eventHandler.c ****     {
 616:.\Generated_Source\PSoC4/ble_eventHandler.c ****         CyBle_HidscWriteResponseEventHandler(eventParam);
 617:.\Generated_Source\PSoC4/ble_eventHandler.c ****     }
 618:.\Generated_Source\PSoC4/ble_eventHandler.c **** #endif /* CYBLE_HIDS_CLIENT */
 619:.\Generated_Source\PSoC4/ble_eventHandler.c **** 
 620:.\Generated_Source\PSoC4/ble_eventHandler.c **** #ifdef CYBLE_HRS_CLIENT
 621:.\Generated_Source\PSoC4/ble_eventHandler.c ****     if((cyBle_eventHandlerFlag & CYBLE_CALLBACK) != 0u)
 622:.\Generated_Source\PSoC4/ble_eventHandler.c ****     {
 623:.\Generated_Source\PSoC4/ble_eventHandler.c ****         CyBle_HrscWriteResponseEventHandler(eventParam);
 624:.\Generated_Source\PSoC4/ble_eventHandler.c ****     }
 625:.\Generated_Source\PSoC4/ble_eventHandler.c **** #endif /* CYBLE_HRS_CLIENT */
 626:.\Generated_Source\PSoC4/ble_eventHandler.c **** 
 627:.\Generated_Source\PSoC4/ble_eventHandler.c **** #ifdef CYBLE_HTS_CLIENT
 628:.\Generated_Source\PSoC4/ble_eventHandler.c ****     if((cyBle_eventHandlerFlag & CYBLE_CALLBACK) != 0u)
 629:.\Generated_Source\PSoC4/ble_eventHandler.c ****     {
 630:.\Generated_Source\PSoC4/ble_eventHandler.c ****         CyBle_HtscWriteResponseEventHandler(eventParam);
 631:.\Generated_Source\PSoC4/ble_eventHandler.c ****     }
 632:.\Generated_Source\PSoC4/ble_eventHandler.c **** #endif /* CYBLE_HTS_CLIENT */
 633:.\Generated_Source\PSoC4/ble_eventHandler.c **** 
 634:.\Generated_Source\PSoC4/ble_eventHandler.c **** #ifdef CYBLE_LLS_CLIENT
 635:.\Generated_Source\PSoC4/ble_eventHandler.c ****     if((cyBle_eventHandlerFlag & CYBLE_CALLBACK) != 0u)
 636:.\Generated_Source\PSoC4/ble_eventHandler.c ****     {
 637:.\Generated_Source\PSoC4/ble_eventHandler.c ****         CyBle_LlscWriteResponseEventHandler(eventParam);
 638:.\Generated_Source\PSoC4/ble_eventHandler.c ****     }
 639:.\Generated_Source\PSoC4/ble_eventHandler.c **** #endif /* CYBLE_LLS_CLIENT */
 640:.\Generated_Source\PSoC4/ble_eventHandler.c **** 
 641:.\Generated_Source\PSoC4/ble_eventHandler.c **** #ifdef CYBLE_LNS_CLIENT
 642:.\Generated_Source\PSoC4/ble_eventHandler.c ****     if((cyBle_eventHandlerFlag & CYBLE_CALLBACK) != 0u)
 643:.\Generated_Source\PSoC4/ble_eventHandler.c ****     {
 644:.\Generated_Source\PSoC4/ble_eventHandler.c ****         CyBle_LnscWriteResponseEventHandler(eventParam);
 645:.\Generated_Source\PSoC4/ble_eventHandler.c ****     }
 646:.\Generated_Source\PSoC4/ble_eventHandler.c **** #endif /* CYBLE_LNS_CLIENT */
 647:.\Generated_Source\PSoC4/ble_eventHandler.c **** 
 648:.\Generated_Source\PSoC4/ble_eventHandler.c **** #ifdef CYBLE_PASS_CLIENT
 649:.\Generated_Source\PSoC4/ble_eventHandler.c ****     if((cyBle_eventHandlerFlag & CYBLE_CALLBACK) != 0u)
 650:.\Generated_Source\PSoC4/ble_eventHandler.c ****     {
 651:.\Generated_Source\PSoC4/ble_eventHandler.c ****         CyBle_PasscWriteResponseEventHandler(eventParam);
 652:.\Generated_Source\PSoC4/ble_eventHandler.c ****     }
 653:.\Generated_Source\PSoC4/ble_eventHandler.c **** #endif /* CYBLE_PASS_CLIENT */
 654:.\Generated_Source\PSoC4/ble_eventHandler.c **** 
 655:.\Generated_Source\PSoC4/ble_eventHandler.c **** #ifdef CYBLE_RSCS_CLIENT
 656:.\Generated_Source\PSoC4/ble_eventHandler.c ****     if((cyBle_eventHandlerFlag & CYBLE_CALLBACK) != 0u)
 657:.\Generated_Source\PSoC4/ble_eventHandler.c ****     {
 658:.\Generated_Source\PSoC4/ble_eventHandler.c ****         CyBle_RscscWriteResponseEventHandler(eventParam);
 659:.\Generated_Source\PSoC4/ble_eventHandler.c ****     }
 660:.\Generated_Source\PSoC4/ble_eventHandler.c **** #endif /* CYBLE_RSCS_CLIENT */
ARM GAS  C:\Users\Alan\AppData\Local\Temp\ccbjvqhO.s 			page 13


 661:.\Generated_Source\PSoC4/ble_eventHandler.c **** 
 662:.\Generated_Source\PSoC4/ble_eventHandler.c **** #ifdef CYBLE_SCPS_CLIENT
 663:.\Generated_Source\PSoC4/ble_eventHandler.c ****     if((cyBle_eventHandlerFlag & CYBLE_CALLBACK) != 0u)
 664:.\Generated_Source\PSoC4/ble_eventHandler.c ****     {
 665:.\Generated_Source\PSoC4/ble_eventHandler.c ****         CyBle_ScpscWriteResponseEventHandler(eventParam);
 666:.\Generated_Source\PSoC4/ble_eventHandler.c ****     }
 667:.\Generated_Source\PSoC4/ble_eventHandler.c **** #endif /* CYBLE_SCPS_CLIENT */
 668:.\Generated_Source\PSoC4/ble_eventHandler.c **** 
 669:.\Generated_Source\PSoC4/ble_eventHandler.c **** #ifdef CYBLE_TPS_CLIENT
 670:.\Generated_Source\PSoC4/ble_eventHandler.c ****     if((cyBle_eventHandlerFlag & CYBLE_CALLBACK) != 0u)
 671:.\Generated_Source\PSoC4/ble_eventHandler.c ****     {
 672:.\Generated_Source\PSoC4/ble_eventHandler.c ****         CyBle_TpscWriteResponseEventHandler(eventParam);
 673:.\Generated_Source\PSoC4/ble_eventHandler.c ****     }
 674:.\Generated_Source\PSoC4/ble_eventHandler.c **** #endif /* CYBLE_TPS_CLIENT */
 675:.\Generated_Source\PSoC4/ble_eventHandler.c **** 
 676:.\Generated_Source\PSoC4/ble_eventHandler.c **** #ifdef CYBLE_UDS_CLIENT
 677:.\Generated_Source\PSoC4/ble_eventHandler.c ****     if((cyBle_eventHandlerFlag & CYBLE_CALLBACK) != 0u)
 678:.\Generated_Source\PSoC4/ble_eventHandler.c ****     {
 679:.\Generated_Source\PSoC4/ble_eventHandler.c ****         CyBle_UdscWriteResponseEventHandler(eventParam);
 680:.\Generated_Source\PSoC4/ble_eventHandler.c ****     }
 681:.\Generated_Source\PSoC4/ble_eventHandler.c **** #endif /* CYBLE_UDS_CLIENT */
 682:.\Generated_Source\PSoC4/ble_eventHandler.c **** #ifdef CYBLE_WPTS_CLIENT
 683:.\Generated_Source\PSoC4/ble_eventHandler.c ****     if((cyBle_eventHandlerFlag & CYBLE_CALLBACK) != 0u)
 684:.\Generated_Source\PSoC4/ble_eventHandler.c ****     {
 685:.\Generated_Source\PSoC4/ble_eventHandler.c ****         CyBle_WptscWriteResponseEventHandler(eventParam);
 686:.\Generated_Source\PSoC4/ble_eventHandler.c ****     }
 687:.\Generated_Source\PSoC4/ble_eventHandler.c **** #endif /* CYBLE_WPTS_CLIENT */
 688:.\Generated_Source\PSoC4/ble_eventHandler.c **** #ifdef CYBLE_WSS_CLIENT
 689:.\Generated_Source\PSoC4/ble_eventHandler.c ****     if((cyBle_eventHandlerFlag & CYBLE_CALLBACK) != 0u)
 690:.\Generated_Source\PSoC4/ble_eventHandler.c ****     {
 691:.\Generated_Source\PSoC4/ble_eventHandler.c ****         CyBle_WsscWriteResponseEventHandler(eventParam);
 692:.\Generated_Source\PSoC4/ble_eventHandler.c ****     }
 693:.\Generated_Source\PSoC4/ble_eventHandler.c **** #endif /* CYBLE_WSS_CLIENT */
 694:.\Generated_Source\PSoC4/ble_eventHandler.c **** }
 695:.\Generated_Source\PSoC4/ble_eventHandler.c **** 
 696:.\Generated_Source\PSoC4/ble_eventHandler.c **** 
 697:.\Generated_Source\PSoC4/ble_eventHandler.c **** /******************************************************************************    
 698:.\Generated_Source\PSoC4/ble_eventHandler.c **** * Function Name: CyBle_NotificationEventHandler
 699:.\Generated_Source\PSoC4/ble_eventHandler.c **** ***************************************************************************//**
 700:.\Generated_Source\PSoC4/ble_eventHandler.c **** * 
 701:.\Generated_Source\PSoC4/ble_eventHandler.c **** *  Handles the Notification event from BLE stack.
 702:.\Generated_Source\PSoC4/ble_eventHandler.c **** * 
 703:.\Generated_Source\PSoC4/ble_eventHandler.c **** *  \param eventParam: event parameter
 704:.\Generated_Source\PSoC4/ble_eventHandler.c **** * 
 705:.\Generated_Source\PSoC4/ble_eventHandler.c **** * \return
 706:.\Generated_Source\PSoC4/ble_eventHandler.c **** *  None
 707:.\Generated_Source\PSoC4/ble_eventHandler.c **** * 
 708:.\Generated_Source\PSoC4/ble_eventHandler.c **** ******************************************************************************/
 709:.\Generated_Source\PSoC4/ble_eventHandler.c **** static void CyBle_NotificationEventHandler(CYBLE_GATTC_HANDLE_VALUE_NTF_PARAM_T *eventParam)
 710:.\Generated_Source\PSoC4/ble_eventHandler.c **** {
 711:.\Generated_Source\PSoC4/ble_eventHandler.c **** #ifdef CYBLE_ANCS_CLIENT
 712:.\Generated_Source\PSoC4/ble_eventHandler.c ****     CyBle_AncscNotificationEventHandler(eventParam);
 713:.\Generated_Source\PSoC4/ble_eventHandler.c **** #endif /* CYBLE_ANCS_CLIENT */
 714:.\Generated_Source\PSoC4/ble_eventHandler.c **** #ifdef CYBLE_ANS_CLIENT
 715:.\Generated_Source\PSoC4/ble_eventHandler.c ****     if((cyBle_eventHandlerFlag & CYBLE_CALLBACK) != 0u)
 716:.\Generated_Source\PSoC4/ble_eventHandler.c ****     {
 717:.\Generated_Source\PSoC4/ble_eventHandler.c ****         CyBle_AnscNotificationEventHandler(eventParam);
ARM GAS  C:\Users\Alan\AppData\Local\Temp\ccbjvqhO.s 			page 14


 718:.\Generated_Source\PSoC4/ble_eventHandler.c ****     }
 719:.\Generated_Source\PSoC4/ble_eventHandler.c **** #endif /* CYBLE_ANS_CLIENT */
 720:.\Generated_Source\PSoC4/ble_eventHandler.c **** #ifdef CYBLE_BAS_CLIENT
 721:.\Generated_Source\PSoC4/ble_eventHandler.c ****     if((cyBle_eventHandlerFlag & CYBLE_CALLBACK) != 0u)
 722:.\Generated_Source\PSoC4/ble_eventHandler.c ****     {
 723:.\Generated_Source\PSoC4/ble_eventHandler.c ****         CyBle_BascNotificationEventHandler(eventParam);
 724:.\Generated_Source\PSoC4/ble_eventHandler.c ****     }
 725:.\Generated_Source\PSoC4/ble_eventHandler.c **** #endif /* CYBLE_BAS_CLIENT */
 726:.\Generated_Source\PSoC4/ble_eventHandler.c **** #ifdef CYBLE_BLS_CLIENT
 727:.\Generated_Source\PSoC4/ble_eventHandler.c ****     if((cyBle_eventHandlerFlag & CYBLE_CALLBACK) != 0u)
 728:.\Generated_Source\PSoC4/ble_eventHandler.c ****     {
 729:.\Generated_Source\PSoC4/ble_eventHandler.c ****         CyBle_BlscNotificationEventHandler(eventParam);
 730:.\Generated_Source\PSoC4/ble_eventHandler.c ****     }
 731:.\Generated_Source\PSoC4/ble_eventHandler.c **** #endif /* CYBLE_BLS_CLIENT */
 732:.\Generated_Source\PSoC4/ble_eventHandler.c **** #ifdef CYBLE_CGMS_CLIENT
 733:.\Generated_Source\PSoC4/ble_eventHandler.c ****     if((cyBle_eventHandlerFlag & CYBLE_CALLBACK) != 0u)
 734:.\Generated_Source\PSoC4/ble_eventHandler.c ****     {
 735:.\Generated_Source\PSoC4/ble_eventHandler.c ****         CyBle_CgmscNotificationEventHandler(eventParam);
 736:.\Generated_Source\PSoC4/ble_eventHandler.c ****     }
 737:.\Generated_Source\PSoC4/ble_eventHandler.c **** #endif /* CYBLE_CGMS_CLIENT */
 738:.\Generated_Source\PSoC4/ble_eventHandler.c **** #ifdef CYBLE_CPS_CLIENT
 739:.\Generated_Source\PSoC4/ble_eventHandler.c ****     if((cyBle_eventHandlerFlag & CYBLE_CALLBACK) != 0u)
 740:.\Generated_Source\PSoC4/ble_eventHandler.c ****     {
 741:.\Generated_Source\PSoC4/ble_eventHandler.c ****         CyBle_CpscNotificationEventHandler(eventParam);
 742:.\Generated_Source\PSoC4/ble_eventHandler.c ****     }
 743:.\Generated_Source\PSoC4/ble_eventHandler.c **** #endif /* CYBLE_CPS_CLIENT */
 744:.\Generated_Source\PSoC4/ble_eventHandler.c **** #ifdef CYBLE_CSCS_CLIENT
 745:.\Generated_Source\PSoC4/ble_eventHandler.c ****     if((cyBle_eventHandlerFlag & CYBLE_CALLBACK) != 0u)
 746:.\Generated_Source\PSoC4/ble_eventHandler.c ****     {
 747:.\Generated_Source\PSoC4/ble_eventHandler.c ****         CyBle_CscscNotificationEventHandler(eventParam);
 748:.\Generated_Source\PSoC4/ble_eventHandler.c ****     }
 749:.\Generated_Source\PSoC4/ble_eventHandler.c **** #endif /* CYBLE_CSCS_CLIENT */
 750:.\Generated_Source\PSoC4/ble_eventHandler.c **** #ifdef CYBLE_CTS_CLIENT
 751:.\Generated_Source\PSoC4/ble_eventHandler.c ****     if((cyBle_eventHandlerFlag & CYBLE_CALLBACK) != 0u)
 752:.\Generated_Source\PSoC4/ble_eventHandler.c ****     {
 753:.\Generated_Source\PSoC4/ble_eventHandler.c ****         CyBle_CtscNotificationEventHandler(eventParam);
 754:.\Generated_Source\PSoC4/ble_eventHandler.c ****     }
 755:.\Generated_Source\PSoC4/ble_eventHandler.c **** #endif /* CYBLE_CTS_CLIENT */
 756:.\Generated_Source\PSoC4/ble_eventHandler.c **** #ifdef CYBLE_ESS_CLIENT
 757:.\Generated_Source\PSoC4/ble_eventHandler.c ****     if((cyBle_eventHandlerFlag & CYBLE_CALLBACK) != 0u)
 758:.\Generated_Source\PSoC4/ble_eventHandler.c ****     {
 759:.\Generated_Source\PSoC4/ble_eventHandler.c ****         CyBle_EsscNotificationEventHandler(eventParam);
 760:.\Generated_Source\PSoC4/ble_eventHandler.c ****     }
 761:.\Generated_Source\PSoC4/ble_eventHandler.c **** #endif /* CYBLE_ESS_CLIENT */
 762:.\Generated_Source\PSoC4/ble_eventHandler.c **** #ifdef CYBLE_GLS_CLIENT
 763:.\Generated_Source\PSoC4/ble_eventHandler.c ****     if((cyBle_eventHandlerFlag & CYBLE_CALLBACK) != 0u)
 764:.\Generated_Source\PSoC4/ble_eventHandler.c ****     {
 765:.\Generated_Source\PSoC4/ble_eventHandler.c ****         CyBle_GlscNotificationEventHandler(eventParam);
 766:.\Generated_Source\PSoC4/ble_eventHandler.c ****     }
 767:.\Generated_Source\PSoC4/ble_eventHandler.c **** #endif /* CYBLE_GLS_CLIENT */
 768:.\Generated_Source\PSoC4/ble_eventHandler.c **** #ifdef CYBLE_HIDS_CLIENT
 769:.\Generated_Source\PSoC4/ble_eventHandler.c ****     if((cyBle_eventHandlerFlag & CYBLE_CALLBACK) != 0u)
 770:.\Generated_Source\PSoC4/ble_eventHandler.c ****     {
 771:.\Generated_Source\PSoC4/ble_eventHandler.c ****         CyBle_HidscNotificationEventHandler(eventParam);
 772:.\Generated_Source\PSoC4/ble_eventHandler.c ****     }
 773:.\Generated_Source\PSoC4/ble_eventHandler.c **** #endif /* CYBLE_HIDS_CLIENT */
 774:.\Generated_Source\PSoC4/ble_eventHandler.c **** #ifdef CYBLE_HRS_CLIENT
ARM GAS  C:\Users\Alan\AppData\Local\Temp\ccbjvqhO.s 			page 15


 775:.\Generated_Source\PSoC4/ble_eventHandler.c ****     if((cyBle_eventHandlerFlag & CYBLE_CALLBACK) != 0u)
 776:.\Generated_Source\PSoC4/ble_eventHandler.c ****     {
 777:.\Generated_Source\PSoC4/ble_eventHandler.c ****         CyBle_HrscNotificationEventHandler(eventParam);
 778:.\Generated_Source\PSoC4/ble_eventHandler.c ****     }
 779:.\Generated_Source\PSoC4/ble_eventHandler.c **** #endif /* CYBLE_HRS_CLIENT */
 780:.\Generated_Source\PSoC4/ble_eventHandler.c **** #ifdef CYBLE_HTS_CLIENT
 781:.\Generated_Source\PSoC4/ble_eventHandler.c ****     if((cyBle_eventHandlerFlag & CYBLE_CALLBACK) != 0u)
 782:.\Generated_Source\PSoC4/ble_eventHandler.c ****     {
 783:.\Generated_Source\PSoC4/ble_eventHandler.c ****         CyBle_HtscNotificationEventHandler(eventParam);
 784:.\Generated_Source\PSoC4/ble_eventHandler.c ****     }
 785:.\Generated_Source\PSoC4/ble_eventHandler.c **** #endif /* CYBLE_HTS_CLIENT */
 786:.\Generated_Source\PSoC4/ble_eventHandler.c **** #ifdef CYBLE_LNS_CLIENT
 787:.\Generated_Source\PSoC4/ble_eventHandler.c ****     if((cyBle_eventHandlerFlag & CYBLE_CALLBACK) != 0u)
 788:.\Generated_Source\PSoC4/ble_eventHandler.c ****     {
 789:.\Generated_Source\PSoC4/ble_eventHandler.c ****         CyBle_LnscNotificationEventHandler(eventParam);
 790:.\Generated_Source\PSoC4/ble_eventHandler.c ****     }
 791:.\Generated_Source\PSoC4/ble_eventHandler.c **** #endif /* CYBLE_LNS_CLIENT */
 792:.\Generated_Source\PSoC4/ble_eventHandler.c **** #ifdef CYBLE_PASS_CLIENT
 793:.\Generated_Source\PSoC4/ble_eventHandler.c ****     if((cyBle_eventHandlerFlag & CYBLE_CALLBACK) != 0u)
 794:.\Generated_Source\PSoC4/ble_eventHandler.c ****     {
 795:.\Generated_Source\PSoC4/ble_eventHandler.c ****         CyBle_PasscNotificationEventHandler(eventParam);
 796:.\Generated_Source\PSoC4/ble_eventHandler.c ****     }
 797:.\Generated_Source\PSoC4/ble_eventHandler.c **** #endif /* CYBLE_PASS_CLIENT */
 798:.\Generated_Source\PSoC4/ble_eventHandler.c **** #ifdef CYBLE_RSCS_CLIENT
 799:.\Generated_Source\PSoC4/ble_eventHandler.c ****     if((cyBle_eventHandlerFlag & CYBLE_CALLBACK) != 0u)
 800:.\Generated_Source\PSoC4/ble_eventHandler.c ****     {
 801:.\Generated_Source\PSoC4/ble_eventHandler.c ****         CyBle_RscscNotificationEventHandler(eventParam);
 802:.\Generated_Source\PSoC4/ble_eventHandler.c ****     }
 803:.\Generated_Source\PSoC4/ble_eventHandler.c **** #endif /* CYBLE_RSCS_CLIENT */
 804:.\Generated_Source\PSoC4/ble_eventHandler.c **** #ifdef CYBLE_SCPS_CLIENT
 805:.\Generated_Source\PSoC4/ble_eventHandler.c ****     if((cyBle_eventHandlerFlag & CYBLE_CALLBACK) != 0u)
 806:.\Generated_Source\PSoC4/ble_eventHandler.c ****     {
 807:.\Generated_Source\PSoC4/ble_eventHandler.c ****         CyBle_ScpscNotificationEventHandler(eventParam);
 808:.\Generated_Source\PSoC4/ble_eventHandler.c ****     }
 809:.\Generated_Source\PSoC4/ble_eventHandler.c **** #endif /* CYBLE_SCPS_CLIENT */
 810:.\Generated_Source\PSoC4/ble_eventHandler.c **** #ifdef CYBLE_TPS_CLIENT
 811:.\Generated_Source\PSoC4/ble_eventHandler.c ****     if((cyBle_eventHandlerFlag & CYBLE_CALLBACK) != 0u)
 812:.\Generated_Source\PSoC4/ble_eventHandler.c ****     {
 813:.\Generated_Source\PSoC4/ble_eventHandler.c ****         CyBle_TpscNotificationEventHandler(eventParam);
 814:.\Generated_Source\PSoC4/ble_eventHandler.c ****     }
 815:.\Generated_Source\PSoC4/ble_eventHandler.c **** #endif /* CYBLE_TPS_CLIENT */
 816:.\Generated_Source\PSoC4/ble_eventHandler.c **** #ifdef CYBLE_UDS_CLIENT
 817:.\Generated_Source\PSoC4/ble_eventHandler.c ****     if((cyBle_eventHandlerFlag & CYBLE_CALLBACK) != 0u)
 818:.\Generated_Source\PSoC4/ble_eventHandler.c ****     {
 819:.\Generated_Source\PSoC4/ble_eventHandler.c ****         CyBle_UdscNotificationEventHandler(eventParam);
 820:.\Generated_Source\PSoC4/ble_eventHandler.c ****     }
 821:.\Generated_Source\PSoC4/ble_eventHandler.c **** #endif /* CYBLE_UDS_CLIENT */
 822:.\Generated_Source\PSoC4/ble_eventHandler.c **** #ifdef CYBLE_WPTS_CLIENT
 823:.\Generated_Source\PSoC4/ble_eventHandler.c ****     if((cyBle_eventHandlerFlag & CYBLE_CALLBACK) != 0u)
 824:.\Generated_Source\PSoC4/ble_eventHandler.c ****     {
 825:.\Generated_Source\PSoC4/ble_eventHandler.c ****         CyBle_WptscNotificationEventHandler(eventParam);
 826:.\Generated_Source\PSoC4/ble_eventHandler.c ****     }
 827:.\Generated_Source\PSoC4/ble_eventHandler.c **** #endif /* CYBLE_WPTS_CLIENT */
 828:.\Generated_Source\PSoC4/ble_eventHandler.c **** }
 829:.\Generated_Source\PSoC4/ble_eventHandler.c **** 
 830:.\Generated_Source\PSoC4/ble_eventHandler.c **** 
 831:.\Generated_Source\PSoC4/ble_eventHandler.c **** /******************************************************************************    
ARM GAS  C:\Users\Alan\AppData\Local\Temp\ccbjvqhO.s 			page 16


 832:.\Generated_Source\PSoC4/ble_eventHandler.c **** * Function Name: CyBle_IndicationEventHandler
 833:.\Generated_Source\PSoC4/ble_eventHandler.c **** ***************************************************************************//**
 834:.\Generated_Source\PSoC4/ble_eventHandler.c **** * 
 835:.\Generated_Source\PSoC4/ble_eventHandler.c **** *  Handles the Indication event from BLE stack.
 836:.\Generated_Source\PSoC4/ble_eventHandler.c **** * 
 837:.\Generated_Source\PSoC4/ble_eventHandler.c **** *  \param eventParam: event parameter
 838:.\Generated_Source\PSoC4/ble_eventHandler.c **** * 
 839:.\Generated_Source\PSoC4/ble_eventHandler.c **** * \return
 840:.\Generated_Source\PSoC4/ble_eventHandler.c **** *  None
 841:.\Generated_Source\PSoC4/ble_eventHandler.c **** * 
 842:.\Generated_Source\PSoC4/ble_eventHandler.c **** ******************************************************************************/
 843:.\Generated_Source\PSoC4/ble_eventHandler.c **** static void CyBle_IndicationEventHandler(CYBLE_GATTC_HANDLE_VALUE_IND_PARAM_T *eventParam)
 844:.\Generated_Source\PSoC4/ble_eventHandler.c **** {
 845:.\Generated_Source\PSoC4/ble_eventHandler.c **** #ifdef CYBLE_BCS_CLIENT
 846:.\Generated_Source\PSoC4/ble_eventHandler.c ****     if((cyBle_eventHandlerFlag & CYBLE_CALLBACK) != 0u)
 847:.\Generated_Source\PSoC4/ble_eventHandler.c ****     {
 848:.\Generated_Source\PSoC4/ble_eventHandler.c ****         CyBle_BcscIndicationEventHandler(eventParam);
 849:.\Generated_Source\PSoC4/ble_eventHandler.c ****     }
 850:.\Generated_Source\PSoC4/ble_eventHandler.c **** #endif /* CYBLE_BCS_CLIENT */
 851:.\Generated_Source\PSoC4/ble_eventHandler.c **** #ifdef CYBLE_BLS_CLIENT
 852:.\Generated_Source\PSoC4/ble_eventHandler.c ****     if((cyBle_eventHandlerFlag & CYBLE_CALLBACK) != 0u)
 853:.\Generated_Source\PSoC4/ble_eventHandler.c ****     {
 854:.\Generated_Source\PSoC4/ble_eventHandler.c ****         CyBle_BlscIndicationEventHandler(eventParam);
 855:.\Generated_Source\PSoC4/ble_eventHandler.c ****     }
 856:.\Generated_Source\PSoC4/ble_eventHandler.c **** #endif /* CYBLE_BLS_CLIENT */
 857:.\Generated_Source\PSoC4/ble_eventHandler.c **** #ifdef CYBLE_CGMS_CLIENT
 858:.\Generated_Source\PSoC4/ble_eventHandler.c ****     if((cyBle_eventHandlerFlag & CYBLE_CALLBACK) != 0u)
 859:.\Generated_Source\PSoC4/ble_eventHandler.c ****     {
 860:.\Generated_Source\PSoC4/ble_eventHandler.c ****         CyBle_CgmscIndicationEventHandler(eventParam);
 861:.\Generated_Source\PSoC4/ble_eventHandler.c ****     }
 862:.\Generated_Source\PSoC4/ble_eventHandler.c **** #endif /* CYBLE_CGMS_CLIENT */
 863:.\Generated_Source\PSoC4/ble_eventHandler.c **** #ifdef CYBLE_CPS_CLIENT
 864:.\Generated_Source\PSoC4/ble_eventHandler.c ****     if((cyBle_eventHandlerFlag & CYBLE_CALLBACK) != 0u)
 865:.\Generated_Source\PSoC4/ble_eventHandler.c ****     {
 866:.\Generated_Source\PSoC4/ble_eventHandler.c ****         CyBle_CpscIndicationEventHandler(eventParam);
 867:.\Generated_Source\PSoC4/ble_eventHandler.c ****     }
 868:.\Generated_Source\PSoC4/ble_eventHandler.c **** #endif /* CYBLE_CPS_CLIENT */
 869:.\Generated_Source\PSoC4/ble_eventHandler.c **** #ifdef CYBLE_CSCS_CLIENT
 870:.\Generated_Source\PSoC4/ble_eventHandler.c ****     if((cyBle_eventHandlerFlag & CYBLE_CALLBACK) != 0u)
 871:.\Generated_Source\PSoC4/ble_eventHandler.c ****     {
 872:.\Generated_Source\PSoC4/ble_eventHandler.c ****         CyBle_CscscIndicationEventHandler(eventParam);
 873:.\Generated_Source\PSoC4/ble_eventHandler.c ****     }
 874:.\Generated_Source\PSoC4/ble_eventHandler.c **** #endif /* CYBLE_CSCS_CLIENT */
 875:.\Generated_Source\PSoC4/ble_eventHandler.c **** #ifdef CYBLE_ESS_CLIENT
 876:.\Generated_Source\PSoC4/ble_eventHandler.c ****     if((cyBle_eventHandlerFlag & CYBLE_CALLBACK) != 0u)
 877:.\Generated_Source\PSoC4/ble_eventHandler.c ****     {
 878:.\Generated_Source\PSoC4/ble_eventHandler.c ****         CyBle_EsscIndicationEventHandler(eventParam);
 879:.\Generated_Source\PSoC4/ble_eventHandler.c ****     }
 880:.\Generated_Source\PSoC4/ble_eventHandler.c **** #endif /* CYBLE_ESS_CLIENT */
 881:.\Generated_Source\PSoC4/ble_eventHandler.c **** #ifdef CYBLE_GLS_CLIENT
 882:.\Generated_Source\PSoC4/ble_eventHandler.c ****     if((cyBle_eventHandlerFlag & CYBLE_CALLBACK) != 0u)
 883:.\Generated_Source\PSoC4/ble_eventHandler.c ****     {
 884:.\Generated_Source\PSoC4/ble_eventHandler.c ****         CyBle_GlscIndicationEventHandler(eventParam);
 885:.\Generated_Source\PSoC4/ble_eventHandler.c ****     }
 886:.\Generated_Source\PSoC4/ble_eventHandler.c **** #endif /* CYBLE_GLS_CLIENT */
 887:.\Generated_Source\PSoC4/ble_eventHandler.c **** #ifdef CYBLE_HTS_CLIENT
 888:.\Generated_Source\PSoC4/ble_eventHandler.c ****     if((cyBle_eventHandlerFlag & CYBLE_CALLBACK) != 0u)
ARM GAS  C:\Users\Alan\AppData\Local\Temp\ccbjvqhO.s 			page 17


 889:.\Generated_Source\PSoC4/ble_eventHandler.c ****     {
 890:.\Generated_Source\PSoC4/ble_eventHandler.c ****         CyBle_HtscIndicationEventHandler(eventParam);
 891:.\Generated_Source\PSoC4/ble_eventHandler.c ****     }
 892:.\Generated_Source\PSoC4/ble_eventHandler.c **** #endif /* CYBLE_HTS_CLIENT */
 893:.\Generated_Source\PSoC4/ble_eventHandler.c **** #ifdef CYBLE_LNS_CLIENT
 894:.\Generated_Source\PSoC4/ble_eventHandler.c ****     if((cyBle_eventHandlerFlag & CYBLE_CALLBACK) != 0u)
 895:.\Generated_Source\PSoC4/ble_eventHandler.c ****     {
 896:.\Generated_Source\PSoC4/ble_eventHandler.c ****         CyBle_LnscIndicationEventHandler(eventParam);
 897:.\Generated_Source\PSoC4/ble_eventHandler.c ****     }
 898:.\Generated_Source\PSoC4/ble_eventHandler.c **** #endif /* CYBLE_LNS_CLIENT */
 899:.\Generated_Source\PSoC4/ble_eventHandler.c **** #ifdef CYBLE_RSCS_CLIENT
 900:.\Generated_Source\PSoC4/ble_eventHandler.c ****     if((cyBle_eventHandlerFlag & CYBLE_CALLBACK) != 0u)
 901:.\Generated_Source\PSoC4/ble_eventHandler.c ****     {
 902:.\Generated_Source\PSoC4/ble_eventHandler.c ****         CyBle_RscscIndicationEventHandler(eventParam);
 903:.\Generated_Source\PSoC4/ble_eventHandler.c ****     }
 904:.\Generated_Source\PSoC4/ble_eventHandler.c **** #endif /* CYBLE_RSCS_CLIENT */
 905:.\Generated_Source\PSoC4/ble_eventHandler.c **** #ifdef CYBLE_UDS_CLIENT
 906:.\Generated_Source\PSoC4/ble_eventHandler.c ****     if((cyBle_eventHandlerFlag & CYBLE_CALLBACK) != 0u)
 907:.\Generated_Source\PSoC4/ble_eventHandler.c ****     {
 908:.\Generated_Source\PSoC4/ble_eventHandler.c ****         CyBle_UdscIndicationEventHandler(eventParam);
 909:.\Generated_Source\PSoC4/ble_eventHandler.c ****     }
 910:.\Generated_Source\PSoC4/ble_eventHandler.c **** #endif /* CYBLE_UDS_CLIENT */
 911:.\Generated_Source\PSoC4/ble_eventHandler.c **** #ifdef CYBLE_WPTS_CLIENT
 912:.\Generated_Source\PSoC4/ble_eventHandler.c ****     if((cyBle_eventHandlerFlag & CYBLE_CALLBACK) != 0u)
 913:.\Generated_Source\PSoC4/ble_eventHandler.c ****     {
 914:.\Generated_Source\PSoC4/ble_eventHandler.c ****         CyBle_WptscIndicationEventHandler(eventParam);
 915:.\Generated_Source\PSoC4/ble_eventHandler.c ****     }
 916:.\Generated_Source\PSoC4/ble_eventHandler.c **** #endif /* CYBLE_WPTS_CLIENT */
 917:.\Generated_Source\PSoC4/ble_eventHandler.c **** #ifdef CYBLE_WSS_CLIENT
 918:.\Generated_Source\PSoC4/ble_eventHandler.c ****     if((cyBle_eventHandlerFlag & CYBLE_CALLBACK) != 0u)
 919:.\Generated_Source\PSoC4/ble_eventHandler.c ****     {
 920:.\Generated_Source\PSoC4/ble_eventHandler.c ****         CyBle_WsscIndicationEventHandler(eventParam);
 921:.\Generated_Source\PSoC4/ble_eventHandler.c ****     }
 922:.\Generated_Source\PSoC4/ble_eventHandler.c **** #endif /* CYBLE_WSS_CLIENT */
 923:.\Generated_Source\PSoC4/ble_eventHandler.c **** }
 924:.\Generated_Source\PSoC4/ble_eventHandler.c **** 
 925:.\Generated_Source\PSoC4/ble_eventHandler.c **** 
 926:.\Generated_Source\PSoC4/ble_eventHandler.c **** 
 927:.\Generated_Source\PSoC4/ble_eventHandler.c **** /******************************************************************************    
 928:.\Generated_Source\PSoC4/ble_eventHandler.c **** * Function Name: CyBle_ReadResponseEventHandler
 929:.\Generated_Source\PSoC4/ble_eventHandler.c **** ***************************************************************************//**
 930:.\Generated_Source\PSoC4/ble_eventHandler.c **** * 
 931:.\Generated_Source\PSoC4/ble_eventHandler.c **** *  Handles the Read Response event from BLE stack.
 932:.\Generated_Source\PSoC4/ble_eventHandler.c **** * 
 933:.\Generated_Source\PSoC4/ble_eventHandler.c **** *  \param eventParam: event parameter
 934:.\Generated_Source\PSoC4/ble_eventHandler.c **** * 
 935:.\Generated_Source\PSoC4/ble_eventHandler.c **** * \return
 936:.\Generated_Source\PSoC4/ble_eventHandler.c **** *  None
 937:.\Generated_Source\PSoC4/ble_eventHandler.c **** * 
 938:.\Generated_Source\PSoC4/ble_eventHandler.c **** ******************************************************************************/
 939:.\Generated_Source\PSoC4/ble_eventHandler.c **** static void CyBle_ReadResponseEventHandler(CYBLE_GATTC_READ_RSP_PARAM_T *eventParam)
 940:.\Generated_Source\PSoC4/ble_eventHandler.c **** {
 941:.\Generated_Source\PSoC4/ble_eventHandler.c **** #ifdef CYBLE_CUSTOM_CLIENT
 942:.\Generated_Source\PSoC4/ble_eventHandler.c ****     /* Read response with 128-bit included service uuid */
 943:.\Generated_Source\PSoC4/ble_eventHandler.c ****     if((CYBLE_CLIENT_STATE_INCL_DISCOVERING == CyBle_GetClientState()) &&
 944:.\Generated_Source\PSoC4/ble_eventHandler.c ****        (cyBle_discInclInfo.inclDefHandle != 0u))
 945:.\Generated_Source\PSoC4/ble_eventHandler.c ****     {
ARM GAS  C:\Users\Alan\AppData\Local\Temp\ccbjvqhO.s 			page 18


 946:.\Generated_Source\PSoC4/ble_eventHandler.c ****         CYBLE_DISC_SRVC128_INFO_T discServInfo;
 947:.\Generated_Source\PSoC4/ble_eventHandler.c **** 
 948:.\Generated_Source\PSoC4/ble_eventHandler.c ****         /* Store service range */
 949:.\Generated_Source\PSoC4/ble_eventHandler.c ****         discServInfo.range = cyBle_discInclInfo.inclHandleRange;
 950:.\Generated_Source\PSoC4/ble_eventHandler.c ****         (void)memcpy((void *) discServInfo.uuid.uuid128.value, (void *)eventParam->value.val, event
 951:.\Generated_Source\PSoC4/ble_eventHandler.c ****         CyBle_CustomcDiscoverServiceEventHandler(&discServInfo);
 952:.\Generated_Source\PSoC4/ble_eventHandler.c ****         
 953:.\Generated_Source\PSoC4/ble_eventHandler.c ****         /* Re-initiate CyBle_GattcFindIncludedServices function, setting the start
 954:.\Generated_Source\PSoC4/ble_eventHandler.c ****            handle to the attribute handle which is placed next to the one used in
 955:.\Generated_Source\PSoC4/ble_eventHandler.c ****            the above step.
 956:.\Generated_Source\PSoC4/ble_eventHandler.c ****         */
 957:.\Generated_Source\PSoC4/ble_eventHandler.c ****         discServInfo.range.startHandle = cyBle_discInclInfo.inclDefHandle + 1;
 958:.\Generated_Source\PSoC4/ble_eventHandler.c ****         discServInfo.range.endHandle = cyBle_serverInfo[cyBle_disCount].range.endHandle;
 959:.\Generated_Source\PSoC4/ble_eventHandler.c ****         if(discServInfo.range.startHandle <= discServInfo.range.endHandle)
 960:.\Generated_Source\PSoC4/ble_eventHandler.c ****         {
 961:.\Generated_Source\PSoC4/ble_eventHandler.c ****             if(CYBLE_ERROR_OK != CyBle_GattcFindIncludedServices(cyBle_connHandle, &discServInfo.ra
 962:.\Generated_Source\PSoC4/ble_eventHandler.c ****             {
 963:.\Generated_Source\PSoC4/ble_eventHandler.c ****                 CyBle_ApplCallback(CYBLE_EVT_GATTC_INCL_DISCOVERY_FAILED, NULL);
 964:.\Generated_Source\PSoC4/ble_eventHandler.c ****                 cyBle_eventHandlerFlag &= (uint8)~CYBLE_AUTO_DISCOVERY;
 965:.\Generated_Source\PSoC4/ble_eventHandler.c ****             }
 966:.\Generated_Source\PSoC4/ble_eventHandler.c ****         }
 967:.\Generated_Source\PSoC4/ble_eventHandler.c ****         else /* Continue discovery of the following service */
 968:.\Generated_Source\PSoC4/ble_eventHandler.c ****         {
 969:.\Generated_Source\PSoC4/ble_eventHandler.c ****             CyBle_NextInclDiscovery(CYBLE_DISCOVERY_CONTINUE);
 970:.\Generated_Source\PSoC4/ble_eventHandler.c ****         }
 971:.\Generated_Source\PSoC4/ble_eventHandler.c ****         
 972:.\Generated_Source\PSoC4/ble_eventHandler.c ****         cyBle_eventHandlerFlag &= (uint8)~CYBLE_CALLBACK;
 973:.\Generated_Source\PSoC4/ble_eventHandler.c ****         cyBle_discInclInfo.inclDefHandle = 0u;
 974:.\Generated_Source\PSoC4/ble_eventHandler.c ****         
 975:.\Generated_Source\PSoC4/ble_eventHandler.c ****     }
 976:.\Generated_Source\PSoC4/ble_eventHandler.c **** #endif /* CYBLE_CUSTOM_CLIENT */
 977:.\Generated_Source\PSoC4/ble_eventHandler.c **** #ifdef CYBLE_ANCS_CLIENT
 978:.\Generated_Source\PSoC4/ble_eventHandler.c ****     if((cyBle_eventHandlerFlag & CYBLE_CALLBACK) != 0u)
 979:.\Generated_Source\PSoC4/ble_eventHandler.c ****     {
 980:.\Generated_Source\PSoC4/ble_eventHandler.c ****         CyBle_AncscReadResponseEventHandler(eventParam);
 981:.\Generated_Source\PSoC4/ble_eventHandler.c ****     }
 982:.\Generated_Source\PSoC4/ble_eventHandler.c **** #endif /* CYBLE_ANCS_CLIENT */
 983:.\Generated_Source\PSoC4/ble_eventHandler.c **** #ifdef CYBLE_ANS_CLIENT
 984:.\Generated_Source\PSoC4/ble_eventHandler.c ****     if((cyBle_eventHandlerFlag & CYBLE_CALLBACK) != 0u)
 985:.\Generated_Source\PSoC4/ble_eventHandler.c ****     {
 986:.\Generated_Source\PSoC4/ble_eventHandler.c ****         CyBle_AnscReadResponseEventHandler(eventParam);
 987:.\Generated_Source\PSoC4/ble_eventHandler.c ****     }
 988:.\Generated_Source\PSoC4/ble_eventHandler.c **** #endif /* CYBLE_ANS_CLIENT */
 989:.\Generated_Source\PSoC4/ble_eventHandler.c **** #ifdef CYBLE_BAS_CLIENT
 990:.\Generated_Source\PSoC4/ble_eventHandler.c ****     if((cyBle_eventHandlerFlag & CYBLE_CALLBACK) != 0u)
 991:.\Generated_Source\PSoC4/ble_eventHandler.c ****     {
 992:.\Generated_Source\PSoC4/ble_eventHandler.c ****         CyBle_BascReadResponseEventHandler(eventParam);
 993:.\Generated_Source\PSoC4/ble_eventHandler.c ****     }
 994:.\Generated_Source\PSoC4/ble_eventHandler.c **** #endif /* CYBLE_BAS_CLIENT */
 995:.\Generated_Source\PSoC4/ble_eventHandler.c **** #ifdef CYBLE_BLS_CLIENT
 996:.\Generated_Source\PSoC4/ble_eventHandler.c ****     if((cyBle_eventHandlerFlag & CYBLE_CALLBACK) != 0u)
 997:.\Generated_Source\PSoC4/ble_eventHandler.c ****     {
 998:.\Generated_Source\PSoC4/ble_eventHandler.c ****         CyBle_BlscReadResponseEventHandler(eventParam);
 999:.\Generated_Source\PSoC4/ble_eventHandler.c ****     }
1000:.\Generated_Source\PSoC4/ble_eventHandler.c **** #endif /* CYBLE_BLS_CLIENT */
1001:.\Generated_Source\PSoC4/ble_eventHandler.c **** #ifdef CYBLE_BCS_CLIENT
1002:.\Generated_Source\PSoC4/ble_eventHandler.c ****     if((cyBle_eventHandlerFlag & CYBLE_CALLBACK) != 0u)
ARM GAS  C:\Users\Alan\AppData\Local\Temp\ccbjvqhO.s 			page 19


1003:.\Generated_Source\PSoC4/ble_eventHandler.c ****     {
1004:.\Generated_Source\PSoC4/ble_eventHandler.c ****         CyBle_BcscReadResponseEventHandler(eventParam);
1005:.\Generated_Source\PSoC4/ble_eventHandler.c ****     }
1006:.\Generated_Source\PSoC4/ble_eventHandler.c **** #endif /* CYBLE_BCS_CLIENT */
1007:.\Generated_Source\PSoC4/ble_eventHandler.c **** #ifdef CYBLE_BMS_CLIENT
1008:.\Generated_Source\PSoC4/ble_eventHandler.c ****     if((cyBle_eventHandlerFlag & CYBLE_CALLBACK) != 0u)
1009:.\Generated_Source\PSoC4/ble_eventHandler.c ****     {
1010:.\Generated_Source\PSoC4/ble_eventHandler.c ****         CyBle_BmscReadResponseEventHandler(eventParam);
1011:.\Generated_Source\PSoC4/ble_eventHandler.c ****     }
1012:.\Generated_Source\PSoC4/ble_eventHandler.c **** #endif /* CYBLE_BMS_CLIENT */
1013:.\Generated_Source\PSoC4/ble_eventHandler.c **** #ifdef CYBLE_CGMS_CLIENT
1014:.\Generated_Source\PSoC4/ble_eventHandler.c ****     if((cyBle_eventHandlerFlag & CYBLE_CALLBACK) != 0u)
1015:.\Generated_Source\PSoC4/ble_eventHandler.c ****     {
1016:.\Generated_Source\PSoC4/ble_eventHandler.c ****         CyBle_CgmscReadResponseEventHandler(eventParam);
1017:.\Generated_Source\PSoC4/ble_eventHandler.c ****     }
1018:.\Generated_Source\PSoC4/ble_eventHandler.c **** #endif /* CYBLE_CGMS_CLIENT */
1019:.\Generated_Source\PSoC4/ble_eventHandler.c **** #ifdef CYBLE_CPS_CLIENT
1020:.\Generated_Source\PSoC4/ble_eventHandler.c ****     if((cyBle_eventHandlerFlag & CYBLE_CALLBACK) != 0u)
1021:.\Generated_Source\PSoC4/ble_eventHandler.c ****     {
1022:.\Generated_Source\PSoC4/ble_eventHandler.c ****         CyBle_CpscReadResponseEventHandler(eventParam);
1023:.\Generated_Source\PSoC4/ble_eventHandler.c ****     }
1024:.\Generated_Source\PSoC4/ble_eventHandler.c **** #endif /* CYBLE_CPS_CLIENT */
1025:.\Generated_Source\PSoC4/ble_eventHandler.c **** #ifdef CYBLE_CSCS_CLIENT
1026:.\Generated_Source\PSoC4/ble_eventHandler.c ****     if((cyBle_eventHandlerFlag & CYBLE_CALLBACK) != 0u)
1027:.\Generated_Source\PSoC4/ble_eventHandler.c ****     {
1028:.\Generated_Source\PSoC4/ble_eventHandler.c ****         CyBle_CscscReadResponseEventHandler(eventParam);
1029:.\Generated_Source\PSoC4/ble_eventHandler.c ****     }
1030:.\Generated_Source\PSoC4/ble_eventHandler.c **** #endif /* CYBLE_CSCS_CLIENT */
1031:.\Generated_Source\PSoC4/ble_eventHandler.c **** #ifdef CYBLE_CTS_CLIENT
1032:.\Generated_Source\PSoC4/ble_eventHandler.c ****     if((cyBle_eventHandlerFlag & CYBLE_CALLBACK) != 0u)
1033:.\Generated_Source\PSoC4/ble_eventHandler.c ****     {
1034:.\Generated_Source\PSoC4/ble_eventHandler.c ****         CyBle_CtscReadResponseEventHandler(eventParam);
1035:.\Generated_Source\PSoC4/ble_eventHandler.c ****     }
1036:.\Generated_Source\PSoC4/ble_eventHandler.c **** #endif /* CYBLE_BAS_CLIENT */
1037:.\Generated_Source\PSoC4/ble_eventHandler.c **** #ifdef CYBLE_DIS_CLIENT
1038:.\Generated_Source\PSoC4/ble_eventHandler.c ****     if((cyBle_eventHandlerFlag & CYBLE_CALLBACK) != 0u)
1039:.\Generated_Source\PSoC4/ble_eventHandler.c ****     {
1040:.\Generated_Source\PSoC4/ble_eventHandler.c ****         CyBle_DiscReadResponseEventHandler(eventParam);
1041:.\Generated_Source\PSoC4/ble_eventHandler.c ****     }
1042:.\Generated_Source\PSoC4/ble_eventHandler.c **** #endif /* CYBLE_DIS_CLIENT */
1043:.\Generated_Source\PSoC4/ble_eventHandler.c **** #ifdef CYBLE_ESS_CLIENT
1044:.\Generated_Source\PSoC4/ble_eventHandler.c ****     if((cyBle_eventHandlerFlag & CYBLE_CALLBACK) != 0u)
1045:.\Generated_Source\PSoC4/ble_eventHandler.c ****     {
1046:.\Generated_Source\PSoC4/ble_eventHandler.c ****         CyBle_EsscReadResponseEventHandler(eventParam);
1047:.\Generated_Source\PSoC4/ble_eventHandler.c ****     }
1048:.\Generated_Source\PSoC4/ble_eventHandler.c **** #endif /* CYBLE_ESS_CLIENT */
1049:.\Generated_Source\PSoC4/ble_eventHandler.c **** #ifdef CYBLE_GLS_CLIENT
1050:.\Generated_Source\PSoC4/ble_eventHandler.c ****     if((cyBle_eventHandlerFlag & CYBLE_CALLBACK) != 0u)
1051:.\Generated_Source\PSoC4/ble_eventHandler.c ****     {
1052:.\Generated_Source\PSoC4/ble_eventHandler.c ****         CyBle_GlscReadResponseEventHandler(eventParam);
1053:.\Generated_Source\PSoC4/ble_eventHandler.c ****     }
1054:.\Generated_Source\PSoC4/ble_eventHandler.c **** #endif /* CYBLE_GLS_CLIENT */
1055:.\Generated_Source\PSoC4/ble_eventHandler.c **** #ifdef CYBLE_HIDS_CLIENT
1056:.\Generated_Source\PSoC4/ble_eventHandler.c ****     if((cyBle_eventHandlerFlag & CYBLE_CALLBACK) != 0u)
1057:.\Generated_Source\PSoC4/ble_eventHandler.c ****     {
1058:.\Generated_Source\PSoC4/ble_eventHandler.c ****         CyBle_HidscReadResponseEventHandler(eventParam);
1059:.\Generated_Source\PSoC4/ble_eventHandler.c ****     }
ARM GAS  C:\Users\Alan\AppData\Local\Temp\ccbjvqhO.s 			page 20


1060:.\Generated_Source\PSoC4/ble_eventHandler.c **** #endif /* CYBLE_HIDS_CLIENT */
1061:.\Generated_Source\PSoC4/ble_eventHandler.c **** #ifdef CYBLE_HRS_CLIENT
1062:.\Generated_Source\PSoC4/ble_eventHandler.c ****     if((cyBle_eventHandlerFlag & CYBLE_CALLBACK) != 0u)
1063:.\Generated_Source\PSoC4/ble_eventHandler.c ****     {
1064:.\Generated_Source\PSoC4/ble_eventHandler.c ****         CyBle_HrscReadResponseEventHandler(eventParam);
1065:.\Generated_Source\PSoC4/ble_eventHandler.c ****     }
1066:.\Generated_Source\PSoC4/ble_eventHandler.c **** #endif /* CYBLE_HRS_CLIENT */
1067:.\Generated_Source\PSoC4/ble_eventHandler.c **** #ifdef CYBLE_HTS_CLIENT
1068:.\Generated_Source\PSoC4/ble_eventHandler.c ****     if((cyBle_eventHandlerFlag & CYBLE_CALLBACK) != 0u)
1069:.\Generated_Source\PSoC4/ble_eventHandler.c ****     {
1070:.\Generated_Source\PSoC4/ble_eventHandler.c ****         CyBle_HtscReadResponseEventHandler(eventParam);
1071:.\Generated_Source\PSoC4/ble_eventHandler.c ****     }
1072:.\Generated_Source\PSoC4/ble_eventHandler.c **** #endif /* CYBLE_HTS_CLIENT */
1073:.\Generated_Source\PSoC4/ble_eventHandler.c **** #ifdef CYBLE_LLS_CLIENT
1074:.\Generated_Source\PSoC4/ble_eventHandler.c ****     if((cyBle_eventHandlerFlag & CYBLE_CALLBACK) != 0u)
1075:.\Generated_Source\PSoC4/ble_eventHandler.c ****     {
1076:.\Generated_Source\PSoC4/ble_eventHandler.c ****         CyBle_LlscReadResponseEventHandler(eventParam);
1077:.\Generated_Source\PSoC4/ble_eventHandler.c ****     }
1078:.\Generated_Source\PSoC4/ble_eventHandler.c **** #endif /* CYBLE_LLS_CLIENT */
1079:.\Generated_Source\PSoC4/ble_eventHandler.c **** #ifdef CYBLE_LNS_CLIENT
1080:.\Generated_Source\PSoC4/ble_eventHandler.c ****     if((cyBle_eventHandlerFlag & CYBLE_CALLBACK) != 0u)
1081:.\Generated_Source\PSoC4/ble_eventHandler.c ****     {
1082:.\Generated_Source\PSoC4/ble_eventHandler.c ****         CyBle_LnscReadResponseEventHandler(eventParam);
1083:.\Generated_Source\PSoC4/ble_eventHandler.c ****     }
1084:.\Generated_Source\PSoC4/ble_eventHandler.c **** #endif /* CYBLE_LNS_CLIENT */
1085:.\Generated_Source\PSoC4/ble_eventHandler.c **** #ifdef CYBLE_NDCS_CLIENT
1086:.\Generated_Source\PSoC4/ble_eventHandler.c ****     if((cyBle_eventHandlerFlag & CYBLE_CALLBACK) != 0u)
1087:.\Generated_Source\PSoC4/ble_eventHandler.c ****     {
1088:.\Generated_Source\PSoC4/ble_eventHandler.c ****         CyBle_NdcscReadResponseEventHandler(eventParam);
1089:.\Generated_Source\PSoC4/ble_eventHandler.c ****     }
1090:.\Generated_Source\PSoC4/ble_eventHandler.c **** #endif /* CYBLE_NDCS_CLIENT */
1091:.\Generated_Source\PSoC4/ble_eventHandler.c **** #ifdef CYBLE_PASS_CLIENT
1092:.\Generated_Source\PSoC4/ble_eventHandler.c ****     if((cyBle_eventHandlerFlag & CYBLE_CALLBACK) != 0u)
1093:.\Generated_Source\PSoC4/ble_eventHandler.c ****     {
1094:.\Generated_Source\PSoC4/ble_eventHandler.c ****         CyBle_PasscReadResponseEventHandler(eventParam);
1095:.\Generated_Source\PSoC4/ble_eventHandler.c ****     }
1096:.\Generated_Source\PSoC4/ble_eventHandler.c **** #endif /* CYBLE_PASS_CLIENT */
1097:.\Generated_Source\PSoC4/ble_eventHandler.c **** #ifdef CYBLE_RSCS_CLIENT
1098:.\Generated_Source\PSoC4/ble_eventHandler.c ****     if((cyBle_eventHandlerFlag & CYBLE_CALLBACK) != 0u)
1099:.\Generated_Source\PSoC4/ble_eventHandler.c ****     {
1100:.\Generated_Source\PSoC4/ble_eventHandler.c ****         CyBle_RscscReadResponseEventHandler(eventParam);
1101:.\Generated_Source\PSoC4/ble_eventHandler.c ****     }
1102:.\Generated_Source\PSoC4/ble_eventHandler.c **** #endif /* CYBLE_RSCS_CLIENT */
1103:.\Generated_Source\PSoC4/ble_eventHandler.c **** #ifdef CYBLE_RTUS_CLIENT
1104:.\Generated_Source\PSoC4/ble_eventHandler.c ****     if((cyBle_eventHandlerFlag & CYBLE_CALLBACK) != 0u)
1105:.\Generated_Source\PSoC4/ble_eventHandler.c ****     {
1106:.\Generated_Source\PSoC4/ble_eventHandler.c ****         CyBle_RtuscReadResponseEventHandler(eventParam);
1107:.\Generated_Source\PSoC4/ble_eventHandler.c ****     }
1108:.\Generated_Source\PSoC4/ble_eventHandler.c **** #endif /* CYBLE_RTUS_CLIENT */
1109:.\Generated_Source\PSoC4/ble_eventHandler.c **** #ifdef CYBLE_SCPS_CLIENT
1110:.\Generated_Source\PSoC4/ble_eventHandler.c ****     if((cyBle_eventHandlerFlag & CYBLE_CALLBACK) != 0u)
1111:.\Generated_Source\PSoC4/ble_eventHandler.c ****     {
1112:.\Generated_Source\PSoC4/ble_eventHandler.c ****         CyBle_ScpscReadResponseEventHandler(eventParam);
1113:.\Generated_Source\PSoC4/ble_eventHandler.c ****     }
1114:.\Generated_Source\PSoC4/ble_eventHandler.c **** #endif /* CYBLE_SCPS_CLIENT */
1115:.\Generated_Source\PSoC4/ble_eventHandler.c **** #ifdef CYBLE_TPS_CLIENT
1116:.\Generated_Source\PSoC4/ble_eventHandler.c ****     if((cyBle_eventHandlerFlag & CYBLE_CALLBACK) != 0u)
ARM GAS  C:\Users\Alan\AppData\Local\Temp\ccbjvqhO.s 			page 21


1117:.\Generated_Source\PSoC4/ble_eventHandler.c ****     {
1118:.\Generated_Source\PSoC4/ble_eventHandler.c ****         CyBle_TpscReadResponseEventHandler(eventParam);
1119:.\Generated_Source\PSoC4/ble_eventHandler.c ****     }
1120:.\Generated_Source\PSoC4/ble_eventHandler.c **** #endif /* CYBLE_TPS_CLIENT */
1121:.\Generated_Source\PSoC4/ble_eventHandler.c **** #ifdef CYBLE_UDS_CLIENT
1122:.\Generated_Source\PSoC4/ble_eventHandler.c ****     if((cyBle_eventHandlerFlag & CYBLE_CALLBACK) != 0u)
1123:.\Generated_Source\PSoC4/ble_eventHandler.c ****     {
1124:.\Generated_Source\PSoC4/ble_eventHandler.c ****         CyBle_UdscReadResponseEventHandler(eventParam);
1125:.\Generated_Source\PSoC4/ble_eventHandler.c ****     }
1126:.\Generated_Source\PSoC4/ble_eventHandler.c **** #endif /* CYBLE_UDS_CLIENT */
1127:.\Generated_Source\PSoC4/ble_eventHandler.c **** #ifdef CYBLE_WPTS_CLIENT
1128:.\Generated_Source\PSoC4/ble_eventHandler.c ****     if((cyBle_eventHandlerFlag & CYBLE_CALLBACK) != 0u)
1129:.\Generated_Source\PSoC4/ble_eventHandler.c ****     {
1130:.\Generated_Source\PSoC4/ble_eventHandler.c ****         CyBle_WptscReadResponseEventHandler(eventParam);
1131:.\Generated_Source\PSoC4/ble_eventHandler.c ****     }
1132:.\Generated_Source\PSoC4/ble_eventHandler.c **** #endif /* CYBLE_WPTS_CLIENT */
1133:.\Generated_Source\PSoC4/ble_eventHandler.c **** #ifdef CYBLE_WSS_CLIENT
1134:.\Generated_Source\PSoC4/ble_eventHandler.c ****     if((cyBle_eventHandlerFlag & CYBLE_CALLBACK) != 0u)
1135:.\Generated_Source\PSoC4/ble_eventHandler.c ****     {
1136:.\Generated_Source\PSoC4/ble_eventHandler.c ****         CyBle_WsscReadResponseEventHandler(eventParam);
1137:.\Generated_Source\PSoC4/ble_eventHandler.c ****     }
1138:.\Generated_Source\PSoC4/ble_eventHandler.c **** #endif /* CYBLE_WSS_CLIENT */
1139:.\Generated_Source\PSoC4/ble_eventHandler.c **** }
1140:.\Generated_Source\PSoC4/ble_eventHandler.c **** #endif /* CYBLE_GATT_ROLE_CLIENT */
1141:.\Generated_Source\PSoC4/ble_eventHandler.c **** 
1142:.\Generated_Source\PSoC4/ble_eventHandler.c **** 
1143:.\Generated_Source\PSoC4/ble_eventHandler.c **** /****************************************************************************** 
1144:.\Generated_Source\PSoC4/ble_eventHandler.c **** * Function Name: CyBle_DisconnectEventHandler
1145:.\Generated_Source\PSoC4/ble_eventHandler.c **** ***************************************************************************//**
1146:.\Generated_Source\PSoC4/ble_eventHandler.c **** * 
1147:.\Generated_Source\PSoC4/ble_eventHandler.c **** *  Handles the GATT Disconnection event from the BLE stack.
1148:.\Generated_Source\PSoC4/ble_eventHandler.c **** * 
1149:.\Generated_Source\PSoC4/ble_eventHandler.c **** * \return
1150:.\Generated_Source\PSoC4/ble_eventHandler.c **** *  None
1151:.\Generated_Source\PSoC4/ble_eventHandler.c **** * 
1152:.\Generated_Source\PSoC4/ble_eventHandler.c **** ******************************************************************************/
1153:.\Generated_Source\PSoC4/ble_eventHandler.c **** static void CyBle_GattDisconnectEventHandler(void)
1154:.\Generated_Source\PSoC4/ble_eventHandler.c **** {
  25              		.loc 1 1154 0
  26              		.cfi_startproc
1155:.\Generated_Source\PSoC4/ble_eventHandler.c ****     cyBle_connHandle.attId = 0u;
  27              		.loc 1 1155 0
  28 0000 024B     		ldr	r3, .L2
  29 0002 0022     		mov	r2, #0
  30 0004 5A70     		strb	r2, [r3, #1]
1156:.\Generated_Source\PSoC4/ble_eventHandler.c ****     cyBle_connHandle.bdHandle = 0u;
  31              		.loc 1 1156 0
  32 0006 1A70     		strb	r2, [r3]
1157:.\Generated_Source\PSoC4/ble_eventHandler.c ****     
1158:.\Generated_Source\PSoC4/ble_eventHandler.c ****     #if (CYBLE_GATT_ROLE_CLIENT)
1159:.\Generated_Source\PSoC4/ble_eventHandler.c ****         if(CYBLE_CLIENT_STATE_DISCOVERED == CyBle_GetClientState())
1160:.\Generated_Source\PSoC4/ble_eventHandler.c ****         {
1161:.\Generated_Source\PSoC4/ble_eventHandler.c ****             CyBle_SetClientState(CYBLE_CLIENT_STATE_DISCONNECTED_DISCOVERED);
1162:.\Generated_Source\PSoC4/ble_eventHandler.c ****         }
1163:.\Generated_Source\PSoC4/ble_eventHandler.c ****         else
1164:.\Generated_Source\PSoC4/ble_eventHandler.c ****         {
1165:.\Generated_Source\PSoC4/ble_eventHandler.c ****             CyBle_SetClientState(CYBLE_CLIENT_STATE_DISCONNECTED);
ARM GAS  C:\Users\Alan\AppData\Local\Temp\ccbjvqhO.s 			page 22


1166:.\Generated_Source\PSoC4/ble_eventHandler.c ****         }
1167:.\Generated_Source\PSoC4/ble_eventHandler.c ****     #endif /* CYBLE_GATT_ROLE_CLIENT */
1168:.\Generated_Source\PSoC4/ble_eventHandler.c ****         
1169:.\Generated_Source\PSoC4/ble_eventHandler.c ****     #ifdef CYBLE_CPS_SERVER
1170:.\Generated_Source\PSoC4/ble_eventHandler.c ****         #if CYBLE_GAP_ROLE_BROADCASTER
1171:.\Generated_Source\PSoC4/ble_eventHandler.c ****             CyBle_CpssDisconnectEventHandler();
1172:.\Generated_Source\PSoC4/ble_eventHandler.c ****         #endif /* CYBLE_GAP_ROLE_BROADCASTER */
1173:.\Generated_Source\PSoC4/ble_eventHandler.c ****     #endif /* CYBLE_CPS_SERVER */
1174:.\Generated_Source\PSoC4/ble_eventHandler.c **** 
1175:.\Generated_Source\PSoC4/ble_eventHandler.c ****     #ifdef CYBLE_CPS_CLIENT
1176:.\Generated_Source\PSoC4/ble_eventHandler.c ****         CyBle_CpscDisconnectEventHandler();
1177:.\Generated_Source\PSoC4/ble_eventHandler.c ****     #endif /* CYBLE_CPS_CLIENT */
1178:.\Generated_Source\PSoC4/ble_eventHandler.c **** 
1179:.\Generated_Source\PSoC4/ble_eventHandler.c ****     #ifdef CYBLE_IAS_SERVER
1180:.\Generated_Source\PSoC4/ble_eventHandler.c ****         CyBle_IassDisconnectEventHandler();
1181:.\Generated_Source\PSoC4/ble_eventHandler.c ****     #endif /* CYBLE_IAS_SERVER */
1182:.\Generated_Source\PSoC4/ble_eventHandler.c ****     
1183:.\Generated_Source\PSoC4/ble_eventHandler.c ****     #ifdef CYBLE_GLS_SERVER
1184:.\Generated_Source\PSoC4/ble_eventHandler.c ****         CyBle_GlsInit();
1185:.\Generated_Source\PSoC4/ble_eventHandler.c ****     #endif /* CYBLE_GLS_SERVER */
1186:.\Generated_Source\PSoC4/ble_eventHandler.c ****     
1187:.\Generated_Source\PSoC4/ble_eventHandler.c ****     #ifdef CYBLE_LNS_SERVER
1188:.\Generated_Source\PSoC4/ble_eventHandler.c ****         CyBle_LnsInit();
1189:.\Generated_Source\PSoC4/ble_eventHandler.c ****     #endif /* CYBLE_LNS_SERVER */
1190:.\Generated_Source\PSoC4/ble_eventHandler.c ****     
1191:.\Generated_Source\PSoC4/ble_eventHandler.c ****     #ifdef CYBLE_UDS_SERVER
1192:.\Generated_Source\PSoC4/ble_eventHandler.c ****         CyBle_UdsInit();
1193:.\Generated_Source\PSoC4/ble_eventHandler.c ****     #endif /* CYBLE_UDS_SERVER */
1194:.\Generated_Source\PSoC4/ble_eventHandler.c **** }
  33              		.loc 1 1194 0
  34              		@ sp needed
  35 0008 7047     		bx	lr
  36              	.L3:
  37 000a C046     		.align	2
  38              	.L2:
  39 000c 00000000 		.word	cyBle_connHandle
  40              		.cfi_endproc
  41              	.LFE4:
  42              		.size	CyBle_GattDisconnectEventHandler, .-CyBle_GattDisconnectEventHandler
  43              		.section	.text.CyBle_IsDeviceAddressValid,"ax",%progbits
  44              		.align	2
  45              		.code	16
  46              		.thumb_func
  47              		.type	CyBle_IsDeviceAddressValid, %function
  48              	CyBle_IsDeviceAddressValid:
  49              	.LFB7:
1195:.\Generated_Source\PSoC4/ble_eventHandler.c **** 
1196:.\Generated_Source\PSoC4/ble_eventHandler.c **** 
1197:.\Generated_Source\PSoC4/ble_eventHandler.c **** /****************************************************************************** 
1198:.\Generated_Source\PSoC4/ble_eventHandler.c **** * Function Name: CyBle_TimeOutEventHandler
1199:.\Generated_Source\PSoC4/ble_eventHandler.c **** ***************************************************************************//**
1200:.\Generated_Source\PSoC4/ble_eventHandler.c **** * 
1201:.\Generated_Source\PSoC4/ble_eventHandler.c **** *  Handles the CYBLE_EVT_TIMEOUT event from the BLE stack.
1202:.\Generated_Source\PSoC4/ble_eventHandler.c **** * 
1203:.\Generated_Source\PSoC4/ble_eventHandler.c **** *  \param eventParam: The pointer to a structure of type CYBLE_TO_REASON_CODE_T.
1204:.\Generated_Source\PSoC4/ble_eventHandler.c **** * 
1205:.\Generated_Source\PSoC4/ble_eventHandler.c **** * \return
ARM GAS  C:\Users\Alan\AppData\Local\Temp\ccbjvqhO.s 			page 23


1206:.\Generated_Source\PSoC4/ble_eventHandler.c **** *  None
1207:.\Generated_Source\PSoC4/ble_eventHandler.c **** * 
1208:.\Generated_Source\PSoC4/ble_eventHandler.c **** ******************************************************************************/
1209:.\Generated_Source\PSoC4/ble_eventHandler.c **** static void CyBle_TimeOutEventHandler(const CYBLE_TO_REASON_CODE_T *eventParam)
1210:.\Generated_Source\PSoC4/ble_eventHandler.c **** {
1211:.\Generated_Source\PSoC4/ble_eventHandler.c ****     if(*eventParam == CYBLE_GATT_RSP_TO)
1212:.\Generated_Source\PSoC4/ble_eventHandler.c ****     {
1213:.\Generated_Source\PSoC4/ble_eventHandler.c ****     #if (CYBLE_GATT_ROLE_CLIENT)
1214:.\Generated_Source\PSoC4/ble_eventHandler.c ****         if((cyBle_eventHandlerFlag & CYBLE_AUTO_DISCOVERY) != 0u)
1215:.\Generated_Source\PSoC4/ble_eventHandler.c ****         {
1216:.\Generated_Source\PSoC4/ble_eventHandler.c ****             switch(CyBle_GetClientState())
1217:.\Generated_Source\PSoC4/ble_eventHandler.c ****             {
1218:.\Generated_Source\PSoC4/ble_eventHandler.c ****                 case CYBLE_CLIENT_STATE_SRVC_DISCOVERING:
1219:.\Generated_Source\PSoC4/ble_eventHandler.c ****                     CyBle_ApplCallback(CYBLE_EVT_GATTC_SRVC_DISCOVERY_FAILED, NULL);
1220:.\Generated_Source\PSoC4/ble_eventHandler.c ****                     break;
1221:.\Generated_Source\PSoC4/ble_eventHandler.c ****                 case CYBLE_CLIENT_STATE_INCL_DISCOVERING:
1222:.\Generated_Source\PSoC4/ble_eventHandler.c ****                     CyBle_ApplCallback(CYBLE_EVT_GATTC_INCL_DISCOVERY_FAILED, NULL);
1223:.\Generated_Source\PSoC4/ble_eventHandler.c ****                     break;
1224:.\Generated_Source\PSoC4/ble_eventHandler.c ****                 case CYBLE_CLIENT_STATE_CHAR_DISCOVERING:
1225:.\Generated_Source\PSoC4/ble_eventHandler.c ****                     CyBle_ApplCallback(CYBLE_EVT_GATTC_CHAR_DISCOVERY_FAILED, NULL);
1226:.\Generated_Source\PSoC4/ble_eventHandler.c ****                     break;
1227:.\Generated_Source\PSoC4/ble_eventHandler.c ****                 case CYBLE_CLIENT_STATE_DESCR_DISCOVERING:
1228:.\Generated_Source\PSoC4/ble_eventHandler.c ****                     CyBle_ApplCallback(CYBLE_EVT_GATTC_DESCR_DISCOVERY_FAILED, NULL);
1229:.\Generated_Source\PSoC4/ble_eventHandler.c ****                     break;
1230:.\Generated_Source\PSoC4/ble_eventHandler.c ****                 default:        /* Other states should not be set in Auto discovery mode */
1231:.\Generated_Source\PSoC4/ble_eventHandler.c ****                     break;
1232:.\Generated_Source\PSoC4/ble_eventHandler.c ****             }
1233:.\Generated_Source\PSoC4/ble_eventHandler.c ****             cyBle_eventHandlerFlag &= (uint8)~CYBLE_AUTO_DISCOVERY;
1234:.\Generated_Source\PSoC4/ble_eventHandler.c ****             CyBle_SetClientState(CYBLE_CLIENT_STATE_CONNECTED);
1235:.\Generated_Source\PSoC4/ble_eventHandler.c ****         }
1236:.\Generated_Source\PSoC4/ble_eventHandler.c ****     #endif /* CYBLE_GATT_ROLE_CLIENT */
1237:.\Generated_Source\PSoC4/ble_eventHandler.c ****     #ifdef CYBLE_CPS_SERVER
1238:.\Generated_Source\PSoC4/ble_eventHandler.c ****         CyBle_CpssTimeOutEventHandler();
1239:.\Generated_Source\PSoC4/ble_eventHandler.c ****     #endif /* CYBLE_CPS_SERVER */
1240:.\Generated_Source\PSoC4/ble_eventHandler.c ****     }
1241:.\Generated_Source\PSoC4/ble_eventHandler.c ****     
1242:.\Generated_Source\PSoC4/ble_eventHandler.c ****     /* Connection procedure timeout */
1243:.\Generated_Source\PSoC4/ble_eventHandler.c ****     if(*eventParam == CYBLE_GENERIC_TO)
1244:.\Generated_Source\PSoC4/ble_eventHandler.c ****     {
1245:.\Generated_Source\PSoC4/ble_eventHandler.c ****     #if(CYBLE_GAP_ROLE_CENTRAL)
1246:.\Generated_Source\PSoC4/ble_eventHandler.c ****         if(CYBLE_STATE_CONNECTING == CyBle_GetState())
1247:.\Generated_Source\PSoC4/ble_eventHandler.c ****         {
1248:.\Generated_Source\PSoC4/ble_eventHandler.c ****             (void)CyBle_GapcCancelDeviceConnection();
1249:.\Generated_Source\PSoC4/ble_eventHandler.c ****         }
1250:.\Generated_Source\PSoC4/ble_eventHandler.c ****     #endif /* CYBLE_GAP_ROLE_CENTRAL */
1251:.\Generated_Source\PSoC4/ble_eventHandler.c ****     }
1252:.\Generated_Source\PSoC4/ble_eventHandler.c **** }
1253:.\Generated_Source\PSoC4/ble_eventHandler.c **** 
1254:.\Generated_Source\PSoC4/ble_eventHandler.c **** 
1255:.\Generated_Source\PSoC4/ble_eventHandler.c **** /****************************************************************************** 
1256:.\Generated_Source\PSoC4/ble_eventHandler.c **** * Function Name: CyBle_GattConnectReqHandler
1257:.\Generated_Source\PSoC4/ble_eventHandler.c **** ***************************************************************************//**
1258:.\Generated_Source\PSoC4/ble_eventHandler.c **** * 
1259:.\Generated_Source\PSoC4/ble_eventHandler.c **** *  Handles the GATT connect event from the BLE stack.
1260:.\Generated_Source\PSoC4/ble_eventHandler.c **** * 
1261:.\Generated_Source\PSoC4/ble_eventHandler.c **** * \return
1262:.\Generated_Source\PSoC4/ble_eventHandler.c **** *  None
ARM GAS  C:\Users\Alan\AppData\Local\Temp\ccbjvqhO.s 			page 24


1263:.\Generated_Source\PSoC4/ble_eventHandler.c **** * 
1264:.\Generated_Source\PSoC4/ble_eventHandler.c **** ******************************************************************************/
1265:.\Generated_Source\PSoC4/ble_eventHandler.c **** static void CyBle_GattConnectReqHandler(void)
1266:.\Generated_Source\PSoC4/ble_eventHandler.c **** {
1267:.\Generated_Source\PSoC4/ble_eventHandler.c ****     #ifdef CYBLE_CGMS_SERVER
1268:.\Generated_Source\PSoC4/ble_eventHandler.c ****         CyBle_CgmsInit();
1269:.\Generated_Source\PSoC4/ble_eventHandler.c ****     #endif /* CYBLE_CGMS_SERVER */
1270:.\Generated_Source\PSoC4/ble_eventHandler.c ****     
1271:.\Generated_Source\PSoC4/ble_eventHandler.c ****     #ifdef CYBLE_CPS_SERVER
1272:.\Generated_Source\PSoC4/ble_eventHandler.c ****         CyBle_CpssConnectEventHandler();
1273:.\Generated_Source\PSoC4/ble_eventHandler.c ****     #endif /* CYBLE_CPS_SERVER */
1274:.\Generated_Source\PSoC4/ble_eventHandler.c ****     
1275:.\Generated_Source\PSoC4/ble_eventHandler.c ****     #ifdef CYBLE_CSCS_SERVER
1276:.\Generated_Source\PSoC4/ble_eventHandler.c ****             CyBle_CscsInit();
1277:.\Generated_Source\PSoC4/ble_eventHandler.c ****     #endif /* CYBLE_CSCS_SERVER */
1278:.\Generated_Source\PSoC4/ble_eventHandler.c ****     
1279:.\Generated_Source\PSoC4/ble_eventHandler.c ****     #ifdef CYBLE_LLS_SERVER
1280:.\Generated_Source\PSoC4/ble_eventHandler.c ****         CyBle_LlssConnectEventHandler();
1281:.\Generated_Source\PSoC4/ble_eventHandler.c ****     #endif /* CYBLE_LLS_SERVER */
1282:.\Generated_Source\PSoC4/ble_eventHandler.c ****     
1283:.\Generated_Source\PSoC4/ble_eventHandler.c ****     #ifdef CYBLE_HIDS_SERVER
1284:.\Generated_Source\PSoC4/ble_eventHandler.c ****         CyBle_HidssOnDeviceConnected();
1285:.\Generated_Source\PSoC4/ble_eventHandler.c ****     #endif /* CYBLE_HIDS_SERVER */
1286:.\Generated_Source\PSoC4/ble_eventHandler.c **** 
1287:.\Generated_Source\PSoC4/ble_eventHandler.c ****     #ifdef CYBLE_RSCS_SERVER
1288:.\Generated_Source\PSoC4/ble_eventHandler.c ****         CyBle_RscsInit();
1289:.\Generated_Source\PSoC4/ble_eventHandler.c ****     #endif /* CYBLE_RSCS_SERVER */
1290:.\Generated_Source\PSoC4/ble_eventHandler.c **** }
1291:.\Generated_Source\PSoC4/ble_eventHandler.c **** 
1292:.\Generated_Source\PSoC4/ble_eventHandler.c **** 
1293:.\Generated_Source\PSoC4/ble_eventHandler.c **** #if (CYBLE_GATT_ROLE_SERVER || CYBLE_GATT_ROLE_CLIENT)
1294:.\Generated_Source\PSoC4/ble_eventHandler.c **** 
1295:.\Generated_Source\PSoC4/ble_eventHandler.c **** /****************************************************************************** 
1296:.\Generated_Source\PSoC4/ble_eventHandler.c **** * Function Name: CyBle_IsDeviceAddressValid
1297:.\Generated_Source\PSoC4/ble_eventHandler.c **** ***************************************************************************//**
1298:.\Generated_Source\PSoC4/ble_eventHandler.c **** * 
1299:.\Generated_Source\PSoC4/ble_eventHandler.c **** *  This function verifies that BLE public address has been programmed to SFLASH 
1300:.\Generated_Source\PSoC4/ble_eventHandler.c **** *  during manufacture.
1301:.\Generated_Source\PSoC4/ble_eventHandler.c **** * 
1302:.\Generated_Source\PSoC4/ble_eventHandler.c **** *  \param CYBLE_GAP_BD_ADDR_T *sflashDeviceAddress: the pointer to the BD address of 
1303:.\Generated_Source\PSoC4/ble_eventHandler.c **** *                                            type CYBLE_GAP_BD_ADDR_T. 
1304:.\Generated_Source\PSoC4/ble_eventHandler.c **** * 
1305:.\Generated_Source\PSoC4/ble_eventHandler.c **** * \return
1306:.\Generated_Source\PSoC4/ble_eventHandler.c **** *  Non zero value when a device address differs from the default SFLASH content.
1307:.\Generated_Source\PSoC4/ble_eventHandler.c **** * 
1308:.\Generated_Source\PSoC4/ble_eventHandler.c **** ******************************************************************************/
1309:.\Generated_Source\PSoC4/ble_eventHandler.c **** static uint8 CyBle_IsDeviceAddressValid(const CYBLE_GAP_BD_ADDR_T *sflashDeviceAddress)
1310:.\Generated_Source\PSoC4/ble_eventHandler.c **** {
  50              		.loc 1 1310 0
  51              		.cfi_startproc
  52              	.LVL0:
1311:.\Generated_Source\PSoC4/ble_eventHandler.c ****     uint8 i;
1312:.\Generated_Source\PSoC4/ble_eventHandler.c ****     uint8 sflashAddressValid = 0u;
1313:.\Generated_Source\PSoC4/ble_eventHandler.c ****     
1314:.\Generated_Source\PSoC4/ble_eventHandler.c ****     if(sflashDeviceAddress -> type == CYBLE_GAP_ADDR_TYPE_PUBLIC)  
  53              		.loc 1 1314 0
  54 0000 8379     		ldrb	r3, [r0, #6]
ARM GAS  C:\Users\Alan\AppData\Local\Temp\ccbjvqhO.s 			page 25


  55 0002 002B     		cmp	r3, #0
  56 0004 07D0     		beq	.L8
1312:.\Generated_Source\PSoC4/ble_eventHandler.c ****     
  57              		.loc 1 1312 0
  58 0006 0020     		mov	r0, #0
  59              	.LVL1:
  60 0008 0BE0     		b	.L6
  61              	.LVL2:
  62              	.L7:
1315:.\Generated_Source\PSoC4/ble_eventHandler.c ****     {
1316:.\Generated_Source\PSoC4/ble_eventHandler.c ****         for(i = 0u; i < CYBLE_GAP_BD_ADDR_SIZE; i++)
1317:.\Generated_Source\PSoC4/ble_eventHandler.c ****         {
1318:.\Generated_Source\PSoC4/ble_eventHandler.c ****             if(sflashDeviceAddress->bdAddr[i] != 0u)
  63              		.loc 1 1318 0
  64 000a C25C     		ldrb	r2, [r0, r3]
  65 000c 002A     		cmp	r2, #0
  66 000e 07D1     		bne	.L9
1316:.\Generated_Source\PSoC4/ble_eventHandler.c ****         {
  67              		.loc 1 1316 0 discriminator 2
  68 0010 0133     		add	r3, r3, #1
  69              	.LVL3:
  70 0012 DBB2     		uxtb	r3, r3
  71              	.LVL4:
  72 0014 00E0     		b	.L5
  73              	.LVL5:
  74              	.L8:
  75 0016 0023     		mov	r3, #0
  76              	.L5:
  77              	.LVL6:
1316:.\Generated_Source\PSoC4/ble_eventHandler.c ****         {
  78              		.loc 1 1316 0 is_stmt 0 discriminator 1
  79 0018 052B     		cmp	r3, #5
  80 001a F6D9     		bls	.L7
1312:.\Generated_Source\PSoC4/ble_eventHandler.c ****     
  81              		.loc 1 1312 0 is_stmt 1
  82 001c 0020     		mov	r0, #0
  83              	.LVL7:
  84 001e 00E0     		b	.L6
  85              	.LVL8:
  86              	.L9:
1319:.\Generated_Source\PSoC4/ble_eventHandler.c ****             {
1320:.\Generated_Source\PSoC4/ble_eventHandler.c ****                 sflashAddressValid = 1u;
  87              		.loc 1 1320 0
  88 0020 0120     		mov	r0, #1
  89              	.LVL9:
  90              	.L6:
1321:.\Generated_Source\PSoC4/ble_eventHandler.c ****                 break;
1322:.\Generated_Source\PSoC4/ble_eventHandler.c ****             }
1323:.\Generated_Source\PSoC4/ble_eventHandler.c ****         }
1324:.\Generated_Source\PSoC4/ble_eventHandler.c ****     }
1325:.\Generated_Source\PSoC4/ble_eventHandler.c **** #if (CYBLE_M0S8BLESS_VERSION != 1)
1326:.\Generated_Source\PSoC4/ble_eventHandler.c ****     sflashAddressValid = 0u;
1327:.\Generated_Source\PSoC4/ble_eventHandler.c **** #endif
1328:.\Generated_Source\PSoC4/ble_eventHandler.c ****     
1329:.\Generated_Source\PSoC4/ble_eventHandler.c ****     return (sflashAddressValid);
1330:.\Generated_Source\PSoC4/ble_eventHandler.c **** }
  91              		.loc 1 1330 0
ARM GAS  C:\Users\Alan\AppData\Local\Temp\ccbjvqhO.s 			page 26


  92              		@ sp needed
  93 0022 7047     		bx	lr
  94              		.cfi_endproc
  95              	.LFE7:
  96              		.size	CyBle_IsDeviceAddressValid, .-CyBle_IsDeviceAddressValid
  97              		.section	.text.CyBle_WriteReqHandler,"ax",%progbits
  98              		.align	2
  99              		.code	16
 100              		.thumb_func
 101              		.type	CyBle_WriteReqHandler, %function
 102              	CyBle_WriteReqHandler:
 103              	.LFB2:
 228:.\Generated_Source\PSoC4/ble_eventHandler.c ****     CYBLE_GATT_ERR_CODE_T gattErr;
 104              		.loc 1 228 0
 105              		.cfi_startproc
 106              	.LVL10:
 107 0000 10B5     		push	{r4, lr}
 108              		.cfi_def_cfa_offset 8
 109              		.cfi_offset 4, -8
 110              		.cfi_offset 14, -4
 111 0002 82B0     		sub	sp, sp, #8
 112              		.cfi_def_cfa_offset 16
 113 0004 041C     		mov	r4, r0
 234:.\Generated_Source\PSoC4/ble_eventHandler.c **** #ifdef CYBLE_ANCS_SERVER
 114              		.loc 1 234 0
 115 0006 FFF7FEFF 		bl	CyBle_GattsWriteEventHandler
 116              	.LVL11:
 387:.\Generated_Source\PSoC4/ble_eventHandler.c ****     {
 117              		.loc 1 387 0
 118 000a 0A4B     		ldr	r3, .L13
 119 000c 1B78     		ldrb	r3, [r3]
 120 000e DB07     		lsl	r3, r3, #31
 121 0010 0ED4     		bmi	.L10
 389:.\Generated_Source\PSoC4/ble_eventHandler.c ****         {
 122              		.loc 1 389 0
 123 0012 0028     		cmp	r0, #0
 124 0014 09D0     		beq	.L12
 125              	.LBB2:
 393:.\Generated_Source\PSoC4/ble_eventHandler.c ****             err_param.attrHandle = eventParam->handleValPair.attrHandle;
 126              		.loc 1 393 0
 127 0016 01A9     		add	r1, sp, #4
 128 0018 1223     		mov	r3, #18
 129 001a 8B70     		strb	r3, [r1, #2]
 394:.\Generated_Source\PSoC4/ble_eventHandler.c ****             err_param.errorCode = gattErr;
 130              		.loc 1 394 0
 131 001c A389     		ldrh	r3, [r4, #12]
 132 001e 0B80     		strh	r3, [r1]
 395:.\Generated_Source\PSoC4/ble_eventHandler.c **** 
 133              		.loc 1 395 0
 134 0020 C870     		strb	r0, [r1, #3]
 398:.\Generated_Source\PSoC4/ble_eventHandler.c ****         }
 135              		.loc 1 398 0
 136 0022 2068     		ldr	r0, [r4]
 137              	.LVL12:
 138 0024 FFF7FEFF 		bl	CyBle_GattsErrorRsp
 139              	.LVL13:
 140              	.LBE2:
ARM GAS  C:\Users\Alan\AppData\Local\Temp\ccbjvqhO.s 			page 27


 141 0028 02E0     		b	.L10
 142              	.LVL14:
 143              	.L12:
 402:.\Generated_Source\PSoC4/ble_eventHandler.c ****         }
 144              		.loc 1 402 0
 145 002a 2068     		ldr	r0, [r4]
 146              	.LVL15:
 147 002c FFF7FEFF 		bl	CyBle_GattsWriteRsp
 148              	.LVL16:
 149              	.L10:
 405:.\Generated_Source\PSoC4/ble_eventHandler.c **** 
 150              		.loc 1 405 0
 151 0030 02B0     		add	sp, sp, #8
 152              		@ sp needed
 153              	.LVL17:
 154 0032 10BD     		pop	{r4, pc}
 155              	.L14:
 156              		.align	2
 157              	.L13:
 158 0034 00000000 		.word	cyBle_eventHandlerFlag
 159              		.cfi_endproc
 160              	.LFE2:
 161              		.size	CyBle_WriteReqHandler, .-CyBle_WriteReqHandler
 162              		.section	.text.CyBle_EventHandler,"ax",%progbits
 163              		.align	2
 164              		.global	CyBle_EventHandler
 165              		.code	16
 166              		.thumb_func
 167              		.type	CyBle_EventHandler, %function
 168              	CyBle_EventHandler:
 169              	.LFB10:
1331:.\Generated_Source\PSoC4/ble_eventHandler.c **** #endif /* CYBLE_GATT_ROLE_SERVER || CYBLE_GATT_ROLE_CLIENT */
1332:.\Generated_Source\PSoC4/ble_eventHandler.c **** 
1333:.\Generated_Source\PSoC4/ble_eventHandler.c **** 
1334:.\Generated_Source\PSoC4/ble_eventHandler.c **** /****************************************************************************** 
1335:.\Generated_Source\PSoC4/ble_eventHandler.c **** * Function Name: CyBle_L2Cap_ConnParamUpdateRspHandler
1336:.\Generated_Source\PSoC4/ble_eventHandler.c **** ***************************************************************************//**
1337:.\Generated_Source\PSoC4/ble_eventHandler.c **** * 
1338:.\Generated_Source\PSoC4/ble_eventHandler.c **** *  Handles the L2CAP connection parameter response event from
1339:.\Generated_Source\PSoC4/ble_eventHandler.c **** *  the BLE stack.
1340:.\Generated_Source\PSoC4/ble_eventHandler.c **** * 
1341:.\Generated_Source\PSoC4/ble_eventHandler.c **** *  \param response:
1342:.\Generated_Source\PSoC4/ble_eventHandler.c **** *      * Accepted = 0x0000
1343:.\Generated_Source\PSoC4/ble_eventHandler.c **** *      * Rejected = 0x0001
1344:.\Generated_Source\PSoC4/ble_eventHandler.c **** * 
1345:.\Generated_Source\PSoC4/ble_eventHandler.c **** * \return
1346:.\Generated_Source\PSoC4/ble_eventHandler.c **** *  None
1347:.\Generated_Source\PSoC4/ble_eventHandler.c **** * 
1348:.\Generated_Source\PSoC4/ble_eventHandler.c **** ******************************************************************************/
1349:.\Generated_Source\PSoC4/ble_eventHandler.c **** static void CyBle_L2Cap_ConnParamUpdateRspEventHandler(uint16 response)
1350:.\Generated_Source\PSoC4/ble_eventHandler.c **** {
1351:.\Generated_Source\PSoC4/ble_eventHandler.c ****     #ifdef CYBLE_CPS_SERVER
1352:.\Generated_Source\PSoC4/ble_eventHandler.c ****         CyBle_CpssConnParamUpdateRspEventHandler(response);
1353:.\Generated_Source\PSoC4/ble_eventHandler.c ****     #endif /* CYBLE_CPS_SERVER */
1354:.\Generated_Source\PSoC4/ble_eventHandler.c ****     
1355:.\Generated_Source\PSoC4/ble_eventHandler.c ****     /* Unreferenced variable warning workaround */
1356:.\Generated_Source\PSoC4/ble_eventHandler.c ****     if(response != 0u)
ARM GAS  C:\Users\Alan\AppData\Local\Temp\ccbjvqhO.s 			page 28


1357:.\Generated_Source\PSoC4/ble_eventHandler.c ****     {
1358:.\Generated_Source\PSoC4/ble_eventHandler.c ****     }
1359:.\Generated_Source\PSoC4/ble_eventHandler.c **** }
1360:.\Generated_Source\PSoC4/ble_eventHandler.c **** 
1361:.\Generated_Source\PSoC4/ble_eventHandler.c **** 
1362:.\Generated_Source\PSoC4/ble_eventHandler.c **** /****************************************************************************** 
1363:.\Generated_Source\PSoC4/ble_eventHandler.c **** * Function Name: CyBle_GapConnUpdateCompleteEventHandler
1364:.\Generated_Source\PSoC4/ble_eventHandler.c **** ***************************************************************************//**
1365:.\Generated_Source\PSoC4/ble_eventHandler.c **** * 
1366:.\Generated_Source\PSoC4/ble_eventHandler.c **** *  Handles the CYBLE_EVT_GAP_CONNECTION_UPDATE_COMPLETE event from
1367:.\Generated_Source\PSoC4/ble_eventHandler.c **** *  the BLE stack.
1368:.\Generated_Source\PSoC4/ble_eventHandler.c **** * 
1369:.\Generated_Source\PSoC4/ble_eventHandler.c **** *  \param eventParam: The pointer to the data structure specified by the event.
1370:.\Generated_Source\PSoC4/ble_eventHandler.c **** * 
1371:.\Generated_Source\PSoC4/ble_eventHandler.c **** * \return
1372:.\Generated_Source\PSoC4/ble_eventHandler.c **** *  None
1373:.\Generated_Source\PSoC4/ble_eventHandler.c **** * 
1374:.\Generated_Source\PSoC4/ble_eventHandler.c **** ******************************************************************************/
1375:.\Generated_Source\PSoC4/ble_eventHandler.c **** static void CyBle_GapConnUpdateCompleteEventHandler(const CYBLE_GAP_CONN_PARAM_UPDATED_IN_CONTROLLE
1376:.\Generated_Source\PSoC4/ble_eventHandler.c **** {
1377:.\Generated_Source\PSoC4/ble_eventHandler.c ****     #ifdef CYBLE_CPS_SERVER
1378:.\Generated_Source\PSoC4/ble_eventHandler.c ****         CyBle_CpssConnUpdateCompleteEventHandler(eventParam);
1379:.\Generated_Source\PSoC4/ble_eventHandler.c ****     #endif /* CYBLE_CPS_SERVER */
1380:.\Generated_Source\PSoC4/ble_eventHandler.c ****     
1381:.\Generated_Source\PSoC4/ble_eventHandler.c ****     /* Unreferenced variable warning workaround */
1382:.\Generated_Source\PSoC4/ble_eventHandler.c ****     if(eventParam != 0u)
1383:.\Generated_Source\PSoC4/ble_eventHandler.c ****     {
1384:.\Generated_Source\PSoC4/ble_eventHandler.c ****     }
1385:.\Generated_Source\PSoC4/ble_eventHandler.c **** }
1386:.\Generated_Source\PSoC4/ble_eventHandler.c **** 
1387:.\Generated_Source\PSoC4/ble_eventHandler.c **** 
1388:.\Generated_Source\PSoC4/ble_eventHandler.c **** /****************************************************************************** 
1389:.\Generated_Source\PSoC4/ble_eventHandler.c **** * Function Name: CyBle_EventHandler
1390:.\Generated_Source\PSoC4/ble_eventHandler.c **** ***************************************************************************//**
1391:.\Generated_Source\PSoC4/ble_eventHandler.c **** * 
1392:.\Generated_Source\PSoC4/ble_eventHandler.c **** *  Handles the events from the BLE stack
1393:.\Generated_Source\PSoC4/ble_eventHandler.c **** * 
1394:.\Generated_Source\PSoC4/ble_eventHandler.c **** *  \param eventCode:    the event code
1395:.\Generated_Source\PSoC4/ble_eventHandler.c **** *  \param eventParam:  the event parameters
1396:.\Generated_Source\PSoC4/ble_eventHandler.c **** * 
1397:.\Generated_Source\PSoC4/ble_eventHandler.c **** * \return
1398:.\Generated_Source\PSoC4/ble_eventHandler.c **** *  None.
1399:.\Generated_Source\PSoC4/ble_eventHandler.c **** * 
1400:.\Generated_Source\PSoC4/ble_eventHandler.c **** ******************************************************************************/
1401:.\Generated_Source\PSoC4/ble_eventHandler.c **** void CyBle_EventHandler(uint8 eventCode, void *eventParam)
1402:.\Generated_Source\PSoC4/ble_eventHandler.c **** {
 170              		.loc 1 1402 0
 171              		.cfi_startproc
 172              	.LVL18:
 173 0000 F0B5     		push	{r4, r5, r6, r7, lr}
 174              		.cfi_def_cfa_offset 20
 175              		.cfi_offset 4, -20
 176              		.cfi_offset 5, -16
 177              		.cfi_offset 6, -12
 178              		.cfi_offset 7, -8
 179              		.cfi_offset 14, -4
 180 0002 83B0     		sub	sp, sp, #12
ARM GAS  C:\Users\Alan\AppData\Local\Temp\ccbjvqhO.s 			page 29


 181              		.cfi_def_cfa_offset 32
 182 0004 041C     		mov	r4, r0
 183 0006 0D1C     		mov	r5, r1
1403:.\Generated_Source\PSoC4/ble_eventHandler.c ****     cyBle_eventHandlerFlag |= CYBLE_CALLBACK;
 184              		.loc 1 1403 0
 185 0008 734A     		ldr	r2, .L39
 186 000a 1178     		ldrb	r1, [r2]
 187              	.LVL19:
 188 000c 0123     		mov	r3, #1
 189 000e 0B43     		orr	r3, r1
 190 0010 1370     		strb	r3, [r2]
1404:.\Generated_Source\PSoC4/ble_eventHandler.c **** 
1405:.\Generated_Source\PSoC4/ble_eventHandler.c ****     /* Common Profile event handling */
1406:.\Generated_Source\PSoC4/ble_eventHandler.c ****     switch(eventCode)
 191              		.loc 1 1406 0
 192 0012 2728     		cmp	r0, #39
 193 0014 78D0     		beq	.L17
 194 0016 0CD8     		bhi	.L18
 195 0018 2128     		cmp	r0, #33
 196 001a 60D0     		beq	.L19
 197 001c 04D8     		bhi	.L20
 198 001e 0128     		cmp	r0, #1
 199 0020 1BD0     		beq	.L21
 200 0022 0528     		cmp	r0, #5
 201 0024 57D0     		beq	.L22
 202 0026 C6E0     		b	.L16
 203              	.L20:
 204 0028 2428     		cmp	r0, #36
 205 002a 69D0     		beq	.L23
 206 002c 2628     		cmp	r0, #38
 207 002e 73D0     		beq	.L24
 208 0030 C1E0     		b	.L16
 209              	.L18:
 210 0032 4228     		cmp	r0, #66
 211 0034 00D1     		bne	.LCB193
 212 0036 AAE0     		b	.L25	@long jump
 213              	.LCB193:
 214 0038 05D8     		bhi	.L26
 215 003a 2828     		cmp	r0, #40
 216 003c 68D0     		beq	.L27
 217 003e 4128     		cmp	r0, #65
 218 0040 00D1     		bne	.LCB199
 219 0042 91E0     		b	.L28	@long jump
 220              	.LCB199:
 221 0044 B7E0     		b	.L16
 222              	.L26:
 223 0046 4C28     		cmp	r0, #76
 224 0048 00D1     		bne	.LCB205
 225 004a ABE0     		b	.L29	@long jump
 226              	.LCB205:
 227 004c FA28     		cmp	r0, #250
 228 004e 00D1     		bne	.LCB207
 229 0050 ACE0     		b	.L30	@long jump
 230              	.LCB207:
 231 0052 4328     		cmp	r0, #67
 232 0054 00D0     		beq	.LCB209
 233 0056 AEE0     		b	.L16	@long jump
ARM GAS  C:\Users\Alan\AppData\Local\Temp\ccbjvqhO.s 			page 30


 234              	.LCB209:
 235 0058 9CE0     		b	.L31
 236              	.L21:
 237              	.LBB3:
1407:.\Generated_Source\PSoC4/ble_eventHandler.c ****     {
1408:.\Generated_Source\PSoC4/ble_eventHandler.c ****         /**********************************************************
1409:.\Generated_Source\PSoC4/ble_eventHandler.c ****         * General events
1410:.\Generated_Source\PSoC4/ble_eventHandler.c ****         ************************************************************/
1411:.\Generated_Source\PSoC4/ble_eventHandler.c ****         case CYBLE_EVT_STACK_ON:
1412:.\Generated_Source\PSoC4/ble_eventHandler.c ****         #if(CYBLE_MODE_PROFILE)
1413:.\Generated_Source\PSoC4/ble_eventHandler.c ****         {
1414:.\Generated_Source\PSoC4/ble_eventHandler.c ****             CYBLE_BLESS_PWR_IN_DB_T bleSsPowerLevel;
1415:.\Generated_Source\PSoC4/ble_eventHandler.c ****             
1416:.\Generated_Source\PSoC4/ble_eventHandler.c ****             /* Set Tx Power Level for advertising and connection channels */
1417:.\Generated_Source\PSoC4/ble_eventHandler.c ****             bleSsPowerLevel.blePwrLevelInDbm = CYBLE_TX_POWER_LEVEL_ADV;
 238              		.loc 1 1417 0
 239 005a 01AE     		add	r6, sp, #4
 240 005c 0727     		mov	r7, #7
 241 005e 3770     		strb	r7, [r6]
1418:.\Generated_Source\PSoC4/ble_eventHandler.c ****             bleSsPowerLevel.bleSsChId = CYBLE_LL_ADV_CH_TYPE;
 242              		.loc 1 1418 0
 243 0060 0023     		mov	r3, #0
 244 0062 7370     		strb	r3, [r6, #1]
1419:.\Generated_Source\PSoC4/ble_eventHandler.c ****             (void) CyBle_SetTxPowerLevel (&bleSsPowerLevel);
 245              		.loc 1 1419 0
 246 0064 301C     		mov	r0, r6
 247              	.LVL20:
 248 0066 FFF7FEFF 		bl	CyBle_SetTxPowerLevel
 249              	.LVL21:
1420:.\Generated_Source\PSoC4/ble_eventHandler.c ****             bleSsPowerLevel.blePwrLevelInDbm = CYBLE_TX_POWER_LEVEL_CONN;
 250              		.loc 1 1420 0
 251 006a 3770     		strb	r7, [r6]
1421:.\Generated_Source\PSoC4/ble_eventHandler.c ****             bleSsPowerLevel.bleSsChId = CYBLE_LL_CONN_CH_TYPE;
 252              		.loc 1 1421 0
 253 006c 0123     		mov	r3, #1
 254 006e 7370     		strb	r3, [r6, #1]
1422:.\Generated_Source\PSoC4/ble_eventHandler.c ****             (void) CyBle_SetTxPowerLevel (&bleSsPowerLevel);
 255              		.loc 1 1422 0
 256 0070 301C     		mov	r0, r6
 257 0072 FFF7FEFF 		bl	CyBle_SetTxPowerLevel
 258              	.LVL22:
 259              	.LBE3:
1423:.\Generated_Source\PSoC4/ble_eventHandler.c ****         }
1424:.\Generated_Source\PSoC4/ble_eventHandler.c ****         #endif /* CYBLE_MODE_PROFILE */
1425:.\Generated_Source\PSoC4/ble_eventHandler.c ****         #if (CYBLE_GATT_ROLE_SERVER || CYBLE_GATT_ROLE_CLIENT)
1426:.\Generated_Source\PSoC4/ble_eventHandler.c ****             /* Set device Address  */
1427:.\Generated_Source\PSoC4/ble_eventHandler.c ****             if(CyBle_IsDeviceAddressValid(cyBle_sflashDeviceAddress) != 0u)
 260              		.loc 1 1427 0
 261 0076 594B     		ldr	r3, .L39+4
 262 0078 1E68     		ldr	r6, [r3]
 263 007a 301C     		mov	r0, r6
 264 007c FFF7FEFF 		bl	CyBle_IsDeviceAddressValid
 265              	.LVL23:
 266 0080 0028     		cmp	r0, #0
 267 0082 0CD0     		beq	.L32
1428:.\Generated_Source\PSoC4/ble_eventHandler.c ****             {
1429:.\Generated_Source\PSoC4/ble_eventHandler.c ****                 (void) CyBle_SetDeviceAddress(cyBle_sflashDeviceAddress);
ARM GAS  C:\Users\Alan\AppData\Local\Temp\ccbjvqhO.s 			page 31


 268              		.loc 1 1429 0
 269 0084 301C     		mov	r0, r6
 270 0086 FFF7FEFF 		bl	CyBle_SetDeviceAddress
 271              	.LVL24:
1430:.\Generated_Source\PSoC4/ble_eventHandler.c ****                 #if(CYBLE_GAP_ROLE_PERIPHERAL || CYBLE_GAP_ROLE_BROADCASTER)
1431:.\Generated_Source\PSoC4/ble_eventHandler.c ****                     CyBle_ChangeAdDeviceAddress(cyBle_sflashDeviceAddress, 0u);
 272              		.loc 1 1431 0
 273 008a 544E     		ldr	r6, .L39+4
 274 008c 3068     		ldr	r0, [r6]
 275 008e 0021     		mov	r1, #0
 276 0090 FFF7FEFF 		bl	CyBle_ChangeAdDeviceAddress
 277              	.LVL25:
1432:.\Generated_Source\PSoC4/ble_eventHandler.c ****                     CyBle_ChangeAdDeviceAddress(cyBle_sflashDeviceAddress, 1u);
 278              		.loc 1 1432 0
 279 0094 3068     		ldr	r0, [r6]
 280 0096 0121     		mov	r1, #1
 281 0098 FFF7FEFF 		bl	CyBle_ChangeAdDeviceAddress
 282              	.LVL26:
 283 009c 14E0     		b	.L33
 284              	.L32:
1433:.\Generated_Source\PSoC4/ble_eventHandler.c ****                 #endif /* CYBLE_GAP_ROLE_PERIPHERAL || CYBLE_GAP_ROLE_BROADCASTER */    
1434:.\Generated_Source\PSoC4/ble_eventHandler.c ****             }
1435:.\Generated_Source\PSoC4/ble_eventHandler.c ****             else
1436:.\Generated_Source\PSoC4/ble_eventHandler.c ****             {
1437:.\Generated_Source\PSoC4/ble_eventHandler.c ****             #if (SILICON_GENERATED_DEVICE_ADDRESS != 0u)
1438:.\Generated_Source\PSoC4/ble_eventHandler.c ****                 cyBle_deviceAddress.bdAddr[0] = CYBLE_SFLASH_DIE_X_REG;
 285              		.loc 1 1438 0
 286 009e 504B     		ldr	r3, .L39+8
 287 00a0 1B78     		ldrb	r3, [r3]
 288 00a2 504E     		ldr	r6, .L39+12
 289 00a4 3370     		strb	r3, [r6]
1439:.\Generated_Source\PSoC4/ble_eventHandler.c ****                 cyBle_deviceAddress.bdAddr[1] = CYBLE_SFLASH_DIE_Y_REG;
 290              		.loc 1 1439 0
 291 00a6 504B     		ldr	r3, .L39+16
 292 00a8 1B78     		ldrb	r3, [r3]
 293 00aa 7370     		strb	r3, [r6, #1]
1440:.\Generated_Source\PSoC4/ble_eventHandler.c ****                 cyBle_deviceAddress.bdAddr[2] = CYBLE_SFLASH_DIE_WAFER_REG;
 294              		.loc 1 1440 0
 295 00ac 4F4B     		ldr	r3, .L39+20
 296 00ae 1B78     		ldrb	r3, [r3]
 297 00b0 B370     		strb	r3, [r6, #2]
1441:.\Generated_Source\PSoC4/ble_eventHandler.c ****             #endif /* SILICON_GENERATED_DEVICE_ADDRESS != 0u */
1442:.\Generated_Source\PSoC4/ble_eventHandler.c ****                 (void) CyBle_SetDeviceAddress(&cyBle_deviceAddress);
 298              		.loc 1 1442 0
 299 00b2 301C     		mov	r0, r6
 300 00b4 FFF7FEFF 		bl	CyBle_SetDeviceAddress
 301              	.LVL27:
1443:.\Generated_Source\PSoC4/ble_eventHandler.c ****                 #if(CYBLE_GAP_ROLE_PERIPHERAL || CYBLE_GAP_ROLE_BROADCASTER)
1444:.\Generated_Source\PSoC4/ble_eventHandler.c ****                     CyBle_ChangeAdDeviceAddress(&cyBle_deviceAddress, 0u);
 302              		.loc 1 1444 0
 303 00b8 301C     		mov	r0, r6
 304 00ba 0021     		mov	r1, #0
 305 00bc FFF7FEFF 		bl	CyBle_ChangeAdDeviceAddress
 306              	.LVL28:
1445:.\Generated_Source\PSoC4/ble_eventHandler.c ****                     CyBle_ChangeAdDeviceAddress(&cyBle_deviceAddress, 1u);
 307              		.loc 1 1445 0
 308 00c0 301C     		mov	r0, r6
ARM GAS  C:\Users\Alan\AppData\Local\Temp\ccbjvqhO.s 			page 32


 309 00c2 0121     		mov	r1, #1
 310 00c4 FFF7FEFF 		bl	CyBle_ChangeAdDeviceAddress
 311              	.LVL29:
 312              	.L33:
1446:.\Generated_Source\PSoC4/ble_eventHandler.c ****                 #endif /* CYBLE_GAP_ROLE_PERIPHERAL || CYBLE_GAP_ROLE_BROADCASTER */    
1447:.\Generated_Source\PSoC4/ble_eventHandler.c ****             }
1448:.\Generated_Source\PSoC4/ble_eventHandler.c ****             /* Set device IO Capability  */
1449:.\Generated_Source\PSoC4/ble_eventHandler.c ****             (void) CyBle_GapSetIoCap(CYBLE_IO_CAPABILITY);    
 313              		.loc 1 1449 0
 314 00c8 0020     		mov	r0, #0
 315 00ca FFF7FEFF 		bl	CyBle_GapSetIoCap
 316              	.LVL30:
1450:.\Generated_Source\PSoC4/ble_eventHandler.c ****         #endif /* CYBLE_GATT_ROLE_SERVER || CYBLE_GATT_ROLE_CLIENT */
1451:.\Generated_Source\PSoC4/ble_eventHandler.c ****             CyBle_SetState(CYBLE_STATE_DISCONNECTED);
 317              		.loc 1 1451 0
 318 00ce 0422     		mov	r2, #4
 319 00d0 474B     		ldr	r3, .L39+24
 320 00d2 1A70     		strb	r2, [r3]
1452:.\Generated_Source\PSoC4/ble_eventHandler.c ****             break;
 321              		.loc 1 1452 0
 322 00d4 6FE0     		b	.L16
 323              	.LVL31:
 324              	.L22:
1453:.\Generated_Source\PSoC4/ble_eventHandler.c ****         case CYBLE_EVT_TIMEOUT:
1454:.\Generated_Source\PSoC4/ble_eventHandler.c ****             CyBle_TimeOutEventHandler((CYBLE_TO_REASON_CODE_T *)eventParam);
1455:.\Generated_Source\PSoC4/ble_eventHandler.c ****             break;
1456:.\Generated_Source\PSoC4/ble_eventHandler.c ****     	case CYBLE_EVT_STACK_BUSY_STATUS:
1457:.\Generated_Source\PSoC4/ble_eventHandler.c ****             cyBle_busyStatus = *(uint8 *)eventParam;
 325              		.loc 1 1457 0
 326 00d6 2A78     		ldrb	r2, [r5]
 327 00d8 464B     		ldr	r3, .L39+28
 328 00da 1A70     		strb	r2, [r3]
1458:.\Generated_Source\PSoC4/ble_eventHandler.c ****             break;
 329              		.loc 1 1458 0
 330 00dc 6BE0     		b	.L16
 331              	.L19:
1459:.\Generated_Source\PSoC4/ble_eventHandler.c **** 
1460:.\Generated_Source\PSoC4/ble_eventHandler.c ****         /**********************************************************
1461:.\Generated_Source\PSoC4/ble_eventHandler.c ****         * GAP events
1462:.\Generated_Source\PSoC4/ble_eventHandler.c ****         ************************************************************/
1463:.\Generated_Source\PSoC4/ble_eventHandler.c ****         case CYBLE_EVT_GAP_AUTH_REQ:
1464:.\Generated_Source\PSoC4/ble_eventHandler.c ****         #if(CYBLE_MODE_PROFILE)
1465:.\Generated_Source\PSoC4/ble_eventHandler.c ****             if(0u == (cyBle_eventHandlerFlag & CYBLE_DISABLE_AUTOMATIC_AUTH))
 332              		.loc 1 1465 0
 333 00de 3E4B     		ldr	r3, .L39
 334 00e0 1B78     		ldrb	r3, [r3]
 335 00e2 9B06     		lsl	r3, r3, #26
 336 00e4 67D4     		bmi	.L16
1466:.\Generated_Source\PSoC4/ble_eventHandler.c ****             {
1467:.\Generated_Source\PSoC4/ble_eventHandler.c ****                 /* If the responding device does not support pairing then the responding 
1468:.\Generated_Source\PSoC4/ble_eventHandler.c ****                    device shall respond using the Pairing Failed message with the error 
1469:.\Generated_Source\PSoC4/ble_eventHandler.c ****                    code "Pairing Not Supported" otherwise it responds with a Pairing 
1470:.\Generated_Source\PSoC4/ble_eventHandler.c ****                    Response message.
1471:.\Generated_Source\PSoC4/ble_eventHandler.c ****                 */
1472:.\Generated_Source\PSoC4/ble_eventHandler.c ****                 if(cyBle_authInfo.security == (CYBLE_GAP_SEC_MODE_1 | CYBLE_GAP_SEC_LEVEL_1))
 337              		.loc 1 1472 0
 338 00e6 444B     		ldr	r3, .L39+32
ARM GAS  C:\Users\Alan\AppData\Local\Temp\ccbjvqhO.s 			page 33


 339 00e8 1B78     		ldrb	r3, [r3]
 340 00ea 102B     		cmp	r3, #16
 341 00ec 02D1     		bne	.L34
1473:.\Generated_Source\PSoC4/ble_eventHandler.c ****                 {
1474:.\Generated_Source\PSoC4/ble_eventHandler.c ****                     cyBle_authInfo.authErr = CYBLE_GAP_AUTH_ERROR_PAIRING_NOT_SUPPORTED;
 342              		.loc 1 1474 0
 343 00ee 0522     		mov	r2, #5
 344 00f0 414B     		ldr	r3, .L39+32
 345 00f2 DA70     		strb	r2, [r3, #3]
 346              	.L34:
1475:.\Generated_Source\PSoC4/ble_eventHandler.c ****                 }    
1476:.\Generated_Source\PSoC4/ble_eventHandler.c ****             #if(CYBLE_GAP_ROLE_PERIPHERAL)
1477:.\Generated_Source\PSoC4/ble_eventHandler.c ****                 (void)CyBle_GappAuthReqReply(cyBle_connHandle.bdHandle, &cyBle_authInfo);
 347              		.loc 1 1477 0
 348 00f4 414B     		ldr	r3, .L39+36
 349 00f6 1878     		ldrb	r0, [r3]
 350              	.LVL32:
 351 00f8 3F49     		ldr	r1, .L39+32
 352 00fa FFF7FEFF 		bl	CyBle_GappAuthReqReply
 353              	.LVL33:
 354 00fe 5AE0     		b	.L16
 355              	.LVL34:
 356              	.L23:
1478:.\Generated_Source\PSoC4/ble_eventHandler.c ****             #endif /* CYBLE_GAP_ROLE_PERIPHERAL */
1479:.\Generated_Source\PSoC4/ble_eventHandler.c ****             #if (CYBLE_GAP_ROLE_CENTRAL)
1480:.\Generated_Source\PSoC4/ble_eventHandler.c ****                 (void)CyBle_GapAuthReq(cyBle_connHandle.bdHandle, &cyBle_authInfo);
1481:.\Generated_Source\PSoC4/ble_eventHandler.c ****             #endif /* CYBLE_GAP_ROLE_CENTRAL */
1482:.\Generated_Source\PSoC4/ble_eventHandler.c ****             }
1483:.\Generated_Source\PSoC4/ble_eventHandler.c ****         #endif /* CYBLE_MODE_PROFILE */
1484:.\Generated_Source\PSoC4/ble_eventHandler.c ****             break;
1485:.\Generated_Source\PSoC4/ble_eventHandler.c ****         
1486:.\Generated_Source\PSoC4/ble_eventHandler.c ****         case CYBLE_EVT_GAP_AUTH_COMPLETE:
1487:.\Generated_Source\PSoC4/ble_eventHandler.c ****         #if((CYBLE_GAP_ROLE_PERIPHERAL || CYBLE_GAP_ROLE_CENTRAL) && (CYBLE_BONDING_REQUIREMENT == 
1488:.\Generated_Source\PSoC4/ble_eventHandler.c ****             cyBle_peerBonding = ((CYBLE_GAP_AUTH_INFO_T *)eventParam)->bonding;
 357              		.loc 1 1488 0
 358 0100 6A78     		ldrb	r2, [r5, #1]
 359 0102 3F4B     		ldr	r3, .L39+40
 360 0104 1A70     		strb	r2, [r3]
1489:.\Generated_Source\PSoC4/ble_eventHandler.c ****         #endif  /* CYBLE_BONDING_REQUIREMENT == CYBLE_BONDING_YES */
1490:.\Generated_Source\PSoC4/ble_eventHandler.c ****             break;
 361              		.loc 1 1490 0
 362 0106 56E0     		b	.L16
 363              	.L17:
1491:.\Generated_Source\PSoC4/ble_eventHandler.c ****         
1492:.\Generated_Source\PSoC4/ble_eventHandler.c ****         case CYBLE_EVT_GAP_CONNECTION_UPDATE_COMPLETE:
1493:.\Generated_Source\PSoC4/ble_eventHandler.c ****             CyBle_GapConnUpdateCompleteEventHandler((const CYBLE_GAP_CONN_PARAM_UPDATED_IN_CONTROLL
1494:.\Generated_Source\PSoC4/ble_eventHandler.c ****             break;
1495:.\Generated_Source\PSoC4/ble_eventHandler.c ****             
1496:.\Generated_Source\PSoC4/ble_eventHandler.c ****         case CYBLE_EVT_GAP_DEVICE_CONNECTED:
1497:.\Generated_Source\PSoC4/ble_eventHandler.c ****             CyBle_GapConnUpdateCompleteEventHandler((const CYBLE_GAP_CONN_PARAM_UPDATED_IN_CONTROLL
1498:.\Generated_Source\PSoC4/ble_eventHandler.c ****             #if(CYBLE_GAP_ROLE_CENTRAL)
1499:.\Generated_Source\PSoC4/ble_eventHandler.c ****                 if(cyBle_connectingTimeout != 0u)
1500:.\Generated_Source\PSoC4/ble_eventHandler.c ****                 {
1501:.\Generated_Source\PSoC4/ble_eventHandler.c ****                    (void)CyBle_StopTimer();
1502:.\Generated_Source\PSoC4/ble_eventHandler.c ****                 }
1503:.\Generated_Source\PSoC4/ble_eventHandler.c ****             #endif /* CYBLE_GAP_ROLE_CENTRAL */
1504:.\Generated_Source\PSoC4/ble_eventHandler.c ****             CyBle_SetState(CYBLE_STATE_CONNECTED);
ARM GAS  C:\Users\Alan\AppData\Local\Temp\ccbjvqhO.s 			page 34


 364              		.loc 1 1504 0
 365 0108 0222     		mov	r2, #2
 366 010a 394B     		ldr	r3, .L39+24
 367 010c 1A70     		strb	r2, [r3]
1505:.\Generated_Source\PSoC4/ble_eventHandler.c ****             break;
 368              		.loc 1 1505 0
 369 010e 52E0     		b	.L16
 370              	.L27:
1506:.\Generated_Source\PSoC4/ble_eventHandler.c **** 
1507:.\Generated_Source\PSoC4/ble_eventHandler.c ****         case CYBLE_EVT_GAP_DEVICE_DISCONNECTED:
1508:.\Generated_Source\PSoC4/ble_eventHandler.c ****             CyBle_SetState(CYBLE_STATE_DISCONNECTED);
 371              		.loc 1 1508 0
 372 0110 0422     		mov	r2, #4
 373 0112 374B     		ldr	r3, .L39+24
 374 0114 1A70     		strb	r2, [r3]
1509:.\Generated_Source\PSoC4/ble_eventHandler.c ****             break;
 375              		.loc 1 1509 0
 376 0116 4EE0     		b	.L16
 377              	.L24:
1510:.\Generated_Source\PSoC4/ble_eventHandler.c ****         #if(CYBLE_GAP_ROLE_PERIPHERAL || CYBLE_GAP_ROLE_BROADCASTER)
1511:.\Generated_Source\PSoC4/ble_eventHandler.c ****             
1512:.\Generated_Source\PSoC4/ble_eventHandler.c ****         case CYBLE_EVT_GAPP_ADVERTISEMENT_START_STOP:
1513:.\Generated_Source\PSoC4/ble_eventHandler.c ****             #ifdef CYBLE_CPS_SERVER
1514:.\Generated_Source\PSoC4/ble_eventHandler.c ****                 #if(CYBLE_GAP_ROLE_BROADCASTER)
1515:.\Generated_Source\PSoC4/ble_eventHandler.c ****                     CyBle_CpssAdvertisementStartStopEventHandler();
1516:.\Generated_Source\PSoC4/ble_eventHandler.c ****                 #endif /* CYBLE_GAP_ROLE_BROADCASTER */
1517:.\Generated_Source\PSoC4/ble_eventHandler.c ****             #endif /* CYBLE_CPS_SERVER */
1518:.\Generated_Source\PSoC4/ble_eventHandler.c ****             
1519:.\Generated_Source\PSoC4/ble_eventHandler.c ****             if((CYBLE_STATE_CONNECTED != CyBle_GetState()) && ((cyBle_eventHandlerFlag & CYBLE_CALL
 378              		.loc 1 1519 0
 379 0118 354B     		ldr	r3, .L39+24
 380 011a 1B78     		ldrb	r3, [r3]
 381 011c 022B     		cmp	r3, #2
 382 011e 4AD0     		beq	.L16
 383              		.loc 1 1519 0 is_stmt 0 discriminator 1
 384 0120 2D4A     		ldr	r2, .L39
 385 0122 1278     		ldrb	r2, [r2]
 386 0124 D207     		lsl	r2, r2, #31
 387 0126 46D5     		bpl	.L16
1520:.\Generated_Source\PSoC4/ble_eventHandler.c ****             {
1521:.\Generated_Source\PSoC4/ble_eventHandler.c ****                 /* After CyBle_GappStartAdvertisement first event indicates that advertising has be
1522:.\Generated_Source\PSoC4/ble_eventHandler.c ****                 if(0u != (cyBle_eventHandlerFlag & CYBLE_START_FLAG))
 388              		.loc 1 1522 0 is_stmt 1
 389 0128 2B4A     		ldr	r2, .L39
 390 012a 1278     		ldrb	r2, [r2]
 391 012c 5207     		lsl	r2, r2, #29
 392 012e 08D5     		bpl	.L35
1523:.\Generated_Source\PSoC4/ble_eventHandler.c ****                 {
1524:.\Generated_Source\PSoC4/ble_eventHandler.c ****                     CyBle_SetState(CYBLE_STATE_ADVERTISING);
 393              		.loc 1 1524 0
 394 0130 0322     		mov	r2, #3
 395 0132 2F4B     		ldr	r3, .L39+24
 396 0134 1A70     		strb	r2, [r3]
1525:.\Generated_Source\PSoC4/ble_eventHandler.c ****                     cyBle_eventHandlerFlag &= (uint8)~CYBLE_START_FLAG;
 397              		.loc 1 1525 0
 398 0136 284A     		ldr	r2, .L39
 399 0138 1378     		ldrb	r3, [r2]
ARM GAS  C:\Users\Alan\AppData\Local\Temp\ccbjvqhO.s 			page 35


 400 013a 0421     		mov	r1, #4
 401 013c 8B43     		bic	r3, r1
 402 013e 1370     		strb	r3, [r2]
 403 0140 39E0     		b	.L16
 404              	.L35:
1526:.\Generated_Source\PSoC4/ble_eventHandler.c ****                 }
1527:.\Generated_Source\PSoC4/ble_eventHandler.c ****                 /* When application initiated stop advertisement */
1528:.\Generated_Source\PSoC4/ble_eventHandler.c ****                 else if(0u != (cyBle_eventHandlerFlag & CYBLE_STOP_FLAG))
 405              		.loc 1 1528 0
 406 0142 254A     		ldr	r2, .L39
 407 0144 1278     		ldrb	r2, [r2]
 408 0146 1207     		lsl	r2, r2, #28
 409 0148 08D5     		bpl	.L36
1529:.\Generated_Source\PSoC4/ble_eventHandler.c ****                 {
1530:.\Generated_Source\PSoC4/ble_eventHandler.c ****                     CyBle_SetState(CYBLE_STATE_DISCONNECTED);  
 410              		.loc 1 1530 0
 411 014a 0422     		mov	r2, #4
 412 014c 284B     		ldr	r3, .L39+24
 413 014e 1A70     		strb	r2, [r3]
1531:.\Generated_Source\PSoC4/ble_eventHandler.c ****                     cyBle_eventHandlerFlag &= (uint8)~CYBLE_STOP_FLAG;
 414              		.loc 1 1531 0
 415 0150 214A     		ldr	r2, .L39
 416 0152 1378     		ldrb	r3, [r2]
 417 0154 0821     		mov	r1, #8
 418 0156 8B43     		bic	r3, r1
 419 0158 1370     		strb	r3, [r2]
 420 015a 2CE0     		b	.L16
 421              	.L36:
1532:.\Generated_Source\PSoC4/ble_eventHandler.c ****                 }
1533:.\Generated_Source\PSoC4/ble_eventHandler.c ****                 else /* Following event indicates that advertising has been stopped */
1534:.\Generated_Source\PSoC4/ble_eventHandler.c ****                 {
1535:.\Generated_Source\PSoC4/ble_eventHandler.c ****                     if(CYBLE_STATE_ADVERTISING == CyBle_GetState())
 422              		.loc 1 1535 0
 423 015c 032B     		cmp	r3, #3
 424 015e 2AD1     		bne	.L16
1536:.\Generated_Source\PSoC4/ble_eventHandler.c ****                     {
1537:.\Generated_Source\PSoC4/ble_eventHandler.c ****                         CyBle_SetState(CYBLE_STATE_DISCONNECTED);
 425              		.loc 1 1537 0
 426 0160 0422     		mov	r2, #4
 427 0162 234B     		ldr	r3, .L39+24
 428 0164 1A70     		strb	r2, [r3]
 429 0166 26E0     		b	.L16
 430              	.L28:
1538:.\Generated_Source\PSoC4/ble_eventHandler.c ****                     #if ((CYBLE_SLOW_ADV_ENABLED != 0u) && (CYBLE_FAST_ADV_TIMEOUT != 0u))
1539:.\Generated_Source\PSoC4/ble_eventHandler.c ****                         if(cyBle_advertisingIntervalType == CYBLE_ADVERTISING_FAST)
1540:.\Generated_Source\PSoC4/ble_eventHandler.c ****                         {
1541:.\Generated_Source\PSoC4/ble_eventHandler.c ****                             /* When fast advertising time out occur: Start slow advertising */
1542:.\Generated_Source\PSoC4/ble_eventHandler.c ****                             if(CYBLE_ERROR_OK == CyBle_GappStartAdvertisement(CYBLE_ADVERTISING_SLO
1543:.\Generated_Source\PSoC4/ble_eventHandler.c ****                             {
1544:.\Generated_Source\PSoC4/ble_eventHandler.c ****                                 CyBle_SetState(CYBLE_STATE_ADVERTISING);
1545:.\Generated_Source\PSoC4/ble_eventHandler.c ****                             }
1546:.\Generated_Source\PSoC4/ble_eventHandler.c ****                         }
1547:.\Generated_Source\PSoC4/ble_eventHandler.c ****                     #endif /* CYBLE_SLOW_ADV_ENABLED */
1548:.\Generated_Source\PSoC4/ble_eventHandler.c ****                     }
1549:.\Generated_Source\PSoC4/ble_eventHandler.c ****                 }
1550:.\Generated_Source\PSoC4/ble_eventHandler.c ****             }
1551:.\Generated_Source\PSoC4/ble_eventHandler.c ****             break;
ARM GAS  C:\Users\Alan\AppData\Local\Temp\ccbjvqhO.s 			page 36


1552:.\Generated_Source\PSoC4/ble_eventHandler.c ****         #endif /* CYBLE_GAP_ROLE_PERIPHERAL || CYBLE_GAP_ROLE_BROADCASTER */
1553:.\Generated_Source\PSoC4/ble_eventHandler.c ****         
1554:.\Generated_Source\PSoC4/ble_eventHandler.c ****         #if(CYBLE_GAP_ROLE_CENTRAL || CYBLE_GAP_ROLE_OBSERVER)    
1555:.\Generated_Source\PSoC4/ble_eventHandler.c ****         case CYBLE_EVT_GAPC_SCAN_START_STOP:
1556:.\Generated_Source\PSoC4/ble_eventHandler.c ****             #ifdef CYBLE_CPS_CLIENT
1557:.\Generated_Source\PSoC4/ble_eventHandler.c ****                 CyBle_CpscScanStartStopEventHandler();
1558:.\Generated_Source\PSoC4/ble_eventHandler.c ****             #endif /* CYBLE_CPS_CLIENT */
1559:.\Generated_Source\PSoC4/ble_eventHandler.c ****             
1560:.\Generated_Source\PSoC4/ble_eventHandler.c ****             if((CYBLE_STATE_CONNECTED != CyBle_GetState()) && ((cyBle_eventHandlerFlag & CYBLE_CALL
1561:.\Generated_Source\PSoC4/ble_eventHandler.c ****             {
1562:.\Generated_Source\PSoC4/ble_eventHandler.c ****                 /* After CyBle_GapcStartScan first event indicates that scanning has been started *
1563:.\Generated_Source\PSoC4/ble_eventHandler.c ****                 if(0u != (cyBle_eventHandlerFlag & CYBLE_START_FLAG))
1564:.\Generated_Source\PSoC4/ble_eventHandler.c ****                 {
1565:.\Generated_Source\PSoC4/ble_eventHandler.c ****                     CyBle_SetState(CYBLE_STATE_SCANNING);
1566:.\Generated_Source\PSoC4/ble_eventHandler.c ****                     cyBle_eventHandlerFlag &= (uint8)~CYBLE_START_FLAG;
1567:.\Generated_Source\PSoC4/ble_eventHandler.c ****                 }
1568:.\Generated_Source\PSoC4/ble_eventHandler.c ****                 /* When application initiated stop scanning */
1569:.\Generated_Source\PSoC4/ble_eventHandler.c ****                 else if(0u != (cyBle_eventHandlerFlag & CYBLE_STOP_FLAG))
1570:.\Generated_Source\PSoC4/ble_eventHandler.c ****                 {
1571:.\Generated_Source\PSoC4/ble_eventHandler.c ****                     CyBle_SetState(CYBLE_STATE_DISCONNECTED);  
1572:.\Generated_Source\PSoC4/ble_eventHandler.c ****                     cyBle_eventHandlerFlag &= (uint8)~CYBLE_STOP_FLAG;
1573:.\Generated_Source\PSoC4/ble_eventHandler.c ****                 }
1574:.\Generated_Source\PSoC4/ble_eventHandler.c ****                 else /* Following event indicates that scanning has been stopped by stack */
1575:.\Generated_Source\PSoC4/ble_eventHandler.c ****                 {
1576:.\Generated_Source\PSoC4/ble_eventHandler.c ****                     if(CYBLE_STATE_SCANNING == CyBle_GetState())
1577:.\Generated_Source\PSoC4/ble_eventHandler.c ****                     {
1578:.\Generated_Source\PSoC4/ble_eventHandler.c ****                         CyBle_SetState(CYBLE_STATE_DISCONNECTED);  
1579:.\Generated_Source\PSoC4/ble_eventHandler.c ****                     #if ((CYBLE_SLOW_SCAN_ENABLED != 0u) && (CYBLE_FAST_SCAN_TIMEOUT != 0u))
1580:.\Generated_Source\PSoC4/ble_eventHandler.c ****                         if(cyBle_scanningIntervalType == CYBLE_SCANNING_FAST)
1581:.\Generated_Source\PSoC4/ble_eventHandler.c ****                         {
1582:.\Generated_Source\PSoC4/ble_eventHandler.c ****                             /* When fast scanning time out occur: Start slow scanning */
1583:.\Generated_Source\PSoC4/ble_eventHandler.c ****                             if(CYBLE_ERROR_OK == CyBle_GapcStartScan(CYBLE_SCANNING_SLOW))
1584:.\Generated_Source\PSoC4/ble_eventHandler.c ****                             {
1585:.\Generated_Source\PSoC4/ble_eventHandler.c ****                                 CyBle_SetState(CYBLE_STATE_SCANNING);
1586:.\Generated_Source\PSoC4/ble_eventHandler.c ****                             }
1587:.\Generated_Source\PSoC4/ble_eventHandler.c ****                         }
1588:.\Generated_Source\PSoC4/ble_eventHandler.c ****                     #endif /* CYBLE_SLOW_SCAN_ENABLED */
1589:.\Generated_Source\PSoC4/ble_eventHandler.c ****                     }
1590:.\Generated_Source\PSoC4/ble_eventHandler.c ****                 }
1591:.\Generated_Source\PSoC4/ble_eventHandler.c ****             }
1592:.\Generated_Source\PSoC4/ble_eventHandler.c ****             break;
1593:.\Generated_Source\PSoC4/ble_eventHandler.c ****         #endif /* CYBLE_GAP_ROLE_CENTRAL || CYBLE_GAP_ROLE_OBSERVER */
1594:.\Generated_Source\PSoC4/ble_eventHandler.c **** 
1595:.\Generated_Source\PSoC4/ble_eventHandler.c ****         /**********************************************************
1596:.\Generated_Source\PSoC4/ble_eventHandler.c ****         * L2AP events 
1597:.\Generated_Source\PSoC4/ble_eventHandler.c ****         ************************************************************/
1598:.\Generated_Source\PSoC4/ble_eventHandler.c ****         case CYBLE_EVT_L2CAP_CONN_PARAM_UPDATE_RSP:
1599:.\Generated_Source\PSoC4/ble_eventHandler.c ****             CyBle_L2Cap_ConnParamUpdateRspEventHandler(*(uint16 *)eventParam);
1600:.\Generated_Source\PSoC4/ble_eventHandler.c ****             break;
1601:.\Generated_Source\PSoC4/ble_eventHandler.c ****         
1602:.\Generated_Source\PSoC4/ble_eventHandler.c ****         /**********************************************************
1603:.\Generated_Source\PSoC4/ble_eventHandler.c ****         * GATT events
1604:.\Generated_Source\PSoC4/ble_eventHandler.c ****         ************************************************************/        
1605:.\Generated_Source\PSoC4/ble_eventHandler.c ****         case CYBLE_EVT_GATT_CONNECT_IND:
1606:.\Generated_Source\PSoC4/ble_eventHandler.c ****             cyBle_connHandle = *(CYBLE_CONN_HANDLE_T *)eventParam;
 431              		.loc 1 1606 0
 432 0168 244E     		ldr	r6, .L39+36
ARM GAS  C:\Users\Alan\AppData\Local\Temp\ccbjvqhO.s 			page 37


 433 016a 301C     		mov	r0, r6
 434              	.LVL35:
 435 016c 291C     		mov	r1, r5
 436 016e 0222     		mov	r2, #2
 437 0170 FFF7FEFF 		bl	memcpy
 438              	.LVL36:
1607:.\Generated_Source\PSoC4/ble_eventHandler.c ****             
1608:.\Generated_Source\PSoC4/ble_eventHandler.c ****         #if((CYBLE_GATT_ROLE_SERVER) && (CYBLE_GATT_DB_CCCD_COUNT != 0u))
1609:.\Generated_Source\PSoC4/ble_eventHandler.c ****             /* Init CCCD values in RAM */
1610:.\Generated_Source\PSoC4/ble_eventHandler.c ****         	(void) memcpy (cyBle_attValuesCCCD, cyBle_flashStorage.attValuesCCCDFlashMemory[cyBle_conn
 439              		.loc 1 1610 0
 440 0174 3378     		ldrb	r3, [r6]
 441 0176 5900     		lsl	r1, r3, #1
 442 0178 CB18     		add	r3, r1, r3
 443 017a 5B00     		lsl	r3, r3, #1
 444 017c 2149     		ldr	r1, .L39+44
 445 017e C918     		add	r1, r1, r3
 446 0180 6E31     		add	r1, r1, #110
 447 0182 FF31     		add	r1, r1, #255
 448 0184 2048     		ldr	r0, .L39+48
 449 0186 0622     		mov	r2, #6
 450 0188 FFF7FEFF 		bl	memcpy
 451              	.LVL37:
1611:.\Generated_Source\PSoC4/ble_eventHandler.c ****                             CYBLE_GATT_DB_CCCD_COUNT);
1612:.\Generated_Source\PSoC4/ble_eventHandler.c ****         #endif /* CYBLE_GATT_ROLE_SERVER */
1613:.\Generated_Source\PSoC4/ble_eventHandler.c ****         
1614:.\Generated_Source\PSoC4/ble_eventHandler.c ****         #if (CYBLE_GATT_ROLE_CLIENT)
1615:.\Generated_Source\PSoC4/ble_eventHandler.c ****             CyBle_SetClientState(CYBLE_CLIENT_STATE_CONNECTED);
1616:.\Generated_Source\PSoC4/ble_eventHandler.c ****         #endif /* CYBLE_GATT_ROLE_CLIENT */
1617:.\Generated_Source\PSoC4/ble_eventHandler.c ****         
1618:.\Generated_Source\PSoC4/ble_eventHandler.c ****             CyBle_GattConnectReqHandler();
1619:.\Generated_Source\PSoC4/ble_eventHandler.c ****             break;
 452              		.loc 1 1619 0
 453 018c 13E0     		b	.L16
 454              	.LVL38:
 455              	.L25:
1620:.\Generated_Source\PSoC4/ble_eventHandler.c **** 
1621:.\Generated_Source\PSoC4/ble_eventHandler.c ****         case CYBLE_EVT_GATT_DISCONNECT_IND:
1622:.\Generated_Source\PSoC4/ble_eventHandler.c ****             CyBle_GattDisconnectEventHandler();
 456              		.loc 1 1622 0
 457 018e FFF7FEFF 		bl	CyBle_GattDisconnectEventHandler
 458              	.LVL39:
1623:.\Generated_Source\PSoC4/ble_eventHandler.c ****             break;
 459              		.loc 1 1623 0
 460 0192 10E0     		b	.L16
 461              	.LVL40:
 462              	.L31:
 463              	.LBB4:
1624:.\Generated_Source\PSoC4/ble_eventHandler.c **** 
1625:.\Generated_Source\PSoC4/ble_eventHandler.c ****     #if((CYBLE_GATT_ROLE_SERVER) || (CYBLE_GATT_ROLE_CLIENT))
1626:.\Generated_Source\PSoC4/ble_eventHandler.c ****         case CYBLE_EVT_GATTS_XCNHG_MTU_REQ:
1627:.\Generated_Source\PSoC4/ble_eventHandler.c ****             {
1628:.\Generated_Source\PSoC4/ble_eventHandler.c ****                 uint16 cyBle_mtuSize;
1629:.\Generated_Source\PSoC4/ble_eventHandler.c ****                 if(CYBLE_GATT_MTU > ((CYBLE_GATT_XCHG_MTU_PARAM_T *)eventParam)->mtu)
 464              		.loc 1 1629 0
 465 0194 6988     		ldrh	r1, [r5, #2]
 466 0196 1629     		cmp	r1, #22
ARM GAS  C:\Users\Alan\AppData\Local\Temp\ccbjvqhO.s 			page 38


 467 0198 00D9     		bls	.L37
1630:.\Generated_Source\PSoC4/ble_eventHandler.c ****                 {
1631:.\Generated_Source\PSoC4/ble_eventHandler.c ****                     cyBle_mtuSize = ((CYBLE_GATT_XCHG_MTU_PARAM_T *)eventParam)->mtu;
1632:.\Generated_Source\PSoC4/ble_eventHandler.c ****                 }
1633:.\Generated_Source\PSoC4/ble_eventHandler.c ****                 else
1634:.\Generated_Source\PSoC4/ble_eventHandler.c ****                 {
1635:.\Generated_Source\PSoC4/ble_eventHandler.c ****                     cyBle_mtuSize = CYBLE_GATT_MTU;
 468              		.loc 1 1635 0
 469 019a 1721     		mov	r1, #23
 470              	.L37:
 471              	.LVL41:
1636:.\Generated_Source\PSoC4/ble_eventHandler.c ****                 }
1637:.\Generated_Source\PSoC4/ble_eventHandler.c ****                 (void)CyBle_GattsExchangeMtuRsp(((CYBLE_GATT_XCHG_MTU_PARAM_T *)eventParam)->connHa
 472              		.loc 1 1637 0
 473 019c 2888     		ldrh	r0, [r5]
 474              	.LVL42:
 475 019e FFF7FEFF 		bl	CyBle_GattsExchangeMtuRsp
 476              	.LVL43:
 477              	.LBE4:
1638:.\Generated_Source\PSoC4/ble_eventHandler.c ****             }
1639:.\Generated_Source\PSoC4/ble_eventHandler.c ****             break;
 478              		.loc 1 1639 0
 479 01a2 08E0     		b	.L16
 480              	.LVL44:
 481              	.L29:
1640:.\Generated_Source\PSoC4/ble_eventHandler.c ****     #endif /* CYBLE_GATT_ROLE_SERVER || CYBLE_GATT_ROLE_CLIENT */
1641:.\Generated_Source\PSoC4/ble_eventHandler.c ****     
1642:.\Generated_Source\PSoC4/ble_eventHandler.c ****     #if (CYBLE_GATT_ROLE_CLIENT)
1643:.\Generated_Source\PSoC4/ble_eventHandler.c ****         case CYBLE_EVT_GAPC_SCAN_PROGRESS_RESULT:
1644:.\Generated_Source\PSoC4/ble_eventHandler.c ****         #ifdef CYBLE_CPS_CLIENT
1645:.\Generated_Source\PSoC4/ble_eventHandler.c ****                 CyBle_CpscScanProcessEventHandler((CYBLE_GAPC_ADV_REPORT_T *)eventParam);
1646:.\Generated_Source\PSoC4/ble_eventHandler.c ****         #endif /* CYBLE_CPS_CLIENT */
1647:.\Generated_Source\PSoC4/ble_eventHandler.c ****             break;
1648:.\Generated_Source\PSoC4/ble_eventHandler.c ****     #endif /* CYBLE_GATT_ROLE_CLIENT */
1649:.\Generated_Source\PSoC4/ble_eventHandler.c **** 
1650:.\Generated_Source\PSoC4/ble_eventHandler.c ****     #if(CYBLE_GATT_ROLE_SERVER)
1651:.\Generated_Source\PSoC4/ble_eventHandler.c ****         case CYBLE_EVT_GATTS_WRITE_REQ:
1652:.\Generated_Source\PSoC4/ble_eventHandler.c ****             CyBle_WriteReqHandler((CYBLE_GATTS_WRITE_REQ_PARAM_T *)eventParam);
 482              		.loc 1 1652 0
 483 01a4 281C     		mov	r0, r5
 484              	.LVL45:
 485 01a6 FFF7FEFF 		bl	CyBle_WriteReqHandler
 486              	.LVL46:
1653:.\Generated_Source\PSoC4/ble_eventHandler.c ****             break;
 487              		.loc 1 1653 0
 488 01aa 04E0     		b	.L16
 489              	.LVL47:
 490              	.L30:
1654:.\Generated_Source\PSoC4/ble_eventHandler.c **** 
1655:.\Generated_Source\PSoC4/ble_eventHandler.c ****         case CYBLE_EVT_GATTS_WRITE_CMD_REQ:
1656:.\Generated_Source\PSoC4/ble_eventHandler.c ****         #ifdef CYBLE_IAS_SERVER
1657:.\Generated_Source\PSoC4/ble_eventHandler.c ****             if((cyBle_eventHandlerFlag & CYBLE_CALLBACK) != 0u)
1658:.\Generated_Source\PSoC4/ble_eventHandler.c ****             {
1659:.\Generated_Source\PSoC4/ble_eventHandler.c ****                 (void)CyBle_IassWriteCmdEventHandler((CYBLE_GATTS_WRITE_REQ_PARAM_T *)eventParam);
1660:.\Generated_Source\PSoC4/ble_eventHandler.c ****             }
1661:.\Generated_Source\PSoC4/ble_eventHandler.c ****         #endif /* CYBLE_IAS_SERVER */
1662:.\Generated_Source\PSoC4/ble_eventHandler.c ****         #ifdef CYBLE_HIDS_SERVER
ARM GAS  C:\Users\Alan\AppData\Local\Temp\ccbjvqhO.s 			page 39


1663:.\Generated_Source\PSoC4/ble_eventHandler.c ****             if((cyBle_eventHandlerFlag & CYBLE_CALLBACK) != 0u)
1664:.\Generated_Source\PSoC4/ble_eventHandler.c ****             {
1665:.\Generated_Source\PSoC4/ble_eventHandler.c ****                 (void)CyBle_HidssWriteEventHandler((CYBLE_GATTS_WRITE_REQ_PARAM_T *)eventParam);
1666:.\Generated_Source\PSoC4/ble_eventHandler.c ****             }
1667:.\Generated_Source\PSoC4/ble_eventHandler.c ****         #endif /* CYBLE_HIDS_SERVER */
1668:.\Generated_Source\PSoC4/ble_eventHandler.c ****         #ifdef CYBLE_PASS_SERVER
1669:.\Generated_Source\PSoC4/ble_eventHandler.c ****             if((cyBle_eventHandlerFlag & CYBLE_CALLBACK) != 0u)
1670:.\Generated_Source\PSoC4/ble_eventHandler.c ****             {
1671:.\Generated_Source\PSoC4/ble_eventHandler.c ****                 (void)CyBle_PasssWriteCmdEventHandler((CYBLE_GATTS_WRITE_REQ_PARAM_T *)eventParam);
1672:.\Generated_Source\PSoC4/ble_eventHandler.c ****             }
1673:.\Generated_Source\PSoC4/ble_eventHandler.c ****         #endif /* CYBLE_PASS_SERVER */
1674:.\Generated_Source\PSoC4/ble_eventHandler.c ****         #ifdef CYBLE_RTUS_SERVER
1675:.\Generated_Source\PSoC4/ble_eventHandler.c ****             if((cyBle_eventHandlerFlag & CYBLE_CALLBACK) != 0u)
1676:.\Generated_Source\PSoC4/ble_eventHandler.c ****             {
1677:.\Generated_Source\PSoC4/ble_eventHandler.c ****                 (void)CyBle_RtussWriteCmdEventHandler((CYBLE_GATTS_WRITE_REQ_PARAM_T *)eventParam);
1678:.\Generated_Source\PSoC4/ble_eventHandler.c ****             }
1679:.\Generated_Source\PSoC4/ble_eventHandler.c ****         #endif /* CYBLE_RTUS_SERVER */
1680:.\Generated_Source\PSoC4/ble_eventHandler.c ****         #ifdef CYBLE_SCPS_SERVER
1681:.\Generated_Source\PSoC4/ble_eventHandler.c ****             if((cyBle_eventHandlerFlag & CYBLE_CALLBACK) != 0u)
1682:.\Generated_Source\PSoC4/ble_eventHandler.c ****             {
1683:.\Generated_Source\PSoC4/ble_eventHandler.c ****                 (void)CyBle_ScpssWriteEventHandler((CYBLE_GATTS_WRITE_REQ_PARAM_T *)eventParam);
1684:.\Generated_Source\PSoC4/ble_eventHandler.c ****             }
1685:.\Generated_Source\PSoC4/ble_eventHandler.c ****         #endif /* CYBLE_SCPS_SERVER */
1686:.\Generated_Source\PSoC4/ble_eventHandler.c ****             break;
1687:.\Generated_Source\PSoC4/ble_eventHandler.c ****         
1688:.\Generated_Source\PSoC4/ble_eventHandler.c ****         case CYBLE_EVT_GATTS_PREP_WRITE_REQ:
1689:.\Generated_Source\PSoC4/ble_eventHandler.c ****         #ifdef CYBLE_BMS_SERVER
1690:.\Generated_Source\PSoC4/ble_eventHandler.c ****             CyBle_BmssPrepareWriteRequestEventHandler((CYBLE_GATTS_PREP_WRITE_REQ_PARAM_T *)eventPa
1691:.\Generated_Source\PSoC4/ble_eventHandler.c ****         #endif /* CYBLE_BMS_SERVER */
1692:.\Generated_Source\PSoC4/ble_eventHandler.c ****         #ifdef CYBLE_BTS_SERVER
1693:.\Generated_Source\PSoC4/ble_eventHandler.c ****             if((cyBle_eventHandlerFlag & CYBLE_CALLBACK) != 0u)
1694:.\Generated_Source\PSoC4/ble_eventHandler.c ****             {
1695:.\Generated_Source\PSoC4/ble_eventHandler.c ****                 CyBle_BtssPrepareWriteRequestEventHandler((CYBLE_GATTS_PREP_WRITE_REQ_PARAM_T *)eve
1696:.\Generated_Source\PSoC4/ble_eventHandler.c ****             }
1697:.\Generated_Source\PSoC4/ble_eventHandler.c ****         #endif /* CYBLE_BTS_SERVER */
1698:.\Generated_Source\PSoC4/ble_eventHandler.c ****         #ifdef CYBLE_ESS_SERVER
1699:.\Generated_Source\PSoC4/ble_eventHandler.c ****             if((cyBle_eventHandlerFlag & CYBLE_CALLBACK) != 0u)
1700:.\Generated_Source\PSoC4/ble_eventHandler.c ****             {
1701:.\Generated_Source\PSoC4/ble_eventHandler.c ****                 CyBle_EsssPrepareWriteRequestEventHandler((CYBLE_GATTS_PREP_WRITE_REQ_PARAM_T *)eve
1702:.\Generated_Source\PSoC4/ble_eventHandler.c ****             }
1703:.\Generated_Source\PSoC4/ble_eventHandler.c ****         #endif /* CYBLE_ESS_SERVER */
1704:.\Generated_Source\PSoC4/ble_eventHandler.c **** 		#ifdef CYBLE_UDS_SERVER
1705:.\Generated_Source\PSoC4/ble_eventHandler.c ****             if((cyBle_eventHandlerFlag & CYBLE_CALLBACK) != 0u)
1706:.\Generated_Source\PSoC4/ble_eventHandler.c ****             {
1707:.\Generated_Source\PSoC4/ble_eventHandler.c ****                 CyBle_UdssPrepareWriteRequestEventHandler((CYBLE_GATTS_PREP_WRITE_REQ_PARAM_T *)eve
1708:.\Generated_Source\PSoC4/ble_eventHandler.c ****             }
1709:.\Generated_Source\PSoC4/ble_eventHandler.c ****         #endif /* CYBLE_UDS_SERVER */
1710:.\Generated_Source\PSoC4/ble_eventHandler.c ****             break;
1711:.\Generated_Source\PSoC4/ble_eventHandler.c **** 
1712:.\Generated_Source\PSoC4/ble_eventHandler.c ****         case CYBLE_EVT_GATTS_EXEC_WRITE_REQ:
1713:.\Generated_Source\PSoC4/ble_eventHandler.c ****         #ifdef CYBLE_BMS_SERVER
1714:.\Generated_Source\PSoC4/ble_eventHandler.c ****             CyBle_BmssExecuteWriteRequestEventHandler((CYBLE_GATTS_EXEC_WRITE_REQ_T *)eventParam);
1715:.\Generated_Source\PSoC4/ble_eventHandler.c ****         #endif /* CYBLE_BMS_SERVER */
1716:.\Generated_Source\PSoC4/ble_eventHandler.c ****         #ifdef CYBLE_BTS_SERVER
1717:.\Generated_Source\PSoC4/ble_eventHandler.c ****             CyBle_BtssExecuteWriteRequestEventHandler((CYBLE_GATTS_EXEC_WRITE_REQ_T *)eventParam);
1718:.\Generated_Source\PSoC4/ble_eventHandler.c ****         #endif /* CYBLE_BTS_SERVER */
1719:.\Generated_Source\PSoC4/ble_eventHandler.c ****         #ifdef CYBLE_ESS_SERVER
ARM GAS  C:\Users\Alan\AppData\Local\Temp\ccbjvqhO.s 			page 40


1720:.\Generated_Source\PSoC4/ble_eventHandler.c ****             CyBle_EsssExecuteWriteRequestEventHandler((CYBLE_GATTS_EXEC_WRITE_REQ_T *)eventParam);
1721:.\Generated_Source\PSoC4/ble_eventHandler.c ****         #endif /* CYBLE_ESS_SERVER */
1722:.\Generated_Source\PSoC4/ble_eventHandler.c **** 		#ifdef CYBLE_UDS_SERVER
1723:.\Generated_Source\PSoC4/ble_eventHandler.c ****             CyBle_UdssExecuteWriteRequestEventHandler((CYBLE_GATTS_EXEC_WRITE_REQ_T *)eventParam);
1724:.\Generated_Source\PSoC4/ble_eventHandler.c ****         #endif /* CYBLE_UDS_SERVER */
1725:.\Generated_Source\PSoC4/ble_eventHandler.c ****             break;
1726:.\Generated_Source\PSoC4/ble_eventHandler.c ****         
1727:.\Generated_Source\PSoC4/ble_eventHandler.c ****         case CYBLE_EVT_GATTS_HANDLE_VALUE_CNF:
1728:.\Generated_Source\PSoC4/ble_eventHandler.c ****             CyBle_ValueConfirmation((CYBLE_CONN_HANDLE_T *)eventParam);
1729:.\Generated_Source\PSoC4/ble_eventHandler.c ****             break;
1730:.\Generated_Source\PSoC4/ble_eventHandler.c ****             
1731:.\Generated_Source\PSoC4/ble_eventHandler.c ****         case CYBLE_EVT_GATTS_READ_CHAR_VAL_ACCESS_REQ:
1732:.\Generated_Source\PSoC4/ble_eventHandler.c ****         #ifdef CYBLE_UDS_SERVER
1733:.\Generated_Source\PSoC4/ble_eventHandler.c ****             CyBle_UdssReadRequestEventHandler((CYBLE_GATTS_CHAR_VAL_READ_REQ_T *)eventParam);
1734:.\Generated_Source\PSoC4/ble_eventHandler.c ****         #endif /* CYBLE_UDS_SERVER */
1735:.\Generated_Source\PSoC4/ble_eventHandler.c ****             break;
1736:.\Generated_Source\PSoC4/ble_eventHandler.c ****             
1737:.\Generated_Source\PSoC4/ble_eventHandler.c ****     #endif /* CYBLE_GATT_ROLE_SERVER */
1738:.\Generated_Source\PSoC4/ble_eventHandler.c **** 
1739:.\Generated_Source\PSoC4/ble_eventHandler.c ****     #if (CYBLE_GATT_ROLE_CLIENT)
1740:.\Generated_Source\PSoC4/ble_eventHandler.c ****         
1741:.\Generated_Source\PSoC4/ble_eventHandler.c ****         case CYBLE_EVT_GATTC_READ_BY_GROUP_TYPE_RSP:
1742:.\Generated_Source\PSoC4/ble_eventHandler.c ****             CyBle_ReadByGroupEventHandler((CYBLE_GATTC_READ_BY_GRP_RSP_PARAM_T *)eventParam);
1743:.\Generated_Source\PSoC4/ble_eventHandler.c ****             break;
1744:.\Generated_Source\PSoC4/ble_eventHandler.c **** 
1745:.\Generated_Source\PSoC4/ble_eventHandler.c ****         case CYBLE_EVT_GATTC_READ_BY_TYPE_RSP:
1746:.\Generated_Source\PSoC4/ble_eventHandler.c ****             CyBle_ReadByTypeEventHandler((CYBLE_GATTC_READ_BY_TYPE_RSP_PARAM_T *)eventParam);
1747:.\Generated_Source\PSoC4/ble_eventHandler.c ****             break;
1748:.\Generated_Source\PSoC4/ble_eventHandler.c **** 
1749:.\Generated_Source\PSoC4/ble_eventHandler.c ****         case CYBLE_EVT_GATTC_READ_BLOB_RSP:
1750:.\Generated_Source\PSoC4/ble_eventHandler.c ****         #ifdef CYBLE_ESS_CLIENT
1751:.\Generated_Source\PSoC4/ble_eventHandler.c ****             CyBle_EsscReadLongRespEventHandler((CYBLE_GATTC_READ_RSP_PARAM_T *)eventParam);
1752:.\Generated_Source\PSoC4/ble_eventHandler.c ****         #endif /* CYBLE_ESS_CLIENT */
1753:.\Generated_Source\PSoC4/ble_eventHandler.c ****         #ifdef CYBLE_UDS_CLIENT
1754:.\Generated_Source\PSoC4/ble_eventHandler.c ****             if((cyBle_eventHandlerFlag & CYBLE_CALLBACK) != 0u)
1755:.\Generated_Source\PSoC4/ble_eventHandler.c ****             {
1756:.\Generated_Source\PSoC4/ble_eventHandler.c ****                 CyBle_UdscReadLongRespEventHandler((CYBLE_GATTC_READ_RSP_PARAM_T *)eventParam);
1757:.\Generated_Source\PSoC4/ble_eventHandler.c ****             }
1758:.\Generated_Source\PSoC4/ble_eventHandler.c ****         #endif /* CYBLE_UDS_CLIENT */
1759:.\Generated_Source\PSoC4/ble_eventHandler.c ****             break;
1760:.\Generated_Source\PSoC4/ble_eventHandler.c ****         
1761:.\Generated_Source\PSoC4/ble_eventHandler.c ****         case CYBLE_EVT_GATTC_FIND_INFO_RSP:
1762:.\Generated_Source\PSoC4/ble_eventHandler.c ****             CyBle_FindInfoEventHandler((CYBLE_GATTC_FIND_INFO_RSP_PARAM_T *)eventParam);
1763:.\Generated_Source\PSoC4/ble_eventHandler.c ****             break;
1764:.\Generated_Source\PSoC4/ble_eventHandler.c **** 
1765:.\Generated_Source\PSoC4/ble_eventHandler.c ****         case CYBLE_EVT_GATTC_ERROR_RSP:
1766:.\Generated_Source\PSoC4/ble_eventHandler.c ****             CyBle_ErrorResponseEventHandler((CYBLE_GATTC_ERR_RSP_PARAM_T *)eventParam);
1767:.\Generated_Source\PSoC4/ble_eventHandler.c ****             break;
1768:.\Generated_Source\PSoC4/ble_eventHandler.c **** 
1769:.\Generated_Source\PSoC4/ble_eventHandler.c ****         case CYBLE_EVT_GATTC_HANDLE_VALUE_NTF:
1770:.\Generated_Source\PSoC4/ble_eventHandler.c ****             CyBle_NotificationEventHandler((CYBLE_GATTC_HANDLE_VALUE_NTF_PARAM_T *)eventParam);
1771:.\Generated_Source\PSoC4/ble_eventHandler.c ****             break;
1772:.\Generated_Source\PSoC4/ble_eventHandler.c **** 
1773:.\Generated_Source\PSoC4/ble_eventHandler.c ****         case CYBLE_EVT_GATTC_HANDLE_VALUE_IND:
1774:.\Generated_Source\PSoC4/ble_eventHandler.c ****             CyBle_GattcIndicationEventHandler((CYBLE_GATTC_HANDLE_VALUE_IND_PARAM_T *)eventParam);
1775:.\Generated_Source\PSoC4/ble_eventHandler.c ****             CyBle_IndicationEventHandler((CYBLE_GATTC_HANDLE_VALUE_IND_PARAM_T *)eventParam);
1776:.\Generated_Source\PSoC4/ble_eventHandler.c ****         
ARM GAS  C:\Users\Alan\AppData\Local\Temp\ccbjvqhO.s 			page 41


1777:.\Generated_Source\PSoC4/ble_eventHandler.c ****             /* Respond with a Handle Value Confirmation when request handled */
1778:.\Generated_Source\PSoC4/ble_eventHandler.c ****             if((cyBle_eventHandlerFlag & CYBLE_CALLBACK) == 0u)
1779:.\Generated_Source\PSoC4/ble_eventHandler.c ****             {
1780:.\Generated_Source\PSoC4/ble_eventHandler.c ****                 (void)CyBle_GattcConfirmation(((CYBLE_GATTC_HANDLE_VALUE_IND_PARAM_T *)eventParam)-
1781:.\Generated_Source\PSoC4/ble_eventHandler.c ****             }
1782:.\Generated_Source\PSoC4/ble_eventHandler.c ****             break;
1783:.\Generated_Source\PSoC4/ble_eventHandler.c ****         
1784:.\Generated_Source\PSoC4/ble_eventHandler.c ****         case CYBLE_EVT_GATTC_READ_RSP:
1785:.\Generated_Source\PSoC4/ble_eventHandler.c ****             CyBle_ReadResponseEventHandler((CYBLE_GATTC_READ_RSP_PARAM_T *)eventParam);
1786:.\Generated_Source\PSoC4/ble_eventHandler.c ****             break;
1787:.\Generated_Source\PSoC4/ble_eventHandler.c **** 
1788:.\Generated_Source\PSoC4/ble_eventHandler.c ****         case CYBLE_EVT_GATTC_WRITE_RSP:
1789:.\Generated_Source\PSoC4/ble_eventHandler.c ****             CyBle_GattcWriteResponseEventHandler((CYBLE_CONN_HANDLE_T *)eventParam);
1790:.\Generated_Source\PSoC4/ble_eventHandler.c ****             break;
1791:.\Generated_Source\PSoC4/ble_eventHandler.c ****             
1792:.\Generated_Source\PSoC4/ble_eventHandler.c ****         case CYBLE_EVT_GATTC_EXEC_WRITE_RSP:
1793:.\Generated_Source\PSoC4/ble_eventHandler.c ****         #ifdef CYBLE_BMS_CLIENT
1794:.\Generated_Source\PSoC4/ble_eventHandler.c ****             CyBle_BmscExecuteWriteResponseEventHandler((CYBLE_GATTC_EXEC_WRITE_RSP_T *)eventParam);
1795:.\Generated_Source\PSoC4/ble_eventHandler.c ****         #endif /* CYBLE_BMS_CLIENT */
1796:.\Generated_Source\PSoC4/ble_eventHandler.c ****         #ifdef CYBLE_ESS_CLIENT
1797:.\Generated_Source\PSoC4/ble_eventHandler.c ****             if((cyBle_eventHandlerFlag & CYBLE_CALLBACK) != 0u)
1798:.\Generated_Source\PSoC4/ble_eventHandler.c ****             {
1799:.\Generated_Source\PSoC4/ble_eventHandler.c ****                 CyBle_EsscExecuteWriteResponseEventHandler((CYBLE_GATTC_EXEC_WRITE_RSP_T *)eventPar
1800:.\Generated_Source\PSoC4/ble_eventHandler.c ****             }
1801:.\Generated_Source\PSoC4/ble_eventHandler.c ****         #endif /* CYBLE_ESS_CLIENT */
1802:.\Generated_Source\PSoC4/ble_eventHandler.c ****         #ifdef CYBLE_UDS_CLIENT
1803:.\Generated_Source\PSoC4/ble_eventHandler.c ****             if((cyBle_eventHandlerFlag & CYBLE_CALLBACK) != 0u)
1804:.\Generated_Source\PSoC4/ble_eventHandler.c ****             {
1805:.\Generated_Source\PSoC4/ble_eventHandler.c ****                 CyBle_UdscExecuteWriteResponseEventHandler((CYBLE_GATTC_EXEC_WRITE_RSP_T *)eventPar
1806:.\Generated_Source\PSoC4/ble_eventHandler.c ****             }
1807:.\Generated_Source\PSoC4/ble_eventHandler.c ****         #endif /* CYBLE_UDS_CLIENT */
1808:.\Generated_Source\PSoC4/ble_eventHandler.c ****             break;
1809:.\Generated_Source\PSoC4/ble_eventHandler.c ****             
1810:.\Generated_Source\PSoC4/ble_eventHandler.c ****     #endif /* CYBLE_GATT_ROLE_CLIENT */
1811:.\Generated_Source\PSoC4/ble_eventHandler.c **** 
1812:.\Generated_Source\PSoC4/ble_eventHandler.c ****     #if((CYBLE_GAP_ROLE_PERIPHERAL || CYBLE_GAP_ROLE_CENTRAL) && (CYBLE_BONDING_REQUIREMENT == CYBL
1813:.\Generated_Source\PSoC4/ble_eventHandler.c **** 
1814:.\Generated_Source\PSoC4/ble_eventHandler.c ****         case CYBLE_EVT_PENDING_FLASH_WRITE:
1815:.\Generated_Source\PSoC4/ble_eventHandler.c ****             cyBle_pendingFlashWrite |= CYBLE_PENDING_STACK_FLASH_WRITE_BIT;
 491              		.loc 1 1815 0
 492 01ac 174A     		ldr	r2, .L39+52
 493 01ae 1178     		ldrb	r1, [r2]
 494 01b0 0123     		mov	r3, #1
 495 01b2 0B43     		orr	r3, r1
 496 01b4 1370     		strb	r3, [r2]
 497              	.LVL48:
 498              	.L16:
1816:.\Generated_Source\PSoC4/ble_eventHandler.c ****             break;
1817:.\Generated_Source\PSoC4/ble_eventHandler.c ****         
1818:.\Generated_Source\PSoC4/ble_eventHandler.c ****     #endif  /* (CYBLE_BONDING_REQUIREMENT == CYBLE_BONDING_YES) */
1819:.\Generated_Source\PSoC4/ble_eventHandler.c ****     
1820:.\Generated_Source\PSoC4/ble_eventHandler.c ****         default:
1821:.\Generated_Source\PSoC4/ble_eventHandler.c ****             break;
1822:.\Generated_Source\PSoC4/ble_eventHandler.c ****     }
1823:.\Generated_Source\PSoC4/ble_eventHandler.c **** 
1824:.\Generated_Source\PSoC4/ble_eventHandler.c ****     if(0u != (cyBle_eventHandlerFlag & (CYBLE_CALLBACK | CYBLE_ENABLE_ALL_EVENTS))) 
 499              		.loc 1 1824 0
ARM GAS  C:\Users\Alan\AppData\Local\Temp\ccbjvqhO.s 			page 42


 500 01b6 084B     		ldr	r3, .L39
 501 01b8 1A78     		ldrb	r2, [r3]
 502 01ba 1123     		mov	r3, #17
 503 01bc 1A42     		tst	r2, r3
 504 01be 09D0     		beq	.L15
1825:.\Generated_Source\PSoC4/ble_eventHandler.c ****     {
1826:.\Generated_Source\PSoC4/ble_eventHandler.c ****         cyBle_eventHandlerFlag &= (uint8)~CYBLE_CALLBACK;
 505              		.loc 1 1826 0
 506 01c0 054A     		ldr	r2, .L39
 507 01c2 1378     		ldrb	r3, [r2]
 508 01c4 0121     		mov	r1, #1
 509 01c6 8B43     		bic	r3, r1
 510 01c8 1370     		strb	r3, [r2]
1827:.\Generated_Source\PSoC4/ble_eventHandler.c ****         CyBle_ApplCallback((uint32)eventCode, eventParam);
 511              		.loc 1 1827 0
 512 01ca 114B     		ldr	r3, .L39+56
 513 01cc 1B68     		ldr	r3, [r3]
 514 01ce 201C     		mov	r0, r4
 515 01d0 291C     		mov	r1, r5
 516 01d2 9847     		blx	r3
 517              	.LVL49:
 518              	.L15:
1828:.\Generated_Source\PSoC4/ble_eventHandler.c ****     }
1829:.\Generated_Source\PSoC4/ble_eventHandler.c **** }
 519              		.loc 1 1829 0
 520 01d4 03B0     		add	sp, sp, #12
 521              		@ sp needed
 522              	.LVL50:
 523 01d6 F0BD     		pop	{r4, r5, r6, r7, pc}
 524              	.L40:
 525              		.align	2
 526              	.L39:
 527 01d8 00000000 		.word	cyBle_eventHandlerFlag
 528 01dc 00000000 		.word	cyBle_sflashDeviceAddress
 529 01e0 7CF1FF0F 		.word	268431740
 530 01e4 00000000 		.word	cyBle_deviceAddress
 531 01e8 7DF1FF0F 		.word	268431741
 532 01ec 7BF1FF0F 		.word	268431739
 533 01f0 00000000 		.word	cyBle_state
 534 01f4 00000000 		.word	cyBle_busyStatus
 535 01f8 00000000 		.word	.LANCHOR0
 536 01fc 00000000 		.word	cyBle_connHandle
 537 0200 00000000 		.word	cyBle_peerBonding
 538 0204 00000000 		.word	cyBle_flashStorage
 539 0208 00000000 		.word	cyBle_attValuesCCCD
 540 020c 00000000 		.word	cyBle_pendingFlashWrite
 541 0210 00000000 		.word	CyBle_ApplCallback
 542              		.cfi_endproc
 543              	.LFE10:
 544              		.size	CyBle_EventHandler, .-CyBle_EventHandler
 545              		.global	cyBle_authInfo
 546              		.comm	cyBle_advertisingIntervalType,1,1
 547              		.comm	cyBle_busyStatus,1,1
 548              		.comm	cyBle_eventHandlerFlag,1,1
 549              		.comm	cyBle_connHandle,2,4
 550              		.data
 551              		.align	2
ARM GAS  C:\Users\Alan\AppData\Local\Temp\ccbjvqhO.s 			page 43


 552              		.set	.LANCHOR0,. + 0
 553              		.type	cyBle_authInfo, %object
 554              		.size	cyBle_authInfo, 4
 555              	cyBle_authInfo:
 556 0000 10       		.byte	16
 557 0001 01       		.byte	1
 558 0002 10       		.byte	16
 559 0003 00       		.byte	0
 560              		.text
 561              	.Letext0:
 562              		.file 2 ".\\Generated_Source\\PSoC4\\cytypes.h"
 563              		.file 3 ".\\Generated_Source\\PSoC4\\BLE_Stack.h"
 564              		.file 4 ".\\Generated_Source\\PSoC4\\BLE_StackHostMain.h"
 565              		.file 5 ".\\Generated_Source\\PSoC4\\BLE_StackGap.h"
 566              		.file 6 ".\\Generated_Source\\PSoC4\\BLE_StackGatt.h"
 567              		.file 7 ".\\Generated_Source\\PSoC4\\BLE_StackGattServer.h"
 568              		.file 8 ".\\Generated_Source\\PSoC4\\BLE.h"
 569              		.file 9 ".\\Generated_Source\\PSoC4\\BLE_gatt.h"
 570              		.file 10 ".\\Generated_Source\\PSoC4\\BLE_eventHandler.h"
 571              		.section	.debug_info,"",%progbits
 572              	.Ldebug_info0:
 573 0000 800D0000 		.4byte	0xd80
 574 0004 0400     		.2byte	0x4
 575 0006 00000000 		.4byte	.Ldebug_abbrev0
 576 000a 04       		.byte	0x4
 577 000b 01       		.uleb128 0x1
 578 000c FC0D0000 		.4byte	.LASF286
 579 0010 01       		.byte	0x1
 580 0011 510A0000 		.4byte	.LASF287
 581 0015 E2180000 		.4byte	.LASF288
 582 0019 00000000 		.4byte	.Ldebug_ranges0+0
 583 001d 00000000 		.4byte	0
 584 0021 00000000 		.4byte	.Ldebug_line0
 585 0025 02       		.uleb128 0x2
 586 0026 01       		.byte	0x1
 587 0027 06       		.byte	0x6
 588 0028 84060000 		.4byte	.LASF0
 589 002c 02       		.uleb128 0x2
 590 002d 01       		.byte	0x1
 591 002e 08       		.byte	0x8
 592 002f 99070000 		.4byte	.LASF1
 593 0033 02       		.uleb128 0x2
 594 0034 02       		.byte	0x2
 595 0035 05       		.byte	0x5
 596 0036 A2190000 		.4byte	.LASF2
 597 003a 02       		.uleb128 0x2
 598 003b 02       		.byte	0x2
 599 003c 07       		.byte	0x7
 600 003d 581D0000 		.4byte	.LASF3
 601 0041 02       		.uleb128 0x2
 602 0042 04       		.byte	0x4
 603 0043 05       		.byte	0x5
 604 0044 B7040000 		.4byte	.LASF4
 605 0048 02       		.uleb128 0x2
 606 0049 04       		.byte	0x4
 607 004a 07       		.byte	0x7
 608 004b 140D0000 		.4byte	.LASF5
ARM GAS  C:\Users\Alan\AppData\Local\Temp\ccbjvqhO.s 			page 44


 609 004f 02       		.uleb128 0x2
 610 0050 08       		.byte	0x8
 611 0051 05       		.byte	0x5
 612 0052 22100000 		.4byte	.LASF6
 613 0056 02       		.uleb128 0x2
 614 0057 08       		.byte	0x8
 615 0058 07       		.byte	0x7
 616 0059 44160000 		.4byte	.LASF7
 617 005d 03       		.uleb128 0x3
 618 005e 04       		.byte	0x4
 619 005f 05       		.byte	0x5
 620 0060 696E7400 		.ascii	"int\000"
 621 0064 02       		.uleb128 0x2
 622 0065 04       		.byte	0x4
 623 0066 07       		.byte	0x7
 624 0067 7A120000 		.4byte	.LASF8
 625 006b 04       		.uleb128 0x4
 626 006c 6F190000 		.4byte	.LASF9
 627 0070 02       		.byte	0x2
 628 0071 C2       		.byte	0xc2
 629 0072 2C000000 		.4byte	0x2c
 630 0076 04       		.uleb128 0x4
 631 0077 AD1E0000 		.4byte	.LASF10
 632 007b 02       		.byte	0x2
 633 007c C3       		.byte	0xc3
 634 007d 3A000000 		.4byte	0x3a
 635 0081 04       		.uleb128 0x4
 636 0082 15010000 		.4byte	.LASF11
 637 0086 02       		.byte	0x2
 638 0087 C4       		.byte	0xc4
 639 0088 48000000 		.4byte	0x48
 640 008c 02       		.uleb128 0x2
 641 008d 04       		.byte	0x4
 642 008e 04       		.byte	0x4
 643 008f C4110000 		.4byte	.LASF12
 644 0093 02       		.uleb128 0x2
 645 0094 08       		.byte	0x8
 646 0095 04       		.byte	0x4
 647 0096 D0100000 		.4byte	.LASF13
 648 009a 02       		.uleb128 0x2
 649 009b 01       		.byte	0x1
 650 009c 08       		.byte	0x8
 651 009d 7E080000 		.4byte	.LASF14
 652 00a1 05       		.uleb128 0x5
 653 00a2 6B000000 		.4byte	0x6b
 654 00a6 02       		.uleb128 0x2
 655 00a7 04       		.byte	0x4
 656 00a8 07       		.byte	0x7
 657 00a9 2D000000 		.4byte	.LASF15
 658 00ad 06       		.uleb128 0x6
 659 00ae 04       		.byte	0x4
 660 00af 07       		.uleb128 0x7
 661 00b0 01       		.byte	0x1
 662 00b1 03       		.byte	0x3
 663 00b2 A4       		.byte	0xa4
 664 00b3 34020000 		.4byte	0x234
 665 00b7 08       		.uleb128 0x8
ARM GAS  C:\Users\Alan\AppData\Local\Temp\ccbjvqhO.s 			page 45


 666 00b8 06090000 		.4byte	.LASF16
 667 00bc 00       		.sleb128 0
 668 00bd 08       		.uleb128 0x8
 669 00be 24050000 		.4byte	.LASF17
 670 00c2 01       		.sleb128 1
 671 00c3 08       		.uleb128 0x8
 672 00c4 79160000 		.4byte	.LASF18
 673 00c8 02       		.sleb128 2
 674 00c9 08       		.uleb128 0x8
 675 00ca C5060000 		.4byte	.LASF19
 676 00ce 03       		.sleb128 3
 677 00cf 08       		.uleb128 0x8
 678 00d0 F31D0000 		.4byte	.LASF20
 679 00d4 04       		.sleb128 4
 680 00d5 08       		.uleb128 0x8
 681 00d6 4A1C0000 		.4byte	.LASF21
 682 00da 05       		.sleb128 5
 683 00db 08       		.uleb128 0x8
 684 00dc 961A0000 		.4byte	.LASF22
 685 00e0 20       		.sleb128 32
 686 00e1 08       		.uleb128 0x8
 687 00e2 48030000 		.4byte	.LASF23
 688 00e6 21       		.sleb128 33
 689 00e7 08       		.uleb128 0x8
 690 00e8 730F0000 		.4byte	.LASF24
 691 00ec 22       		.sleb128 34
 692 00ed 08       		.uleb128 0x8
 693 00ee 3E140000 		.4byte	.LASF25
 694 00f2 23       		.sleb128 35
 695 00f3 08       		.uleb128 0x8
 696 00f4 620C0000 		.4byte	.LASF26
 697 00f8 24       		.sleb128 36
 698 00f9 08       		.uleb128 0x8
 699 00fa 7E0C0000 		.4byte	.LASF27
 700 00fe 25       		.sleb128 37
 701 00ff 08       		.uleb128 0x8
 702 0100 25190000 		.4byte	.LASF28
 703 0104 26       		.sleb128 38
 704 0105 08       		.uleb128 0x8
 705 0106 A5000000 		.4byte	.LASF29
 706 010a 27       		.sleb128 39
 707 010b 08       		.uleb128 0x8
 708 010c 6A1E0000 		.4byte	.LASF30
 709 0110 28       		.sleb128 40
 710 0111 08       		.uleb128 0x8
 711 0112 97150000 		.4byte	.LASF31
 712 0116 29       		.sleb128 41
 713 0117 08       		.uleb128 0x8
 714 0118 AE0E0000 		.4byte	.LASF32
 715 011c 2A       		.sleb128 42
 716 011d 08       		.uleb128 0x8
 717 011e CB130000 		.4byte	.LASF33
 718 0122 2B       		.sleb128 43
 719 0123 08       		.uleb128 0x8
 720 0124 901C0000 		.4byte	.LASF34
 721 0128 2C       		.sleb128 44
 722 0129 08       		.uleb128 0x8
ARM GAS  C:\Users\Alan\AppData\Local\Temp\ccbjvqhO.s 			page 46


 723 012a 101A0000 		.4byte	.LASF35
 724 012e C000     		.sleb128 64
 725 0130 08       		.uleb128 0x8
 726 0131 E5000000 		.4byte	.LASF36
 727 0135 C100     		.sleb128 65
 728 0137 08       		.uleb128 0x8
 729 0138 081E0000 		.4byte	.LASF37
 730 013c C200     		.sleb128 66
 731 013e 08       		.uleb128 0x8
 732 013f B4150000 		.4byte	.LASF38
 733 0143 C300     		.sleb128 67
 734 0145 08       		.uleb128 0x8
 735 0146 A7070000 		.4byte	.LASF39
 736 014a C400     		.sleb128 68
 737 014c 08       		.uleb128 0x8
 738 014d 46070000 		.4byte	.LASF40
 739 0151 C500     		.sleb128 69
 740 0153 08       		.uleb128 0x8
 741 0154 61180000 		.4byte	.LASF41
 742 0158 C600     		.sleb128 70
 743 015a 08       		.uleb128 0x8
 744 015b 43180000 		.4byte	.LASF42
 745 015f C700     		.sleb128 71
 746 0161 08       		.uleb128 0x8
 747 0162 57080000 		.4byte	.LASF43
 748 0166 C800     		.sleb128 72
 749 0168 08       		.uleb128 0x8
 750 0169 B3140000 		.4byte	.LASF44
 751 016d C900     		.sleb128 73
 752 016f 08       		.uleb128 0x8
 753 0170 8C090000 		.4byte	.LASF45
 754 0174 CA00     		.sleb128 74
 755 0176 08       		.uleb128 0x8
 756 0177 B3080000 		.4byte	.LASF46
 757 017b CB00     		.sleb128 75
 758 017d 08       		.uleb128 0x8
 759 017e 24140000 		.4byte	.LASF47
 760 0182 CC00     		.sleb128 76
 761 0184 08       		.uleb128 0x8
 762 0185 AF180000 		.4byte	.LASF48
 763 0189 CD00     		.sleb128 77
 764 018b 08       		.uleb128 0x8
 765 018c 99040000 		.4byte	.LASF49
 766 0190 CE00     		.sleb128 78
 767 0192 08       		.uleb128 0x8
 768 0193 87120000 		.4byte	.LASF50
 769 0197 CF00     		.sleb128 79
 770 0199 08       		.uleb128 0x8
 771 019a 771A0000 		.4byte	.LASF51
 772 019e D000     		.sleb128 80
 773 01a0 08       		.uleb128 0x8
 774 01a1 C1090000 		.4byte	.LASF52
 775 01a5 D100     		.sleb128 81
 776 01a7 08       		.uleb128 0x8
 777 01a8 27030000 		.4byte	.LASF53
 778 01ac D200     		.sleb128 82
 779 01ae 08       		.uleb128 0x8
ARM GAS  C:\Users\Alan\AppData\Local\Temp\ccbjvqhO.s 			page 47


 780 01af 081C0000 		.4byte	.LASF54
 781 01b3 D300     		.sleb128 83
 782 01b5 08       		.uleb128 0x8
 783 01b6 8C1E0000 		.4byte	.LASF55
 784 01ba D400     		.sleb128 84
 785 01bc 08       		.uleb128 0x8
 786 01bd 13020000 		.4byte	.LASF56
 787 01c1 D500     		.sleb128 85
 788 01c3 08       		.uleb128 0x8
 789 01c4 4D190000 		.4byte	.LASF57
 790 01c8 D600     		.sleb128 86
 791 01ca 08       		.uleb128 0x8
 792 01cb EF110000 		.4byte	.LASF58
 793 01cf D700     		.sleb128 87
 794 01d1 08       		.uleb128 0x8
 795 01d2 FE1C0000 		.4byte	.LASF59
 796 01d6 F000     		.sleb128 112
 797 01d8 08       		.uleb128 0x8
 798 01d9 D90B0000 		.4byte	.LASF60
 799 01dd F100     		.sleb128 113
 800 01df 08       		.uleb128 0x8
 801 01e0 02060000 		.4byte	.LASF61
 802 01e4 F200     		.sleb128 114
 803 01e6 08       		.uleb128 0x8
 804 01e7 591A0000 		.4byte	.LASF62
 805 01eb F300     		.sleb128 115
 806 01ed 08       		.uleb128 0x8
 807 01ee 06150000 		.4byte	.LASF63
 808 01f2 F400     		.sleb128 116
 809 01f4 08       		.uleb128 0x8
 810 01f5 520F0000 		.4byte	.LASF64
 811 01f9 F500     		.sleb128 117
 812 01fb 08       		.uleb128 0x8
 813 01fc 36080000 		.4byte	.LASF65
 814 0200 F600     		.sleb128 118
 815 0202 08       		.uleb128 0x8
 816 0203 FF160000 		.4byte	.LASF66
 817 0207 F700     		.sleb128 119
 818 0209 08       		.uleb128 0x8
 819 020a 37020000 		.4byte	.LASF67
 820 020e F800     		.sleb128 120
 821 0210 08       		.uleb128 0x8
 822 0211 E1070000 		.4byte	.LASF68
 823 0215 F900     		.sleb128 121
 824 0217 08       		.uleb128 0x8
 825 0218 461E0000 		.4byte	.LASF69
 826 021c FA00     		.sleb128 122
 827 021e 08       		.uleb128 0x8
 828 021f F9100000 		.4byte	.LASF70
 829 0223 FA01     		.sleb128 250
 830 0225 08       		.uleb128 0x8
 831 0226 C21B0000 		.4byte	.LASF71
 832 022a FB01     		.sleb128 251
 833 022c 08       		.uleb128 0x8
 834 022d BD130000 		.4byte	.LASF72
 835 0231 FF01     		.sleb128 255
 836 0233 00       		.byte	0
ARM GAS  C:\Users\Alan\AppData\Local\Temp\ccbjvqhO.s 			page 48


 837 0234 09       		.uleb128 0x9
 838 0235 02       		.byte	0x2
 839 0236 03       		.byte	0x3
 840 0237 0C02     		.2byte	0x20c
 841 0239 EB020000 		.4byte	0x2eb
 842 023d 08       		.uleb128 0x8
 843 023e F1060000 		.4byte	.LASF73
 844 0242 00       		.sleb128 0
 845 0243 08       		.uleb128 0x8
 846 0244 C50A0000 		.4byte	.LASF74
 847 0248 01       		.sleb128 1
 848 0249 08       		.uleb128 0x8
 849 024a D51D0000 		.4byte	.LASF75
 850 024e 02       		.sleb128 2
 851 024f 08       		.uleb128 0x8
 852 0250 F30A0000 		.4byte	.LASF76
 853 0254 03       		.sleb128 3
 854 0255 08       		.uleb128 0x8
 855 0256 B50C0000 		.4byte	.LASF77
 856 025a 04       		.sleb128 4
 857 025b 08       		.uleb128 0x8
 858 025c B2100000 		.4byte	.LASF78
 859 0260 05       		.sleb128 5
 860 0261 08       		.uleb128 0x8
 861 0262 751B0000 		.4byte	.LASF79
 862 0266 06       		.sleb128 6
 863 0267 08       		.uleb128 0x8
 864 0268 6F090000 		.4byte	.LASF80
 865 026c 07       		.sleb128 7
 866 026d 08       		.uleb128 0x8
 867 026e A6110000 		.4byte	.LASF81
 868 0272 08       		.sleb128 8
 869 0273 08       		.uleb128 0x8
 870 0274 EA1A0000 		.4byte	.LASF82
 871 0278 09       		.sleb128 9
 872 0279 08       		.uleb128 0x8
 873 027a B41E0000 		.4byte	.LASF83
 874 027e 0A       		.sleb128 10
 875 027f 08       		.uleb128 0x8
 876 0280 73030000 		.4byte	.LASF84
 877 0284 0B       		.sleb128 11
 878 0285 08       		.uleb128 0x8
 879 0286 331C0000 		.4byte	.LASF85
 880 028a 0C       		.sleb128 12
 881 028b 08       		.uleb128 0x8
 882 028c 58130000 		.4byte	.LASF86
 883 0290 0D       		.sleb128 13
 884 0291 08       		.uleb128 0x8
 885 0292 D30D0000 		.4byte	.LASF87
 886 0296 0E       		.sleb128 14
 887 0297 08       		.uleb128 0x8
 888 0298 8D100000 		.4byte	.LASF88
 889 029c 0F       		.sleb128 15
 890 029d 08       		.uleb128 0x8
 891 029e C9010000 		.4byte	.LASF89
 892 02a2 10       		.sleb128 16
 893 02a3 08       		.uleb128 0x8
ARM GAS  C:\Users\Alan\AppData\Local\Temp\ccbjvqhO.s 			page 49


 894 02a4 82110000 		.4byte	.LASF90
 895 02a8 11       		.sleb128 17
 896 02a9 08       		.uleb128 0x8
 897 02aa 37050000 		.4byte	.LASF91
 898 02ae 12       		.sleb128 18
 899 02af 08       		.uleb128 0x8
 900 02b0 5C060000 		.4byte	.LASF92
 901 02b4 13       		.sleb128 19
 902 02b5 08       		.uleb128 0x8
 903 02b6 D7100000 		.4byte	.LASF93
 904 02ba 27       		.sleb128 39
 905 02bb 08       		.uleb128 0x8
 906 02bc CA110000 		.4byte	.LASF94
 907 02c0 28       		.sleb128 40
 908 02c1 08       		.uleb128 0x8
 909 02c2 F7010000 		.4byte	.LASF95
 910 02c6 29       		.sleb128 41
 911 02c7 08       		.uleb128 0x8
 912 02c8 C90B0000 		.4byte	.LASF96
 913 02cc FF01     		.sleb128 255
 914 02ce 08       		.uleb128 0x8
 915 02cf 7D140000 		.4byte	.LASF97
 916 02d3 8002     		.sleb128 256
 917 02d5 08       		.uleb128 0x8
 918 02d6 64140000 		.4byte	.LASF98
 919 02da 8102     		.sleb128 257
 920 02dc 08       		.uleb128 0x8
 921 02dd B6050000 		.4byte	.LASF99
 922 02e1 8202     		.sleb128 258
 923 02e3 08       		.uleb128 0x8
 924 02e4 B9160000 		.4byte	.LASF100
 925 02e8 8302     		.sleb128 259
 926 02ea 00       		.byte	0
 927 02eb 0A       		.uleb128 0xa
 928 02ec E11B0000 		.4byte	.LASF101
 929 02f0 03       		.byte	0x3
 930 02f1 6902     		.2byte	0x269
 931 02f3 34020000 		.4byte	0x234
 932 02f7 09       		.uleb128 0x9
 933 02f8 01       		.byte	0x1
 934 02f9 03       		.byte	0x3
 935 02fa 9A02     		.2byte	0x29a
 936 02fc 37030000 		.4byte	0x337
 937 0300 08       		.uleb128 0x8
 938 0301 90060000 		.4byte	.LASF102
 939 0305 01       		.sleb128 1
 940 0306 08       		.uleb128 0x8
 941 0307 64040000 		.4byte	.LASF103
 942 030b 02       		.sleb128 2
 943 030c 08       		.uleb128 0x8
 944 030d 62150000 		.4byte	.LASF104
 945 0311 03       		.sleb128 3
 946 0312 08       		.uleb128 0x8
 947 0313 B0030000 		.4byte	.LASF105
 948 0317 04       		.sleb128 4
 949 0318 08       		.uleb128 0x8
 950 0319 83080000 		.4byte	.LASF106
ARM GAS  C:\Users\Alan\AppData\Local\Temp\ccbjvqhO.s 			page 50


 951 031d 05       		.sleb128 5
 952 031e 08       		.uleb128 0x8
 953 031f 410D0000 		.4byte	.LASF107
 954 0323 06       		.sleb128 6
 955 0324 08       		.uleb128 0x8
 956 0325 8F1B0000 		.4byte	.LASF108
 957 0329 07       		.sleb128 7
 958 032a 08       		.uleb128 0x8
 959 032b FD0C0000 		.4byte	.LASF109
 960 032f 08       		.sleb128 8
 961 0330 08       		.uleb128 0x8
 962 0331 40110000 		.4byte	.LASF110
 963 0335 09       		.sleb128 9
 964 0336 00       		.byte	0
 965 0337 0A       		.uleb128 0xa
 966 0338 970F0000 		.4byte	.LASF111
 967 033c 03       		.byte	0x3
 968 033d B102     		.2byte	0x2b1
 969 033f F7020000 		.4byte	0x2f7
 970 0343 09       		.uleb128 0x9
 971 0344 01       		.byte	0x1
 972 0345 03       		.byte	0x3
 973 0346 B502     		.2byte	0x2b5
 974 0348 5F030000 		.4byte	0x35f
 975 034c 08       		.uleb128 0x8
 976 034d AD1B0000 		.4byte	.LASF112
 977 0351 00       		.sleb128 0
 978 0352 08       		.uleb128 0x8
 979 0353 ED120000 		.4byte	.LASF113
 980 0357 01       		.sleb128 1
 981 0358 08       		.uleb128 0x8
 982 0359 E91C0000 		.4byte	.LASF114
 983 035d 02       		.sleb128 2
 984 035e 00       		.byte	0
 985 035f 0A       		.uleb128 0xa
 986 0360 00070000 		.4byte	.LASF115
 987 0364 03       		.byte	0x3
 988 0365 BC02     		.2byte	0x2bc
 989 0367 43030000 		.4byte	0x343
 990 036b 0B       		.uleb128 0xb
 991 036c 02       		.byte	0x2
 992 036d 03       		.byte	0x3
 993 036e BF02     		.2byte	0x2bf
 994 0370 8F030000 		.4byte	0x38f
 995 0374 0C       		.uleb128 0xc
 996 0375 2E010000 		.4byte	.LASF116
 997 0379 03       		.byte	0x3
 998 037a C202     		.2byte	0x2c2
 999 037c 37030000 		.4byte	0x337
 1000 0380 00       		.byte	0
 1001 0381 0C       		.uleb128 0xc
 1002 0382 F8050000 		.4byte	.LASF117
 1003 0386 03       		.byte	0x3
 1004 0387 C402     		.2byte	0x2c4
 1005 0389 5F030000 		.4byte	0x35f
 1006 038d 01       		.byte	0x1
 1007 038e 00       		.byte	0
ARM GAS  C:\Users\Alan\AppData\Local\Temp\ccbjvqhO.s 			page 51


 1008 038f 0A       		.uleb128 0xa
 1009 0390 D11C0000 		.4byte	.LASF118
 1010 0394 03       		.byte	0x3
 1011 0395 C502     		.2byte	0x2c5
 1012 0397 6B030000 		.4byte	0x36b
 1013 039b 0B       		.uleb128 0xb
 1014 039c 07       		.byte	0x7
 1015 039d 03       		.byte	0x3
 1016 039e 0503     		.2byte	0x305
 1017 03a0 BF030000 		.4byte	0x3bf
 1018 03a4 0C       		.uleb128 0xc
 1019 03a5 1D1B0000 		.4byte	.LASF119
 1020 03a9 03       		.byte	0x3
 1021 03aa 0803     		.2byte	0x308
 1022 03ac BF030000 		.4byte	0x3bf
 1023 03b0 00       		.byte	0
 1024 03b1 0C       		.uleb128 0xc
 1025 03b2 8A020000 		.4byte	.LASF120
 1026 03b6 03       		.byte	0x3
 1027 03b7 0A03     		.2byte	0x30a
 1028 03b9 6B000000 		.4byte	0x6b
 1029 03bd 06       		.byte	0x6
 1030 03be 00       		.byte	0
 1031 03bf 0D       		.uleb128 0xd
 1032 03c0 6B000000 		.4byte	0x6b
 1033 03c4 CF030000 		.4byte	0x3cf
 1034 03c8 0E       		.uleb128 0xe
 1035 03c9 A6000000 		.4byte	0xa6
 1036 03cd 05       		.byte	0x5
 1037 03ce 00       		.byte	0
 1038 03cf 0A       		.uleb128 0xa
 1039 03d0 93170000 		.4byte	.LASF121
 1040 03d4 03       		.byte	0x3
 1041 03d5 0B03     		.2byte	0x30b
 1042 03d7 9B030000 		.4byte	0x39b
 1043 03db 07       		.uleb128 0x7
 1044 03dc 01       		.byte	0x1
 1045 03dd 04       		.byte	0x4
 1046 03de 4B       		.byte	0x4b
 1047 03df FC030000 		.4byte	0x3fc
 1048 03e3 08       		.uleb128 0x8
 1049 03e4 C0170000 		.4byte	.LASF122
 1050 03e8 01       		.sleb128 1
 1051 03e9 08       		.uleb128 0x8
 1052 03ea 61170000 		.4byte	.LASF123
 1053 03ee 02       		.sleb128 2
 1054 03ef 08       		.uleb128 0x8
 1055 03f0 341E0000 		.4byte	.LASF124
 1056 03f4 03       		.sleb128 3
 1057 03f5 08       		.uleb128 0x8
 1058 03f6 1A180000 		.4byte	.LASF125
 1059 03fa 04       		.sleb128 4
 1060 03fb 00       		.byte	0
 1061 03fc 04       		.uleb128 0x4
 1062 03fd 8F020000 		.4byte	.LASF126
 1063 0401 04       		.byte	0x4
 1064 0402 58       		.byte	0x58
ARM GAS  C:\Users\Alan\AppData\Local\Temp\ccbjvqhO.s 			page 52


 1065 0403 DB030000 		.4byte	0x3db
 1066 0407 07       		.uleb128 0x7
 1067 0408 01       		.byte	0x1
 1068 0409 05       		.byte	0x5
 1069 040a B8       		.byte	0xb8
 1070 040b 28040000 		.4byte	0x428
 1071 040f 08       		.uleb128 0x8
 1072 0410 C0040000 		.4byte	.LASF127
 1073 0414 00       		.sleb128 0
 1074 0415 08       		.uleb128 0x8
 1075 0416 D6040000 		.4byte	.LASF128
 1076 041a 01       		.sleb128 1
 1077 041b 08       		.uleb128 0x8
 1078 041c EC040000 		.4byte	.LASF129
 1079 0420 02       		.sleb128 2
 1080 0421 08       		.uleb128 0x8
 1081 0422 380A0000 		.4byte	.LASF130
 1082 0426 0F       		.sleb128 15
 1083 0427 00       		.byte	0
 1084 0428 07       		.uleb128 0x7
 1085 0429 01       		.byte	0x1
 1086 042a 05       		.byte	0x5
 1087 042b D2       		.byte	0xd2
 1088 042c 4F040000 		.4byte	0x44f
 1089 0430 08       		.uleb128 0x8
 1090 0431 93030000 		.4byte	.LASF131
 1091 0435 00       		.sleb128 0
 1092 0436 08       		.uleb128 0x8
 1093 0437 721C0000 		.4byte	.LASF132
 1094 043b 01       		.sleb128 1
 1095 043c 08       		.uleb128 0x8
 1096 043d E8080000 		.4byte	.LASF133
 1097 0441 02       		.sleb128 2
 1098 0442 08       		.uleb128 0x8
 1099 0443 C4000000 		.4byte	.LASF134
 1100 0447 03       		.sleb128 3
 1101 0448 08       		.uleb128 0x8
 1102 0449 2A1A0000 		.4byte	.LASF135
 1103 044d 04       		.sleb128 4
 1104 044e 00       		.byte	0
 1105 044f 04       		.uleb128 0x4
 1106 0450 1C010000 		.4byte	.LASF136
 1107 0454 05       		.byte	0x5
 1108 0455 E4       		.byte	0xe4
 1109 0456 28040000 		.4byte	0x428
 1110 045a 07       		.uleb128 0x7
 1111 045b 01       		.byte	0x1
 1112 045c 05       		.byte	0x5
 1113 045d E8       		.byte	0xe8
 1114 045e B1040000 		.4byte	0x4b1
 1115 0462 08       		.uleb128 0x8
 1116 0463 7D150000 		.4byte	.LASF137
 1117 0467 00       		.sleb128 0
 1118 0468 08       		.uleb128 0x8
 1119 0469 00040000 		.4byte	.LASF138
 1120 046d 01       		.sleb128 1
 1121 046e 08       		.uleb128 0x8
ARM GAS  C:\Users\Alan\AppData\Local\Temp\ccbjvqhO.s 			page 53


 1122 046f EB150000 		.4byte	.LASF139
 1123 0473 02       		.sleb128 2
 1124 0474 08       		.uleb128 0x8
 1125 0475 870D0000 		.4byte	.LASF140
 1126 0479 03       		.sleb128 3
 1127 047a 08       		.uleb128 0x8
 1128 047b 89050000 		.4byte	.LASF141
 1129 047f 04       		.sleb128 4
 1130 0480 08       		.uleb128 0x8
 1131 0481 EF170000 		.4byte	.LASF142
 1132 0485 05       		.sleb128 5
 1133 0486 08       		.uleb128 0x8
 1134 0487 EC0F0000 		.4byte	.LASF143
 1135 048b 06       		.sleb128 6
 1136 048c 08       		.uleb128 0x8
 1137 048d 5C0D0000 		.4byte	.LASF144
 1138 0491 07       		.sleb128 7
 1139 0492 08       		.uleb128 0x8
 1140 0493 D2020000 		.4byte	.LASF145
 1141 0497 08       		.sleb128 8
 1142 0498 08       		.uleb128 0x8
 1143 0499 2B0F0000 		.4byte	.LASF146
 1144 049d 09       		.sleb128 9
 1145 049e 08       		.uleb128 0x8
 1146 049f 0E080000 		.4byte	.LASF147
 1147 04a3 0A       		.sleb128 10
 1148 04a4 08       		.uleb128 0x8
 1149 04a5 A6020000 		.4byte	.LASF148
 1150 04a9 15       		.sleb128 21
 1151 04aa 08       		.uleb128 0x8
 1152 04ab FF0B0000 		.4byte	.LASF149
 1153 04af 18       		.sleb128 24
 1154 04b0 00       		.byte	0
 1155 04b1 0A       		.uleb128 0xa
 1156 04b2 05140000 		.4byte	.LASF150
 1157 04b6 05       		.byte	0x5
 1158 04b7 1401     		.2byte	0x114
 1159 04b9 5A040000 		.4byte	0x45a
 1160 04bd 0B       		.uleb128 0xb
 1161 04be 04       		.byte	0x4
 1162 04bf 05       		.byte	0x5
 1163 04c0 2D01     		.2byte	0x12d
 1164 04c2 FB040000 		.4byte	0x4fb
 1165 04c6 0C       		.uleb128 0xc
 1166 04c7 84190000 		.4byte	.LASF151
 1167 04cb 05       		.byte	0x5
 1168 04cc 3601     		.2byte	0x136
 1169 04ce 6B000000 		.4byte	0x6b
 1170 04d2 00       		.byte	0
 1171 04d3 0C       		.uleb128 0xc
 1172 04d4 54120000 		.4byte	.LASF152
 1173 04d8 05       		.byte	0x5
 1174 04d9 3C01     		.2byte	0x13c
 1175 04db 6B000000 		.4byte	0x6b
 1176 04df 01       		.byte	0x1
 1177 04e0 0C       		.uleb128 0xc
 1178 04e1 36000000 		.4byte	.LASF153
ARM GAS  C:\Users\Alan\AppData\Local\Temp\ccbjvqhO.s 			page 54


 1179 04e5 05       		.byte	0x5
 1180 04e6 4201     		.2byte	0x142
 1181 04e8 6B000000 		.4byte	0x6b
 1182 04ec 02       		.byte	0x2
 1183 04ed 0C       		.uleb128 0xc
 1184 04ee AC190000 		.4byte	.LASF154
 1185 04f2 05       		.byte	0x5
 1186 04f3 4601     		.2byte	0x146
 1187 04f5 B1040000 		.4byte	0x4b1
 1188 04f9 03       		.byte	0x3
 1189 04fa 00       		.byte	0
 1190 04fb 0A       		.uleb128 0xa
 1191 04fc D2080000 		.4byte	.LASF155
 1192 0500 05       		.byte	0x5
 1193 0501 4801     		.2byte	0x148
 1194 0503 BD040000 		.4byte	0x4bd
 1195 0507 0F       		.uleb128 0xf
 1196 0508 04       		.byte	0x4
 1197 0509 6B000000 		.4byte	0x6b
 1198 050d 0B       		.uleb128 0xb
 1199 050e 08       		.byte	0x8
 1200 050f 05       		.byte	0x5
 1201 0510 B402     		.2byte	0x2b4
 1202 0512 4B050000 		.4byte	0x54b
 1203 0516 0C       		.uleb128 0xc
 1204 0517 3A0D0000 		.4byte	.LASF156
 1205 051b 05       		.byte	0x5
 1206 051c B802     		.2byte	0x2b8
 1207 051e 6B000000 		.4byte	0x6b
 1208 0522 00       		.byte	0
 1209 0523 0C       		.uleb128 0xc
 1210 0524 4F1D0000 		.4byte	.LASF157
 1211 0528 05       		.byte	0x5
 1212 0529 BE02     		.2byte	0x2be
 1213 052b 76000000 		.4byte	0x76
 1214 052f 02       		.byte	0x2
 1215 0530 0C       		.uleb128 0xc
 1216 0531 661C0000 		.4byte	.LASF158
 1217 0535 05       		.byte	0x5
 1218 0536 C302     		.2byte	0x2c3
 1219 0538 76000000 		.4byte	0x76
 1220 053c 04       		.byte	0x4
 1221 053d 0C       		.uleb128 0xc
 1222 053e 261E0000 		.4byte	.LASF159
 1223 0542 05       		.byte	0x5
 1224 0543 C902     		.2byte	0x2c9
 1225 0545 76000000 		.4byte	0x76
 1226 0549 06       		.byte	0x6
 1227 054a 00       		.byte	0
 1228 054b 0A       		.uleb128 0xa
 1229 054c 17160000 		.4byte	.LASF160
 1230 0550 05       		.byte	0x5
 1231 0551 CB02     		.2byte	0x2cb
 1232 0553 0D050000 		.4byte	0x50d
 1233 0557 07       		.uleb128 0x7
 1234 0558 01       		.byte	0x1
 1235 0559 06       		.byte	0x6
ARM GAS  C:\Users\Alan\AppData\Local\Temp\ccbjvqhO.s 			page 55


 1236 055a 4E       		.byte	0x4e
 1237 055b 11060000 		.4byte	0x611
 1238 055f 08       		.uleb128 0x8
 1239 0560 B00A0000 		.4byte	.LASF161
 1240 0564 01       		.sleb128 1
 1241 0565 08       		.uleb128 0x8
 1242 0566 56090000 		.4byte	.LASF162
 1243 056a 02       		.sleb128 2
 1244 056b 08       		.uleb128 0x8
 1245 056c 80040000 		.4byte	.LASF163
 1246 0570 03       		.sleb128 3
 1247 0571 08       		.uleb128 0x8
 1248 0572 AC060000 		.4byte	.LASF164
 1249 0576 04       		.sleb128 4
 1250 0577 08       		.uleb128 0x8
 1251 0578 D2150000 		.4byte	.LASF165
 1252 057c 05       		.sleb128 5
 1253 057d 08       		.uleb128 0x8
 1254 057e 40150000 		.4byte	.LASF166
 1255 0582 06       		.sleb128 6
 1256 0583 08       		.uleb128 0x8
 1257 0584 02050000 		.4byte	.LASF167
 1258 0588 07       		.sleb128 7
 1259 0589 08       		.uleb128 0x8
 1260 058a EA140000 		.4byte	.LASF168
 1261 058e 08       		.sleb128 8
 1262 058f 08       		.uleb128 0x8
 1263 0590 FA020000 		.4byte	.LASF169
 1264 0594 09       		.sleb128 9
 1265 0595 08       		.uleb128 0x8
 1266 0596 260D0000 		.4byte	.LASF170
 1267 059a 0A       		.sleb128 10
 1268 059b 08       		.uleb128 0x8
 1269 059c 611B0000 		.4byte	.LASF171
 1270 05a0 0B       		.sleb128 11
 1271 05a1 08       		.uleb128 0x8
 1272 05a2 A7170000 		.4byte	.LASF172
 1273 05a6 0C       		.sleb128 12
 1274 05a7 08       		.uleb128 0x8
 1275 05a8 1E060000 		.4byte	.LASF173
 1276 05ac 0D       		.sleb128 13
 1277 05ad 08       		.uleb128 0x8
 1278 05ae 96140000 		.4byte	.LASF174
 1279 05b2 0E       		.sleb128 14
 1280 05b3 08       		.uleb128 0x8
 1281 05b4 6D020000 		.4byte	.LASF175
 1282 05b8 0F       		.sleb128 15
 1283 05b9 08       		.uleb128 0x8
 1284 05ba B21D0000 		.4byte	.LASF176
 1285 05be 10       		.sleb128 16
 1286 05bf 08       		.uleb128 0x8
 1287 05c0 980C0000 		.4byte	.LASF177
 1288 05c4 11       		.sleb128 17
 1289 05c5 08       		.uleb128 0x8
 1290 05c6 8D190000 		.4byte	.LASF178
 1291 05ca 12       		.sleb128 18
 1292 05cb 08       		.uleb128 0x8
ARM GAS  C:\Users\Alan\AppData\Local\Temp\ccbjvqhO.s 			page 56


 1293 05cc 9E080000 		.4byte	.LASF179
 1294 05d0 13       		.sleb128 19
 1295 05d1 08       		.uleb128 0x8
 1296 05d2 00010000 		.4byte	.LASF180
 1297 05d6 D200     		.sleb128 82
 1298 05d8 08       		.uleb128 0x8
 1299 05d9 86010000 		.4byte	.LASF181
 1300 05dd 16       		.sleb128 22
 1301 05de 08       		.uleb128 0x8
 1302 05df 7D130000 		.4byte	.LASF182
 1303 05e3 17       		.sleb128 23
 1304 05e4 08       		.uleb128 0x8
 1305 05e5 B41C0000 		.4byte	.LASF183
 1306 05e9 18       		.sleb128 24
 1307 05ea 08       		.uleb128 0x8
 1308 05eb AC0B0000 		.4byte	.LASF184
 1309 05ef 19       		.sleb128 25
 1310 05f0 08       		.uleb128 0x8
 1311 05f1 B70D0000 		.4byte	.LASF185
 1312 05f5 1B       		.sleb128 27
 1313 05f6 08       		.uleb128 0x8
 1314 05f7 C5070000 		.4byte	.LASF186
 1315 05fb 1D       		.sleb128 29
 1316 05fc 08       		.uleb128 0x8
 1317 05fd 3F000000 		.4byte	.LASF187
 1318 0601 1E       		.sleb128 30
 1319 0602 08       		.uleb128 0x8
 1320 0603 4B0B0000 		.4byte	.LASF188
 1321 0607 D201     		.sleb128 210
 1322 0609 08       		.uleb128 0x8
 1323 060a 9E160000 		.4byte	.LASF189
 1324 060e FF01     		.sleb128 255
 1325 0610 00       		.byte	0
 1326 0611 07       		.uleb128 0x7
 1327 0612 01       		.byte	0x1
 1328 0613 06       		.byte	0x6
 1329 0614 AA       		.byte	0xaa
 1330 0615 04070000 		.4byte	0x704
 1331 0619 08       		.uleb128 0x8
 1332 061a 1E170000 		.4byte	.LASF190
 1333 061e 00       		.sleb128 0
 1334 061f 08       		.uleb128 0x8
 1335 0620 5B160000 		.4byte	.LASF191
 1336 0624 01       		.sleb128 1
 1337 0625 08       		.uleb128 0x8
 1338 0626 3F010000 		.4byte	.LASF192
 1339 062a 02       		.sleb128 2
 1340 062b 08       		.uleb128 0x8
 1341 062c 2C1D0000 		.4byte	.LASF193
 1342 0630 03       		.sleb128 3
 1343 0631 08       		.uleb128 0x8
 1344 0632 6E050000 		.4byte	.LASF194
 1345 0636 04       		.sleb128 4
 1346 0637 08       		.uleb128 0x8
 1347 0638 A6120000 		.4byte	.LASF195
 1348 063c 05       		.sleb128 5
 1349 063d 08       		.uleb128 0x8
ARM GAS  C:\Users\Alan\AppData\Local\Temp\ccbjvqhO.s 			page 57


 1350 063e EB190000 		.4byte	.LASF196
 1351 0642 06       		.sleb128 6
 1352 0643 08       		.uleb128 0x8
 1353 0644 CC140000 		.4byte	.LASF197
 1354 0648 07       		.sleb128 7
 1355 0649 08       		.uleb128 0x8
 1356 064a 1F120000 		.4byte	.LASF198
 1357 064e 08       		.sleb128 8
 1358 064f 08       		.uleb128 0x8
 1359 0650 65100000 		.4byte	.LASF199
 1360 0654 09       		.sleb128 9
 1361 0655 08       		.uleb128 0x8
 1362 0656 9A130000 		.4byte	.LASF200
 1363 065a 0A       		.sleb128 10
 1364 065b 08       		.uleb128 0x8
 1365 065c 160A0000 		.4byte	.LASF201
 1366 0660 0B       		.sleb128 11
 1367 0661 08       		.uleb128 0x8
 1368 0662 17110000 		.4byte	.LASF202
 1369 0666 0C       		.sleb128 12
 1370 0667 08       		.uleb128 0x8
 1371 0668 37060000 		.4byte	.LASF203
 1372 066c 0D       		.sleb128 13
 1373 066d 08       		.uleb128 0x8
 1374 066e 38090000 		.4byte	.LASF204
 1375 0672 0E       		.sleb128 14
 1376 0673 08       		.uleb128 0x8
 1377 0674 6B1D0000 		.4byte	.LASF205
 1378 0678 0F       		.sleb128 15
 1379 0679 08       		.uleb128 0x8
 1380 067a A3010000 		.4byte	.LASF206
 1381 067e 10       		.sleb128 16
 1382 067f 08       		.uleb128 0x8
 1383 0680 61010000 		.4byte	.LASF207
 1384 0684 11       		.sleb128 17
 1385 0685 08       		.uleb128 0x8
 1386 0686 E0090000 		.4byte	.LASF208
 1387 068a 8001     		.sleb128 128
 1388 068c 08       		.uleb128 0x8
 1389 068d 340C0000 		.4byte	.LASF209
 1390 0691 8001     		.sleb128 128
 1391 0693 08       		.uleb128 0x8
 1392 0694 B4190000 		.4byte	.LASF210
 1393 0698 8001     		.sleb128 128
 1394 069a 08       		.uleb128 0x8
 1395 069b 73170000 		.4byte	.LASF211
 1396 069f 8001     		.sleb128 128
 1397 06a1 08       		.uleb128 0x8
 1398 06a2 20130000 		.4byte	.LASF212
 1399 06a6 8001     		.sleb128 128
 1400 06a8 08       		.uleb128 0x8
 1401 06a9 D80C0000 		.4byte	.LASF213
 1402 06ad 8001     		.sleb128 128
 1403 06af 08       		.uleb128 0x8
 1404 06b0 1D090000 		.4byte	.LASF214
 1405 06b4 8001     		.sleb128 128
 1406 06b6 08       		.uleb128 0x8
ARM GAS  C:\Users\Alan\AppData\Local\Temp\ccbjvqhO.s 			page 58


 1407 06b7 670B0000 		.4byte	.LASF215
 1408 06bb 8101     		.sleb128 129
 1409 06bd 08       		.uleb128 0x8
 1410 06be 82180000 		.4byte	.LASF216
 1411 06c2 8101     		.sleb128 129
 1412 06c4 08       		.uleb128 0x8
 1413 06c5 12000000 		.4byte	.LASF217
 1414 06c9 8101     		.sleb128 129
 1415 06cb 08       		.uleb128 0x8
 1416 06cc 241B0000 		.4byte	.LASF218
 1417 06d0 A001     		.sleb128 160
 1418 06d2 08       		.uleb128 0x8
 1419 06d3 8A0E0000 		.4byte	.LASF219
 1420 06d7 A001     		.sleb128 160
 1421 06d9 08       		.uleb128 0x8
 1422 06da 2A040000 		.4byte	.LASF220
 1423 06de A101     		.sleb128 161
 1424 06e0 08       		.uleb128 0x8
 1425 06e1 C41A0000 		.4byte	.LASF221
 1426 06e5 A201     		.sleb128 162
 1427 06e7 08       		.uleb128 0x8
 1428 06e8 7D0A0000 		.4byte	.LASF222
 1429 06ec A301     		.sleb128 163
 1430 06ee 08       		.uleb128 0x8
 1431 06ef 1C070000 		.4byte	.LASF223
 1432 06f3 FD01     		.sleb128 253
 1433 06f5 08       		.uleb128 0x8
 1434 06f6 55110000 		.4byte	.LASF224
 1435 06fa FE01     		.sleb128 254
 1436 06fc 08       		.uleb128 0x8
 1437 06fd 24150000 		.4byte	.LASF225
 1438 0701 FF01     		.sleb128 255
 1439 0703 00       		.byte	0
 1440 0704 0A       		.uleb128 0xa
 1441 0705 4B170000 		.4byte	.LASF226
 1442 0709 06       		.byte	0x6
 1443 070a 5901     		.2byte	0x159
 1444 070c 11060000 		.4byte	0x611
 1445 0710 0A       		.uleb128 0xa
 1446 0711 D3160000 		.4byte	.LASF227
 1447 0715 06       		.byte	0x6
 1448 0716 8801     		.2byte	0x188
 1449 0718 76000000 		.4byte	0x76
 1450 071c 0B       		.uleb128 0xb
 1451 071d 02       		.byte	0x2
 1452 071e 06       		.byte	0x6
 1453 071f 9201     		.2byte	0x192
 1454 0721 40070000 		.4byte	0x740
 1455 0725 0C       		.uleb128 0xc
 1456 0726 F7030000 		.4byte	.LASF228
 1457 072a 06       		.byte	0x6
 1458 072b 9901     		.2byte	0x199
 1459 072d 6B000000 		.4byte	0x6b
 1460 0731 00       		.byte	0
 1461 0732 0C       		.uleb128 0xc
 1462 0733 CF1D0000 		.4byte	.LASF229
 1463 0737 06       		.byte	0x6
ARM GAS  C:\Users\Alan\AppData\Local\Temp\ccbjvqhO.s 			page 59


 1464 0738 9F01     		.2byte	0x19f
 1465 073a 6B000000 		.4byte	0x6b
 1466 073e 01       		.byte	0x1
 1467 073f 00       		.byte	0
 1468 0740 0A       		.uleb128 0xa
 1469 0741 5F030000 		.4byte	.LASF230
 1470 0745 06       		.byte	0x6
 1471 0746 A101     		.2byte	0x1a1
 1472 0748 1C070000 		.4byte	0x71c
 1473 074c 0B       		.uleb128 0xb
 1474 074d 08       		.byte	0x8
 1475 074e 06       		.byte	0x6
 1476 074f BD01     		.2byte	0x1bd
 1477 0751 7D070000 		.4byte	0x77d
 1478 0755 10       		.uleb128 0x10
 1479 0756 76616C00 		.ascii	"val\000"
 1480 075a 06       		.byte	0x6
 1481 075b C001     		.2byte	0x1c0
 1482 075d 07050000 		.4byte	0x507
 1483 0761 00       		.byte	0
 1484 0762 10       		.uleb128 0x10
 1485 0763 6C656E00 		.ascii	"len\000"
 1486 0767 06       		.byte	0x6
 1487 0768 C301     		.2byte	0x1c3
 1488 076a 76000000 		.4byte	0x76
 1489 076e 04       		.byte	0x4
 1490 076f 0C       		.uleb128 0xc
 1491 0770 A81D0000 		.4byte	.LASF231
 1492 0774 06       		.byte	0x6
 1493 0775 CA01     		.2byte	0x1ca
 1494 0777 76000000 		.4byte	0x76
 1495 077b 06       		.byte	0x6
 1496 077c 00       		.byte	0
 1497 077d 0A       		.uleb128 0xa
 1498 077e 5A020000 		.4byte	.LASF232
 1499 0782 06       		.byte	0x6
 1500 0783 CC01     		.2byte	0x1cc
 1501 0785 4C070000 		.4byte	0x74c
 1502 0789 0B       		.uleb128 0xb
 1503 078a 0C       		.byte	0xc
 1504 078b 06       		.byte	0x6
 1505 078c CF01     		.2byte	0x1cf
 1506 078e AD070000 		.4byte	0x7ad
 1507 0792 0C       		.uleb128 0xc
 1508 0793 32170000 		.4byte	.LASF233
 1509 0797 06       		.byte	0x6
 1510 0798 D201     		.2byte	0x1d2
 1511 079a 7D070000 		.4byte	0x77d
 1512 079e 00       		.byte	0
 1513 079f 0C       		.uleb128 0xc
 1514 07a0 49120000 		.4byte	.LASF234
 1515 07a4 06       		.byte	0x6
 1516 07a5 D501     		.2byte	0x1d5
 1517 07a7 10070000 		.4byte	0x710
 1518 07ab 08       		.byte	0x8
 1519 07ac 00       		.byte	0
 1520 07ad 0A       		.uleb128 0xa
ARM GAS  C:\Users\Alan\AppData\Local\Temp\ccbjvqhO.s 			page 60


 1521 07ae D9050000 		.4byte	.LASF235
 1522 07b2 06       		.byte	0x6
 1523 07b3 D701     		.2byte	0x1d7
 1524 07b5 89070000 		.4byte	0x789
 1525 07b9 0B       		.uleb128 0xb
 1526 07ba 04       		.byte	0x4
 1527 07bb 06       		.byte	0x6
 1528 07bc E501     		.2byte	0x1e5
 1529 07be DD070000 		.4byte	0x7dd
 1530 07c2 0C       		.uleb128 0xc
 1531 07c3 E4170000 		.4byte	.LASF236
 1532 07c7 06       		.byte	0x6
 1533 07c8 E801     		.2byte	0x1e8
 1534 07ca 40070000 		.4byte	0x740
 1535 07ce 00       		.byte	0
 1536 07cf 10       		.uleb128 0x10
 1537 07d0 6D747500 		.ascii	"mtu\000"
 1538 07d4 06       		.byte	0x6
 1539 07d5 EB01     		.2byte	0x1eb
 1540 07d7 76000000 		.4byte	0x76
 1541 07db 02       		.byte	0x2
 1542 07dc 00       		.byte	0
 1543 07dd 0A       		.uleb128 0xa
 1544 07de D1120000 		.4byte	.LASF237
 1545 07e2 06       		.byte	0x6
 1546 07e3 ED01     		.2byte	0x1ed
 1547 07e5 B9070000 		.4byte	0x7b9
 1548 07e9 11       		.uleb128 0x11
 1549 07ea 04       		.byte	0x4
 1550 07eb 07       		.byte	0x7
 1551 07ec 3A       		.byte	0x3a
 1552 07ed 16080000 		.4byte	0x816
 1553 07f1 12       		.uleb128 0x12
 1554 07f2 49120000 		.4byte	.LASF234
 1555 07f6 07       		.byte	0x7
 1556 07f7 3D       		.byte	0x3d
 1557 07f8 10070000 		.4byte	0x710
 1558 07fc 00       		.byte	0
 1559 07fd 12       		.uleb128 0x12
 1560 07fe 18120000 		.4byte	.LASF238
 1561 0802 07       		.byte	0x7
 1562 0803 43       		.byte	0x43
 1563 0804 6B000000 		.4byte	0x6b
 1564 0808 02       		.byte	0x2
 1565 0809 12       		.uleb128 0x12
 1566 080a 04080000 		.4byte	.LASF239
 1567 080e 07       		.byte	0x7
 1568 080f 46       		.byte	0x46
 1569 0810 04070000 		.4byte	0x704
 1570 0814 03       		.byte	0x3
 1571 0815 00       		.byte	0
 1572 0816 04       		.uleb128 0x4
 1573 0817 81070000 		.4byte	.LASF240
 1574 081b 07       		.byte	0x7
 1575 081c 48       		.byte	0x48
 1576 081d E9070000 		.4byte	0x7e9
 1577 0821 11       		.uleb128 0x11
ARM GAS  C:\Users\Alan\AppData\Local\Temp\ccbjvqhO.s 			page 61


 1578 0822 10       		.byte	0x10
 1579 0823 07       		.byte	0x7
 1580 0824 8A       		.byte	0x8a
 1581 0825 42080000 		.4byte	0x842
 1582 0829 12       		.uleb128 0x12
 1583 082a E4170000 		.4byte	.LASF236
 1584 082e 07       		.byte	0x7
 1585 082f 8D       		.byte	0x8d
 1586 0830 40070000 		.4byte	0x740
 1587 0834 00       		.byte	0
 1588 0835 12       		.uleb128 0x12
 1589 0836 D6170000 		.4byte	.LASF241
 1590 083a 07       		.byte	0x7
 1591 083b 90       		.byte	0x90
 1592 083c AD070000 		.4byte	0x7ad
 1593 0840 04       		.byte	0x4
 1594 0841 00       		.byte	0
 1595 0842 04       		.uleb128 0x4
 1596 0843 5C120000 		.4byte	.LASF242
 1597 0847 07       		.byte	0x7
 1598 0848 92       		.byte	0x92
 1599 0849 21080000 		.4byte	0x821
 1600 084d 0A       		.uleb128 0xa
 1601 084e 16030000 		.4byte	.LASF243
 1602 0852 08       		.byte	0x8
 1603 0853 4101     		.2byte	0x141
 1604 0855 59080000 		.4byte	0x859
 1605 0859 0F       		.uleb128 0xf
 1606 085a 04       		.byte	0x4
 1607 085b 5F080000 		.4byte	0x85f
 1608 085f 13       		.uleb128 0x13
 1609 0860 6F080000 		.4byte	0x86f
 1610 0864 14       		.uleb128 0x14
 1611 0865 81000000 		.4byte	0x81
 1612 0869 14       		.uleb128 0x14
 1613 086a AD000000 		.4byte	0xad
 1614 086e 00       		.byte	0
 1615 086f 15       		.uleb128 0x15
 1616 0870 8D01     		.2byte	0x18d
 1617 0872 09       		.byte	0x9
 1618 0873 9B       		.byte	0x9b
 1619 0874 AC080000 		.4byte	0x8ac
 1620 0878 12       		.uleb128 0x12
 1621 0879 260C0000 		.4byte	.LASF244
 1622 087d 09       		.byte	0x9
 1623 087e 9D       		.byte	0x9d
 1624 087f AC080000 		.4byte	0x8ac
 1625 0883 00       		.byte	0
 1626 0884 16       		.uleb128 0x16
 1627 0885 320B0000 		.4byte	.LASF245
 1628 0889 09       		.byte	0x9
 1629 088a 9E       		.byte	0x9e
 1630 088b BD080000 		.4byte	0x8bd
 1631 088f 6D01     		.2byte	0x16d
 1632 0891 16       		.uleb128 0x16
 1633 0892 BA1A0000 		.4byte	.LASF246
 1634 0896 09       		.byte	0x9
ARM GAS  C:\Users\Alan\AppData\Local\Temp\ccbjvqhO.s 			page 62


 1635 0897 9F       		.byte	0x9f
 1636 0898 6B000000 		.4byte	0x6b
 1637 089c 8B01     		.2byte	0x18b
 1638 089e 16       		.uleb128 0x16
 1639 089f E30A0000 		.4byte	.LASF247
 1640 08a3 09       		.byte	0x9
 1641 08a4 A0       		.byte	0xa0
 1642 08a5 6B000000 		.4byte	0x6b
 1643 08a9 8C01     		.2byte	0x18c
 1644 08ab 00       		.byte	0
 1645 08ac 0D       		.uleb128 0xd
 1646 08ad 6B000000 		.4byte	0x6b
 1647 08b1 BD080000 		.4byte	0x8bd
 1648 08b5 17       		.uleb128 0x17
 1649 08b6 A6000000 		.4byte	0xa6
 1650 08ba 6C01     		.2byte	0x16c
 1651 08bc 00       		.byte	0
 1652 08bd 0D       		.uleb128 0xd
 1653 08be 6B000000 		.4byte	0x6b
 1654 08c2 D3080000 		.4byte	0x8d3
 1655 08c6 0E       		.uleb128 0xe
 1656 08c7 A6000000 		.4byte	0xa6
 1657 08cb 04       		.byte	0x4
 1658 08cc 0E       		.uleb128 0xe
 1659 08cd A6000000 		.4byte	0xa6
 1660 08d1 05       		.byte	0x5
 1661 08d2 00       		.byte	0
 1662 08d3 04       		.uleb128 0x4
 1663 08d4 AD0F0000 		.4byte	.LASF248
 1664 08d8 09       		.byte	0x9
 1665 08d9 A1       		.byte	0xa1
 1666 08da 6F080000 		.4byte	0x86f
 1667 08de 09       		.uleb128 0x9
 1668 08df 01       		.byte	0x1
 1669 08e0 0A       		.byte	0xa
 1670 08e1 3707     		.2byte	0x737
 1671 08e3 06090000 		.4byte	0x906
 1672 08e7 08       		.uleb128 0x8
 1673 08e8 6D070000 		.4byte	.LASF249
 1674 08ec 00       		.sleb128 0
 1675 08ed 08       		.uleb128 0x8
 1676 08ee 040F0000 		.4byte	.LASF250
 1677 08f2 01       		.sleb128 1
 1678 08f3 08       		.uleb128 0x8
 1679 08f4 921D0000 		.4byte	.LASF251
 1680 08f8 02       		.sleb128 2
 1681 08f9 08       		.uleb128 0x8
 1682 08fa CB030000 		.4byte	.LASF252
 1683 08fe 03       		.sleb128 3
 1684 08ff 08       		.uleb128 0x8
 1685 0900 C9180000 		.4byte	.LASF253
 1686 0904 04       		.sleb128 4
 1687 0905 00       		.byte	0
 1688 0906 0A       		.uleb128 0xa
 1689 0907 4B1A0000 		.4byte	.LASF254
 1690 090b 0A       		.byte	0xa
 1691 090c 4507     		.2byte	0x745
ARM GAS  C:\Users\Alan\AppData\Local\Temp\ccbjvqhO.s 			page 63


 1692 090e DE080000 		.4byte	0x8de
 1693 0912 18       		.uleb128 0x18
 1694 0913 30100000 		.4byte	.LASF289
 1695 0917 01       		.byte	0x1
 1696 0918 8104     		.2byte	0x481
 1697 091a 00000000 		.4byte	.LFB4
 1698 091e 10000000 		.4byte	.LFE4-.LFB4
 1699 0922 01       		.uleb128 0x1
 1700 0923 9C       		.byte	0x9c
 1701 0924 19       		.uleb128 0x19
 1702 0925 EA130000 		.4byte	.LASF290
 1703 0929 01       		.byte	0x1
 1704 092a 1D05     		.2byte	0x51d
 1705 092c 6B000000 		.4byte	0x6b
 1706 0930 00000000 		.4byte	.LFB7
 1707 0934 24000000 		.4byte	.LFE7-.LFB7
 1708 0938 01       		.uleb128 0x1
 1709 0939 9C       		.byte	0x9c
 1710 093a 6D090000 		.4byte	0x96d
 1711 093e 1A       		.uleb128 0x1a
 1712 093f 51100000 		.4byte	.LASF256
 1713 0943 01       		.byte	0x1
 1714 0944 1D05     		.2byte	0x51d
 1715 0946 6D090000 		.4byte	0x96d
 1716 094a 00000000 		.4byte	.LLST0
 1717 094e 1B       		.uleb128 0x1b
 1718 094f 6900     		.ascii	"i\000"
 1719 0951 01       		.byte	0x1
 1720 0952 1F05     		.2byte	0x51f
 1721 0954 6B000000 		.4byte	0x6b
 1722 0958 53000000 		.4byte	.LLST1
 1723 095c 1C       		.uleb128 0x1c
 1724 095d 8B160000 		.4byte	.LASF255
 1725 0961 01       		.byte	0x1
 1726 0962 2005     		.2byte	0x520
 1727 0964 6B000000 		.4byte	0x6b
 1728 0968 7C000000 		.4byte	.LLST2
 1729 096c 00       		.byte	0
 1730 096d 0F       		.uleb128 0xf
 1731 096e 04       		.byte	0x4
 1732 096f 73090000 		.4byte	0x973
 1733 0973 1D       		.uleb128 0x1d
 1734 0974 CF030000 		.4byte	0x3cf
 1735 0978 1E       		.uleb128 0x1e
 1736 0979 84000000 		.4byte	.LASF291
 1737 097d 01       		.byte	0x1
 1738 097e E3       		.byte	0xe3
 1739 097f 00000000 		.4byte	.LFB2
 1740 0983 38000000 		.4byte	.LFE2-.LFB2
 1741 0987 01       		.uleb128 0x1
 1742 0988 9C       		.byte	0x9c
 1743 0989 F6090000 		.4byte	0x9f6
 1744 098d 1F       		.uleb128 0x1f
 1745 098e 9A000000 		.4byte	.LASF257
 1746 0992 01       		.byte	0x1
 1747 0993 E3       		.byte	0xe3
 1748 0994 F6090000 		.4byte	0x9f6
ARM GAS  C:\Users\Alan\AppData\Local\Temp\ccbjvqhO.s 			page 64


 1749 0998 9B000000 		.4byte	.LLST3
 1750 099c 20       		.uleb128 0x20
 1751 099d 241D0000 		.4byte	.LASF258
 1752 09a1 01       		.byte	0x1
 1753 09a2 E5       		.byte	0xe5
 1754 09a3 04070000 		.4byte	0x704
 1755 09a7 C7000000 		.4byte	.LLST4
 1756 09ab 21       		.uleb128 0x21
 1757 09ac 16000000 		.4byte	.LBB2
 1758 09b0 12000000 		.4byte	.LBE2-.LBB2
 1759 09b4 D8090000 		.4byte	0x9d8
 1760 09b8 22       		.uleb128 0x22
 1761 09b9 4E130000 		.4byte	.LASF259
 1762 09bd 01       		.byte	0x1
 1763 09be 8701     		.2byte	0x187
 1764 09c0 16080000 		.4byte	0x816
 1765 09c4 02       		.uleb128 0x2
 1766 09c5 91       		.byte	0x91
 1767 09c6 74       		.sleb128 -12
 1768 09c7 23       		.uleb128 0x23
 1769 09c8 28000000 		.4byte	.LVL13
 1770 09cc 780C0000 		.4byte	0xc78
 1771 09d0 24       		.uleb128 0x24
 1772 09d1 01       		.uleb128 0x1
 1773 09d2 51       		.byte	0x51
 1774 09d3 02       		.uleb128 0x2
 1775 09d4 91       		.byte	0x91
 1776 09d5 74       		.sleb128 -12
 1777 09d6 00       		.byte	0
 1778 09d7 00       		.byte	0
 1779 09d8 25       		.uleb128 0x25
 1780 09d9 0A000000 		.4byte	.LVL11
 1781 09dd 990C0000 		.4byte	0xc99
 1782 09e1 EC090000 		.4byte	0x9ec
 1783 09e5 24       		.uleb128 0x24
 1784 09e6 01       		.uleb128 0x1
 1785 09e7 50       		.byte	0x50
 1786 09e8 02       		.uleb128 0x2
 1787 09e9 74       		.byte	0x74
 1788 09ea 00       		.sleb128 0
 1789 09eb 00       		.byte	0
 1790 09ec 26       		.uleb128 0x26
 1791 09ed 30000000 		.4byte	.LVL16
 1792 09f1 AE0C0000 		.4byte	0xcae
 1793 09f5 00       		.byte	0
 1794 09f6 0F       		.uleb128 0xf
 1795 09f7 04       		.byte	0x4
 1796 09f8 42080000 		.4byte	0x842
 1797 09fc 27       		.uleb128 0x27
 1798 09fd DE060000 		.4byte	.LASF292
 1799 0a01 01       		.byte	0x1
 1800 0a02 7905     		.2byte	0x579
 1801 0a04 00000000 		.4byte	.LFB10
 1802 0a08 14020000 		.4byte	.LFE10-.LFB10
 1803 0a0c 01       		.uleb128 0x1
 1804 0a0d 9C       		.byte	0x9c
 1805 0a0e BA0B0000 		.4byte	0xbba
ARM GAS  C:\Users\Alan\AppData\Local\Temp\ccbjvqhO.s 			page 65


 1806 0a12 1A       		.uleb128 0x1a
 1807 0a13 291C0000 		.4byte	.LASF260
 1808 0a17 01       		.byte	0x1
 1809 0a18 7905     		.2byte	0x579
 1810 0a1a 6B000000 		.4byte	0x6b
 1811 0a1e F1000000 		.4byte	.LLST5
 1812 0a22 1A       		.uleb128 0x1a
 1813 0a23 9A000000 		.4byte	.LASF257
 1814 0a27 01       		.byte	0x1
 1815 0a28 7905     		.2byte	0x579
 1816 0a2a AD000000 		.4byte	0xad
 1817 0a2e A8010000 		.4byte	.LLST6
 1818 0a32 21       		.uleb128 0x21
 1819 0a33 5A000000 		.4byte	.LBB3
 1820 0a37 1C000000 		.4byte	.LBE3-.LBB3
 1821 0a3b 730A0000 		.4byte	0xa73
 1822 0a3f 22       		.uleb128 0x22
 1823 0a40 EF160000 		.4byte	.LASF261
 1824 0a44 01       		.byte	0x1
 1825 0a45 8605     		.2byte	0x586
 1826 0a47 8F030000 		.4byte	0x38f
 1827 0a4b 02       		.uleb128 0x2
 1828 0a4c 91       		.byte	0x91
 1829 0a4d 64       		.sleb128 -28
 1830 0a4e 25       		.uleb128 0x25
 1831 0a4f 6A000000 		.4byte	.LVL21
 1832 0a53 C40C0000 		.4byte	0xcc4
 1833 0a57 620A0000 		.4byte	0xa62
 1834 0a5b 24       		.uleb128 0x24
 1835 0a5c 01       		.uleb128 0x1
 1836 0a5d 50       		.byte	0x50
 1837 0a5e 02       		.uleb128 0x2
 1838 0a5f 76       		.byte	0x76
 1839 0a60 00       		.sleb128 0
 1840 0a61 00       		.byte	0
 1841 0a62 23       		.uleb128 0x23
 1842 0a63 76000000 		.4byte	.LVL22
 1843 0a67 C40C0000 		.4byte	0xcc4
 1844 0a6b 24       		.uleb128 0x24
 1845 0a6c 01       		.uleb128 0x1
 1846 0a6d 50       		.byte	0x50
 1847 0a6e 02       		.uleb128 0x2
 1848 0a6f 76       		.byte	0x76
 1849 0a70 00       		.sleb128 0
 1850 0a71 00       		.byte	0
 1851 0a72 00       		.byte	0
 1852 0a73 21       		.uleb128 0x21
 1853 0a74 94010000 		.4byte	.LBB4
 1854 0a78 0E000000 		.4byte	.LBE4-.LBB4
 1855 0a7c 9A0A0000 		.4byte	0xa9a
 1856 0a80 1C       		.uleb128 0x1c
 1857 0a81 1D0F0000 		.4byte	.LASF262
 1858 0a85 01       		.byte	0x1
 1859 0a86 5C06     		.2byte	0x65c
 1860 0a88 76000000 		.4byte	0x76
 1861 0a8c D4010000 		.4byte	.LLST7
 1862 0a90 26       		.uleb128 0x26
ARM GAS  C:\Users\Alan\AppData\Local\Temp\ccbjvqhO.s 			page 66


 1863 0a91 A2010000 		.4byte	.LVL43
 1864 0a95 E00C0000 		.4byte	0xce0
 1865 0a99 00       		.byte	0
 1866 0a9a 25       		.uleb128 0x25
 1867 0a9b 80000000 		.4byte	.LVL23
 1868 0a9f 24090000 		.4byte	0x924
 1869 0aa3 AE0A0000 		.4byte	0xaae
 1870 0aa7 24       		.uleb128 0x24
 1871 0aa8 01       		.uleb128 0x1
 1872 0aa9 50       		.byte	0x50
 1873 0aaa 02       		.uleb128 0x2
 1874 0aab 76       		.byte	0x76
 1875 0aac 00       		.sleb128 0
 1876 0aad 00       		.byte	0
 1877 0aae 25       		.uleb128 0x25
 1878 0aaf 8A000000 		.4byte	.LVL24
 1879 0ab3 FB0C0000 		.4byte	0xcfb
 1880 0ab7 C20A0000 		.4byte	0xac2
 1881 0abb 24       		.uleb128 0x24
 1882 0abc 01       		.uleb128 0x1
 1883 0abd 50       		.byte	0x50
 1884 0abe 02       		.uleb128 0x2
 1885 0abf 76       		.byte	0x76
 1886 0ac0 00       		.sleb128 0
 1887 0ac1 00       		.byte	0
 1888 0ac2 25       		.uleb128 0x25
 1889 0ac3 94000000 		.4byte	.LVL25
 1890 0ac7 110D0000 		.4byte	0xd11
 1891 0acb D50A0000 		.4byte	0xad5
 1892 0acf 24       		.uleb128 0x24
 1893 0ad0 01       		.uleb128 0x1
 1894 0ad1 51       		.byte	0x51
 1895 0ad2 01       		.uleb128 0x1
 1896 0ad3 30       		.byte	0x30
 1897 0ad4 00       		.byte	0
 1898 0ad5 25       		.uleb128 0x25
 1899 0ad6 9C000000 		.4byte	.LVL26
 1900 0ada 110D0000 		.4byte	0xd11
 1901 0ade E80A0000 		.4byte	0xae8
 1902 0ae2 24       		.uleb128 0x24
 1903 0ae3 01       		.uleb128 0x1
 1904 0ae4 51       		.byte	0x51
 1905 0ae5 01       		.uleb128 0x1
 1906 0ae6 31       		.byte	0x31
 1907 0ae7 00       		.byte	0
 1908 0ae8 25       		.uleb128 0x25
 1909 0ae9 B8000000 		.4byte	.LVL27
 1910 0aed FB0C0000 		.4byte	0xcfb
 1911 0af1 FC0A0000 		.4byte	0xafc
 1912 0af5 24       		.uleb128 0x24
 1913 0af6 01       		.uleb128 0x1
 1914 0af7 50       		.byte	0x50
 1915 0af8 02       		.uleb128 0x2
 1916 0af9 76       		.byte	0x76
 1917 0afa 00       		.sleb128 0
 1918 0afb 00       		.byte	0
 1919 0afc 25       		.uleb128 0x25
ARM GAS  C:\Users\Alan\AppData\Local\Temp\ccbjvqhO.s 			page 67


 1920 0afd C0000000 		.4byte	.LVL28
 1921 0b01 110D0000 		.4byte	0xd11
 1922 0b05 150B0000 		.4byte	0xb15
 1923 0b09 24       		.uleb128 0x24
 1924 0b0a 01       		.uleb128 0x1
 1925 0b0b 51       		.byte	0x51
 1926 0b0c 01       		.uleb128 0x1
 1927 0b0d 30       		.byte	0x30
 1928 0b0e 24       		.uleb128 0x24
 1929 0b0f 01       		.uleb128 0x1
 1930 0b10 50       		.byte	0x50
 1931 0b11 02       		.uleb128 0x2
 1932 0b12 76       		.byte	0x76
 1933 0b13 00       		.sleb128 0
 1934 0b14 00       		.byte	0
 1935 0b15 25       		.uleb128 0x25
 1936 0b16 C8000000 		.4byte	.LVL29
 1937 0b1a 110D0000 		.4byte	0xd11
 1938 0b1e 2E0B0000 		.4byte	0xb2e
 1939 0b22 24       		.uleb128 0x24
 1940 0b23 01       		.uleb128 0x1
 1941 0b24 51       		.byte	0x51
 1942 0b25 01       		.uleb128 0x1
 1943 0b26 31       		.byte	0x31
 1944 0b27 24       		.uleb128 0x24
 1945 0b28 01       		.uleb128 0x1
 1946 0b29 50       		.byte	0x50
 1947 0b2a 02       		.uleb128 0x2
 1948 0b2b 76       		.byte	0x76
 1949 0b2c 00       		.sleb128 0
 1950 0b2d 00       		.byte	0
 1951 0b2e 25       		.uleb128 0x25
 1952 0b2f CE000000 		.4byte	.LVL30
 1953 0b33 280D0000 		.4byte	0xd28
 1954 0b37 410B0000 		.4byte	0xb41
 1955 0b3b 24       		.uleb128 0x24
 1956 0b3c 01       		.uleb128 0x1
 1957 0b3d 50       		.byte	0x50
 1958 0b3e 01       		.uleb128 0x1
 1959 0b3f 30       		.byte	0x30
 1960 0b40 00       		.byte	0
 1961 0b41 25       		.uleb128 0x25
 1962 0b42 FE000000 		.4byte	.LVL33
 1963 0b46 3E0D0000 		.4byte	0xd3e
 1964 0b4a 580B0000 		.4byte	0xb58
 1965 0b4e 24       		.uleb128 0x24
 1966 0b4f 01       		.uleb128 0x1
 1967 0b50 51       		.byte	0x51
 1968 0b51 05       		.uleb128 0x5
 1969 0b52 03       		.byte	0x3
 1970 0b53 00000000 		.4byte	.LANCHOR0
 1971 0b57 00       		.byte	0
 1972 0b58 25       		.uleb128 0x25
 1973 0b59 74010000 		.4byte	.LVL36
 1974 0b5d 5F0D0000 		.4byte	0xd5f
 1975 0b61 770B0000 		.4byte	0xb77
 1976 0b65 24       		.uleb128 0x24
ARM GAS  C:\Users\Alan\AppData\Local\Temp\ccbjvqhO.s 			page 68


 1977 0b66 01       		.uleb128 0x1
 1978 0b67 52       		.byte	0x52
 1979 0b68 01       		.uleb128 0x1
 1980 0b69 32       		.byte	0x32
 1981 0b6a 24       		.uleb128 0x24
 1982 0b6b 01       		.uleb128 0x1
 1983 0b6c 51       		.byte	0x51
 1984 0b6d 02       		.uleb128 0x2
 1985 0b6e 75       		.byte	0x75
 1986 0b6f 00       		.sleb128 0
 1987 0b70 24       		.uleb128 0x24
 1988 0b71 01       		.uleb128 0x1
 1989 0b72 50       		.byte	0x50
 1990 0b73 02       		.uleb128 0x2
 1991 0b74 76       		.byte	0x76
 1992 0b75 00       		.sleb128 0
 1993 0b76 00       		.byte	0
 1994 0b77 25       		.uleb128 0x25
 1995 0b78 8C010000 		.4byte	.LVL37
 1996 0b7c 5F0D0000 		.4byte	0xd5f
 1997 0b80 8A0B0000 		.4byte	0xb8a
 1998 0b84 24       		.uleb128 0x24
 1999 0b85 01       		.uleb128 0x1
 2000 0b86 52       		.byte	0x52
 2001 0b87 01       		.uleb128 0x1
 2002 0b88 36       		.byte	0x36
 2003 0b89 00       		.byte	0
 2004 0b8a 26       		.uleb128 0x26
 2005 0b8b 92010000 		.4byte	.LVL39
 2006 0b8f 12090000 		.4byte	0x912
 2007 0b93 25       		.uleb128 0x25
 2008 0b94 AA010000 		.4byte	.LVL46
 2009 0b98 78090000 		.4byte	0x978
 2010 0b9c A70B0000 		.4byte	0xba7
 2011 0ba0 24       		.uleb128 0x24
 2012 0ba1 01       		.uleb128 0x1
 2013 0ba2 50       		.byte	0x50
 2014 0ba3 02       		.uleb128 0x2
 2015 0ba4 75       		.byte	0x75
 2016 0ba5 00       		.sleb128 0
 2017 0ba6 00       		.byte	0
 2018 0ba7 28       		.uleb128 0x28
 2019 0ba8 D4010000 		.4byte	.LVL49
 2020 0bac 24       		.uleb128 0x24
 2021 0bad 01       		.uleb128 0x1
 2022 0bae 51       		.byte	0x51
 2023 0baf 02       		.uleb128 0x2
 2024 0bb0 75       		.byte	0x75
 2025 0bb1 00       		.sleb128 0
 2026 0bb2 24       		.uleb128 0x24
 2027 0bb3 01       		.uleb128 0x1
 2028 0bb4 50       		.byte	0x50
 2029 0bb5 02       		.uleb128 0x2
 2030 0bb6 74       		.byte	0x74
 2031 0bb7 00       		.sleb128 0
 2032 0bb8 00       		.byte	0
 2033 0bb9 00       		.byte	0
ARM GAS  C:\Users\Alan\AppData\Local\Temp\ccbjvqhO.s 			page 69


 2034 0bba 29       		.uleb128 0x29
 2035 0bbb 38170000 		.4byte	.LASF263
 2036 0bbf 08       		.byte	0x8
 2037 0bc0 CC01     		.2byte	0x1cc
 2038 0bc2 4D080000 		.4byte	0x84d
 2039 0bc6 2A       		.uleb128 0x2a
 2040 0bc7 AA090000 		.4byte	.LASF264
 2041 0bcb 01       		.byte	0x1
 2042 0bcc 42       		.byte	0x42
 2043 0bcd A1000000 		.4byte	0xa1
 2044 0bd1 05       		.uleb128 0x5
 2045 0bd2 03       		.byte	0x3
 2046 0bd3 00000000 		.4byte	cyBle_eventHandlerFlag
 2047 0bd7 29       		.uleb128 0x29
 2048 0bd8 5A050000 		.4byte	.LASF265
 2049 0bdc 08       		.byte	0x8
 2050 0bdd D401     		.2byte	0x1d4
 2051 0bdf CF030000 		.4byte	0x3cf
 2052 0be3 29       		.uleb128 0x29
 2053 0be4 180B0000 		.4byte	.LASF266
 2054 0be8 08       		.byte	0x8
 2055 0be9 D501     		.2byte	0x1d5
 2056 0beb EF0B0000 		.4byte	0xbef
 2057 0bef 0F       		.uleb128 0xf
 2058 0bf0 04       		.byte	0x4
 2059 0bf1 CF030000 		.4byte	0x3cf
 2060 0bf5 2A       		.uleb128 0x2a
 2061 0bf6 75190000 		.4byte	.LASF267
 2062 0bfa 01       		.byte	0x1
 2063 0bfb CC       		.byte	0xcc
 2064 0bfc FB040000 		.4byte	0x4fb
 2065 0c00 05       		.uleb128 0x5
 2066 0c01 03       		.byte	0x3
 2067 0c02 00000000 		.4byte	cyBle_authInfo
 2068 0c06 29       		.uleb128 0x29
 2069 0c07 2B180000 		.4byte	.LASF268
 2070 0c0b 08       		.byte	0x8
 2071 0c0c F601     		.2byte	0x1f6
 2072 0c0e 6B000000 		.4byte	0x6b
 2073 0c12 29       		.uleb128 0x29
 2074 0c13 00000000 		.4byte	.LASF269
 2075 0c17 08       		.byte	0x8
 2076 0c18 FC01     		.2byte	0x1fc
 2077 0c1a 6B000000 		.4byte	0x6b
 2078 0c1e 2B       		.uleb128 0x2b
 2079 0c1f F41B0000 		.4byte	.LASF270
 2080 0c23 09       		.byte	0x9
 2081 0c24 E2       		.byte	0xe2
 2082 0c25 BF030000 		.4byte	0x3bf
 2083 0c29 2B       		.uleb128 0x2b
 2084 0c2a C20F0000 		.4byte	.LASF271
 2085 0c2e 09       		.byte	0x9
 2086 0c2f E9       		.byte	0xe9
 2087 0c30 340C0000 		.4byte	0xc34
 2088 0c34 1D       		.uleb128 0x1d
 2089 0c35 D3080000 		.4byte	0x8d3
 2090 0c39 29       		.uleb128 0x29
ARM GAS  C:\Users\Alan\AppData\Local\Temp\ccbjvqhO.s 			page 70


 2091 0c3a A3180000 		.4byte	.LASF272
 2092 0c3e 0A       		.byte	0xa
 2093 0c3f 2C09     		.2byte	0x92c
 2094 0c41 06090000 		.4byte	0x906
 2095 0c45 2A       		.uleb128 0x2a
 2096 0c46 9F0A0000 		.4byte	.LASF273
 2097 0c4a 01       		.byte	0x1
 2098 0c4b 40       		.byte	0x40
 2099 0c4c 40070000 		.4byte	0x740
 2100 0c50 05       		.uleb128 0x5
 2101 0c51 03       		.byte	0x3
 2102 0c52 00000000 		.4byte	cyBle_connHandle
 2103 0c56 2A       		.uleb128 0x2a
 2104 0c57 D70E0000 		.4byte	.LASF274
 2105 0c5b 01       		.byte	0x1
 2106 0c5c 43       		.byte	0x43
 2107 0c5d A1000000 		.4byte	0xa1
 2108 0c61 05       		.uleb128 0x5
 2109 0c62 03       		.byte	0x3
 2110 0c63 00000000 		.4byte	cyBle_busyStatus
 2111 0c67 2A       		.uleb128 0x2a
 2112 0c68 FF1A0000 		.4byte	.LASF275
 2113 0c6c 01       		.byte	0x1
 2114 0c6d 46       		.byte	0x46
 2115 0c6e 6B000000 		.4byte	0x6b
 2116 0c72 05       		.uleb128 0x5
 2117 0c73 03       		.byte	0x3
 2118 0c74 00000000 		.4byte	cyBle_advertisingIntervalType
 2119 0c78 2C       		.uleb128 0x2c
 2120 0c79 4D1B0000 		.4byte	.LASF276
 2121 0c7d 07       		.byte	0x7
 2122 0c7e 2D01     		.2byte	0x12d
 2123 0c80 EB020000 		.4byte	0x2eb
 2124 0c84 930C0000 		.4byte	0xc93
 2125 0c88 14       		.uleb128 0x14
 2126 0c89 40070000 		.4byte	0x740
 2127 0c8d 14       		.uleb128 0x14
 2128 0c8e 930C0000 		.4byte	0xc93
 2129 0c92 00       		.byte	0
 2130 0c93 0F       		.uleb128 0xf
 2131 0c94 04       		.byte	0x4
 2132 0c95 16080000 		.4byte	0x816
 2133 0c99 2D       		.uleb128 0x2d
 2134 0c9a 03130000 		.4byte	.LASF277
 2135 0c9e 09       		.byte	0x9
 2136 0c9f C9       		.byte	0xc9
 2137 0ca0 04070000 		.4byte	0x704
 2138 0ca4 AE0C0000 		.4byte	0xcae
 2139 0ca8 14       		.uleb128 0x14
 2140 0ca9 F6090000 		.4byte	0x9f6
 2141 0cad 00       		.byte	0
 2142 0cae 2C       		.uleb128 0x2c
 2143 0caf E3030000 		.4byte	.LASF278
 2144 0cb3 07       		.byte	0x7
 2145 0cb4 B301     		.2byte	0x1b3
 2146 0cb6 EB020000 		.4byte	0x2eb
 2147 0cba C40C0000 		.4byte	0xcc4
ARM GAS  C:\Users\Alan\AppData\Local\Temp\ccbjvqhO.s 			page 71


 2148 0cbe 14       		.uleb128 0x14
 2149 0cbf 40070000 		.4byte	0x740
 2150 0cc3 00       		.byte	0
 2151 0cc4 2C       		.uleb128 0x2c
 2152 0cc5 4E040000 		.4byte	.LASF279
 2153 0cc9 03       		.byte	0x3
 2154 0cca 4105     		.2byte	0x541
 2155 0ccc EB020000 		.4byte	0x2eb
 2156 0cd0 DA0C0000 		.4byte	0xcda
 2157 0cd4 14       		.uleb128 0x14
 2158 0cd5 DA0C0000 		.4byte	0xcda
 2159 0cd9 00       		.byte	0
 2160 0cda 0F       		.uleb128 0xf
 2161 0cdb 04       		.byte	0x4
 2162 0cdc 8F030000 		.4byte	0x38f
 2163 0ce0 2C       		.uleb128 0x2c
 2164 0ce1 920B0000 		.4byte	.LASF280
 2165 0ce5 07       		.byte	0x7
 2166 0ce6 6901     		.2byte	0x169
 2167 0ce8 EB020000 		.4byte	0x2eb
 2168 0cec FB0C0000 		.4byte	0xcfb
 2169 0cf0 14       		.uleb128 0x14
 2170 0cf1 40070000 		.4byte	0x740
 2171 0cf5 14       		.uleb128 0x14
 2172 0cf6 76000000 		.4byte	0x76
 2173 0cfa 00       		.byte	0
 2174 0cfb 2C       		.uleb128 0x2c
 2175 0cfc 5B000000 		.4byte	.LASF281
 2176 0d00 03       		.byte	0x3
 2177 0d01 C304     		.2byte	0x4c3
 2178 0d03 EB020000 		.4byte	0x2eb
 2179 0d07 110D0000 		.4byte	0xd11
 2180 0d0b 14       		.uleb128 0x14
 2181 0d0c EF0B0000 		.4byte	0xbef
 2182 0d10 00       		.byte	0
 2183 0d11 2E       		.uleb128 0x2e
 2184 0d12 E80E0000 		.4byte	.LASF284
 2185 0d16 08       		.byte	0x8
 2186 0d17 B201     		.2byte	0x1b2
 2187 0d19 280D0000 		.4byte	0xd28
 2188 0d1d 14       		.uleb128 0x14
 2189 0d1e 6D090000 		.4byte	0x96d
 2190 0d22 14       		.uleb128 0x14
 2191 0d23 6B000000 		.4byte	0x6b
 2192 0d27 00       		.byte	0
 2193 0d28 2C       		.uleb128 0x2c
 2194 0d29 72000000 		.4byte	.LASF282
 2195 0d2d 05       		.byte	0x5
 2196 0d2e 1A03     		.2byte	0x31a
 2197 0d30 EB020000 		.4byte	0x2eb
 2198 0d34 3E0D0000 		.4byte	0xd3e
 2199 0d38 14       		.uleb128 0x14
 2200 0d39 4F040000 		.4byte	0x44f
 2201 0d3d 00       		.byte	0
 2202 0d3e 2C       		.uleb128 0x2c
 2203 0d3f D50F0000 		.4byte	.LASF283
 2204 0d43 05       		.byte	0x5
ARM GAS  C:\Users\Alan\AppData\Local\Temp\ccbjvqhO.s 			page 72


 2205 0d44 3F06     		.2byte	0x63f
 2206 0d46 EB020000 		.4byte	0x2eb
 2207 0d4a 590D0000 		.4byte	0xd59
 2208 0d4e 14       		.uleb128 0x14
 2209 0d4f 6B000000 		.4byte	0x6b
 2210 0d53 14       		.uleb128 0x14
 2211 0d54 590D0000 		.4byte	0xd59
 2212 0d58 00       		.byte	0
 2213 0d59 0F       		.uleb128 0xf
 2214 0d5a 04       		.byte	0x4
 2215 0d5b FB040000 		.4byte	0x4fb
 2216 0d5f 2F       		.uleb128 0x2f
 2217 0d60 A61B0000 		.4byte	.LASF285
 2218 0d64 AD000000 		.4byte	0xad
 2219 0d68 7C0D0000 		.4byte	0xd7c
 2220 0d6c 14       		.uleb128 0x14
 2221 0d6d AD000000 		.4byte	0xad
 2222 0d71 14       		.uleb128 0x14
 2223 0d72 7C0D0000 		.4byte	0xd7c
 2224 0d76 14       		.uleb128 0x14
 2225 0d77 A6000000 		.4byte	0xa6
 2226 0d7b 00       		.byte	0
 2227 0d7c 0F       		.uleb128 0xf
 2228 0d7d 04       		.byte	0x4
 2229 0d7e 820D0000 		.4byte	0xd82
 2230 0d82 30       		.uleb128 0x30
 2231 0d83 00       		.byte	0
 2232              		.section	.debug_abbrev,"",%progbits
 2233              	.Ldebug_abbrev0:
 2234 0000 01       		.uleb128 0x1
 2235 0001 11       		.uleb128 0x11
 2236 0002 01       		.byte	0x1
 2237 0003 25       		.uleb128 0x25
 2238 0004 0E       		.uleb128 0xe
 2239 0005 13       		.uleb128 0x13
 2240 0006 0B       		.uleb128 0xb
 2241 0007 03       		.uleb128 0x3
 2242 0008 0E       		.uleb128 0xe
 2243 0009 1B       		.uleb128 0x1b
 2244 000a 0E       		.uleb128 0xe
 2245 000b 55       		.uleb128 0x55
 2246 000c 17       		.uleb128 0x17
 2247 000d 11       		.uleb128 0x11
 2248 000e 01       		.uleb128 0x1
 2249 000f 10       		.uleb128 0x10
 2250 0010 17       		.uleb128 0x17
 2251 0011 00       		.byte	0
 2252 0012 00       		.byte	0
 2253 0013 02       		.uleb128 0x2
 2254 0014 24       		.uleb128 0x24
 2255 0015 00       		.byte	0
 2256 0016 0B       		.uleb128 0xb
 2257 0017 0B       		.uleb128 0xb
 2258 0018 3E       		.uleb128 0x3e
 2259 0019 0B       		.uleb128 0xb
 2260 001a 03       		.uleb128 0x3
 2261 001b 0E       		.uleb128 0xe
ARM GAS  C:\Users\Alan\AppData\Local\Temp\ccbjvqhO.s 			page 73


 2262 001c 00       		.byte	0
 2263 001d 00       		.byte	0
 2264 001e 03       		.uleb128 0x3
 2265 001f 24       		.uleb128 0x24
 2266 0020 00       		.byte	0
 2267 0021 0B       		.uleb128 0xb
 2268 0022 0B       		.uleb128 0xb
 2269 0023 3E       		.uleb128 0x3e
 2270 0024 0B       		.uleb128 0xb
 2271 0025 03       		.uleb128 0x3
 2272 0026 08       		.uleb128 0x8
 2273 0027 00       		.byte	0
 2274 0028 00       		.byte	0
 2275 0029 04       		.uleb128 0x4
 2276 002a 16       		.uleb128 0x16
 2277 002b 00       		.byte	0
 2278 002c 03       		.uleb128 0x3
 2279 002d 0E       		.uleb128 0xe
 2280 002e 3A       		.uleb128 0x3a
 2281 002f 0B       		.uleb128 0xb
 2282 0030 3B       		.uleb128 0x3b
 2283 0031 0B       		.uleb128 0xb
 2284 0032 49       		.uleb128 0x49
 2285 0033 13       		.uleb128 0x13
 2286 0034 00       		.byte	0
 2287 0035 00       		.byte	0
 2288 0036 05       		.uleb128 0x5
 2289 0037 35       		.uleb128 0x35
 2290 0038 00       		.byte	0
 2291 0039 49       		.uleb128 0x49
 2292 003a 13       		.uleb128 0x13
 2293 003b 00       		.byte	0
 2294 003c 00       		.byte	0
 2295 003d 06       		.uleb128 0x6
 2296 003e 0F       		.uleb128 0xf
 2297 003f 00       		.byte	0
 2298 0040 0B       		.uleb128 0xb
 2299 0041 0B       		.uleb128 0xb
 2300 0042 00       		.byte	0
 2301 0043 00       		.byte	0
 2302 0044 07       		.uleb128 0x7
 2303 0045 04       		.uleb128 0x4
 2304 0046 01       		.byte	0x1
 2305 0047 0B       		.uleb128 0xb
 2306 0048 0B       		.uleb128 0xb
 2307 0049 3A       		.uleb128 0x3a
 2308 004a 0B       		.uleb128 0xb
 2309 004b 3B       		.uleb128 0x3b
 2310 004c 0B       		.uleb128 0xb
 2311 004d 01       		.uleb128 0x1
 2312 004e 13       		.uleb128 0x13
 2313 004f 00       		.byte	0
 2314 0050 00       		.byte	0
 2315 0051 08       		.uleb128 0x8
 2316 0052 28       		.uleb128 0x28
 2317 0053 00       		.byte	0
 2318 0054 03       		.uleb128 0x3
ARM GAS  C:\Users\Alan\AppData\Local\Temp\ccbjvqhO.s 			page 74


 2319 0055 0E       		.uleb128 0xe
 2320 0056 1C       		.uleb128 0x1c
 2321 0057 0D       		.uleb128 0xd
 2322 0058 00       		.byte	0
 2323 0059 00       		.byte	0
 2324 005a 09       		.uleb128 0x9
 2325 005b 04       		.uleb128 0x4
 2326 005c 01       		.byte	0x1
 2327 005d 0B       		.uleb128 0xb
 2328 005e 0B       		.uleb128 0xb
 2329 005f 3A       		.uleb128 0x3a
 2330 0060 0B       		.uleb128 0xb
 2331 0061 3B       		.uleb128 0x3b
 2332 0062 05       		.uleb128 0x5
 2333 0063 01       		.uleb128 0x1
 2334 0064 13       		.uleb128 0x13
 2335 0065 00       		.byte	0
 2336 0066 00       		.byte	0
 2337 0067 0A       		.uleb128 0xa
 2338 0068 16       		.uleb128 0x16
 2339 0069 00       		.byte	0
 2340 006a 03       		.uleb128 0x3
 2341 006b 0E       		.uleb128 0xe
 2342 006c 3A       		.uleb128 0x3a
 2343 006d 0B       		.uleb128 0xb
 2344 006e 3B       		.uleb128 0x3b
 2345 006f 05       		.uleb128 0x5
 2346 0070 49       		.uleb128 0x49
 2347 0071 13       		.uleb128 0x13
 2348 0072 00       		.byte	0
 2349 0073 00       		.byte	0
 2350 0074 0B       		.uleb128 0xb
 2351 0075 13       		.uleb128 0x13
 2352 0076 01       		.byte	0x1
 2353 0077 0B       		.uleb128 0xb
 2354 0078 0B       		.uleb128 0xb
 2355 0079 3A       		.uleb128 0x3a
 2356 007a 0B       		.uleb128 0xb
 2357 007b 3B       		.uleb128 0x3b
 2358 007c 05       		.uleb128 0x5
 2359 007d 01       		.uleb128 0x1
 2360 007e 13       		.uleb128 0x13
 2361 007f 00       		.byte	0
 2362 0080 00       		.byte	0
 2363 0081 0C       		.uleb128 0xc
 2364 0082 0D       		.uleb128 0xd
 2365 0083 00       		.byte	0
 2366 0084 03       		.uleb128 0x3
 2367 0085 0E       		.uleb128 0xe
 2368 0086 3A       		.uleb128 0x3a
 2369 0087 0B       		.uleb128 0xb
 2370 0088 3B       		.uleb128 0x3b
 2371 0089 05       		.uleb128 0x5
 2372 008a 49       		.uleb128 0x49
 2373 008b 13       		.uleb128 0x13
 2374 008c 38       		.uleb128 0x38
 2375 008d 0B       		.uleb128 0xb
ARM GAS  C:\Users\Alan\AppData\Local\Temp\ccbjvqhO.s 			page 75


 2376 008e 00       		.byte	0
 2377 008f 00       		.byte	0
 2378 0090 0D       		.uleb128 0xd
 2379 0091 01       		.uleb128 0x1
 2380 0092 01       		.byte	0x1
 2381 0093 49       		.uleb128 0x49
 2382 0094 13       		.uleb128 0x13
 2383 0095 01       		.uleb128 0x1
 2384 0096 13       		.uleb128 0x13
 2385 0097 00       		.byte	0
 2386 0098 00       		.byte	0
 2387 0099 0E       		.uleb128 0xe
 2388 009a 21       		.uleb128 0x21
 2389 009b 00       		.byte	0
 2390 009c 49       		.uleb128 0x49
 2391 009d 13       		.uleb128 0x13
 2392 009e 2F       		.uleb128 0x2f
 2393 009f 0B       		.uleb128 0xb
 2394 00a0 00       		.byte	0
 2395 00a1 00       		.byte	0
 2396 00a2 0F       		.uleb128 0xf
 2397 00a3 0F       		.uleb128 0xf
 2398 00a4 00       		.byte	0
 2399 00a5 0B       		.uleb128 0xb
 2400 00a6 0B       		.uleb128 0xb
 2401 00a7 49       		.uleb128 0x49
 2402 00a8 13       		.uleb128 0x13
 2403 00a9 00       		.byte	0
 2404 00aa 00       		.byte	0
 2405 00ab 10       		.uleb128 0x10
 2406 00ac 0D       		.uleb128 0xd
 2407 00ad 00       		.byte	0
 2408 00ae 03       		.uleb128 0x3
 2409 00af 08       		.uleb128 0x8
 2410 00b0 3A       		.uleb128 0x3a
 2411 00b1 0B       		.uleb128 0xb
 2412 00b2 3B       		.uleb128 0x3b
 2413 00b3 05       		.uleb128 0x5
 2414 00b4 49       		.uleb128 0x49
 2415 00b5 13       		.uleb128 0x13
 2416 00b6 38       		.uleb128 0x38
 2417 00b7 0B       		.uleb128 0xb
 2418 00b8 00       		.byte	0
 2419 00b9 00       		.byte	0
 2420 00ba 11       		.uleb128 0x11
 2421 00bb 13       		.uleb128 0x13
 2422 00bc 01       		.byte	0x1
 2423 00bd 0B       		.uleb128 0xb
 2424 00be 0B       		.uleb128 0xb
 2425 00bf 3A       		.uleb128 0x3a
 2426 00c0 0B       		.uleb128 0xb
 2427 00c1 3B       		.uleb128 0x3b
 2428 00c2 0B       		.uleb128 0xb
 2429 00c3 01       		.uleb128 0x1
 2430 00c4 13       		.uleb128 0x13
 2431 00c5 00       		.byte	0
 2432 00c6 00       		.byte	0
ARM GAS  C:\Users\Alan\AppData\Local\Temp\ccbjvqhO.s 			page 76


 2433 00c7 12       		.uleb128 0x12
 2434 00c8 0D       		.uleb128 0xd
 2435 00c9 00       		.byte	0
 2436 00ca 03       		.uleb128 0x3
 2437 00cb 0E       		.uleb128 0xe
 2438 00cc 3A       		.uleb128 0x3a
 2439 00cd 0B       		.uleb128 0xb
 2440 00ce 3B       		.uleb128 0x3b
 2441 00cf 0B       		.uleb128 0xb
 2442 00d0 49       		.uleb128 0x49
 2443 00d1 13       		.uleb128 0x13
 2444 00d2 38       		.uleb128 0x38
 2445 00d3 0B       		.uleb128 0xb
 2446 00d4 00       		.byte	0
 2447 00d5 00       		.byte	0
 2448 00d6 13       		.uleb128 0x13
 2449 00d7 15       		.uleb128 0x15
 2450 00d8 01       		.byte	0x1
 2451 00d9 27       		.uleb128 0x27
 2452 00da 19       		.uleb128 0x19
 2453 00db 01       		.uleb128 0x1
 2454 00dc 13       		.uleb128 0x13
 2455 00dd 00       		.byte	0
 2456 00de 00       		.byte	0
 2457 00df 14       		.uleb128 0x14
 2458 00e0 05       		.uleb128 0x5
 2459 00e1 00       		.byte	0
 2460 00e2 49       		.uleb128 0x49
 2461 00e3 13       		.uleb128 0x13
 2462 00e4 00       		.byte	0
 2463 00e5 00       		.byte	0
 2464 00e6 15       		.uleb128 0x15
 2465 00e7 13       		.uleb128 0x13
 2466 00e8 01       		.byte	0x1
 2467 00e9 0B       		.uleb128 0xb
 2468 00ea 05       		.uleb128 0x5
 2469 00eb 3A       		.uleb128 0x3a
 2470 00ec 0B       		.uleb128 0xb
 2471 00ed 3B       		.uleb128 0x3b
 2472 00ee 0B       		.uleb128 0xb
 2473 00ef 01       		.uleb128 0x1
 2474 00f0 13       		.uleb128 0x13
 2475 00f1 00       		.byte	0
 2476 00f2 00       		.byte	0
 2477 00f3 16       		.uleb128 0x16
 2478 00f4 0D       		.uleb128 0xd
 2479 00f5 00       		.byte	0
 2480 00f6 03       		.uleb128 0x3
 2481 00f7 0E       		.uleb128 0xe
 2482 00f8 3A       		.uleb128 0x3a
 2483 00f9 0B       		.uleb128 0xb
 2484 00fa 3B       		.uleb128 0x3b
 2485 00fb 0B       		.uleb128 0xb
 2486 00fc 49       		.uleb128 0x49
 2487 00fd 13       		.uleb128 0x13
 2488 00fe 38       		.uleb128 0x38
 2489 00ff 05       		.uleb128 0x5
ARM GAS  C:\Users\Alan\AppData\Local\Temp\ccbjvqhO.s 			page 77


 2490 0100 00       		.byte	0
 2491 0101 00       		.byte	0
 2492 0102 17       		.uleb128 0x17
 2493 0103 21       		.uleb128 0x21
 2494 0104 00       		.byte	0
 2495 0105 49       		.uleb128 0x49
 2496 0106 13       		.uleb128 0x13
 2497 0107 2F       		.uleb128 0x2f
 2498 0108 05       		.uleb128 0x5
 2499 0109 00       		.byte	0
 2500 010a 00       		.byte	0
 2501 010b 18       		.uleb128 0x18
 2502 010c 2E       		.uleb128 0x2e
 2503 010d 00       		.byte	0
 2504 010e 03       		.uleb128 0x3
 2505 010f 0E       		.uleb128 0xe
 2506 0110 3A       		.uleb128 0x3a
 2507 0111 0B       		.uleb128 0xb
 2508 0112 3B       		.uleb128 0x3b
 2509 0113 05       		.uleb128 0x5
 2510 0114 27       		.uleb128 0x27
 2511 0115 19       		.uleb128 0x19
 2512 0116 11       		.uleb128 0x11
 2513 0117 01       		.uleb128 0x1
 2514 0118 12       		.uleb128 0x12
 2515 0119 06       		.uleb128 0x6
 2516 011a 40       		.uleb128 0x40
 2517 011b 18       		.uleb128 0x18
 2518 011c 9742     		.uleb128 0x2117
 2519 011e 19       		.uleb128 0x19
 2520 011f 00       		.byte	0
 2521 0120 00       		.byte	0
 2522 0121 19       		.uleb128 0x19
 2523 0122 2E       		.uleb128 0x2e
 2524 0123 01       		.byte	0x1
 2525 0124 03       		.uleb128 0x3
 2526 0125 0E       		.uleb128 0xe
 2527 0126 3A       		.uleb128 0x3a
 2528 0127 0B       		.uleb128 0xb
 2529 0128 3B       		.uleb128 0x3b
 2530 0129 05       		.uleb128 0x5
 2531 012a 27       		.uleb128 0x27
 2532 012b 19       		.uleb128 0x19
 2533 012c 49       		.uleb128 0x49
 2534 012d 13       		.uleb128 0x13
 2535 012e 11       		.uleb128 0x11
 2536 012f 01       		.uleb128 0x1
 2537 0130 12       		.uleb128 0x12
 2538 0131 06       		.uleb128 0x6
 2539 0132 40       		.uleb128 0x40
 2540 0133 18       		.uleb128 0x18
 2541 0134 9742     		.uleb128 0x2117
 2542 0136 19       		.uleb128 0x19
 2543 0137 01       		.uleb128 0x1
 2544 0138 13       		.uleb128 0x13
 2545 0139 00       		.byte	0
 2546 013a 00       		.byte	0
ARM GAS  C:\Users\Alan\AppData\Local\Temp\ccbjvqhO.s 			page 78


 2547 013b 1A       		.uleb128 0x1a
 2548 013c 05       		.uleb128 0x5
 2549 013d 00       		.byte	0
 2550 013e 03       		.uleb128 0x3
 2551 013f 0E       		.uleb128 0xe
 2552 0140 3A       		.uleb128 0x3a
 2553 0141 0B       		.uleb128 0xb
 2554 0142 3B       		.uleb128 0x3b
 2555 0143 05       		.uleb128 0x5
 2556 0144 49       		.uleb128 0x49
 2557 0145 13       		.uleb128 0x13
 2558 0146 02       		.uleb128 0x2
 2559 0147 17       		.uleb128 0x17
 2560 0148 00       		.byte	0
 2561 0149 00       		.byte	0
 2562 014a 1B       		.uleb128 0x1b
 2563 014b 34       		.uleb128 0x34
 2564 014c 00       		.byte	0
 2565 014d 03       		.uleb128 0x3
 2566 014e 08       		.uleb128 0x8
 2567 014f 3A       		.uleb128 0x3a
 2568 0150 0B       		.uleb128 0xb
 2569 0151 3B       		.uleb128 0x3b
 2570 0152 05       		.uleb128 0x5
 2571 0153 49       		.uleb128 0x49
 2572 0154 13       		.uleb128 0x13
 2573 0155 02       		.uleb128 0x2
 2574 0156 17       		.uleb128 0x17
 2575 0157 00       		.byte	0
 2576 0158 00       		.byte	0
 2577 0159 1C       		.uleb128 0x1c
 2578 015a 34       		.uleb128 0x34
 2579 015b 00       		.byte	0
 2580 015c 03       		.uleb128 0x3
 2581 015d 0E       		.uleb128 0xe
 2582 015e 3A       		.uleb128 0x3a
 2583 015f 0B       		.uleb128 0xb
 2584 0160 3B       		.uleb128 0x3b
 2585 0161 05       		.uleb128 0x5
 2586 0162 49       		.uleb128 0x49
 2587 0163 13       		.uleb128 0x13
 2588 0164 02       		.uleb128 0x2
 2589 0165 17       		.uleb128 0x17
 2590 0166 00       		.byte	0
 2591 0167 00       		.byte	0
 2592 0168 1D       		.uleb128 0x1d
 2593 0169 26       		.uleb128 0x26
 2594 016a 00       		.byte	0
 2595 016b 49       		.uleb128 0x49
 2596 016c 13       		.uleb128 0x13
 2597 016d 00       		.byte	0
 2598 016e 00       		.byte	0
 2599 016f 1E       		.uleb128 0x1e
 2600 0170 2E       		.uleb128 0x2e
 2601 0171 01       		.byte	0x1
 2602 0172 03       		.uleb128 0x3
 2603 0173 0E       		.uleb128 0xe
ARM GAS  C:\Users\Alan\AppData\Local\Temp\ccbjvqhO.s 			page 79


 2604 0174 3A       		.uleb128 0x3a
 2605 0175 0B       		.uleb128 0xb
 2606 0176 3B       		.uleb128 0x3b
 2607 0177 0B       		.uleb128 0xb
 2608 0178 27       		.uleb128 0x27
 2609 0179 19       		.uleb128 0x19
 2610 017a 11       		.uleb128 0x11
 2611 017b 01       		.uleb128 0x1
 2612 017c 12       		.uleb128 0x12
 2613 017d 06       		.uleb128 0x6
 2614 017e 40       		.uleb128 0x40
 2615 017f 18       		.uleb128 0x18
 2616 0180 9742     		.uleb128 0x2117
 2617 0182 19       		.uleb128 0x19
 2618 0183 01       		.uleb128 0x1
 2619 0184 13       		.uleb128 0x13
 2620 0185 00       		.byte	0
 2621 0186 00       		.byte	0
 2622 0187 1F       		.uleb128 0x1f
 2623 0188 05       		.uleb128 0x5
 2624 0189 00       		.byte	0
 2625 018a 03       		.uleb128 0x3
 2626 018b 0E       		.uleb128 0xe
 2627 018c 3A       		.uleb128 0x3a
 2628 018d 0B       		.uleb128 0xb
 2629 018e 3B       		.uleb128 0x3b
 2630 018f 0B       		.uleb128 0xb
 2631 0190 49       		.uleb128 0x49
 2632 0191 13       		.uleb128 0x13
 2633 0192 02       		.uleb128 0x2
 2634 0193 17       		.uleb128 0x17
 2635 0194 00       		.byte	0
 2636 0195 00       		.byte	0
 2637 0196 20       		.uleb128 0x20
 2638 0197 34       		.uleb128 0x34
 2639 0198 00       		.byte	0
 2640 0199 03       		.uleb128 0x3
 2641 019a 0E       		.uleb128 0xe
 2642 019b 3A       		.uleb128 0x3a
 2643 019c 0B       		.uleb128 0xb
 2644 019d 3B       		.uleb128 0x3b
 2645 019e 0B       		.uleb128 0xb
 2646 019f 49       		.uleb128 0x49
 2647 01a0 13       		.uleb128 0x13
 2648 01a1 02       		.uleb128 0x2
 2649 01a2 17       		.uleb128 0x17
 2650 01a3 00       		.byte	0
 2651 01a4 00       		.byte	0
 2652 01a5 21       		.uleb128 0x21
 2653 01a6 0B       		.uleb128 0xb
 2654 01a7 01       		.byte	0x1
 2655 01a8 11       		.uleb128 0x11
 2656 01a9 01       		.uleb128 0x1
 2657 01aa 12       		.uleb128 0x12
 2658 01ab 06       		.uleb128 0x6
 2659 01ac 01       		.uleb128 0x1
 2660 01ad 13       		.uleb128 0x13
ARM GAS  C:\Users\Alan\AppData\Local\Temp\ccbjvqhO.s 			page 80


 2661 01ae 00       		.byte	0
 2662 01af 00       		.byte	0
 2663 01b0 22       		.uleb128 0x22
 2664 01b1 34       		.uleb128 0x34
 2665 01b2 00       		.byte	0
 2666 01b3 03       		.uleb128 0x3
 2667 01b4 0E       		.uleb128 0xe
 2668 01b5 3A       		.uleb128 0x3a
 2669 01b6 0B       		.uleb128 0xb
 2670 01b7 3B       		.uleb128 0x3b
 2671 01b8 05       		.uleb128 0x5
 2672 01b9 49       		.uleb128 0x49
 2673 01ba 13       		.uleb128 0x13
 2674 01bb 02       		.uleb128 0x2
 2675 01bc 18       		.uleb128 0x18
 2676 01bd 00       		.byte	0
 2677 01be 00       		.byte	0
 2678 01bf 23       		.uleb128 0x23
 2679 01c0 898201   		.uleb128 0x4109
 2680 01c3 01       		.byte	0x1
 2681 01c4 11       		.uleb128 0x11
 2682 01c5 01       		.uleb128 0x1
 2683 01c6 31       		.uleb128 0x31
 2684 01c7 13       		.uleb128 0x13
 2685 01c8 00       		.byte	0
 2686 01c9 00       		.byte	0
 2687 01ca 24       		.uleb128 0x24
 2688 01cb 8A8201   		.uleb128 0x410a
 2689 01ce 00       		.byte	0
 2690 01cf 02       		.uleb128 0x2
 2691 01d0 18       		.uleb128 0x18
 2692 01d1 9142     		.uleb128 0x2111
 2693 01d3 18       		.uleb128 0x18
 2694 01d4 00       		.byte	0
 2695 01d5 00       		.byte	0
 2696 01d6 25       		.uleb128 0x25
 2697 01d7 898201   		.uleb128 0x4109
 2698 01da 01       		.byte	0x1
 2699 01db 11       		.uleb128 0x11
 2700 01dc 01       		.uleb128 0x1
 2701 01dd 31       		.uleb128 0x31
 2702 01de 13       		.uleb128 0x13
 2703 01df 01       		.uleb128 0x1
 2704 01e0 13       		.uleb128 0x13
 2705 01e1 00       		.byte	0
 2706 01e2 00       		.byte	0
 2707 01e3 26       		.uleb128 0x26
 2708 01e4 898201   		.uleb128 0x4109
 2709 01e7 00       		.byte	0
 2710 01e8 11       		.uleb128 0x11
 2711 01e9 01       		.uleb128 0x1
 2712 01ea 31       		.uleb128 0x31
 2713 01eb 13       		.uleb128 0x13
 2714 01ec 00       		.byte	0
 2715 01ed 00       		.byte	0
 2716 01ee 27       		.uleb128 0x27
 2717 01ef 2E       		.uleb128 0x2e
ARM GAS  C:\Users\Alan\AppData\Local\Temp\ccbjvqhO.s 			page 81


 2718 01f0 01       		.byte	0x1
 2719 01f1 3F       		.uleb128 0x3f
 2720 01f2 19       		.uleb128 0x19
 2721 01f3 03       		.uleb128 0x3
 2722 01f4 0E       		.uleb128 0xe
 2723 01f5 3A       		.uleb128 0x3a
 2724 01f6 0B       		.uleb128 0xb
 2725 01f7 3B       		.uleb128 0x3b
 2726 01f8 05       		.uleb128 0x5
 2727 01f9 27       		.uleb128 0x27
 2728 01fa 19       		.uleb128 0x19
 2729 01fb 11       		.uleb128 0x11
 2730 01fc 01       		.uleb128 0x1
 2731 01fd 12       		.uleb128 0x12
 2732 01fe 06       		.uleb128 0x6
 2733 01ff 40       		.uleb128 0x40
 2734 0200 18       		.uleb128 0x18
 2735 0201 9742     		.uleb128 0x2117
 2736 0203 19       		.uleb128 0x19
 2737 0204 01       		.uleb128 0x1
 2738 0205 13       		.uleb128 0x13
 2739 0206 00       		.byte	0
 2740 0207 00       		.byte	0
 2741 0208 28       		.uleb128 0x28
 2742 0209 898201   		.uleb128 0x4109
 2743 020c 01       		.byte	0x1
 2744 020d 11       		.uleb128 0x11
 2745 020e 01       		.uleb128 0x1
 2746 020f 00       		.byte	0
 2747 0210 00       		.byte	0
 2748 0211 29       		.uleb128 0x29
 2749 0212 34       		.uleb128 0x34
 2750 0213 00       		.byte	0
 2751 0214 03       		.uleb128 0x3
 2752 0215 0E       		.uleb128 0xe
 2753 0216 3A       		.uleb128 0x3a
 2754 0217 0B       		.uleb128 0xb
 2755 0218 3B       		.uleb128 0x3b
 2756 0219 05       		.uleb128 0x5
 2757 021a 49       		.uleb128 0x49
 2758 021b 13       		.uleb128 0x13
 2759 021c 3F       		.uleb128 0x3f
 2760 021d 19       		.uleb128 0x19
 2761 021e 3C       		.uleb128 0x3c
 2762 021f 19       		.uleb128 0x19
 2763 0220 00       		.byte	0
 2764 0221 00       		.byte	0
 2765 0222 2A       		.uleb128 0x2a
 2766 0223 34       		.uleb128 0x34
 2767 0224 00       		.byte	0
 2768 0225 03       		.uleb128 0x3
 2769 0226 0E       		.uleb128 0xe
 2770 0227 3A       		.uleb128 0x3a
 2771 0228 0B       		.uleb128 0xb
 2772 0229 3B       		.uleb128 0x3b
 2773 022a 0B       		.uleb128 0xb
 2774 022b 49       		.uleb128 0x49
ARM GAS  C:\Users\Alan\AppData\Local\Temp\ccbjvqhO.s 			page 82


 2775 022c 13       		.uleb128 0x13
 2776 022d 3F       		.uleb128 0x3f
 2777 022e 19       		.uleb128 0x19
 2778 022f 02       		.uleb128 0x2
 2779 0230 18       		.uleb128 0x18
 2780 0231 00       		.byte	0
 2781 0232 00       		.byte	0
 2782 0233 2B       		.uleb128 0x2b
 2783 0234 34       		.uleb128 0x34
 2784 0235 00       		.byte	0
 2785 0236 03       		.uleb128 0x3
 2786 0237 0E       		.uleb128 0xe
 2787 0238 3A       		.uleb128 0x3a
 2788 0239 0B       		.uleb128 0xb
 2789 023a 3B       		.uleb128 0x3b
 2790 023b 0B       		.uleb128 0xb
 2791 023c 49       		.uleb128 0x49
 2792 023d 13       		.uleb128 0x13
 2793 023e 3F       		.uleb128 0x3f
 2794 023f 19       		.uleb128 0x19
 2795 0240 3C       		.uleb128 0x3c
 2796 0241 19       		.uleb128 0x19
 2797 0242 00       		.byte	0
 2798 0243 00       		.byte	0
 2799 0244 2C       		.uleb128 0x2c
 2800 0245 2E       		.uleb128 0x2e
 2801 0246 01       		.byte	0x1
 2802 0247 3F       		.uleb128 0x3f
 2803 0248 19       		.uleb128 0x19
 2804 0249 03       		.uleb128 0x3
 2805 024a 0E       		.uleb128 0xe
 2806 024b 3A       		.uleb128 0x3a
 2807 024c 0B       		.uleb128 0xb
 2808 024d 3B       		.uleb128 0x3b
 2809 024e 05       		.uleb128 0x5
 2810 024f 27       		.uleb128 0x27
 2811 0250 19       		.uleb128 0x19
 2812 0251 49       		.uleb128 0x49
 2813 0252 13       		.uleb128 0x13
 2814 0253 3C       		.uleb128 0x3c
 2815 0254 19       		.uleb128 0x19
 2816 0255 01       		.uleb128 0x1
 2817 0256 13       		.uleb128 0x13
 2818 0257 00       		.byte	0
 2819 0258 00       		.byte	0
 2820 0259 2D       		.uleb128 0x2d
 2821 025a 2E       		.uleb128 0x2e
 2822 025b 01       		.byte	0x1
 2823 025c 3F       		.uleb128 0x3f
 2824 025d 19       		.uleb128 0x19
 2825 025e 03       		.uleb128 0x3
 2826 025f 0E       		.uleb128 0xe
 2827 0260 3A       		.uleb128 0x3a
 2828 0261 0B       		.uleb128 0xb
 2829 0262 3B       		.uleb128 0x3b
 2830 0263 0B       		.uleb128 0xb
 2831 0264 27       		.uleb128 0x27
ARM GAS  C:\Users\Alan\AppData\Local\Temp\ccbjvqhO.s 			page 83


 2832 0265 19       		.uleb128 0x19
 2833 0266 49       		.uleb128 0x49
 2834 0267 13       		.uleb128 0x13
 2835 0268 3C       		.uleb128 0x3c
 2836 0269 19       		.uleb128 0x19
 2837 026a 01       		.uleb128 0x1
 2838 026b 13       		.uleb128 0x13
 2839 026c 00       		.byte	0
 2840 026d 00       		.byte	0
 2841 026e 2E       		.uleb128 0x2e
 2842 026f 2E       		.uleb128 0x2e
 2843 0270 01       		.byte	0x1
 2844 0271 3F       		.uleb128 0x3f
 2845 0272 19       		.uleb128 0x19
 2846 0273 03       		.uleb128 0x3
 2847 0274 0E       		.uleb128 0xe
 2848 0275 3A       		.uleb128 0x3a
 2849 0276 0B       		.uleb128 0xb
 2850 0277 3B       		.uleb128 0x3b
 2851 0278 05       		.uleb128 0x5
 2852 0279 27       		.uleb128 0x27
 2853 027a 19       		.uleb128 0x19
 2854 027b 3C       		.uleb128 0x3c
 2855 027c 19       		.uleb128 0x19
 2856 027d 01       		.uleb128 0x1
 2857 027e 13       		.uleb128 0x13
 2858 027f 00       		.byte	0
 2859 0280 00       		.byte	0
 2860 0281 2F       		.uleb128 0x2f
 2861 0282 2E       		.uleb128 0x2e
 2862 0283 01       		.byte	0x1
 2863 0284 3F       		.uleb128 0x3f
 2864 0285 19       		.uleb128 0x19
 2865 0286 03       		.uleb128 0x3
 2866 0287 0E       		.uleb128 0xe
 2867 0288 27       		.uleb128 0x27
 2868 0289 19       		.uleb128 0x19
 2869 028a 49       		.uleb128 0x49
 2870 028b 13       		.uleb128 0x13
 2871 028c 34       		.uleb128 0x34
 2872 028d 19       		.uleb128 0x19
 2873 028e 3C       		.uleb128 0x3c
 2874 028f 19       		.uleb128 0x19
 2875 0290 01       		.uleb128 0x1
 2876 0291 13       		.uleb128 0x13
 2877 0292 00       		.byte	0
 2878 0293 00       		.byte	0
 2879 0294 30       		.uleb128 0x30
 2880 0295 26       		.uleb128 0x26
 2881 0296 00       		.byte	0
 2882 0297 00       		.byte	0
 2883 0298 00       		.byte	0
 2884 0299 00       		.byte	0
 2885              		.section	.debug_loc,"",%progbits
 2886              	.Ldebug_loc0:
 2887              	.LLST0:
 2888 0000 00000000 		.4byte	.LVL0
ARM GAS  C:\Users\Alan\AppData\Local\Temp\ccbjvqhO.s 			page 84


 2889 0004 08000000 		.4byte	.LVL1
 2890 0008 0100     		.2byte	0x1
 2891 000a 50       		.byte	0x50
 2892 000b 08000000 		.4byte	.LVL1
 2893 000f 0A000000 		.4byte	.LVL2
 2894 0013 0400     		.2byte	0x4
 2895 0015 F3       		.byte	0xf3
 2896 0016 01       		.uleb128 0x1
 2897 0017 50       		.byte	0x50
 2898 0018 9F       		.byte	0x9f
 2899 0019 0A000000 		.4byte	.LVL2
 2900 001d 1E000000 		.4byte	.LVL7
 2901 0021 0100     		.2byte	0x1
 2902 0023 50       		.byte	0x50
 2903 0024 1E000000 		.4byte	.LVL7
 2904 0028 20000000 		.4byte	.LVL8
 2905 002c 0400     		.2byte	0x4
 2906 002e F3       		.byte	0xf3
 2907 002f 01       		.uleb128 0x1
 2908 0030 50       		.byte	0x50
 2909 0031 9F       		.byte	0x9f
 2910 0032 20000000 		.4byte	.LVL8
 2911 0036 22000000 		.4byte	.LVL9
 2912 003a 0100     		.2byte	0x1
 2913 003c 50       		.byte	0x50
 2914 003d 22000000 		.4byte	.LVL9
 2915 0041 24000000 		.4byte	.LFE7
 2916 0045 0400     		.2byte	0x4
 2917 0047 F3       		.byte	0xf3
 2918 0048 01       		.uleb128 0x1
 2919 0049 50       		.byte	0x50
 2920 004a 9F       		.byte	0x9f
 2921 004b 00000000 		.4byte	0
 2922 004f 00000000 		.4byte	0
 2923              	.LLST1:
 2924 0053 0A000000 		.4byte	.LVL2
 2925 0057 12000000 		.4byte	.LVL3
 2926 005b 0100     		.2byte	0x1
 2927 005d 53       		.byte	0x53
 2928 005e 14000000 		.4byte	.LVL4
 2929 0062 16000000 		.4byte	.LVL5
 2930 0066 0100     		.2byte	0x1
 2931 0068 53       		.byte	0x53
 2932 0069 18000000 		.4byte	.LVL6
 2933 006d 22000000 		.4byte	.LVL9
 2934 0071 0100     		.2byte	0x1
 2935 0073 53       		.byte	0x53
 2936 0074 00000000 		.4byte	0
 2937 0078 00000000 		.4byte	0
 2938              	.LLST2:
 2939 007c 00000000 		.4byte	.LVL0
 2940 0080 22000000 		.4byte	.LVL9
 2941 0084 0200     		.2byte	0x2
 2942 0086 30       		.byte	0x30
 2943 0087 9F       		.byte	0x9f
 2944 0088 22000000 		.4byte	.LVL9
 2945 008c 24000000 		.4byte	.LFE7
ARM GAS  C:\Users\Alan\AppData\Local\Temp\ccbjvqhO.s 			page 85


 2946 0090 0100     		.2byte	0x1
 2947 0092 50       		.byte	0x50
 2948 0093 00000000 		.4byte	0
 2949 0097 00000000 		.4byte	0
 2950              	.LLST3:
 2951 009b 00000000 		.4byte	.LVL10
 2952 009f 09000000 		.4byte	.LVL11-1
 2953 00a3 0100     		.2byte	0x1
 2954 00a5 50       		.byte	0x50
 2955 00a6 09000000 		.4byte	.LVL11-1
 2956 00aa 32000000 		.4byte	.LVL17
 2957 00ae 0100     		.2byte	0x1
 2958 00b0 54       		.byte	0x54
 2959 00b1 32000000 		.4byte	.LVL17
 2960 00b5 38000000 		.4byte	.LFE2
 2961 00b9 0400     		.2byte	0x4
 2962 00bb F3       		.byte	0xf3
 2963 00bc 01       		.uleb128 0x1
 2964 00bd 50       		.byte	0x50
 2965 00be 9F       		.byte	0x9f
 2966 00bf 00000000 		.4byte	0
 2967 00c3 00000000 		.4byte	0
 2968              	.LLST4:
 2969 00c7 0A000000 		.4byte	.LVL11
 2970 00cb 24000000 		.4byte	.LVL12
 2971 00cf 0100     		.2byte	0x1
 2972 00d1 50       		.byte	0x50
 2973 00d2 24000000 		.4byte	.LVL12
 2974 00d6 27000000 		.4byte	.LVL13-1
 2975 00da 0200     		.2byte	0x2
 2976 00dc 71       		.byte	0x71
 2977 00dd 03       		.sleb128 3
 2978 00de 2A000000 		.4byte	.LVL14
 2979 00e2 2C000000 		.4byte	.LVL15
 2980 00e6 0100     		.2byte	0x1
 2981 00e8 50       		.byte	0x50
 2982 00e9 00000000 		.4byte	0
 2983 00ed 00000000 		.4byte	0
 2984              	.LLST5:
 2985 00f1 00000000 		.4byte	.LVL18
 2986 00f5 66000000 		.4byte	.LVL20
 2987 00f9 0100     		.2byte	0x1
 2988 00fb 50       		.byte	0x50
 2989 00fc 66000000 		.4byte	.LVL20
 2990 0100 D6000000 		.4byte	.LVL31
 2991 0104 0400     		.2byte	0x4
 2992 0106 F3       		.byte	0xf3
 2993 0107 01       		.uleb128 0x1
 2994 0108 50       		.byte	0x50
 2995 0109 9F       		.byte	0x9f
 2996 010a D6000000 		.4byte	.LVL31
 2997 010e F8000000 		.4byte	.LVL32
 2998 0112 0100     		.2byte	0x1
 2999 0114 50       		.byte	0x50
 3000 0115 F8000000 		.4byte	.LVL32
 3001 0119 00010000 		.4byte	.LVL34
 3002 011d 0400     		.2byte	0x4
ARM GAS  C:\Users\Alan\AppData\Local\Temp\ccbjvqhO.s 			page 86


 3003 011f F3       		.byte	0xf3
 3004 0120 01       		.uleb128 0x1
 3005 0121 50       		.byte	0x50
 3006 0122 9F       		.byte	0x9f
 3007 0123 00010000 		.4byte	.LVL34
 3008 0127 6C010000 		.4byte	.LVL35
 3009 012b 0100     		.2byte	0x1
 3010 012d 50       		.byte	0x50
 3011 012e 6C010000 		.4byte	.LVL35
 3012 0132 8E010000 		.4byte	.LVL38
 3013 0136 0400     		.2byte	0x4
 3014 0138 F3       		.byte	0xf3
 3015 0139 01       		.uleb128 0x1
 3016 013a 50       		.byte	0x50
 3017 013b 9F       		.byte	0x9f
 3018 013c 8E010000 		.4byte	.LVL38
 3019 0140 91010000 		.4byte	.LVL39-1
 3020 0144 0100     		.2byte	0x1
 3021 0146 50       		.byte	0x50
 3022 0147 91010000 		.4byte	.LVL39-1
 3023 014b 94010000 		.4byte	.LVL40
 3024 014f 0400     		.2byte	0x4
 3025 0151 F3       		.byte	0xf3
 3026 0152 01       		.uleb128 0x1
 3027 0153 50       		.byte	0x50
 3028 0154 9F       		.byte	0x9f
 3029 0155 94010000 		.4byte	.LVL40
 3030 0159 9E010000 		.4byte	.LVL42
 3031 015d 0100     		.2byte	0x1
 3032 015f 50       		.byte	0x50
 3033 0160 9E010000 		.4byte	.LVL42
 3034 0164 A4010000 		.4byte	.LVL44
 3035 0168 0400     		.2byte	0x4
 3036 016a F3       		.byte	0xf3
 3037 016b 01       		.uleb128 0x1
 3038 016c 50       		.byte	0x50
 3039 016d 9F       		.byte	0x9f
 3040 016e A4010000 		.4byte	.LVL44
 3041 0172 A6010000 		.4byte	.LVL45
 3042 0176 0100     		.2byte	0x1
 3043 0178 50       		.byte	0x50
 3044 0179 A6010000 		.4byte	.LVL45
 3045 017d AC010000 		.4byte	.LVL47
 3046 0181 0400     		.2byte	0x4
 3047 0183 F3       		.byte	0xf3
 3048 0184 01       		.uleb128 0x1
 3049 0185 50       		.byte	0x50
 3050 0186 9F       		.byte	0x9f
 3051 0187 AC010000 		.4byte	.LVL47
 3052 018b B6010000 		.4byte	.LVL48
 3053 018f 0100     		.2byte	0x1
 3054 0191 50       		.byte	0x50
 3055 0192 B6010000 		.4byte	.LVL48
 3056 0196 14020000 		.4byte	.LFE10
 3057 019a 0400     		.2byte	0x4
 3058 019c F3       		.byte	0xf3
 3059 019d 01       		.uleb128 0x1
ARM GAS  C:\Users\Alan\AppData\Local\Temp\ccbjvqhO.s 			page 87


 3060 019e 50       		.byte	0x50
 3061 019f 9F       		.byte	0x9f
 3062 01a0 00000000 		.4byte	0
 3063 01a4 00000000 		.4byte	0
 3064              	.LLST6:
 3065 01a8 00000000 		.4byte	.LVL18
 3066 01ac 0C000000 		.4byte	.LVL19
 3067 01b0 0100     		.2byte	0x1
 3068 01b2 51       		.byte	0x51
 3069 01b3 0C000000 		.4byte	.LVL19
 3070 01b7 D6010000 		.4byte	.LVL50
 3071 01bb 0100     		.2byte	0x1
 3072 01bd 55       		.byte	0x55
 3073 01be D6010000 		.4byte	.LVL50
 3074 01c2 14020000 		.4byte	.LFE10
 3075 01c6 0400     		.2byte	0x4
 3076 01c8 F3       		.byte	0xf3
 3077 01c9 01       		.uleb128 0x1
 3078 01ca 51       		.byte	0x51
 3079 01cb 9F       		.byte	0x9f
 3080 01cc 00000000 		.4byte	0
 3081 01d0 00000000 		.4byte	0
 3082              	.LLST7:
 3083 01d4 9C010000 		.4byte	.LVL41
 3084 01d8 A1010000 		.4byte	.LVL43-1
 3085 01dc 0100     		.2byte	0x1
 3086 01de 51       		.byte	0x51
 3087 01df 00000000 		.4byte	0
 3088 01e3 00000000 		.4byte	0
 3089              		.section	.debug_aranges,"",%progbits
 3090 0000 34000000 		.4byte	0x34
 3091 0004 0200     		.2byte	0x2
 3092 0006 00000000 		.4byte	.Ldebug_info0
 3093 000a 04       		.byte	0x4
 3094 000b 00       		.byte	0
 3095 000c 0000     		.2byte	0
 3096 000e 0000     		.2byte	0
 3097 0010 00000000 		.4byte	.LFB4
 3098 0014 10000000 		.4byte	.LFE4-.LFB4
 3099 0018 00000000 		.4byte	.LFB7
 3100 001c 24000000 		.4byte	.LFE7-.LFB7
 3101 0020 00000000 		.4byte	.LFB2
 3102 0024 38000000 		.4byte	.LFE2-.LFB2
 3103 0028 00000000 		.4byte	.LFB10
 3104 002c 14020000 		.4byte	.LFE10-.LFB10
 3105 0030 00000000 		.4byte	0
 3106 0034 00000000 		.4byte	0
 3107              		.section	.debug_ranges,"",%progbits
 3108              	.Ldebug_ranges0:
 3109 0000 00000000 		.4byte	.LFB4
 3110 0004 10000000 		.4byte	.LFE4
 3111 0008 00000000 		.4byte	.LFB7
 3112 000c 24000000 		.4byte	.LFE7
 3113 0010 00000000 		.4byte	.LFB2
 3114 0014 38000000 		.4byte	.LFE2
 3115 0018 00000000 		.4byte	.LFB10
 3116 001c 14020000 		.4byte	.LFE10
ARM GAS  C:\Users\Alan\AppData\Local\Temp\ccbjvqhO.s 			page 88


 3117 0020 00000000 		.4byte	0
 3118 0024 00000000 		.4byte	0
 3119              		.section	.debug_line,"",%progbits
 3120              	.Ldebug_line0:
 3121 0000 A2010000 		.section	.debug_str,"MS",%progbits,1
 3121      0200E000 
 3121      00000201 
 3121      FB0E0D00 
 3121      01010101 
 3122              	.LASF269:
 3123 0000 6379426C 		.ascii	"cyBle_peerBonding\000"
 3123      655F7065 
 3123      6572426F 
 3123      6E64696E 
 3123      6700
 3124              	.LASF217:
 3125 0012 4359424C 		.ascii	"CYBLE_GATT_ERR_INVALID_CRC\000"
 3125      455F4741 
 3125      54545F45 
 3125      52525F49 
 3125      4E56414C 
 3126              	.LASF15:
 3127 002d 73697A65 		.ascii	"sizetype\000"
 3127      74797065 
 3127      00
 3128              	.LASF153:
 3129 0036 656B6579 		.ascii	"ekeySize\000"
 3129      53697A65 
 3129      00
 3130              	.LASF187:
 3131 003f 4359424C 		.ascii	"CYBLE_GATT_HANDLE_VALUE_CNF\000"
 3131      455F4741 
 3131      54545F48 
 3131      414E444C 
 3131      455F5641 
 3132              	.LASF281:
 3133 005b 4379426C 		.ascii	"CyBle_SetDeviceAddress\000"
 3133      655F5365 
 3133      74446576 
 3133      69636541 
 3133      64647265 
 3134              	.LASF282:
 3135 0072 4379426C 		.ascii	"CyBle_GapSetIoCap\000"
 3135      655F4761 
 3135      70536574 
 3135      496F4361 
 3135      7000
 3136              	.LASF291:
 3137 0084 4379426C 		.ascii	"CyBle_WriteReqHandler\000"
 3137      655F5772 
 3137      69746552 
 3137      65714861 
 3137      6E646C65 
 3138              	.LASF257:
 3139 009a 6576656E 		.ascii	"eventParam\000"
 3139      74506172 
 3139      616D00
ARM GAS  C:\Users\Alan\AppData\Local\Temp\ccbjvqhO.s 			page 89


 3140              	.LASF29:
 3141 00a5 4359424C 		.ascii	"CYBLE_EVT_GAP_DEVICE_CONNECTED\000"
 3141      455F4556 
 3141      545F4741 
 3141      505F4445 
 3141      56494345 
 3142              	.LASF134:
 3143 00c4 4359424C 		.ascii	"CYBLE_GAP_IOCAP_NOINPUT_NOOUTPUT\000"
 3143      455F4741 
 3143      505F494F 
 3143      4341505F 
 3143      4E4F494E 
 3144              	.LASF36:
 3145 00e5 4359424C 		.ascii	"CYBLE_EVT_GATT_CONNECT_IND\000"
 3145      455F4556 
 3145      545F4741 
 3145      54545F43 
 3145      4F4E4E45 
 3146              	.LASF180:
 3147 0100 4359424C 		.ascii	"CYBLE_GATT_WRITE_CMD\000"
 3147      455F4741 
 3147      54545F57 
 3147      52495445 
 3147      5F434D44 
 3148              	.LASF11:
 3149 0115 75696E74 		.ascii	"uint32\000"
 3149      333200
 3150              	.LASF136:
 3151 011c 4359424C 		.ascii	"CYBLE_GAP_IOCAP_T\000"
 3151      455F4741 
 3151      505F494F 
 3151      4341505F 
 3151      5400
 3152              	.LASF116:
 3153 012e 626C6550 		.ascii	"blePwrLevelInDbm\000"
 3153      77724C65 
 3153      76656C49 
 3153      6E44626D 
 3153      00
 3154              	.LASF192:
 3155 013f 4359424C 		.ascii	"CYBLE_GATT_ERR_READ_NOT_PERMITTED\000"
 3155      455F4741 
 3155      54545F45 
 3155      52525F52 
 3155      4541445F 
 3156              	.LASF207:
 3157 0161 4359424C 		.ascii	"CYBLE_GATT_ERR_INSUFFICIENT_RESOURCE\000"
 3157      455F4741 
 3157      54545F45 
 3157      52525F49 
 3157      4E535546 
 3158              	.LASF181:
 3159 0186 4359424C 		.ascii	"CYBLE_GATT_PREPARE_WRITE_REQ\000"
 3159      455F4741 
 3159      54545F50 
 3159      52455041 
 3159      52455F57 
ARM GAS  C:\Users\Alan\AppData\Local\Temp\ccbjvqhO.s 			page 90


 3160              	.LASF206:
 3161 01a3 4359424C 		.ascii	"CYBLE_GATT_ERR_UNSUPPORTED_GROUP_TYPE\000"
 3161      455F4741 
 3161      54545F45 
 3161      52525F55 
 3161      4E535550 
 3162              	.LASF89:
 3163 01c9 4359424C 		.ascii	"CYBLE_ERROR_L2CAP_CONNECTION_ENTITY_NOT_FOUND\000"
 3163      455F4552 
 3163      524F525F 
 3163      4C324341 
 3163      505F434F 
 3164              	.LASF95:
 3165 01f7 4359424C 		.ascii	"CYBLE_ERROR_MIC_AUTH_FAILED\000"
 3165      455F4552 
 3165      524F525F 
 3165      4D49435F 
 3165      41555448 
 3166              	.LASF56:
 3167 0213 4359424C 		.ascii	"CYBLE_EVT_GATTS_DATA_SIGNED_CMD_REQ\000"
 3167      455F4556 
 3167      545F4741 
 3167      5454535F 
 3167      44415441 
 3168              	.LASF67:
 3169 0237 4359424C 		.ascii	"CYBLE_EVT_L2CAP_CBFC_RX_CREDIT_IND\000"
 3169      455F4556 
 3169      545F4C32 
 3169      4341505F 
 3169      43424643 
 3170              	.LASF232:
 3171 025a 4359424C 		.ascii	"CYBLE_GATT_VALUE_T\000"
 3171      455F4741 
 3171      54545F56 
 3171      414C5545 
 3171      5F5400
 3172              	.LASF175:
 3173 026d 4359424C 		.ascii	"CYBLE_GATT_READ_MULTIPLE_RSP\000"
 3173      455F4741 
 3173      54545F52 
 3173      4541445F 
 3173      4D554C54 
 3174              	.LASF120:
 3175 028a 74797065 		.ascii	"type\000"
 3175      00
 3176              	.LASF126:
 3177 028f 4359424C 		.ascii	"CYBLE_TO_REASON_CODE_T\000"
 3177      455F544F 
 3177      5F524541 
 3177      534F4E5F 
 3177      434F4445 
 3178              	.LASF148:
 3179 02a6 4359424C 		.ascii	"CYBLE_GAP_AUTH_ERROR_AUTHENTICATION_TIMEOUT\000"
 3179      455F4741 
 3179      505F4155 
 3179      54485F45 
 3179      52524F52 
ARM GAS  C:\Users\Alan\AppData\Local\Temp\ccbjvqhO.s 			page 91


 3180              	.LASF145:
 3181 02d2 4359424C 		.ascii	"CYBLE_GAP_AUTH_ERROR_UNSPECIFIED_REASON\000"
 3181      455F4741 
 3181      505F4155 
 3181      54485F45 
 3181      52524F52 
 3182              	.LASF169:
 3183 02fa 4359424C 		.ascii	"CYBLE_GATT_READ_BY_TYPE_RSP\000"
 3183      455F4741 
 3183      54545F52 
 3183      4541445F 
 3183      42595F54 
 3184              	.LASF243:
 3185 0316 4359424C 		.ascii	"CYBLE_CALLBACK_T\000"
 3185      455F4341 
 3185      4C4C4241 
 3185      434B5F54 
 3185      00
 3186              	.LASF53:
 3187 0327 4359424C 		.ascii	"CYBLE_EVT_GATTC_HANDLE_VALUE_NTF\000"
 3187      455F4556 
 3187      545F4741 
 3187      5454435F 
 3187      48414E44 
 3188              	.LASF23:
 3189 0348 4359424C 		.ascii	"CYBLE_EVT_GAP_AUTH_REQ\000"
 3189      455F4556 
 3189      545F4741 
 3189      505F4155 
 3189      54485F52 
 3190              	.LASF230:
 3191 035f 4359424C 		.ascii	"CYBLE_CONN_HANDLE_T\000"
 3191      455F434F 
 3191      4E4E5F48 
 3191      414E444C 
 3191      455F5400 
 3192              	.LASF84:
 3193 0373 4359424C 		.ascii	"CYBLE_ERROR_BT_ON_NOT_COMPLETED\000"
 3193      455F4552 
 3193      524F525F 
 3193      42545F4F 
 3193      4E5F4E4F 
 3194              	.LASF131:
 3195 0393 4359424C 		.ascii	"CYBLE_GAP_IOCAP_DISPLAY_ONLY\000"
 3195      455F4741 
 3195      505F494F 
 3195      4341505F 
 3195      44495350 
 3196              	.LASF105:
 3197 03b0 4359424C 		.ascii	"CYBLE_LL_PWR_LVL_NEG_3_DBM\000"
 3197      455F4C4C 
 3197      5F505752 
 3197      5F4C564C 
 3197      5F4E4547 
 3198              	.LASF252:
 3199 03cb 4359424C 		.ascii	"CYBLE_STATE_ADVERTISING\000"
 3199      455F5354 
ARM GAS  C:\Users\Alan\AppData\Local\Temp\ccbjvqhO.s 			page 92


 3199      4154455F 
 3199      41445645 
 3199      52544953 
 3200              	.LASF278:
 3201 03e3 4379426C 		.ascii	"CyBle_GattsWriteRsp\000"
 3201      655F4761 
 3201      74747357 
 3201      72697465 
 3201      52737000 
 3202              	.LASF228:
 3203 03f7 62644861 		.ascii	"bdHandle\000"
 3203      6E646C65 
 3203      00
 3204              	.LASF138:
 3205 0400 4359424C 		.ascii	"CYBLE_GAP_AUTH_ERROR_PASSKEY_ENTRY_FAILED\000"
 3205      455F4741 
 3205      505F4155 
 3205      54485F45 
 3205      52524F52 
 3206              	.LASF220:
 3207 042a 4359424C 		.ascii	"CYBLE_GATT_ERR_ANCS_INVALID_COMMAND\000"
 3207      455F4741 
 3207      54545F45 
 3207      52525F41 
 3207      4E43535F 
 3208              	.LASF279:
 3209 044e 4379426C 		.ascii	"CyBle_SetTxPowerLevel\000"
 3209      655F5365 
 3209      74547850 
 3209      6F776572 
 3209      4C657665 
 3210              	.LASF103:
 3211 0464 4359424C 		.ascii	"CYBLE_LL_PWR_LVL_NEG_12_DBM\000"
 3211      455F4C4C 
 3211      5F505752 
 3211      5F4C564C 
 3211      5F4E4547 
 3212              	.LASF163:
 3213 0480 4359424C 		.ascii	"CYBLE_GATT_XCHNG_MTU_RSP\000"
 3213      455F4741 
 3213      54545F58 
 3213      43484E47 
 3213      5F4D5455 
 3214              	.LASF49:
 3215 0499 4359424C 		.ascii	"CYBLE_EVT_GATTS_WRITE_CMD_REQ\000"
 3215      455F4556 
 3215      545F4741 
 3215      5454535F 
 3215      57524954 
 3216              	.LASF4:
 3217 04b7 6C6F6E67 		.ascii	"long int\000"
 3217      20696E74 
 3217      00
 3218              	.LASF127:
 3219 04c0 4359424C 		.ascii	"CYBLE_GAP_SEC_LEVEL_1\000"
 3219      455F4741 
 3219      505F5345 
ARM GAS  C:\Users\Alan\AppData\Local\Temp\ccbjvqhO.s 			page 93


 3219      435F4C45 
 3219      56454C5F 
 3220              	.LASF128:
 3221 04d6 4359424C 		.ascii	"CYBLE_GAP_SEC_LEVEL_2\000"
 3221      455F4741 
 3221      505F5345 
 3221      435F4C45 
 3221      56454C5F 
 3222              	.LASF129:
 3223 04ec 4359424C 		.ascii	"CYBLE_GAP_SEC_LEVEL_3\000"
 3223      455F4741 
 3223      505F5345 
 3223      435F4C45 
 3223      56454C5F 
 3224              	.LASF167:
 3225 0502 4359424C 		.ascii	"CYBLE_GATT_FIND_BY_TYPE_VALUE_RSP\000"
 3225      455F4741 
 3225      54545F46 
 3225      494E445F 
 3225      42595F54 
 3226              	.LASF17:
 3227 0524 4359424C 		.ascii	"CYBLE_EVT_STACK_ON\000"
 3227      455F4556 
 3227      545F5354 
 3227      41434B5F 
 3227      4F4E00
 3228              	.LASF91:
 3229 0537 4359424C 		.ascii	"CYBLE_ERROR_L2CAP_PSM_NOT_IN_RANGE\000"
 3229      455F4552 
 3229      524F525F 
 3229      4C324341 
 3229      505F5053 
 3230              	.LASF265:
 3231 055a 6379426C 		.ascii	"cyBle_deviceAddress\000"
 3231      655F6465 
 3231      76696365 
 3231      41646472 
 3231      65737300 
 3232              	.LASF194:
 3233 056e 4359424C 		.ascii	"CYBLE_GATT_ERR_INVALID_PDU\000"
 3233      455F4741 
 3233      54545F45 
 3233      52525F49 
 3233      4E56414C 
 3234              	.LASF141:
 3235 0589 4359424C 		.ascii	"CYBLE_GAP_AUTH_ERROR_CONFIRM_VALUE_NOT_MATCH\000"
 3235      455F4741 
 3235      505F4155 
 3235      54485F45 
 3235      52524F52 
 3236              	.LASF99:
 3237 05b6 4359424C 		.ascii	"CYBLE_ERROR_CHAR_IS_NOT_DISCOVERED\000"
 3237      455F4552 
 3237      524F525F 
 3237      43484152 
 3237      5F49535F 
 3238              	.LASF235:
ARM GAS  C:\Users\Alan\AppData\Local\Temp\ccbjvqhO.s 			page 94


 3239 05d9 4359424C 		.ascii	"CYBLE_GATT_HANDLE_VALUE_PAIR_T\000"
 3239      455F4741 
 3239      54545F48 
 3239      414E444C 
 3239      455F5641 
 3240              	.LASF117:
 3241 05f8 626C6553 		.ascii	"bleSsChId\000"
 3241      73436849 
 3241      6400
 3242              	.LASF61:
 3243 0602 4359424C 		.ascii	"CYBLE_EVT_L2CAP_COMMAND_REJ\000"
 3243      455F4556 
 3243      545F4C32 
 3243      4341505F 
 3243      434F4D4D 
 3244              	.LASF173:
 3245 061e 4359424C 		.ascii	"CYBLE_GATT_READ_BLOB_RSP\000"
 3245      455F4741 
 3245      54545F52 
 3245      4541445F 
 3245      424C4F42 
 3246              	.LASF203:
 3247 0637 4359424C 		.ascii	"CYBLE_GATT_ERR_INVALID_ATTRIBUTE_LEN\000"
 3247      455F4741 
 3247      54545F45 
 3247      52525F49 
 3247      4E56414C 
 3248              	.LASF92:
 3249 065c 4359424C 		.ascii	"CYBLE_ERROR_GATT_DB_INVALID_ATTR_HANDLE\000"
 3249      455F4552 
 3249      524F525F 
 3249      47415454 
 3249      5F44425F 
 3250              	.LASF0:
 3251 0684 7369676E 		.ascii	"signed char\000"
 3251      65642063 
 3251      68617200 
 3252              	.LASF102:
 3253 0690 4359424C 		.ascii	"CYBLE_LL_PWR_LVL_NEG_18_DBM\000"
 3253      455F4C4C 
 3253      5F505752 
 3253      5F4C564C 
 3253      5F4E4547 
 3254              	.LASF164:
 3255 06ac 4359424C 		.ascii	"CYBLE_GATT_FIND_INFO_REQ\000"
 3255      455F4741 
 3255      54545F46 
 3255      494E445F 
 3255      494E464F 
 3256              	.LASF19:
 3257 06c5 4359424C 		.ascii	"CYBLE_EVT_HARDWARE_ERROR\000"
 3257      455F4556 
 3257      545F4841 
 3257      52445741 
 3257      52455F45 
 3258              	.LASF292:
 3259 06de 4379426C 		.ascii	"CyBle_EventHandler\000"
ARM GAS  C:\Users\Alan\AppData\Local\Temp\ccbjvqhO.s 			page 95


 3259      655F4576 
 3259      656E7448 
 3259      616E646C 
 3259      657200
 3260              	.LASF73:
 3261 06f1 4359424C 		.ascii	"CYBLE_ERROR_OK\000"
 3261      455F4552 
 3261      524F525F 
 3261      4F4B00
 3262              	.LASF115:
 3263 0700 4359424C 		.ascii	"CYBLE_BLESS_PHY_CH_GRP_ID_T\000"
 3263      455F424C 
 3263      4553535F 
 3263      5048595F 
 3263      43485F47 
 3264              	.LASF223:
 3265 071c 4359424C 		.ascii	"CYBLE_GATT_ERR_CCCD_IMPROPERLY_CONFIGURED\000"
 3265      455F4741 
 3265      54545F45 
 3265      52525F43 
 3265      4343445F 
 3266              	.LASF40:
 3267 0746 4359424C 		.ascii	"CYBLE_EVT_GATTC_READ_BY_GROUP_TYPE_RSP\000"
 3267      455F4556 
 3267      545F4741 
 3267      5454435F 
 3267      52454144 
 3268              	.LASF249:
 3269 076d 4359424C 		.ascii	"CYBLE_STATE_STOPPED\000"
 3269      455F5354 
 3269      4154455F 
 3269      53544F50 
 3269      50454400 
 3270              	.LASF240:
 3271 0781 4359424C 		.ascii	"CYBLE_GATTS_ERR_PARAM_T\000"
 3271      455F4741 
 3271      5454535F 
 3271      4552525F 
 3271      50415241 
 3272              	.LASF1:
 3273 0799 756E7369 		.ascii	"unsigned char\000"
 3273      676E6564 
 3273      20636861 
 3273      7200
 3274              	.LASF39:
 3275 07a7 4359424C 		.ascii	"CYBLE_EVT_GATTC_XCHNG_MTU_RSP\000"
 3275      455F4556 
 3275      545F4741 
 3275      5454435F 
 3275      5843484E 
 3276              	.LASF186:
 3277 07c5 4359424C 		.ascii	"CYBLE_GATT_HANDLE_VALUE_IND\000"
 3277      455F4741 
 3277      54545F48 
 3277      414E444C 
 3277      455F5641 
 3278              	.LASF68:
ARM GAS  C:\Users\Alan\AppData\Local\Temp\ccbjvqhO.s 			page 96


 3279 07e1 4359424C 		.ascii	"CYBLE_EVT_L2CAP_CBFC_TX_CREDIT_IND\000"
 3279      455F4556 
 3279      545F4C32 
 3279      4341505F 
 3279      43424643 
 3280              	.LASF239:
 3281 0804 6572726F 		.ascii	"errorCode\000"
 3281      72436F64 
 3281      6500
 3282              	.LASF147:
 3283 080e 4359424C 		.ascii	"CYBLE_GAP_AUTH_ERROR_INVALID_PARAMETERS\000"
 3283      455F4741 
 3283      505F4155 
 3283      54485F45 
 3283      52524F52 
 3284              	.LASF65:
 3285 0836 4359424C 		.ascii	"CYBLE_EVT_L2CAP_CBFC_DISCONN_CNF\000"
 3285      455F4556 
 3285      545F4C32 
 3285      4341505F 
 3285      43424643 
 3286              	.LASF43:
 3287 0857 4359424C 		.ascii	"CYBLE_EVT_GATTC_FIND_BY_TYPE_VALUE_RSP\000"
 3287      455F4556 
 3287      545F4741 
 3287      5454435F 
 3287      46494E44 
 3288              	.LASF14:
 3289 087e 63686172 		.ascii	"char\000"
 3289      00
 3290              	.LASF106:
 3291 0883 4359424C 		.ascii	"CYBLE_LL_PWR_LVL_NEG_2_DBM\000"
 3291      455F4C4C 
 3291      5F505752 
 3291      5F4C564C 
 3291      5F4E4547 
 3292              	.LASF179:
 3293 089e 4359424C 		.ascii	"CYBLE_GATT_WRITE_RSP\000"
 3293      455F4741 
 3293      54545F57 
 3293      52495445 
 3293      5F525350 
 3294              	.LASF46:
 3295 08b3 4359424C 		.ascii	"CYBLE_EVT_GATTC_READ_MULTI_RSP\000"
 3295      455F4556 
 3295      545F4741 
 3295      5454435F 
 3295      52454144 
 3296              	.LASF155:
 3297 08d2 4359424C 		.ascii	"CYBLE_GAP_AUTH_INFO_T\000"
 3297      455F4741 
 3297      505F4155 
 3297      54485F49 
 3297      4E464F5F 
 3298              	.LASF133:
 3299 08e8 4359424C 		.ascii	"CYBLE_GAP_IOCAP_KEYBOARD_ONLY\000"
 3299      455F4741 
ARM GAS  C:\Users\Alan\AppData\Local\Temp\ccbjvqhO.s 			page 97


 3299      505F494F 
 3299      4341505F 
 3299      4B455942 
 3300              	.LASF16:
 3301 0906 4359424C 		.ascii	"CYBLE_EVT_HOST_INVALID\000"
 3301      455F4556 
 3301      545F484F 
 3301      53545F49 
 3301      4E56414C 
 3302              	.LASF214:
 3303 091d 4359424C 		.ascii	"CYBLE_GATT_ERR_MISSING_CRC\000"
 3303      455F4741 
 3303      54545F45 
 3303      52525F4D 
 3303      49535349 
 3304              	.LASF204:
 3305 0938 4359424C 		.ascii	"CYBLE_GATT_ERR_UNLIKELY_ERROR\000"
 3305      455F4741 
 3305      54545F45 
 3305      52525F55 
 3305      4E4C494B 
 3306              	.LASF162:
 3307 0956 4359424C 		.ascii	"CYBLE_GATT_XCNHG_MTU_REQ\000"
 3307      455F4741 
 3307      54545F58 
 3307      434E4847 
 3307      5F4D5455 
 3308              	.LASF80:
 3309 096f 4359424C 		.ascii	"CYBLE_ERROR_NO_DEVICE_ENTITY\000"
 3309      455F4552 
 3309      524F525F 
 3309      4E4F5F44 
 3309      45564943 
 3310              	.LASF45:
 3311 098c 4359424C 		.ascii	"CYBLE_EVT_GATTC_READ_BLOB_RSP\000"
 3311      455F4556 
 3311      545F4741 
 3311      5454435F 
 3311      52454144 
 3312              	.LASF264:
 3313 09aa 6379426C 		.ascii	"cyBle_eventHandlerFlag\000"
 3313      655F6576 
 3313      656E7448 
 3313      616E646C 
 3313      6572466C 
 3314              	.LASF52:
 3315 09c1 4359424C 		.ascii	"CYBLE_EVT_GATTC_EXEC_WRITE_RSP\000"
 3315      455F4556 
 3315      545F4741 
 3315      5454435F 
 3315      45584543 
 3316              	.LASF208:
 3317 09e0 4359424C 		.ascii	"CYBLE_GATT_ERR_HEART_RATE_CONTROL_POINT_NOT_SUPPORT"
 3317      455F4741 
 3317      54545F45 
 3317      52525F48 
 3317      45415254 
ARM GAS  C:\Users\Alan\AppData\Local\Temp\ccbjvqhO.s 			page 98


 3318 0a13 454400   		.ascii	"ED\000"
 3319              	.LASF201:
 3320 0a16 4359424C 		.ascii	"CYBLE_GATT_ERR_ATTRIBUTE_NOT_LONG\000"
 3320      455F4741 
 3320      54545F45 
 3320      52525F41 
 3320      54545249 
 3321              	.LASF130:
 3322 0a38 4359424C 		.ascii	"CYBLE_GAP_SEC_LEVEL_MASK\000"
 3322      455F4741 
 3322      505F5345 
 3322      435F4C45 
 3322      56454C5F 
 3323              	.LASF287:
 3324 0a51 2E5C4765 		.ascii	".\\Generated_Source\\PSoC4\\ble_eventHandler.c\000"
 3324      6E657261 
 3324      7465645F 
 3324      536F7572 
 3324      63655C50 
 3325              	.LASF222:
 3326 0a7d 4359424C 		.ascii	"CYBLE_GATT_ERR_ANCS_ACTION_FAILED\000"
 3326      455F4741 
 3326      54545F45 
 3326      52525F41 
 3326      4E43535F 
 3327              	.LASF273:
 3328 0a9f 6379426C 		.ascii	"cyBle_connHandle\000"
 3328      655F636F 
 3328      6E6E4861 
 3328      6E646C65 
 3328      00
 3329              	.LASF161:
 3330 0ab0 4359424C 		.ascii	"CYBLE_GATT_ERROR_RSP\000"
 3330      455F4741 
 3330      54545F45 
 3330      52524F52 
 3330      5F525350 
 3331              	.LASF74:
 3332 0ac5 4359424C 		.ascii	"CYBLE_ERROR_INVALID_PARAMETER\000"
 3332      455F4552 
 3332      524F525F 
 3332      494E5641 
 3332      4C49445F 
 3333              	.LASF247:
 3334 0ae3 626F756E 		.ascii	"boundedDevCount\000"
 3334      64656444 
 3334      6576436F 
 3334      756E7400 
 3335              	.LASF76:
 3336 0af3 4359424C 		.ascii	"CYBLE_ERROR_MEMORY_ALLOCATION_FAILED\000"
 3336      455F4552 
 3336      524F525F 
 3336      4D454D4F 
 3336      52595F41 
 3337              	.LASF266:
 3338 0b18 6379426C 		.ascii	"cyBle_sflashDeviceAddress\000"
 3338      655F7366 
ARM GAS  C:\Users\Alan\AppData\Local\Temp\ccbjvqhO.s 			page 99


 3338      6C617368 
 3338      44657669 
 3338      63654164 
 3339              	.LASF245:
 3340 0b32 61747456 		.ascii	"attValuesCCCDFlashMemory\000"
 3340      616C7565 
 3340      73434343 
 3340      44466C61 
 3340      73684D65 
 3341              	.LASF188:
 3342 0b4b 4359424C 		.ascii	"CYBLE_GATT_SIGNED_WRITE_CMD\000"
 3342      455F4741 
 3342      54545F53 
 3342      49474E45 
 3342      445F5752 
 3343              	.LASF215:
 3344 0b67 4359424C 		.ascii	"CYBLE_GATTS_ERR_CCCD_IMPROPERLY_CONFIGURED\000"
 3344      455F4741 
 3344      5454535F 
 3344      4552525F 
 3344      43434344 
 3345              	.LASF280:
 3346 0b92 4379426C 		.ascii	"CyBle_GattsExchangeMtuRsp\000"
 3346      655F4761 
 3346      74747345 
 3346      78636861 
 3346      6E67654D 
 3347              	.LASF184:
 3348 0bac 4359424C 		.ascii	"CYBLE_GATT_EXECUTE_WRITE_RSP\000"
 3348      455F4741 
 3348      54545F45 
 3348      58454355 
 3348      54455F57 
 3349              	.LASF96:
 3350 0bc9 4359424C 		.ascii	"CYBLE_ERROR_MAX\000"
 3350      455F4552 
 3350      524F525F 
 3350      4D415800 
 3351              	.LASF60:
 3352 0bd9 4359424C 		.ascii	"CYBLE_EVT_L2CAP_CONN_PARAM_UPDATE_RSP\000"
 3352      455F4556 
 3352      545F4C32 
 3352      4341505F 
 3352      434F4E4E 
 3353              	.LASF149:
 3354 0bff 4359424C 		.ascii	"CYBLE_GAP_AUTH_ERROR_LINK_DISCONNECTED\000"
 3354      455F4741 
 3354      505F4155 
 3354      54485F45 
 3354      52524F52 
 3355              	.LASF244:
 3356 0c26 73746163 		.ascii	"stackFlashptr\000"
 3356      6B466C61 
 3356      73687074 
 3356      7200
 3357              	.LASF209:
 3358 0c34 4359424C 		.ascii	"CYBLE_GATT_ERR_USER_DATA_ACCESS_NOT_PERMITTED\000"
ARM GAS  C:\Users\Alan\AppData\Local\Temp\ccbjvqhO.s 			page 100


 3358      455F4741 
 3358      54545F45 
 3358      52525F55 
 3358      5345525F 
 3359              	.LASF26:
 3360 0c62 4359424C 		.ascii	"CYBLE_EVT_GAP_AUTH_COMPLETE\000"
 3360      455F4556 
 3360      545F4741 
 3360      505F4155 
 3360      54485F43 
 3361              	.LASF27:
 3362 0c7e 4359424C 		.ascii	"CYBLE_EVT_GAP_AUTH_FAILED\000"
 3362      455F4556 
 3362      545F4741 
 3362      505F4155 
 3362      54485F46 
 3363              	.LASF177:
 3364 0c98 4359424C 		.ascii	"CYBLE_GATT_READ_BY_GROUP_RSP\000"
 3364      455F4741 
 3364      54545F52 
 3364      4541445F 
 3364      42595F47 
 3365              	.LASF77:
 3366 0cb5 4359424C 		.ascii	"CYBLE_ERROR_INSUFFICIENT_RESOURCES\000"
 3366      455F4552 
 3366      524F525F 
 3366      494E5355 
 3366      46464943 
 3367              	.LASF213:
 3368 0cd8 4359424C 		.ascii	"CYBLE_GATT_ERR_OP_CODE_NOT_SUPPORTED\000"
 3368      455F4741 
 3368      54545F45 
 3368      52525F4F 
 3368      505F434F 
 3369              	.LASF109:
 3370 0cfd 4359424C 		.ascii	"CYBLE_LL_PWR_LVL_3_DBM\000"
 3370      455F4C4C 
 3370      5F505752 
 3370      5F4C564C 
 3370      5F335F44 
 3371              	.LASF5:
 3372 0d14 6C6F6E67 		.ascii	"long unsigned int\000"
 3372      20756E73 
 3372      69676E65 
 3372      6420696E 
 3372      7400
 3373              	.LASF170:
 3374 0d26 4359424C 		.ascii	"CYBLE_GATT_READ_REQ\000"
 3374      455F4741 
 3374      54545F52 
 3374      4541445F 
 3374      52455100 
 3375              	.LASF156:
 3376 0d3a 73746174 		.ascii	"status\000"
 3376      757300
 3377              	.LASF107:
 3378 0d41 4359424C 		.ascii	"CYBLE_LL_PWR_LVL_NEG_1_DBM\000"
ARM GAS  C:\Users\Alan\AppData\Local\Temp\ccbjvqhO.s 			page 101


 3378      455F4C4C 
 3378      5F505752 
 3378      5F4C564C 
 3378      5F4E4547 
 3379              	.LASF144:
 3380 0d5c 4359424C 		.ascii	"CYBLE_GAP_AUTH_ERROR_COMMAND_NOT_SUPPORTED\000"
 3380      455F4741 
 3380      505F4155 
 3380      54485F45 
 3380      52524F52 
 3381              	.LASF140:
 3382 0d87 4359424C 		.ascii	"CYBLE_GAP_AUTH_ERROR_AUTHENTICATION_REQ_NOT_MET\000"
 3382      455F4741 
 3382      505F4155 
 3382      54485F45 
 3382      52524F52 
 3383              	.LASF185:
 3384 0db7 4359424C 		.ascii	"CYBLE_GATT_HANDLE_VALUE_NTF\000"
 3384      455F4741 
 3384      54545F48 
 3384      414E444C 
 3384      455F5641 
 3385              	.LASF87:
 3386 0dd3 4359424C 		.ascii	"CYBLE_ERROR_L2CAP_PSM_ALREADY_REGISTERED\000"
 3386      455F4552 
 3386      524F525F 
 3386      4C324341 
 3386      505F5053 
 3387              	.LASF286:
 3388 0dfc 474E5520 		.ascii	"GNU C 4.9.3 20150303 (release) [ARM/embedded-4_9-br"
 3388      4320342E 
 3388      392E3320 
 3388      32303135 
 3388      30333033 
 3389 0e2f 616E6368 		.ascii	"anch revision 221220] -mcpu=cortex-m0 -mthumb -g -O"
 3389      20726576 
 3389      6973696F 
 3389      6E203232 
 3389      31323230 
 3390 0e62 67202D66 		.ascii	"g -ffunction-sections -ffat-lto-objects\000"
 3390      66756E63 
 3390      74696F6E 
 3390      2D736563 
 3390      74696F6E 
 3391              	.LASF219:
 3392 0e8a 4359424C 		.ascii	"CYBLE_GATT_ERR_ANCS_UNKNOWN_COMMAND\000"
 3392      455F4741 
 3392      54545F45 
 3392      52525F41 
 3392      4E43535F 
 3393              	.LASF32:
 3394 0eae 4359424C 		.ascii	"CYBLE_EVT_GAP_CONNECTION_UPDATE_COMPLETE\000"
 3394      455F4556 
 3394      545F4741 
 3394      505F434F 
 3394      4E4E4543 
 3395              	.LASF274:
ARM GAS  C:\Users\Alan\AppData\Local\Temp\ccbjvqhO.s 			page 102


 3396 0ed7 6379426C 		.ascii	"cyBle_busyStatus\000"
 3396      655F6275 
 3396      73795374 
 3396      61747573 
 3396      00
 3397              	.LASF284:
 3398 0ee8 4379426C 		.ascii	"CyBle_ChangeAdDeviceAddress\000"
 3398      655F4368 
 3398      616E6765 
 3398      41644465 
 3398      76696365 
 3399              	.LASF250:
 3400 0f04 4359424C 		.ascii	"CYBLE_STATE_INITIALIZING\000"
 3400      455F5354 
 3400      4154455F 
 3400      494E4954 
 3400      49414C49 
 3401              	.LASF262:
 3402 0f1d 6379426C 		.ascii	"cyBle_mtuSize\000"
 3402      655F6D74 
 3402      7553697A 
 3402      6500
 3403              	.LASF146:
 3404 0f2b 4359424C 		.ascii	"CYBLE_GAP_AUTH_ERROR_REPEATED_ATTEMPTS\000"
 3404      455F4741 
 3404      505F4155 
 3404      54485F45 
 3404      52524F52 
 3405              	.LASF64:
 3406 0f52 4359424C 		.ascii	"CYBLE_EVT_L2CAP_CBFC_DISCONN_IND\000"
 3406      455F4556 
 3406      545F4C32 
 3406      4341505F 
 3406      43424643 
 3407              	.LASF24:
 3408 0f73 4359424C 		.ascii	"CYBLE_EVT_GAP_PASSKEY_ENTRY_REQUEST\000"
 3408      455F4556 
 3408      545F4741 
 3408      505F5041 
 3408      53534B45 
 3409              	.LASF111:
 3410 0f97 4359424C 		.ascii	"CYBLE_BLESS_PWR_LVL_T\000"
 3410      455F424C 
 3410      4553535F 
 3410      5057525F 
 3410      4C564C5F 
 3411              	.LASF248:
 3412 0fad 43595F42 		.ascii	"CY_BLE_FLASH_STORAGE\000"
 3412      4C455F46 
 3412      4C415348 
 3412      5F53544F 
 3412      52414745 
 3413              	.LASF271:
 3414 0fc2 6379426C 		.ascii	"cyBle_flashStorage\000"
 3414      655F666C 
 3414      61736853 
 3414      746F7261 
ARM GAS  C:\Users\Alan\AppData\Local\Temp\ccbjvqhO.s 			page 103


 3414      676500
 3415              	.LASF283:
 3416 0fd5 4379426C 		.ascii	"CyBle_GappAuthReqReply\000"
 3416      655F4761 
 3416      70704175 
 3416      74685265 
 3416      71526570 
 3417              	.LASF143:
 3418 0fec 4359424C 		.ascii	"CYBLE_GAP_AUTH_ERROR_INSUFFICIENT_ENCRYPTION_KEY_SI"
 3418      455F4741 
 3418      505F4155 
 3418      54485F45 
 3418      52524F52 
 3419 101f 5A4500   		.ascii	"ZE\000"
 3420              	.LASF6:
 3421 1022 6C6F6E67 		.ascii	"long long int\000"
 3421      206C6F6E 
 3421      6720696E 
 3421      7400
 3422              	.LASF289:
 3423 1030 4379426C 		.ascii	"CyBle_GattDisconnectEventHandler\000"
 3423      655F4761 
 3423      74744469 
 3423      73636F6E 
 3423      6E656374 
 3424              	.LASF256:
 3425 1051 73666C61 		.ascii	"sflashDeviceAddress\000"
 3425      73684465 
 3425      76696365 
 3425      41646472 
 3425      65737300 
 3426              	.LASF199:
 3427 1065 4359424C 		.ascii	"CYBLE_GATT_ERR_PREPARE_WRITE_QUEUE_FULL\000"
 3427      455F4741 
 3427      54545F45 
 3427      52525F50 
 3427      52455041 
 3428              	.LASF88:
 3429 108d 4359424C 		.ascii	"CYBLE_ERROR_L2CAP_PSM_NOT_REGISTERED\000"
 3429      455F4552 
 3429      524F525F 
 3429      4C324341 
 3429      505F5053 
 3430              	.LASF78:
 3431 10b2 4359424C 		.ascii	"CYBLE_ERROR_OOB_NOT_AVAILABLE\000"
 3431      455F4552 
 3431      524F525F 
 3431      4F4F425F 
 3431      4E4F545F 
 3432              	.LASF13:
 3433 10d0 646F7562 		.ascii	"double\000"
 3433      6C6500
 3434              	.LASF93:
 3435 10d7 4359424C 		.ascii	"CYBLE_ERROR_DEVICE_ALREADY_EXISTS\000"
 3435      455F4552 
 3435      524F525F 
 3435      44455649 
ARM GAS  C:\Users\Alan\AppData\Local\Temp\ccbjvqhO.s 			page 104


 3435      43455F41 
 3436              	.LASF70:
 3437 10f9 4359424C 		.ascii	"CYBLE_EVT_PENDING_FLASH_WRITE\000"
 3437      455F4556 
 3437      545F5045 
 3437      4E44494E 
 3437      475F464C 
 3438              	.LASF202:
 3439 1117 4359424C 		.ascii	"CYBLE_GATT_ERR_INSUFFICIENT_ENC_KEY_SIZE\000"
 3439      455F4741 
 3439      54545F45 
 3439      52525F49 
 3439      4E535546 
 3440              	.LASF110:
 3441 1140 4359424C 		.ascii	"CYBLE_LL_PWR_LVL_MAX\000"
 3441      455F4C4C 
 3441      5F505752 
 3441      5F4C564C 
 3441      5F4D4158 
 3442              	.LASF224:
 3443 1155 4359424C 		.ascii	"CYBLE_GATT_ERR_PROCEDURE_ALREADY_IN_PROGRESS\000"
 3443      455F4741 
 3443      54545F45 
 3443      52525F50 
 3443      524F4345 
 3444              	.LASF90:
 3445 1182 4359424C 		.ascii	"CYBLE_ERROR_L2CAP_CHANNEL_NOT_FOUND\000"
 3445      455F4552 
 3445      524F525F 
 3445      4C324341 
 3445      505F4348 
 3446              	.LASF81:
 3447 11a6 4359424C 		.ascii	"CYBLE_ERROR_REPEATED_ATTEMPTS\000"
 3447      455F4552 
 3447      524F525F 
 3447      52455045 
 3447      41544544 
 3448              	.LASF12:
 3449 11c4 666C6F61 		.ascii	"float\000"
 3449      7400
 3450              	.LASF94:
 3451 11ca 4359424C 		.ascii	"CYBLE_ERROR_FLASH_WRITE_NOT_PERMITED\000"
 3451      455F4552 
 3451      524F525F 
 3451      464C4153 
 3451      485F5752 
 3452              	.LASF58:
 3453 11ef 4359424C 		.ascii	"CYBLE_EVT_GATTS_READ_CHAR_VAL_ACCESS_REQ\000"
 3453      455F4556 
 3453      545F4741 
 3453      5454535F 
 3453      52454144 
 3454              	.LASF238:
 3455 1218 6F70636F 		.ascii	"opcode\000"
 3455      646500
 3456              	.LASF198:
 3457 121f 4359424C 		.ascii	"CYBLE_GATT_ERR_INSUFFICIENT_AUTHORIZATION\000"
ARM GAS  C:\Users\Alan\AppData\Local\Temp\ccbjvqhO.s 			page 105


 3457      455F4741 
 3457      54545F45 
 3457      52525F49 
 3457      4E535546 
 3458              	.LASF234:
 3459 1249 61747472 		.ascii	"attrHandle\000"
 3459      48616E64 
 3459      6C6500
 3460              	.LASF152:
 3461 1254 626F6E64 		.ascii	"bonding\000"
 3461      696E6700 
 3462              	.LASF242:
 3463 125c 4359424C 		.ascii	"CYBLE_GATTS_WRITE_REQ_PARAM_T\000"
 3463      455F4741 
 3463      5454535F 
 3463      57524954 
 3463      455F5245 
 3464              	.LASF8:
 3465 127a 756E7369 		.ascii	"unsigned int\000"
 3465      676E6564 
 3465      20696E74 
 3465      00
 3466              	.LASF50:
 3467 1287 4359424C 		.ascii	"CYBLE_EVT_GATTS_PREP_WRITE_REQ\000"
 3467      455F4556 
 3467      545F4741 
 3467      5454535F 
 3467      50524550 
 3468              	.LASF195:
 3469 12a6 4359424C 		.ascii	"CYBLE_GATT_ERR_INSUFFICIENT_AUTHENTICATION\000"
 3469      455F4741 
 3469      54545F45 
 3469      52525F49 
 3469      4E535546 
 3470              	.LASF237:
 3471 12d1 4359424C 		.ascii	"CYBLE_GATT_XCHG_MTU_PARAM_T\000"
 3471      455F4741 
 3471      54545F58 
 3471      4348475F 
 3471      4D54555F 
 3472              	.LASF113:
 3473 12ed 4359424C 		.ascii	"CYBLE_LL_CONN_CH_TYPE\000"
 3473      455F4C4C 
 3473      5F434F4E 
 3473      4E5F4348 
 3473      5F545950 
 3474              	.LASF277:
 3475 1303 4379426C 		.ascii	"CyBle_GattsWriteEventHandler\000"
 3475      655F4761 
 3475      74747357 
 3475      72697465 
 3475      4576656E 
 3476              	.LASF212:
 3477 1320 4359424C 		.ascii	"CYBLE_GATTS_ERR_PROCEDURE_ALREADY_IN_PROGRESS\000"
 3477      455F4741 
 3477      5454535F 
 3477      4552525F 
ARM GAS  C:\Users\Alan\AppData\Local\Temp\ccbjvqhO.s 			page 106


 3477      50524F43 
 3478              	.LASF259:
 3479 134e 6572725F 		.ascii	"err_param\000"
 3479      70617261 
 3479      6D00
 3480              	.LASF86:
 3481 1358 4359424C 		.ascii	"CYBLE_ERROR_L2CAP_PSM_WRONG_ENCODING\000"
 3481      455F4552 
 3481      524F525F 
 3481      4C324341 
 3481      505F5053 
 3482              	.LASF182:
 3483 137d 4359424C 		.ascii	"CYBLE_GATT_PREPARE_WRITE_RSP\000"
 3483      455F4741 
 3483      54545F50 
 3483      52455041 
 3483      52455F57 
 3484              	.LASF200:
 3485 139a 4359424C 		.ascii	"CYBLE_GATT_ERR_ATTRIBUTE_NOT_FOUND\000"
 3485      455F4741 
 3485      54545F45 
 3485      52525F41 
 3485      54545249 
 3486              	.LASF72:
 3487 13bd 4359424C 		.ascii	"CYBLE_EVT_MAX\000"
 3487      455F4556 
 3487      545F4D41 
 3487      5800
 3488              	.LASF33:
 3489 13cb 4359424C 		.ascii	"CYBLE_EVT_GAPC_SCAN_START_STOP\000"
 3489      455F4556 
 3489      545F4741 
 3489      50435F53 
 3489      43414E5F 
 3490              	.LASF290:
 3491 13ea 4379426C 		.ascii	"CyBle_IsDeviceAddressValid\000"
 3491      655F4973 
 3491      44657669 
 3491      63654164 
 3491      64726573 
 3492              	.LASF150:
 3493 1405 4359424C 		.ascii	"CYBLE_GAP_AUTH_FAILED_REASON_T\000"
 3493      455F4741 
 3493      505F4155 
 3493      54485F46 
 3493      41494C45 
 3494              	.LASF47:
 3495 1424 4359424C 		.ascii	"CYBLE_EVT_GATTS_WRITE_REQ\000"
 3495      455F4556 
 3495      545F4741 
 3495      5454535F 
 3495      57524954 
 3496              	.LASF25:
 3497 143e 4359424C 		.ascii	"CYBLE_EVT_GAP_PASSKEY_DISPLAY_REQUEST\000"
 3497      455F4556 
 3497      545F4741 
 3497      505F5041 
ARM GAS  C:\Users\Alan\AppData\Local\Temp\ccbjvqhO.s 			page 107


 3497      53534B45 
 3498              	.LASF98:
 3499 1464 4359424C 		.ascii	"CYBLE_ERROR_IND_DISABLED\000"
 3499      455F4552 
 3499      524F525F 
 3499      494E445F 
 3499      44495341 
 3500              	.LASF97:
 3501 147d 4359424C 		.ascii	"CYBLE_ERROR_NTF_DISABLED\000"
 3501      455F4552 
 3501      524F525F 
 3501      4E54465F 
 3501      44495341 
 3502              	.LASF174:
 3503 1496 4359424C 		.ascii	"CYBLE_GATT_READ_MULTIPLE_REQ\000"
 3503      455F4741 
 3503      54545F52 
 3503      4541445F 
 3503      4D554C54 
 3504              	.LASF44:
 3505 14b3 4359424C 		.ascii	"CYBLE_EVT_GATTC_READ_RSP\000"
 3505      455F4556 
 3505      545F4741 
 3505      5454435F 
 3505      52454144 
 3506              	.LASF197:
 3507 14cc 4359424C 		.ascii	"CYBLE_GATT_ERR_INVALID_OFFSET\000"
 3507      455F4741 
 3507      54545F45 
 3507      52525F49 
 3507      4E56414C 
 3508              	.LASF168:
 3509 14ea 4359424C 		.ascii	"CYBLE_GATT_READ_BY_TYPE_REQ\000"
 3509      455F4741 
 3509      54545F52 
 3509      4541445F 
 3509      42595F54 
 3510              	.LASF63:
 3511 1506 4359424C 		.ascii	"CYBLE_EVT_L2CAP_CBFC_CONN_CNF\000"
 3511      455F4556 
 3511      545F4C32 
 3511      4341505F 
 3511      43424643 
 3512              	.LASF225:
 3513 1524 4359424C 		.ascii	"CYBLE_GATT_ERR_OUT_OF_RANGE\000"
 3513      455F4741 
 3513      54545F45 
 3513      52525F4F 
 3513      55545F4F 
 3514              	.LASF166:
 3515 1540 4359424C 		.ascii	"CYBLE_GATT_FIND_BY_TYPE_VALUE_REQ\000"
 3515      455F4741 
 3515      54545F46 
 3515      494E445F 
 3515      42595F54 
 3516              	.LASF104:
 3517 1562 4359424C 		.ascii	"CYBLE_LL_PWR_LVL_NEG_6_DBM\000"
ARM GAS  C:\Users\Alan\AppData\Local\Temp\ccbjvqhO.s 			page 108


 3517      455F4C4C 
 3517      5F505752 
 3517      5F4C564C 
 3517      5F4E4547 
 3518              	.LASF137:
 3519 157d 4359424C 		.ascii	"CYBLE_GAP_AUTH_ERROR_NONE\000"
 3519      455F4741 
 3519      505F4155 
 3519      54485F45 
 3519      52524F52 
 3520              	.LASF31:
 3521 1597 4359424C 		.ascii	"CYBLE_EVT_GAP_ENCRYPT_CHANGE\000"
 3521      455F4556 
 3521      545F4741 
 3521      505F454E 
 3521      43525950 
 3522              	.LASF38:
 3523 15b4 4359424C 		.ascii	"CYBLE_EVT_GATTS_XCNHG_MTU_REQ\000"
 3523      455F4556 
 3523      545F4741 
 3523      5454535F 
 3523      58434E48 
 3524              	.LASF165:
 3525 15d2 4359424C 		.ascii	"CYBLE_GATT_FIND_INFO_RSP\000"
 3525      455F4741 
 3525      54545F46 
 3525      494E445F 
 3525      494E464F 
 3526              	.LASF139:
 3527 15eb 4359424C 		.ascii	"CYBLE_GAP_AUTH_ERROR_OOB_DATA_NOT_AVAILABLE\000"
 3527      455F4741 
 3527      505F4155 
 3527      54485F45 
 3527      52524F52 
 3528              	.LASF160:
 3529 1617 4359424C 		.ascii	"CYBLE_GAP_CONN_PARAM_UPDATED_IN_CONTROLLER_T\000"
 3529      455F4741 
 3529      505F434F 
 3529      4E4E5F50 
 3529      4152414D 
 3530              	.LASF7:
 3531 1644 6C6F6E67 		.ascii	"long long unsigned int\000"
 3531      206C6F6E 
 3531      6720756E 
 3531      7369676E 
 3531      65642069 
 3532              	.LASF191:
 3533 165b 4359424C 		.ascii	"CYBLE_GATT_ERR_INVALID_HANDLE\000"
 3533      455F4741 
 3533      54545F45 
 3533      52525F49 
 3533      4E56414C 
 3534              	.LASF18:
 3535 1679 4359424C 		.ascii	"CYBLE_EVT_TIMEOUT\000"
 3535      455F4556 
 3535      545F5449 
 3535      4D454F55 
ARM GAS  C:\Users\Alan\AppData\Local\Temp\ccbjvqhO.s 			page 109


 3535      5400
 3536              	.LASF255:
 3537 168b 73666C61 		.ascii	"sflashAddressValid\000"
 3537      73684164 
 3537      64726573 
 3537      7356616C 
 3537      696400
 3538              	.LASF189:
 3539 169e 4359424C 		.ascii	"CYBLE_GATT_UNKNOWN_PDU_IND\000"
 3539      455F4741 
 3539      54545F55 
 3539      4E4B4E4F 
 3539      574E5F50 
 3540              	.LASF100:
 3541 16b9 4359424C 		.ascii	"CYBLE_ERROR_INVALID_STATE\000"
 3541      455F4552 
 3541      524F525F 
 3541      494E5641 
 3541      4C49445F 
 3542              	.LASF227:
 3543 16d3 4359424C 		.ascii	"CYBLE_GATT_DB_ATTR_HANDLE_T\000"
 3543      455F4741 
 3543      54545F44 
 3543      425F4154 
 3543      54525F48 
 3544              	.LASF261:
 3545 16ef 626C6553 		.ascii	"bleSsPowerLevel\000"
 3545      73506F77 
 3545      65724C65 
 3545      76656C00 
 3546              	.LASF66:
 3547 16ff 4359424C 		.ascii	"CYBLE_EVT_L2CAP_CBFC_DATA_READ\000"
 3547      455F4556 
 3547      545F4C32 
 3547      4341505F 
 3547      43424643 
 3548              	.LASF190:
 3549 171e 4359424C 		.ascii	"CYBLE_GATT_ERR_NONE\000"
 3549      455F4741 
 3549      54545F45 
 3549      52525F4E 
 3549      4F4E4500 
 3550              	.LASF233:
 3551 1732 76616C75 		.ascii	"value\000"
 3551      6500
 3552              	.LASF263:
 3553 1738 4379426C 		.ascii	"CyBle_ApplCallback\000"
 3553      655F4170 
 3553      706C4361 
 3553      6C6C6261 
 3553      636B00
 3554              	.LASF226:
 3555 174b 4359424C 		.ascii	"CYBLE_GATT_ERR_CODE_T\000"
 3555      455F4741 
 3555      54545F45 
 3555      52525F43 
 3555      4F44455F 
ARM GAS  C:\Users\Alan\AppData\Local\Temp\ccbjvqhO.s 			page 110


 3556              	.LASF123:
 3557 1761 4359424C 		.ascii	"CYBLE_GAP_SCAN_TO\000"
 3557      455F4741 
 3557      505F5343 
 3557      414E5F54 
 3557      4F00
 3558              	.LASF211:
 3559 1773 4359424C 		.ascii	"CYBLE_GATT_ERR_HTS_OUT_OF_RANGE\000"
 3559      455F4741 
 3559      54545F45 
 3559      52525F48 
 3559      54535F4F 
 3560              	.LASF121:
 3561 1793 4359424C 		.ascii	"CYBLE_GAP_BD_ADDR_T\000"
 3561      455F4741 
 3561      505F4244 
 3561      5F414444 
 3561      525F5400 
 3562              	.LASF172:
 3563 17a7 4359424C 		.ascii	"CYBLE_GATT_READ_BLOB_REQ\000"
 3563      455F4741 
 3563      54545F52 
 3563      4541445F 
 3563      424C4F42 
 3564              	.LASF122:
 3565 17c0 4359424C 		.ascii	"CYBLE_GAP_ADV_MODE_TO\000"
 3565      455F4741 
 3565      505F4144 
 3565      565F4D4F 
 3565      44455F54 
 3566              	.LASF241:
 3567 17d6 68616E64 		.ascii	"handleValPair\000"
 3567      6C655661 
 3567      6C506169 
 3567      7200
 3568              	.LASF236:
 3569 17e4 636F6E6E 		.ascii	"connHandle\000"
 3569      48616E64 
 3569      6C6500
 3570              	.LASF142:
 3571 17ef 4359424C 		.ascii	"CYBLE_GAP_AUTH_ERROR_PAIRING_NOT_SUPPORTED\000"
 3571      455F4741 
 3571      505F4155 
 3571      54485F45 
 3571      52524F52 
 3572              	.LASF125:
 3573 181a 4359424C 		.ascii	"CYBLE_GENERIC_TO\000"
 3573      455F4745 
 3573      4E455249 
 3573      435F544F 
 3573      00
 3574              	.LASF268:
 3575 182b 6379426C 		.ascii	"cyBle_pendingFlashWrite\000"
 3575      655F7065 
 3575      6E64696E 
 3575      67466C61 
 3575      73685772 
ARM GAS  C:\Users\Alan\AppData\Local\Temp\ccbjvqhO.s 			page 111


 3576              	.LASF42:
 3577 1843 4359424C 		.ascii	"CYBLE_EVT_GATTC_FIND_INFO_RSP\000"
 3577      455F4556 
 3577      545F4741 
 3577      5454435F 
 3577      46494E44 
 3578              	.LASF41:
 3579 1861 4359424C 		.ascii	"CYBLE_EVT_GATTC_READ_BY_TYPE_RSP\000"
 3579      455F4556 
 3579      545F4741 
 3579      5454435F 
 3579      52454144 
 3580              	.LASF216:
 3581 1882 4359424C 		.ascii	"CYBLE_GATTS_ERR_OPERATION_FAILED\000"
 3581      455F4741 
 3581      5454535F 
 3581      4552525F 
 3581      4F504552 
 3582              	.LASF272:
 3583 18a3 6379426C 		.ascii	"cyBle_state\000"
 3583      655F7374 
 3583      61746500 
 3584              	.LASF48:
 3585 18af 4359424C 		.ascii	"CYBLE_EVT_GATTC_WRITE_RSP\000"
 3585      455F4556 
 3585      545F4741 
 3585      5454435F 
 3585      57524954 
 3586              	.LASF253:
 3587 18c9 4359424C 		.ascii	"CYBLE_STATE_DISCONNECTED\000"
 3587      455F5354 
 3587      4154455F 
 3587      44495343 
 3587      4F4E4E45 
 3588              	.LASF288:
 3589 18e2 5C5C766D 		.ascii	"\\\\vmware-host\\Shared Folders\\Documents\\BLEIOSA"
 3589      77617265 
 3589      2D686F73 
 3589      745C5368 
 3589      61726564 
 3590 1910 50505C72 		.ascii	"PP\\robot\\robot.cydsn\000"
 3590      6F626F74 
 3590      5C726F62 
 3590      6F742E63 
 3590      7964736E 
 3591              	.LASF28:
 3592 1925 4359424C 		.ascii	"CYBLE_EVT_GAPP_ADVERTISEMENT_START_STOP\000"
 3592      455F4556 
 3592      545F4741 
 3592      50505F41 
 3592      44564552 
 3593              	.LASF57:
 3594 194d 4359424C 		.ascii	"CYBLE_EVT_GATTC_STOP_CMD_COMPLETE\000"
 3594      455F4556 
 3594      545F4741 
 3594      5454435F 
 3594      53544F50 
ARM GAS  C:\Users\Alan\AppData\Local\Temp\ccbjvqhO.s 			page 112


 3595              	.LASF9:
 3596 196f 75696E74 		.ascii	"uint8\000"
 3596      3800
 3597              	.LASF267:
 3598 1975 6379426C 		.ascii	"cyBle_authInfo\000"
 3598      655F6175 
 3598      7468496E 
 3598      666F00
 3599              	.LASF151:
 3600 1984 73656375 		.ascii	"security\000"
 3600      72697479 
 3600      00
 3601              	.LASF178:
 3602 198d 4359424C 		.ascii	"CYBLE_GATT_WRITE_REQ\000"
 3602      455F4741 
 3602      54545F57 
 3602      52495445 
 3602      5F524551 
 3603              	.LASF2:
 3604 19a2 73686F72 		.ascii	"short int\000"
 3604      7420696E 
 3604      7400
 3605              	.LASF154:
 3606 19ac 61757468 		.ascii	"authErr\000"
 3606      45727200 
 3607              	.LASF210:
 3608 19b4 4359424C 		.ascii	"CYBLE_GATT_ERR_CPS_INAPPROPRIATE_CONNECTION_PARAMET"
 3608      455F4741 
 3608      54545F45 
 3608      52525F43 
 3608      50535F49 
 3609 19e7 45525300 		.ascii	"ERS\000"
 3610              	.LASF196:
 3611 19eb 4359424C 		.ascii	"CYBLE_GATT_ERR_REQUEST_NOT_SUPPORTED\000"
 3611      455F4741 
 3611      54545F45 
 3611      52525F52 
 3611      45515545 
 3612              	.LASF35:
 3613 1a10 4359424C 		.ascii	"CYBLE_EVT_GATTC_ERROR_RSP\000"
 3613      455F4556 
 3613      545F4741 
 3613      5454435F 
 3613      4552524F 
 3614              	.LASF135:
 3615 1a2a 4359424C 		.ascii	"CYBLE_GAP_IOCAP_KEYBOARD_DISPLAY\000"
 3615      455F4741 
 3615      505F494F 
 3615      4341505F 
 3615      4B455942 
 3616              	.LASF254:
 3617 1a4b 4359424C 		.ascii	"CYBLE_STATE_T\000"
 3617      455F5354 
 3617      4154455F 
 3617      5400
 3618              	.LASF62:
 3619 1a59 4359424C 		.ascii	"CYBLE_EVT_L2CAP_CBFC_CONN_IND\000"
ARM GAS  C:\Users\Alan\AppData\Local\Temp\ccbjvqhO.s 			page 113


 3619      455F4556 
 3619      545F4C32 
 3619      4341505F 
 3619      43424643 
 3620              	.LASF51:
 3621 1a77 4359424C 		.ascii	"CYBLE_EVT_GATTS_EXEC_WRITE_REQ\000"
 3621      455F4556 
 3621      545F4741 
 3621      5454535F 
 3621      45584543 
 3622              	.LASF22:
 3623 1a96 4359424C 		.ascii	"CYBLE_EVT_GAPC_SCAN_PROGRESS_RESULT\000"
 3623      455F4556 
 3623      545F4741 
 3623      50435F53 
 3623      43414E5F 
 3624              	.LASF246:
 3625 1aba 63636364 		.ascii	"cccdCount\000"
 3625      436F756E 
 3625      7400
 3626              	.LASF221:
 3627 1ac4 4359424C 		.ascii	"CYBLE_GATT_ERR_ANCS_INVALID_PARAMETER\000"
 3627      455F4741 
 3627      54545F45 
 3627      52525F41 
 3627      4E43535F 
 3628              	.LASF82:
 3629 1aea 4359424C 		.ascii	"CYBLE_ERROR_GAP_ROLE\000"
 3629      455F4552 
 3629      524F525F 
 3629      4741505F 
 3629      524F4C45 
 3630              	.LASF275:
 3631 1aff 6379426C 		.ascii	"cyBle_advertisingIntervalType\000"
 3631      655F6164 
 3631      76657274 
 3631      6973696E 
 3631      67496E74 
 3632              	.LASF119:
 3633 1b1d 62644164 		.ascii	"bdAddr\000"
 3633      647200
 3634              	.LASF218:
 3635 1b24 4359424C 		.ascii	"CYBLE_GATT_ERR_ANS_COMMAND_NOT_SUPPORTED\000"
 3635      455F4741 
 3635      54545F45 
 3635      52525F41 
 3635      4E535F43 
 3636              	.LASF276:
 3637 1b4d 4379426C 		.ascii	"CyBle_GattsErrorRsp\000"
 3637      655F4761 
 3637      74747345 
 3637      72726F72 
 3637      52737000 
 3638              	.LASF171:
 3639 1b61 4359424C 		.ascii	"CYBLE_GATT_READ_RSP\000"
 3639      455F4741 
 3639      54545F52 
ARM GAS  C:\Users\Alan\AppData\Local\Temp\ccbjvqhO.s 			page 114


 3639      4541445F 
 3639      52535000 
 3640              	.LASF79:
 3641 1b75 4359424C 		.ascii	"CYBLE_ERROR_NO_CONNECTION\000"
 3641      455F4552 
 3641      524F525F 
 3641      4E4F5F43 
 3641      4F4E4E45 
 3642              	.LASF108:
 3643 1b8f 4359424C 		.ascii	"CYBLE_LL_PWR_LVL_0_DBM\000"
 3643      455F4C4C 
 3643      5F505752 
 3643      5F4C564C 
 3643      5F305F44 
 3644              	.LASF285:
 3645 1ba6 6D656D63 		.ascii	"memcpy\000"
 3645      707900
 3646              	.LASF112:
 3647 1bad 4359424C 		.ascii	"CYBLE_LL_ADV_CH_TYPE\000"
 3647      455F4C4C 
 3647      5F414456 
 3647      5F43485F 
 3647      54595045 
 3648              	.LASF71:
 3649 1bc2 4359424C 		.ascii	"CYBLE_EVT_LE_PING_AUTH_TIMEOUT\000"
 3649      455F4556 
 3649      545F4C45 
 3649      5F50494E 
 3649      475F4155 
 3650              	.LASF101:
 3651 1be1 4359424C 		.ascii	"CYBLE_API_RESULT_T\000"
 3651      455F4150 
 3651      495F5245 
 3651      53554C54 
 3651      5F5400
 3652              	.LASF270:
 3653 1bf4 6379426C 		.ascii	"cyBle_attValuesCCCD\000"
 3653      655F6174 
 3653      7456616C 
 3653      75657343 
 3653      43434400 
 3654              	.LASF54:
 3655 1c08 4359424C 		.ascii	"CYBLE_EVT_GATTC_HANDLE_VALUE_IND\000"
 3655      455F4556 
 3655      545F4741 
 3655      5454435F 
 3655      48414E44 
 3656              	.LASF260:
 3657 1c29 6576656E 		.ascii	"eventCode\000"
 3657      74436F64 
 3657      6500
 3658              	.LASF85:
 3659 1c33 4359424C 		.ascii	"CYBLE_ERROR_SEC_FAILED\000"
 3659      455F4552 
 3659      524F525F 
 3659      5345435F 
 3659      4641494C 
ARM GAS  C:\Users\Alan\AppData\Local\Temp\ccbjvqhO.s 			page 115


 3660              	.LASF21:
 3661 1c4a 4359424C 		.ascii	"CYBLE_EVT_STACK_BUSY_STATUS\000"
 3661      455F4556 
 3661      545F5354 
 3661      41434B5F 
 3661      42555359 
 3662              	.LASF158:
 3663 1c66 636F6E6E 		.ascii	"connLatency\000"
 3663      4C617465 
 3663      6E637900 
 3664              	.LASF132:
 3665 1c72 4359424C 		.ascii	"CYBLE_GAP_IOCAP_DISPLAY_YESNO\000"
 3665      455F4741 
 3665      505F494F 
 3665      4341505F 
 3665      44495350 
 3666              	.LASF34:
 3667 1c90 4359424C 		.ascii	"CYBLE_EVT_GAP_KEYINFO_EXCHNGE_CMPLT\000"
 3667      455F4556 
 3667      545F4741 
 3667      505F4B45 
 3667      59494E46 
 3668              	.LASF183:
 3669 1cb4 4359424C 		.ascii	"CYBLE_GATT_EXECUTE_WRITE_REQ\000"
 3669      455F4741 
 3669      54545F45 
 3669      58454355 
 3669      54455F57 
 3670              	.LASF118:
 3671 1cd1 4359424C 		.ascii	"CYBLE_BLESS_PWR_IN_DB_T\000"
 3671      455F424C 
 3671      4553535F 
 3671      5057525F 
 3671      494E5F44 
 3672              	.LASF114:
 3673 1ce9 4359424C 		.ascii	"CYBLE_LL_MAX_CH_TYPE\000"
 3673      455F4C4C 
 3673      5F4D4158 
 3673      5F43485F 
 3673      54595045 
 3674              	.LASF59:
 3675 1cfe 4359424C 		.ascii	"CYBLE_EVT_L2CAP_CONN_PARAM_UPDATE_REQ\000"
 3675      455F4556 
 3675      545F4C32 
 3675      4341505F 
 3675      434F4E4E 
 3676              	.LASF258:
 3677 1d24 67617474 		.ascii	"gattErr\000"
 3677      45727200 
 3678              	.LASF193:
 3679 1d2c 4359424C 		.ascii	"CYBLE_GATT_ERR_WRITE_NOT_PERMITTED\000"
 3679      455F4741 
 3679      54545F45 
 3679      52525F57 
 3679      52495445 
 3680              	.LASF157:
 3681 1d4f 636F6E6E 		.ascii	"connIntv\000"
ARM GAS  C:\Users\Alan\AppData\Local\Temp\ccbjvqhO.s 			page 116


 3681      496E7476 
 3681      00
 3682              	.LASF3:
 3683 1d58 73686F72 		.ascii	"short unsigned int\000"
 3683      7420756E 
 3683      7369676E 
 3683      65642069 
 3683      6E7400
 3684              	.LASF205:
 3685 1d6b 4359424C 		.ascii	"CYBLE_GATT_ERR_INSUFFICIENT_ENCRYPTION\000"
 3685      455F4741 
 3685      54545F45 
 3685      52525F49 
 3685      4E535546 
 3686              	.LASF251:
 3687 1d92 4359424C 		.ascii	"CYBLE_STATE_CONNECTED\000"
 3687      455F5354 
 3687      4154455F 
 3687      434F4E4E 
 3687      45435445 
 3688              	.LASF231:
 3689 1da8 61637475 		.ascii	"actualLen\000"
 3689      616C4C65 
 3689      6E00
 3690              	.LASF176:
 3691 1db2 4359424C 		.ascii	"CYBLE_GATT_READ_BY_GROUP_REQ\000"
 3691      455F4741 
 3691      54545F52 
 3691      4541445F 
 3691      42595F47 
 3692              	.LASF229:
 3693 1dcf 61747449 		.ascii	"attId\000"
 3693      6400
 3694              	.LASF75:
 3695 1dd5 4359424C 		.ascii	"CYBLE_ERROR_INVALID_OPERATION\000"
 3695      455F4552 
 3695      524F525F 
 3695      494E5641 
 3695      4C49445F 
 3696              	.LASF20:
 3697 1df3 4359424C 		.ascii	"CYBLE_EVT_HCI_STATUS\000"
 3697      455F4556 
 3697      545F4843 
 3697      495F5354 
 3697      41545553 
 3698              	.LASF37:
 3699 1e08 4359424C 		.ascii	"CYBLE_EVT_GATT_DISCONNECT_IND\000"
 3699      455F4556 
 3699      545F4741 
 3699      54545F44 
 3699      4953434F 
 3700              	.LASF159:
 3701 1e26 73757065 		.ascii	"supervisionTO\000"
 3701      72766973 
 3701      696F6E54 
 3701      4F00
 3702              	.LASF124:
ARM GAS  C:\Users\Alan\AppData\Local\Temp\ccbjvqhO.s 			page 117


 3703 1e34 4359424C 		.ascii	"CYBLE_GATT_RSP_TO\000"
 3703      455F4741 
 3703      54545F52 
 3703      53505F54 
 3703      4F00
 3704              	.LASF69:
 3705 1e46 4359424C 		.ascii	"CYBLE_EVT_L2CAP_CBFC_DATA_WRITE_IND\000"
 3705      455F4556 
 3705      545F4C32 
 3705      4341505F 
 3705      43424643 
 3706              	.LASF30:
 3707 1e6a 4359424C 		.ascii	"CYBLE_EVT_GAP_DEVICE_DISCONNECTED\000"
 3707      455F4556 
 3707      545F4741 
 3707      505F4445 
 3707      56494345 
 3708              	.LASF55:
 3709 1e8c 4359424C 		.ascii	"CYBLE_EVT_GATTS_HANDLE_VALUE_CNF\000"
 3709      455F4556 
 3709      545F4741 
 3709      5454535F 
 3709      48414E44 
 3710              	.LASF10:
 3711 1ead 75696E74 		.ascii	"uint16\000"
 3711      313600
 3712              	.LASF83:
 3713 1eb4 4359424C 		.ascii	"CYBLE_ERROR_TX_POWER_READ\000"
 3713      455F4552 
 3713      524F525F 
 3713      54585F50 
 3713      4F574552 
 3714              		.ident	"GCC: (GNU Tools for ARM Embedded Processors) 4.9.3 20150303 (release) [ARM/embedded-4_9-br
