ARM GAS  C:\Users\Alan\AppData\Local\Temp\ccp7if5S.s 			page 1


   1              		.cpu cortex-m0
   2              		.fpu softvfp
   3              		.eabi_attribute 20, 1
   4              		.eabi_attribute 21, 1
   5              		.eabi_attribute 23, 3
   6              		.eabi_attribute 24, 1
   7              		.eabi_attribute 25, 1
   8              		.eabi_attribute 26, 1
   9              		.eabi_attribute 30, 1
  10              		.eabi_attribute 34, 0
  11              		.eabi_attribute 18, 4
  12              		.code	16
  13              		.file	"cyfitter_cfg.c"
  14              		.text
  15              	.Ltext0:
  16              		.cfi_sections	.debug_frame
  17              		.section	.text.cfg_write_bytes32,"ax",%progbits
  18              		.align	2
  19              		.code	16
  20              		.thumb_func
  21              		.type	cfg_write_bytes32, %function
  22              	cfg_write_bytes32:
  23              	.LFB5:
  24              		.file 1 ".\\Generated_Source\\PSoC4\\cyfitter_cfg.c"
   1:.\Generated_Source\PSoC4/cyfitter_cfg.c **** /*******************************************************************************
   2:.\Generated_Source\PSoC4/cyfitter_cfg.c **** * File Name: cyfitter_cfg.c
   3:.\Generated_Source\PSoC4/cyfitter_cfg.c **** * 
   4:.\Generated_Source\PSoC4/cyfitter_cfg.c **** * PSoC Creator  3.3 SP1
   5:.\Generated_Source\PSoC4/cyfitter_cfg.c **** *
   6:.\Generated_Source\PSoC4/cyfitter_cfg.c **** * Description:
   7:.\Generated_Source\PSoC4/cyfitter_cfg.c **** * This file contains device initialization code.
   8:.\Generated_Source\PSoC4/cyfitter_cfg.c **** * Except for the user defined sections in CyClockStartupError(), this file should not be modified.
   9:.\Generated_Source\PSoC4/cyfitter_cfg.c **** * This file is automatically generated by PSoC Creator.
  10:.\Generated_Source\PSoC4/cyfitter_cfg.c **** *
  11:.\Generated_Source\PSoC4/cyfitter_cfg.c **** ********************************************************************************
  12:.\Generated_Source\PSoC4/cyfitter_cfg.c **** * Copyright (c) 2007-2015 Cypress Semiconductor.  All rights reserved.
  13:.\Generated_Source\PSoC4/cyfitter_cfg.c **** * You may use this file only in accordance with the license, terms, conditions, 
  14:.\Generated_Source\PSoC4/cyfitter_cfg.c **** * disclaimers, and limitations in the end user license agreement accompanying 
  15:.\Generated_Source\PSoC4/cyfitter_cfg.c **** * the software package with which this file was provided.
  16:.\Generated_Source\PSoC4/cyfitter_cfg.c **** ********************************************************************************/
  17:.\Generated_Source\PSoC4/cyfitter_cfg.c **** 
  18:.\Generated_Source\PSoC4/cyfitter_cfg.c **** #include <string.h>
  19:.\Generated_Source\PSoC4/cyfitter_cfg.c **** #include "cytypes.h"
  20:.\Generated_Source\PSoC4/cyfitter_cfg.c **** #include "cydevice_trm.h"
  21:.\Generated_Source\PSoC4/cyfitter_cfg.c **** #include "cyfitter.h"
  22:.\Generated_Source\PSoC4/cyfitter_cfg.c **** #include "CyLib.h"
  23:.\Generated_Source\PSoC4/cyfitter_cfg.c **** #include "CyLFClk.h"
  24:.\Generated_Source\PSoC4/cyfitter_cfg.c **** #include "cyfitter_cfg.h"
  25:.\Generated_Source\PSoC4/cyfitter_cfg.c **** 
  26:.\Generated_Source\PSoC4/cyfitter_cfg.c **** 
  27:.\Generated_Source\PSoC4/cyfitter_cfg.c **** #if defined(__GNUC__) || defined(__ARMCC_VERSION)
  28:.\Generated_Source\PSoC4/cyfitter_cfg.c ****     #define CYPACKED 
  29:.\Generated_Source\PSoC4/cyfitter_cfg.c ****     #define CYPACKED_ATTR __attribute__ ((packed))
  30:.\Generated_Source\PSoC4/cyfitter_cfg.c ****     #define CYALIGNED __attribute__ ((aligned))
  31:.\Generated_Source\PSoC4/cyfitter_cfg.c ****     #define CY_CFG_UNUSED __attribute__ ((unused))
  32:.\Generated_Source\PSoC4/cyfitter_cfg.c ****     #ifndef CY_CFG_SECTION
  33:.\Generated_Source\PSoC4/cyfitter_cfg.c ****         #define CY_CFG_SECTION __attribute__ ((section(".psocinit")))
ARM GAS  C:\Users\Alan\AppData\Local\Temp\ccp7if5S.s 			page 2


  34:.\Generated_Source\PSoC4/cyfitter_cfg.c ****     #endif
  35:.\Generated_Source\PSoC4/cyfitter_cfg.c ****     
  36:.\Generated_Source\PSoC4/cyfitter_cfg.c ****     #if defined(__ARMCC_VERSION)
  37:.\Generated_Source\PSoC4/cyfitter_cfg.c ****         #define CY_CFG_MEMORY_BARRIER() __memory_changed()
  38:.\Generated_Source\PSoC4/cyfitter_cfg.c ****     #else
  39:.\Generated_Source\PSoC4/cyfitter_cfg.c ****         #define CY_CFG_MEMORY_BARRIER() __sync_synchronize()
  40:.\Generated_Source\PSoC4/cyfitter_cfg.c ****     #endif
  41:.\Generated_Source\PSoC4/cyfitter_cfg.c ****     
  42:.\Generated_Source\PSoC4/cyfitter_cfg.c **** #elif defined(__ICCARM__)
  43:.\Generated_Source\PSoC4/cyfitter_cfg.c ****     #include <intrinsics.h>
  44:.\Generated_Source\PSoC4/cyfitter_cfg.c **** 
  45:.\Generated_Source\PSoC4/cyfitter_cfg.c ****     #define CYPACKED __packed
  46:.\Generated_Source\PSoC4/cyfitter_cfg.c ****     #define CYPACKED_ATTR 
  47:.\Generated_Source\PSoC4/cyfitter_cfg.c ****     #define CYALIGNED _Pragma("data_alignment=4")
  48:.\Generated_Source\PSoC4/cyfitter_cfg.c ****     #define CY_CFG_UNUSED _Pragma("diag_suppress=Pe177")
  49:.\Generated_Source\PSoC4/cyfitter_cfg.c ****     #define CY_CFG_SECTION _Pragma("location=\".psocinit\"")
  50:.\Generated_Source\PSoC4/cyfitter_cfg.c ****     
  51:.\Generated_Source\PSoC4/cyfitter_cfg.c ****     #define CY_CFG_MEMORY_BARRIER() __DMB()
  52:.\Generated_Source\PSoC4/cyfitter_cfg.c ****     
  53:.\Generated_Source\PSoC4/cyfitter_cfg.c **** #else
  54:.\Generated_Source\PSoC4/cyfitter_cfg.c ****     #error Unsupported toolchain
  55:.\Generated_Source\PSoC4/cyfitter_cfg.c **** #endif
  56:.\Generated_Source\PSoC4/cyfitter_cfg.c **** 
  57:.\Generated_Source\PSoC4/cyfitter_cfg.c **** 
  58:.\Generated_Source\PSoC4/cyfitter_cfg.c **** CY_CFG_UNUSED
  59:.\Generated_Source\PSoC4/cyfitter_cfg.c **** static void CYMEMZERO(void *s, size_t n);
  60:.\Generated_Source\PSoC4/cyfitter_cfg.c **** CY_CFG_UNUSED
  61:.\Generated_Source\PSoC4/cyfitter_cfg.c **** static void CYMEMZERO(void *s, size_t n)
  62:.\Generated_Source\PSoC4/cyfitter_cfg.c **** {
  63:.\Generated_Source\PSoC4/cyfitter_cfg.c **** 	(void)memset(s, 0, n);
  64:.\Generated_Source\PSoC4/cyfitter_cfg.c **** }
  65:.\Generated_Source\PSoC4/cyfitter_cfg.c **** CY_CFG_UNUSED
  66:.\Generated_Source\PSoC4/cyfitter_cfg.c **** static void CYCONFIGCPY(void *dest, const void *src, size_t n);
  67:.\Generated_Source\PSoC4/cyfitter_cfg.c **** CY_CFG_UNUSED
  68:.\Generated_Source\PSoC4/cyfitter_cfg.c **** static void CYCONFIGCPY(void *dest, const void *src, size_t n)
  69:.\Generated_Source\PSoC4/cyfitter_cfg.c **** {
  70:.\Generated_Source\PSoC4/cyfitter_cfg.c **** 	(void)memcpy(dest, src, n);
  71:.\Generated_Source\PSoC4/cyfitter_cfg.c **** }
  72:.\Generated_Source\PSoC4/cyfitter_cfg.c **** CY_CFG_UNUSED
  73:.\Generated_Source\PSoC4/cyfitter_cfg.c **** static void CYCONFIGCPYCODE(void *dest, const void *src, size_t n);
  74:.\Generated_Source\PSoC4/cyfitter_cfg.c **** CY_CFG_UNUSED
  75:.\Generated_Source\PSoC4/cyfitter_cfg.c **** static void CYCONFIGCPYCODE(void *dest, const void *src, size_t n)
  76:.\Generated_Source\PSoC4/cyfitter_cfg.c **** {
  77:.\Generated_Source\PSoC4/cyfitter_cfg.c **** 	(void)memcpy(dest, src, n);
  78:.\Generated_Source\PSoC4/cyfitter_cfg.c **** }
  79:.\Generated_Source\PSoC4/cyfitter_cfg.c **** 
  80:.\Generated_Source\PSoC4/cyfitter_cfg.c **** 
  81:.\Generated_Source\PSoC4/cyfitter_cfg.c **** 
  82:.\Generated_Source\PSoC4/cyfitter_cfg.c **** /* Clock startup error codes                                                   */
  83:.\Generated_Source\PSoC4/cyfitter_cfg.c **** #define CYCLOCKSTART_NO_ERROR    0u
  84:.\Generated_Source\PSoC4/cyfitter_cfg.c **** #define CYCLOCKSTART_XTAL_ERROR  1u
  85:.\Generated_Source\PSoC4/cyfitter_cfg.c **** #define CYCLOCKSTART_32KHZ_ERROR 2u
  86:.\Generated_Source\PSoC4/cyfitter_cfg.c **** #define CYCLOCKSTART_PLL_ERROR   3u
  87:.\Generated_Source\PSoC4/cyfitter_cfg.c **** 
  88:.\Generated_Source\PSoC4/cyfitter_cfg.c **** #ifdef CY_NEED_CYCLOCKSTARTUPERROR
  89:.\Generated_Source\PSoC4/cyfitter_cfg.c **** /*******************************************************************************
  90:.\Generated_Source\PSoC4/cyfitter_cfg.c **** * Function Name: CyClockStartupError
ARM GAS  C:\Users\Alan\AppData\Local\Temp\ccp7if5S.s 			page 3


  91:.\Generated_Source\PSoC4/cyfitter_cfg.c **** ********************************************************************************
  92:.\Generated_Source\PSoC4/cyfitter_cfg.c **** * Summary:
  93:.\Generated_Source\PSoC4/cyfitter_cfg.c **** *  If an error is encountered during clock configuration (crystal startup error,
  94:.\Generated_Source\PSoC4/cyfitter_cfg.c **** *  PLL lock error, etc.), the system will end up here.  Unless reimplemented by
  95:.\Generated_Source\PSoC4/cyfitter_cfg.c **** *  the customer, this function will stop in an infinite loop.
  96:.\Generated_Source\PSoC4/cyfitter_cfg.c **** *
  97:.\Generated_Source\PSoC4/cyfitter_cfg.c **** * Parameters:
  98:.\Generated_Source\PSoC4/cyfitter_cfg.c **** *   void
  99:.\Generated_Source\PSoC4/cyfitter_cfg.c **** *
 100:.\Generated_Source\PSoC4/cyfitter_cfg.c **** * Return:
 101:.\Generated_Source\PSoC4/cyfitter_cfg.c **** *   void
 102:.\Generated_Source\PSoC4/cyfitter_cfg.c **** *
 103:.\Generated_Source\PSoC4/cyfitter_cfg.c **** *******************************************************************************/
 104:.\Generated_Source\PSoC4/cyfitter_cfg.c **** CY_CFG_UNUSED
 105:.\Generated_Source\PSoC4/cyfitter_cfg.c **** static void CyClockStartupError(uint8 errorCode);
 106:.\Generated_Source\PSoC4/cyfitter_cfg.c **** CY_CFG_UNUSED
 107:.\Generated_Source\PSoC4/cyfitter_cfg.c **** static void CyClockStartupError(uint8 errorCode)
 108:.\Generated_Source\PSoC4/cyfitter_cfg.c **** {
 109:.\Generated_Source\PSoC4/cyfitter_cfg.c ****     /* To remove the compiler warning if errorCode not used.                */
 110:.\Generated_Source\PSoC4/cyfitter_cfg.c ****     errorCode = errorCode;
 111:.\Generated_Source\PSoC4/cyfitter_cfg.c **** 
 112:.\Generated_Source\PSoC4/cyfitter_cfg.c ****     /* `#START CyClockStartupError` */
 113:.\Generated_Source\PSoC4/cyfitter_cfg.c **** 
 114:.\Generated_Source\PSoC4/cyfitter_cfg.c ****     /* If we have a clock startup error (bad MHz crystal, PLL lock, etc.),  */
 115:.\Generated_Source\PSoC4/cyfitter_cfg.c ****     /* we will end up here to allow the customer to implement something to  */
 116:.\Generated_Source\PSoC4/cyfitter_cfg.c ****     /* deal with the clock condition.                                       */
 117:.\Generated_Source\PSoC4/cyfitter_cfg.c **** 
 118:.\Generated_Source\PSoC4/cyfitter_cfg.c ****     /* `#END` */
 119:.\Generated_Source\PSoC4/cyfitter_cfg.c **** 
 120:.\Generated_Source\PSoC4/cyfitter_cfg.c ****     /* If nothing else, stop here since the clocks have not started         */
 121:.\Generated_Source\PSoC4/cyfitter_cfg.c ****     /* correctly.                                                           */
 122:.\Generated_Source\PSoC4/cyfitter_cfg.c ****     while(1) {}
 123:.\Generated_Source\PSoC4/cyfitter_cfg.c **** }
 124:.\Generated_Source\PSoC4/cyfitter_cfg.c **** #endif
 125:.\Generated_Source\PSoC4/cyfitter_cfg.c **** 
 126:.\Generated_Source\PSoC4/cyfitter_cfg.c **** #define CY_CFG_BASE_ADDR_COUNT 9u
 127:.\Generated_Source\PSoC4/cyfitter_cfg.c **** CYPACKED typedef struct
 128:.\Generated_Source\PSoC4/cyfitter_cfg.c **** {
 129:.\Generated_Source\PSoC4/cyfitter_cfg.c **** 	uint8 offset;
 130:.\Generated_Source\PSoC4/cyfitter_cfg.c **** 	uint8 value;
 131:.\Generated_Source\PSoC4/cyfitter_cfg.c **** } CYPACKED_ATTR cy_cfg_addrvalue_t;
 132:.\Generated_Source\PSoC4/cyfitter_cfg.c **** 
 133:.\Generated_Source\PSoC4/cyfitter_cfg.c **** 
 134:.\Generated_Source\PSoC4/cyfitter_cfg.c **** 
 135:.\Generated_Source\PSoC4/cyfitter_cfg.c **** /*******************************************************************************
 136:.\Generated_Source\PSoC4/cyfitter_cfg.c **** * Function Name: cfg_write_bytes32
 137:.\Generated_Source\PSoC4/cyfitter_cfg.c **** ********************************************************************************
 138:.\Generated_Source\PSoC4/cyfitter_cfg.c **** * Summary:
 139:.\Generated_Source\PSoC4/cyfitter_cfg.c **** *  This function is used for setting up the chip configuration areas that
 140:.\Generated_Source\PSoC4/cyfitter_cfg.c **** *  contain relatively sparse data.
 141:.\Generated_Source\PSoC4/cyfitter_cfg.c **** *
 142:.\Generated_Source\PSoC4/cyfitter_cfg.c **** * Parameters:
 143:.\Generated_Source\PSoC4/cyfitter_cfg.c **** *   void
 144:.\Generated_Source\PSoC4/cyfitter_cfg.c **** *
 145:.\Generated_Source\PSoC4/cyfitter_cfg.c **** * Return:
 146:.\Generated_Source\PSoC4/cyfitter_cfg.c **** *   void
 147:.\Generated_Source\PSoC4/cyfitter_cfg.c **** *
ARM GAS  C:\Users\Alan\AppData\Local\Temp\ccp7if5S.s 			page 4


 148:.\Generated_Source\PSoC4/cyfitter_cfg.c **** *******************************************************************************/
 149:.\Generated_Source\PSoC4/cyfitter_cfg.c **** static void cfg_write_bytes32(const uint32 addr_table[], const cy_cfg_addrvalue_t data_table[]);
 150:.\Generated_Source\PSoC4/cyfitter_cfg.c **** static void cfg_write_bytes32(const uint32 addr_table[], const cy_cfg_addrvalue_t data_table[])
 151:.\Generated_Source\PSoC4/cyfitter_cfg.c **** {
  25              		.loc 1 151 0
  26              		.cfi_startproc
  27              	.LVL0:
  28 0000 F0B5     		push	{r4, r5, r6, r7, lr}
  29              		.cfi_def_cfa_offset 20
  30              		.cfi_offset 4, -20
  31              		.cfi_offset 5, -16
  32              		.cfi_offset 6, -12
  33              		.cfi_offset 7, -8
  34              		.cfi_offset 14, -4
  35              	.LVL1:
 152:.\Generated_Source\PSoC4/cyfitter_cfg.c **** 	/* For 32-bit little-endian architectures */
 153:.\Generated_Source\PSoC4/cyfitter_cfg.c **** 	uint32 i, j = 0u;
  36              		.loc 1 153 0
  37 0002 0025     		mov	r5, #0
 154:.\Generated_Source\PSoC4/cyfitter_cfg.c **** 	for (i = 0u; i < CY_CFG_BASE_ADDR_COUNT; i++)
  38              		.loc 1 154 0
  39 0004 0027     		mov	r7, #0
  40 0006 11E0     		b	.L2
  41              	.LVL2:
  42              	.L5:
  43              	.LBB2:
 155:.\Generated_Source\PSoC4/cyfitter_cfg.c **** 	{
 156:.\Generated_Source\PSoC4/cyfitter_cfg.c **** 		uint32 baseAddr = addr_table[i];
  44              		.loc 1 156 0
  45 0008 BB00     		lsl	r3, r7, #2
  46 000a C658     		ldr	r6, [r0, r3]
  47              	.LVL3:
 157:.\Generated_Source\PSoC4/cyfitter_cfg.c **** 		uint8 count = (uint8)baseAddr;
  48              		.loc 1 157 0
  49 000c F3B2     		uxtb	r3, r6
  50              	.LVL4:
 158:.\Generated_Source\PSoC4/cyfitter_cfg.c **** 		baseAddr &= 0xFFFFFF00u;
  51              		.loc 1 158 0
  52 000e FF22     		mov	r2, #255
  53 0010 9643     		bic	r6, r2
  54              	.LVL5:
 159:.\Generated_Source\PSoC4/cyfitter_cfg.c **** 		while (count != 0u)
  55              		.loc 1 159 0
  56 0012 08E0     		b	.L3
  57              	.L4:
 160:.\Generated_Source\PSoC4/cyfitter_cfg.c **** 		{
 161:.\Generated_Source\PSoC4/cyfitter_cfg.c **** 			CY_SET_XTND_REG8((void CYFAR *)(baseAddr + data_table[j].offset), data_table[j].value);
  58              		.loc 1 161 0
  59 0014 6A00     		lsl	r2, r5, #1
  60 0016 8A18     		add	r2, r1, r2
  61 0018 1478     		ldrb	r4, [r2]
  62 001a A419     		add	r4, r4, r6
  63 001c 5278     		ldrb	r2, [r2, #1]
  64 001e 2270     		strb	r2, [r4]
 162:.\Generated_Source\PSoC4/cyfitter_cfg.c **** 			j++;
  65              		.loc 1 162 0
  66 0020 0135     		add	r5, r5, #1
ARM GAS  C:\Users\Alan\AppData\Local\Temp\ccp7if5S.s 			page 5


  67              	.LVL6:
 163:.\Generated_Source\PSoC4/cyfitter_cfg.c **** 			count--;
  68              		.loc 1 163 0
  69 0022 013B     		sub	r3, r3, #1
  70              	.LVL7:
  71 0024 DBB2     		uxtb	r3, r3
  72              	.LVL8:
  73              	.L3:
 159:.\Generated_Source\PSoC4/cyfitter_cfg.c **** 		{
  74              		.loc 1 159 0
  75 0026 002B     		cmp	r3, #0
  76 0028 F4D1     		bne	.L4
  77              	.LBE2:
 154:.\Generated_Source\PSoC4/cyfitter_cfg.c **** 	{
  78              		.loc 1 154 0 discriminator 2
  79 002a 0137     		add	r7, r7, #1
  80              	.LVL9:
  81              	.L2:
 154:.\Generated_Source\PSoC4/cyfitter_cfg.c **** 	{
  82              		.loc 1 154 0 is_stmt 0 discriminator 1
  83 002c 082F     		cmp	r7, #8
  84 002e EBD9     		bls	.L5
 164:.\Generated_Source\PSoC4/cyfitter_cfg.c **** 		}
 165:.\Generated_Source\PSoC4/cyfitter_cfg.c **** 	}
 166:.\Generated_Source\PSoC4/cyfitter_cfg.c **** }
  85              		.loc 1 166 0 is_stmt 1
  86              		@ sp needed
  87              	.LVL10:
  88              	.LVL11:
  89 0030 F0BD     		pop	{r4, r5, r6, r7, pc}
  90              		.cfi_endproc
  91              	.LFE5:
  92              		.size	cfg_write_bytes32, .-cfg_write_bytes32
  93 0032 C046     		.section	.text.AnalogSetDefault,"ax",%progbits
  94              		.align	2
  95              		.code	16
  96              		.thumb_func
  97              		.type	AnalogSetDefault, %function
  98              	AnalogSetDefault:
  99              	.LFB7:
 167:.\Generated_Source\PSoC4/cyfitter_cfg.c **** 
 168:.\Generated_Source\PSoC4/cyfitter_cfg.c **** 
 169:.\Generated_Source\PSoC4/cyfitter_cfg.c **** /*******************************************************************************
 170:.\Generated_Source\PSoC4/cyfitter_cfg.c **** * Function Name: ClockSetup
 171:.\Generated_Source\PSoC4/cyfitter_cfg.c **** ********************************************************************************
 172:.\Generated_Source\PSoC4/cyfitter_cfg.c **** *
 173:.\Generated_Source\PSoC4/cyfitter_cfg.c **** * Summary:
 174:.\Generated_Source\PSoC4/cyfitter_cfg.c **** *   Performs the initialization of all of the clocks in the device based on the
 175:.\Generated_Source\PSoC4/cyfitter_cfg.c **** *   settings in the Clock tab of the DWR.  This includes enabling the requested
 176:.\Generated_Source\PSoC4/cyfitter_cfg.c **** *   clocks and setting the necessary dividers to produce the desired frequency. 
 177:.\Generated_Source\PSoC4/cyfitter_cfg.c **** *
 178:.\Generated_Source\PSoC4/cyfitter_cfg.c **** * Parameters:
 179:.\Generated_Source\PSoC4/cyfitter_cfg.c **** *   void
 180:.\Generated_Source\PSoC4/cyfitter_cfg.c **** *
 181:.\Generated_Source\PSoC4/cyfitter_cfg.c **** * Return:
 182:.\Generated_Source\PSoC4/cyfitter_cfg.c **** *   void
 183:.\Generated_Source\PSoC4/cyfitter_cfg.c **** *
ARM GAS  C:\Users\Alan\AppData\Local\Temp\ccp7if5S.s 			page 6


 184:.\Generated_Source\PSoC4/cyfitter_cfg.c **** *******************************************************************************/
 185:.\Generated_Source\PSoC4/cyfitter_cfg.c **** static void ClockSetup(void);
 186:.\Generated_Source\PSoC4/cyfitter_cfg.c **** CY_CFG_SECTION
 187:.\Generated_Source\PSoC4/cyfitter_cfg.c **** static void ClockSetup(void)
 188:.\Generated_Source\PSoC4/cyfitter_cfg.c **** {
 189:.\Generated_Source\PSoC4/cyfitter_cfg.c **** 
 190:.\Generated_Source\PSoC4/cyfitter_cfg.c **** 	/* Set Flash Cycles based on max possible frequency in case a glitch occurs during ClockSetup(). *
 191:.\Generated_Source\PSoC4/cyfitter_cfg.c **** 	CY_SET_REG32((void CYXDATA *)(CYREG_CPUSS_FLASH_CTL), (0x0012u));
 192:.\Generated_Source\PSoC4/cyfitter_cfg.c **** 
 193:.\Generated_Source\PSoC4/cyfitter_cfg.c **** 	/* Start the WCO */
 194:.\Generated_Source\PSoC4/cyfitter_cfg.c **** 	CySysClkWcoStart();
 195:.\Generated_Source\PSoC4/cyfitter_cfg.c **** 	CyDelayCycles(12000000u); /* WCO may take up to 500ms to start */
 196:.\Generated_Source\PSoC4/cyfitter_cfg.c **** 	(void)CySysClkWcoSetPowerMode(CY_SYS_CLK_WCO_LPM);    /* Switch to the low power mode */
 197:.\Generated_Source\PSoC4/cyfitter_cfg.c **** 
 198:.\Generated_Source\PSoC4/cyfitter_cfg.c **** 	/* Setup and trim IMO based on desired frequency. */
 199:.\Generated_Source\PSoC4/cyfitter_cfg.c **** 	CySysClkWriteImoFreq(48u);
 200:.\Generated_Source\PSoC4/cyfitter_cfg.c **** 	/* CYDEV_CLK_ILO_CONFIG Starting address: CYDEV_CLK_ILO_CONFIG */
 201:.\Generated_Source\PSoC4/cyfitter_cfg.c **** 	CY_SET_XTND_REG32((void CYFAR *)(CYREG_CLK_ILO_CONFIG), 0x80000006u);
 202:.\Generated_Source\PSoC4/cyfitter_cfg.c **** 
 203:.\Generated_Source\PSoC4/cyfitter_cfg.c **** 	/* CYDEV_WDT_CONFIG Starting address: CYDEV_WDT_CONFIG */
 204:.\Generated_Source\PSoC4/cyfitter_cfg.c **** 	CY_SET_XTND_REG32((void CYFAR *)(CYREG_WDT_CONFIG), 0x40000000u);
 205:.\Generated_Source\PSoC4/cyfitter_cfg.c **** 
 206:.\Generated_Source\PSoC4/cyfitter_cfg.c **** 
 207:.\Generated_Source\PSoC4/cyfitter_cfg.c **** 	/* Enable fast start mode for XO */
 208:.\Generated_Source\PSoC4/cyfitter_cfg.c **** 	CY_SET_REG32((void*)CYREG_BLE_BLERD_BB_XO, CY_GET_REG32((void*)CYREG_BLE_BLERD_BB_XO) | (uint32)0x
 209:.\Generated_Source\PSoC4/cyfitter_cfg.c **** 	CY_SET_XTND_REG32((void CYFAR *)(CYREG_BLE_BLERD_BB_XO_CAPTRIM), 0x00003E2Du);
 210:.\Generated_Source\PSoC4/cyfitter_cfg.c **** 	/* Disable Crystal Stable Interrupt before enabling ECO */
 211:.\Generated_Source\PSoC4/cyfitter_cfg.c **** 	CY_SET_REG32((void*)CYREG_BLE_BLESS_LL_DSM_CTRL, CY_GET_REG32((void*)CYREG_BLE_BLESS_LL_DSM_CTRL) 
 212:.\Generated_Source\PSoC4/cyfitter_cfg.c **** 	/* Start the ECO and do not check status since it is not needed for HFCLK */
 213:.\Generated_Source\PSoC4/cyfitter_cfg.c **** 	(void)CySysClkEcoStart(2000u);
 214:.\Generated_Source\PSoC4/cyfitter_cfg.c **** 	CyDelayUs(1500u); /* Wait to stabalize */
 215:.\Generated_Source\PSoC4/cyfitter_cfg.c **** 
 216:.\Generated_Source\PSoC4/cyfitter_cfg.c **** 	/* Setup phase aligned clocks */
 217:.\Generated_Source\PSoC4/cyfitter_cfg.c **** 	CY_SET_REG32((void *)CYREG_PERI_DIV_16_CTL1, 0x00AFE300u);
 218:.\Generated_Source\PSoC4/cyfitter_cfg.c **** 	CY_SET_REG32((void *)CYREG_PERI_DIV_CMD, 0x8000FF41u);
 219:.\Generated_Source\PSoC4/cyfitter_cfg.c **** 	CY_SET_REG32((void *)CYREG_PERI_DIV_16_CTL0, 0x00095F00u);
 220:.\Generated_Source\PSoC4/cyfitter_cfg.c **** 	CY_SET_REG32((void *)CYREG_PERI_DIV_CMD, 0x8000FF40u);
 221:.\Generated_Source\PSoC4/cyfitter_cfg.c **** 
 222:.\Generated_Source\PSoC4/cyfitter_cfg.c **** 	/* CYDEV_CLK_IMO_CONFIG Starting address: CYDEV_CLK_IMO_CONFIG */
 223:.\Generated_Source\PSoC4/cyfitter_cfg.c **** 	CY_SET_XTND_REG32((void CYFAR *)(CYREG_CLK_IMO_CONFIG), 0x80000000u);
 224:.\Generated_Source\PSoC4/cyfitter_cfg.c **** 
 225:.\Generated_Source\PSoC4/cyfitter_cfg.c **** 	/* CYDEV_CLK_SELECT Starting address: CYDEV_CLK_SELECT */
 226:.\Generated_Source\PSoC4/cyfitter_cfg.c **** 	CY_SET_XTND_REG32((void CYFAR *)(CYREG_CLK_SELECT), 0x00040000u);
 227:.\Generated_Source\PSoC4/cyfitter_cfg.c **** 
 228:.\Generated_Source\PSoC4/cyfitter_cfg.c **** 	/* CYDEV_PERI_PCLK_CTL11 Starting address: CYDEV_PERI_PCLK_CTL11 */
 229:.\Generated_Source\PSoC4/cyfitter_cfg.c **** 	CY_SET_XTND_REG32((void CYFAR *)(CYREG_PERI_PCLK_CTL11), 0x00000041u);
 230:.\Generated_Source\PSoC4/cyfitter_cfg.c **** 
 231:.\Generated_Source\PSoC4/cyfitter_cfg.c **** 	/* CYDEV_PERI_PCLK_CTL10 Starting address: CYDEV_PERI_PCLK_CTL10 */
 232:.\Generated_Source\PSoC4/cyfitter_cfg.c **** 	CY_SET_XTND_REG32((void CYFAR *)(CYREG_PERI_PCLK_CTL10), 0x00000040u);
 233:.\Generated_Source\PSoC4/cyfitter_cfg.c **** 
 234:.\Generated_Source\PSoC4/cyfitter_cfg.c **** 	/* CYDEV_PERI_PCLK_CTL9 Starting address: CYDEV_PERI_PCLK_CTL9 */
 235:.\Generated_Source\PSoC4/cyfitter_cfg.c **** 	CY_SET_XTND_REG32((void CYFAR *)(CYREG_PERI_PCLK_CTL9), 0x00000040u);
 236:.\Generated_Source\PSoC4/cyfitter_cfg.c **** 
 237:.\Generated_Source\PSoC4/cyfitter_cfg.c **** 	/* CYDEV_PERI_PCLK_CTL8 Starting address: CYDEV_PERI_PCLK_CTL8 */
 238:.\Generated_Source\PSoC4/cyfitter_cfg.c **** 	CY_SET_XTND_REG32((void CYFAR *)(CYREG_PERI_PCLK_CTL8), 0x00000040u);
 239:.\Generated_Source\PSoC4/cyfitter_cfg.c **** 
 240:.\Generated_Source\PSoC4/cyfitter_cfg.c **** 	/* CYDEV_PERI_PCLK_CTL7 Starting address: CYDEV_PERI_PCLK_CTL7 */
ARM GAS  C:\Users\Alan\AppData\Local\Temp\ccp7if5S.s 			page 7


 241:.\Generated_Source\PSoC4/cyfitter_cfg.c **** 	CY_SET_XTND_REG32((void CYFAR *)(CYREG_PERI_PCLK_CTL7), 0x00000040u);
 242:.\Generated_Source\PSoC4/cyfitter_cfg.c **** 
 243:.\Generated_Source\PSoC4/cyfitter_cfg.c **** 	(void)CyIntSetVector(8u, &CySysWdtIsr);
 244:.\Generated_Source\PSoC4/cyfitter_cfg.c **** 	CyIntEnable(8u);
 245:.\Generated_Source\PSoC4/cyfitter_cfg.c **** 	CY_SET_XTND_REG32((void CYFAR *)(CYREG_WDT_CONFIG), 0x40000000u);
 246:.\Generated_Source\PSoC4/cyfitter_cfg.c **** }
 247:.\Generated_Source\PSoC4/cyfitter_cfg.c **** 
 248:.\Generated_Source\PSoC4/cyfitter_cfg.c **** 
 249:.\Generated_Source\PSoC4/cyfitter_cfg.c **** /* Analog API Functions */
 250:.\Generated_Source\PSoC4/cyfitter_cfg.c **** 
 251:.\Generated_Source\PSoC4/cyfitter_cfg.c **** 
 252:.\Generated_Source\PSoC4/cyfitter_cfg.c **** /*******************************************************************************
 253:.\Generated_Source\PSoC4/cyfitter_cfg.c **** * Function Name: AnalogSetDefault
 254:.\Generated_Source\PSoC4/cyfitter_cfg.c **** ********************************************************************************
 255:.\Generated_Source\PSoC4/cyfitter_cfg.c **** *
 256:.\Generated_Source\PSoC4/cyfitter_cfg.c **** * Summary:
 257:.\Generated_Source\PSoC4/cyfitter_cfg.c **** *  Sets up the analog portions of the chip to default values based on chip
 258:.\Generated_Source\PSoC4/cyfitter_cfg.c **** *  configuration options from the project.
 259:.\Generated_Source\PSoC4/cyfitter_cfg.c **** *
 260:.\Generated_Source\PSoC4/cyfitter_cfg.c **** * Parameters:
 261:.\Generated_Source\PSoC4/cyfitter_cfg.c **** *  void
 262:.\Generated_Source\PSoC4/cyfitter_cfg.c **** *
 263:.\Generated_Source\PSoC4/cyfitter_cfg.c **** * Return:
 264:.\Generated_Source\PSoC4/cyfitter_cfg.c **** *  void
 265:.\Generated_Source\PSoC4/cyfitter_cfg.c **** *
 266:.\Generated_Source\PSoC4/cyfitter_cfg.c **** *******************************************************************************/
 267:.\Generated_Source\PSoC4/cyfitter_cfg.c **** static void AnalogSetDefault(void);
 268:.\Generated_Source\PSoC4/cyfitter_cfg.c **** static void AnalogSetDefault(void)
 269:.\Generated_Source\PSoC4/cyfitter_cfg.c **** {
 100              		.loc 1 269 0
 101              		.cfi_startproc
 270:.\Generated_Source\PSoC4/cyfitter_cfg.c **** 	CY_SET_XTND_REG32((void CYFAR *)CYREG_CTBM0_DFT_CTRL, 0x00000003u);
 102              		.loc 1 270 0
 103 0000 0323     		mov	r3, #3
 104 0002 044A     		ldr	r2, .L7
 105 0004 1360     		str	r3, [r2]
 271:.\Generated_Source\PSoC4/cyfitter_cfg.c **** 	CY_SET_XTND_REG32((void CYFAR *)CYREG_CTBM1_DFT_CTRL, 0x00000003u);
 106              		.loc 1 271 0
 107 0006 044A     		ldr	r2, .L7+4
 108 0008 1360     		str	r3, [r2]
 272:.\Generated_Source\PSoC4/cyfitter_cfg.c **** 	CY_SET_XTND_REG32((void CYFAR *)CYREG_PASS_DSAB_DSAB_CTRL, 0x00000000u);
 109              		.loc 1 272 0
 110 000a 0022     		mov	r2, #0
 111 000c 034B     		ldr	r3, .L7+8
 112 000e 1A60     		str	r2, [r3]
 273:.\Generated_Source\PSoC4/cyfitter_cfg.c **** }
 113              		.loc 1 273 0
 114              		@ sp needed
 115 0010 7047     		bx	lr
 116              	.L8:
 117 0012 C046     		.align	2
 118              	.L7:
 119 0014 30003040 		.word	1076887600
 120 0018 30003140 		.word	1076953136
 121 001c 000E3F40 		.word	1077874176
 122              		.cfi_endproc
 123              	.LFE7:
ARM GAS  C:\Users\Alan\AppData\Local\Temp\ccp7if5S.s 			page 8


 124              		.size	AnalogSetDefault, .-AnalogSetDefault
 125              		.section	.text.CYMEMZERO,"ax",%progbits
 126              		.align	2
 127              		.code	16
 128              		.thumb_func
 129              		.type	CYMEMZERO, %function
 130              	CYMEMZERO:
 131              	.LFB2:
  62:.\Generated_Source\PSoC4/cyfitter_cfg.c **** 	(void)memset(s, 0, n);
 132              		.loc 1 62 0
 133              		.cfi_startproc
 134              	.LVL12:
 135 0000 08B5     		push	{r3, lr}
 136              		.cfi_def_cfa_offset 8
 137              		.cfi_offset 3, -8
 138              		.cfi_offset 14, -4
 139 0002 0A1C     		mov	r2, r1
  63:.\Generated_Source\PSoC4/cyfitter_cfg.c **** }
 140              		.loc 1 63 0
 141 0004 0021     		mov	r1, #0
 142              	.LVL13:
 143 0006 FFF7FEFF 		bl	memset
 144              	.LVL14:
  64:.\Generated_Source\PSoC4/cyfitter_cfg.c **** CY_CFG_UNUSED
 145              		.loc 1 64 0
 146              		@ sp needed
 147 000a 08BD     		pop	{r3, pc}
 148              		.cfi_endproc
 149              	.LFE2:
 150              		.size	CYMEMZERO, .-CYMEMZERO
 151              		.section	.psocinit,"ax",%progbits
 152              		.align	2
 153              		.code	16
 154              		.thumb_func
 155              		.type	ClockSetup, %function
 156              	ClockSetup:
 157              	.LFB6:
 188:.\Generated_Source\PSoC4/cyfitter_cfg.c **** 
 158              		.loc 1 188 0
 159              		.cfi_startproc
 160 0000 38B5     		push	{r3, r4, r5, lr}
 161              		.cfi_def_cfa_offset 16
 162              		.cfi_offset 3, -16
 163              		.cfi_offset 4, -12
 164              		.cfi_offset 5, -8
 165              		.cfi_offset 14, -4
 191:.\Generated_Source\PSoC4/cyfitter_cfg.c **** 
 166              		.loc 1 191 0
 167 0002 1222     		mov	r2, #18
 168 0004 274B     		ldr	r3, .L11
 169 0006 1A60     		str	r2, [r3]
 194:.\Generated_Source\PSoC4/cyfitter_cfg.c **** 	CyDelayCycles(12000000u); /* WCO may take up to 500ms to start */
 170              		.loc 1 194 0
 171 0008 FFF7FEFF 		bl	CySysClkWcoStart
 172              	.LVL15:
 195:.\Generated_Source\PSoC4/cyfitter_cfg.c **** 	(void)CySysClkWcoSetPowerMode(CY_SYS_CLK_WCO_LPM);    /* Switch to the low power mode */
 173              		.loc 1 195 0
ARM GAS  C:\Users\Alan\AppData\Local\Temp\ccp7if5S.s 			page 9


 174 000c 2648     		ldr	r0, .L11+4
 175 000e FFF7FEFF 		bl	CyDelayCycles
 176              	.LVL16:
 196:.\Generated_Source\PSoC4/cyfitter_cfg.c **** 
 177              		.loc 1 196 0
 178 0012 0120     		mov	r0, #1
 179 0014 FFF7FEFF 		bl	CySysClkWcoSetPowerMode
 180              	.LVL17:
 199:.\Generated_Source\PSoC4/cyfitter_cfg.c **** 	/* CYDEV_CLK_ILO_CONFIG Starting address: CYDEV_CLK_ILO_CONFIG */
 181              		.loc 1 199 0
 182 0018 3020     		mov	r0, #48
 183 001a FFF7FEFF 		bl	CySysClkWriteImoFreq
 184              	.LVL18:
 201:.\Generated_Source\PSoC4/cyfitter_cfg.c **** 
 185              		.loc 1 201 0
 186 001e 234A     		ldr	r2, .L11+8
 187 0020 234B     		ldr	r3, .L11+12
 188 0022 1A60     		str	r2, [r3]
 204:.\Generated_Source\PSoC4/cyfitter_cfg.c **** 
 189              		.loc 1 204 0
 190 0024 234C     		ldr	r4, .L11+16
 191 0026 8025     		mov	r5, #128
 192 0028 ED05     		lsl	r5, r5, #23
 193 002a 2560     		str	r5, [r4]
 208:.\Generated_Source\PSoC4/cyfitter_cfg.c **** 	CY_SET_XTND_REG32((void CYFAR *)(CYREG_BLE_BLERD_BB_XO_CAPTRIM), 0x00003E2Du);
 194              		.loc 1 208 0
 195 002c 224A     		ldr	r2, .L11+20
 196 002e 1168     		ldr	r1, [r2]
 197 0030 0223     		mov	r3, #2
 198 0032 0B43     		orr	r3, r1
 199 0034 1360     		str	r3, [r2]
 209:.\Generated_Source\PSoC4/cyfitter_cfg.c **** 	/* Disable Crystal Stable Interrupt before enabling ECO */
 200              		.loc 1 209 0
 201 0036 214A     		ldr	r2, .L11+24
 202 0038 214B     		ldr	r3, .L11+28
 203 003a 1A60     		str	r2, [r3]
 211:.\Generated_Source\PSoC4/cyfitter_cfg.c **** 	/* Start the ECO and do not check status since it is not needed for HFCLK */
 204              		.loc 1 211 0
 205 003c 214A     		ldr	r2, .L11+32
 206 003e 1368     		ldr	r3, [r2]
 207 0040 0821     		mov	r1, #8
 208 0042 8B43     		bic	r3, r1
 209 0044 1360     		str	r3, [r2]
 213:.\Generated_Source\PSoC4/cyfitter_cfg.c **** 	CyDelayUs(1500u); /* Wait to stabalize */
 210              		.loc 1 213 0
 211 0046 FA20     		mov	r0, #250
 212 0048 C000     		lsl	r0, r0, #3
 213 004a FFF7FEFF 		bl	CySysClkEcoStart
 214              	.LVL19:
 214:.\Generated_Source\PSoC4/cyfitter_cfg.c **** 
 215              		.loc 1 214 0
 216 004e 1E48     		ldr	r0, .L11+36
 217 0050 FFF7FEFF 		bl	CyDelayUs
 218              	.LVL20:
 217:.\Generated_Source\PSoC4/cyfitter_cfg.c **** 	CY_SET_REG32((void *)CYREG_PERI_DIV_CMD, 0x8000FF41u);
 219              		.loc 1 217 0
 220 0054 1D4A     		ldr	r2, .L11+40
ARM GAS  C:\Users\Alan\AppData\Local\Temp\ccp7if5S.s 			page 10


 221 0056 1E4B     		ldr	r3, .L11+44
 222 0058 1A60     		str	r2, [r3]
 218:.\Generated_Source\PSoC4/cyfitter_cfg.c **** 	CY_SET_REG32((void *)CYREG_PERI_DIV_16_CTL0, 0x00095F00u);
 223              		.loc 1 218 0
 224 005a 1E4B     		ldr	r3, .L11+48
 225 005c 1E4A     		ldr	r2, .L11+52
 226 005e 1A60     		str	r2, [r3]
 219:.\Generated_Source\PSoC4/cyfitter_cfg.c **** 	CY_SET_REG32((void *)CYREG_PERI_DIV_CMD, 0x8000FF40u);
 227              		.loc 1 219 0
 228 0060 1E49     		ldr	r1, .L11+56
 229 0062 1F4A     		ldr	r2, .L11+60
 230 0064 1160     		str	r1, [r2]
 220:.\Generated_Source\PSoC4/cyfitter_cfg.c **** 
 231              		.loc 1 220 0
 232 0066 1F4A     		ldr	r2, .L11+64
 233 0068 1A60     		str	r2, [r3]
 223:.\Generated_Source\PSoC4/cyfitter_cfg.c **** 
 234              		.loc 1 223 0
 235 006a 8022     		mov	r2, #128
 236 006c 1206     		lsl	r2, r2, #24
 237 006e 1E4B     		ldr	r3, .L11+68
 238 0070 1A60     		str	r2, [r3]
 226:.\Generated_Source\PSoC4/cyfitter_cfg.c **** 
 239              		.loc 1 226 0
 240 0072 8022     		mov	r2, #128
 241 0074 D202     		lsl	r2, r2, #11
 242 0076 1D4B     		ldr	r3, .L11+72
 243 0078 1A60     		str	r2, [r3]
 229:.\Generated_Source\PSoC4/cyfitter_cfg.c **** 
 244              		.loc 1 229 0
 245 007a 4122     		mov	r2, #65
 246 007c 1C4B     		ldr	r3, .L11+76
 247 007e 1A60     		str	r2, [r3]
 232:.\Generated_Source\PSoC4/cyfitter_cfg.c **** 
 248              		.loc 1 232 0
 249 0080 4023     		mov	r3, #64
 250 0082 1C4A     		ldr	r2, .L11+80
 251 0084 1360     		str	r3, [r2]
 235:.\Generated_Source\PSoC4/cyfitter_cfg.c **** 
 252              		.loc 1 235 0
 253 0086 1C4A     		ldr	r2, .L11+84
 254 0088 1360     		str	r3, [r2]
 238:.\Generated_Source\PSoC4/cyfitter_cfg.c **** 
 255              		.loc 1 238 0
 256 008a 1C4A     		ldr	r2, .L11+88
 257 008c 1360     		str	r3, [r2]
 241:.\Generated_Source\PSoC4/cyfitter_cfg.c **** 
 258              		.loc 1 241 0
 259 008e 1C4A     		ldr	r2, .L11+92
 260 0090 1360     		str	r3, [r2]
 243:.\Generated_Source\PSoC4/cyfitter_cfg.c **** 	CyIntEnable(8u);
 261              		.loc 1 243 0
 262 0092 0820     		mov	r0, #8
 263 0094 1B49     		ldr	r1, .L11+96
 264 0096 FFF7FEFF 		bl	CyIntSetVector
 265              	.LVL21:
 244:.\Generated_Source\PSoC4/cyfitter_cfg.c **** 	CY_SET_XTND_REG32((void CYFAR *)(CYREG_WDT_CONFIG), 0x40000000u);
ARM GAS  C:\Users\Alan\AppData\Local\Temp\ccp7if5S.s 			page 11


 266              		.loc 1 244 0
 267 009a 0820     		mov	r0, #8
 268 009c FFF7FEFF 		bl	CyIntEnable
 269              	.LVL22:
 245:.\Generated_Source\PSoC4/cyfitter_cfg.c **** }
 270              		.loc 1 245 0
 271 00a0 2560     		str	r5, [r4]
 246:.\Generated_Source\PSoC4/cyfitter_cfg.c **** 
 272              		.loc 1 246 0
 273              		@ sp needed
 274 00a2 38BD     		pop	{r3, r4, r5, pc}
 275              	.L12:
 276              		.align	2
 277              	.L11:
 278 00a4 30001040 		.word	1074790448
 279 00a8 001BB700 		.word	12000000
 280 00ac 06000080 		.word	-2147483642
 281 00b0 04010B40 		.word	1074462980
 282 00b4 0C020B40 		.word	1074463244
 283 00b8 78002E40 		.word	1076756600
 284 00bc 2D3E0000 		.word	15917
 285 00c0 7C002E40 		.word	1076756604
 286 00c4 6CF02E40 		.word	1076818028
 287 00c8 DC050000 		.word	1500
 288 00cc 00E3AF00 		.word	11526912
 289 00d0 04030140 		.word	1073808132
 290 00d4 00000140 		.word	1073807360
 291 00d8 41FF0080 		.word	-2147418303
 292 00dc 005F0900 		.word	614144
 293 00e0 00030140 		.word	1073808128
 294 00e4 40FF0080 		.word	-2147418304
 295 00e8 08010B40 		.word	1074462984
 296 00ec 00010B40 		.word	1074462976
 297 00f0 2C010140 		.word	1073807660
 298 00f4 28010140 		.word	1073807656
 299 00f8 24010140 		.word	1073807652
 300 00fc 20010140 		.word	1073807648
 301 0100 1C010140 		.word	1073807644
 302 0104 00000000 		.word	CySysWdtIsr
 303              		.cfi_endproc
 304              	.LFE6:
 305              		.size	ClockSetup, .-ClockSetup
 306              		.align	2
 307              		.global	cyfitter_cfg
 308              		.code	16
 309              		.thumb_func
 310              		.type	cyfitter_cfg, %function
 311              	cyfitter_cfg:
 312              	.LFB8:
 274:.\Generated_Source\PSoC4/cyfitter_cfg.c **** 
 275:.\Generated_Source\PSoC4/cyfitter_cfg.c **** #define CY_AMUX_UNUSED CYREG_CM0_ROM_DWT
 276:.\Generated_Source\PSoC4/cyfitter_cfg.c **** 
 277:.\Generated_Source\PSoC4/cyfitter_cfg.c **** 
 278:.\Generated_Source\PSoC4/cyfitter_cfg.c **** /*******************************************************************************
 279:.\Generated_Source\PSoC4/cyfitter_cfg.c **** * Function Name: cyfitter_cfg
 280:.\Generated_Source\PSoC4/cyfitter_cfg.c **** ********************************************************************************
 281:.\Generated_Source\PSoC4/cyfitter_cfg.c **** * Summary:
ARM GAS  C:\Users\Alan\AppData\Local\Temp\ccp7if5S.s 			page 12


 282:.\Generated_Source\PSoC4/cyfitter_cfg.c **** *  This function is called by the start-up code for the selected device. It
 283:.\Generated_Source\PSoC4/cyfitter_cfg.c **** *  performs all of the necessary device configuration based on the design
 284:.\Generated_Source\PSoC4/cyfitter_cfg.c **** *  settings.  This includes settings from the Design Wide Resources (DWR) such
 285:.\Generated_Source\PSoC4/cyfitter_cfg.c **** *  as Clocks and Pins as well as any component configuration that is necessary.
 286:.\Generated_Source\PSoC4/cyfitter_cfg.c **** *
 287:.\Generated_Source\PSoC4/cyfitter_cfg.c **** * Parameters:  
 288:.\Generated_Source\PSoC4/cyfitter_cfg.c **** *   void
 289:.\Generated_Source\PSoC4/cyfitter_cfg.c **** *
 290:.\Generated_Source\PSoC4/cyfitter_cfg.c **** * Return:
 291:.\Generated_Source\PSoC4/cyfitter_cfg.c **** *   void
 292:.\Generated_Source\PSoC4/cyfitter_cfg.c **** *
 293:.\Generated_Source\PSoC4/cyfitter_cfg.c **** *******************************************************************************/
 294:.\Generated_Source\PSoC4/cyfitter_cfg.c **** CY_CFG_SECTION
 295:.\Generated_Source\PSoC4/cyfitter_cfg.c **** void cyfitter_cfg(void)
 296:.\Generated_Source\PSoC4/cyfitter_cfg.c **** {
 313              		.loc 1 296 0
 314              		.cfi_startproc
 315 0108 38B5     		push	{r3, r4, r5, lr}
 316              		.cfi_def_cfa_offset 16
 317              		.cfi_offset 3, -16
 318              		.cfi_offset 4, -12
 319              		.cfi_offset 5, -8
 320              		.cfi_offset 14, -4
 297:.\Generated_Source\PSoC4/cyfitter_cfg.c **** 	/* Disable interrupts by default. Let user enable if/when they want. */
 298:.\Generated_Source\PSoC4/cyfitter_cfg.c **** 	CyGlobalIntDisable;
 321              		.loc 1 298 0
 322              	@ 298 ".\Generated_Source\PSoC4\cyfitter_cfg.c" 1
 323 010a 72B6     		CPSID   i
 324              	@ 0 "" 2
 299:.\Generated_Source\PSoC4/cyfitter_cfg.c **** 
 300:.\Generated_Source\PSoC4/cyfitter_cfg.c **** 	CY_SET_XTND_REG32((void CYFAR *)(CYREG_BLE_BLESS_LL_DSM_CTRL), 0x00000000u);
 325              		.loc 1 300 0
 326              		.code	16
 327 010c 0022     		mov	r2, #0
 328 010e 484B     		ldr	r3, .L16
 329 0110 1A60     		str	r2, [r3]
 301:.\Generated_Source\PSoC4/cyfitter_cfg.c **** 
 302:.\Generated_Source\PSoC4/cyfitter_cfg.c **** 	/* Enable the clock in the interrupt controller for the routed interrupts */
 303:.\Generated_Source\PSoC4/cyfitter_cfg.c **** 	CY_SET_REG8((void *)CYREG_UDB_UDBIF_INT_CLK_CTL, 0x01u);
 330              		.loc 1 303 0
 331 0112 0132     		add	r2, r2, #1
 332 0114 474B     		ldr	r3, .L16+4
 333 0116 1A70     		strb	r2, [r3]
 334              	.LVL23:
 335              	.LBB3:
 304:.\Generated_Source\PSoC4/cyfitter_cfg.c **** 	{
 305:.\Generated_Source\PSoC4/cyfitter_cfg.c **** 		static const uint32 CYCODE cy_cfg_addr_table[] = {
 306:.\Generated_Source\PSoC4/cyfitter_cfg.c **** 			0x400F0002u, /* Base address: 0x400F0000 Count: 2 */
 307:.\Generated_Source\PSoC4/cyfitter_cfg.c **** 			0x400F304Fu, /* Base address: 0x400F3000 Count: 79 */
 308:.\Generated_Source\PSoC4/cyfitter_cfg.c **** 			0x400F312Du, /* Base address: 0x400F3100 Count: 45 */
 309:.\Generated_Source\PSoC4/cyfitter_cfg.c **** 			0x400F3304u, /* Base address: 0x400F3300 Count: 4 */
 310:.\Generated_Source\PSoC4/cyfitter_cfg.c **** 			0x400F4002u, /* Base address: 0x400F4000 Count: 2 */
 311:.\Generated_Source\PSoC4/cyfitter_cfg.c **** 			0x400F410Fu, /* Base address: 0x400F4100 Count: 15 */
 312:.\Generated_Source\PSoC4/cyfitter_cfg.c **** 			0x400F420Cu, /* Base address: 0x400F4200 Count: 12 */
 313:.\Generated_Source\PSoC4/cyfitter_cfg.c **** 			0x400F430Eu, /* Base address: 0x400F4300 Count: 14 */
 314:.\Generated_Source\PSoC4/cyfitter_cfg.c **** 			0x400F6002u, /* Base address: 0x400F6000 Count: 2 */
 315:.\Generated_Source\PSoC4/cyfitter_cfg.c **** 		};
ARM GAS  C:\Users\Alan\AppData\Local\Temp\ccp7if5S.s 			page 13


 316:.\Generated_Source\PSoC4/cyfitter_cfg.c **** 
 317:.\Generated_Source\PSoC4/cyfitter_cfg.c **** 		static const cy_cfg_addrvalue_t CYCODE cy_cfg_data_table[] = {
 318:.\Generated_Source\PSoC4/cyfitter_cfg.c **** 			{0x80u, 0x0Du},
 319:.\Generated_Source\PSoC4/cyfitter_cfg.c **** 			{0x81u, 0x0Du},
 320:.\Generated_Source\PSoC4/cyfitter_cfg.c **** 			{0x07u, 0x09u},
 321:.\Generated_Source\PSoC4/cyfitter_cfg.c **** 			{0x08u, 0x01u},
 322:.\Generated_Source\PSoC4/cyfitter_cfg.c **** 			{0x0Du, 0x02u},
 323:.\Generated_Source\PSoC4/cyfitter_cfg.c **** 			{0x1Bu, 0x01u},
 324:.\Generated_Source\PSoC4/cyfitter_cfg.c **** 			{0x23u, 0x08u},
 325:.\Generated_Source\PSoC4/cyfitter_cfg.c **** 			{0x26u, 0x03u},
 326:.\Generated_Source\PSoC4/cyfitter_cfg.c **** 			{0x2Fu, 0x04u},
 327:.\Generated_Source\PSoC4/cyfitter_cfg.c **** 			{0x31u, 0x01u},
 328:.\Generated_Source\PSoC4/cyfitter_cfg.c **** 			{0x32u, 0x02u},
 329:.\Generated_Source\PSoC4/cyfitter_cfg.c **** 			{0x33u, 0x08u},
 330:.\Generated_Source\PSoC4/cyfitter_cfg.c **** 			{0x35u, 0x04u},
 331:.\Generated_Source\PSoC4/cyfitter_cfg.c **** 			{0x36u, 0x01u},
 332:.\Generated_Source\PSoC4/cyfitter_cfg.c **** 			{0x37u, 0x02u},
 333:.\Generated_Source\PSoC4/cyfitter_cfg.c **** 			{0x3Fu, 0x44u},
 334:.\Generated_Source\PSoC4/cyfitter_cfg.c **** 			{0x40u, 0x20u},
 335:.\Generated_Source\PSoC4/cyfitter_cfg.c **** 			{0x41u, 0x05u},
 336:.\Generated_Source\PSoC4/cyfitter_cfg.c **** 			{0x45u, 0xD1u},
 337:.\Generated_Source\PSoC4/cyfitter_cfg.c **** 			{0x47u, 0x20u},
 338:.\Generated_Source\PSoC4/cyfitter_cfg.c **** 			{0x48u, 0x23u},
 339:.\Generated_Source\PSoC4/cyfitter_cfg.c **** 			{0x49u, 0xFFu},
 340:.\Generated_Source\PSoC4/cyfitter_cfg.c **** 			{0x4Au, 0xFFu},
 341:.\Generated_Source\PSoC4/cyfitter_cfg.c **** 			{0x4Bu, 0xFFu},
 342:.\Generated_Source\PSoC4/cyfitter_cfg.c **** 			{0x4Du, 0xA0u},
 343:.\Generated_Source\PSoC4/cyfitter_cfg.c **** 			{0x4Fu, 0x04u},
 344:.\Generated_Source\PSoC4/cyfitter_cfg.c **** 			{0x50u, 0x18u},
 345:.\Generated_Source\PSoC4/cyfitter_cfg.c **** 			{0x52u, 0x80u},
 346:.\Generated_Source\PSoC4/cyfitter_cfg.c **** 			{0x54u, 0x05u},
 347:.\Generated_Source\PSoC4/cyfitter_cfg.c **** 			{0x58u, 0x04u},
 348:.\Generated_Source\PSoC4/cyfitter_cfg.c **** 			{0x59u, 0x04u},
 349:.\Generated_Source\PSoC4/cyfitter_cfg.c **** 			{0x5Au, 0x04u},
 350:.\Generated_Source\PSoC4/cyfitter_cfg.c **** 			{0x5Bu, 0x04u},
 351:.\Generated_Source\PSoC4/cyfitter_cfg.c **** 			{0x5Fu, 0x01u},
 352:.\Generated_Source\PSoC4/cyfitter_cfg.c **** 			{0x60u, 0x40u},
 353:.\Generated_Source\PSoC4/cyfitter_cfg.c **** 			{0x62u, 0xC0u},
 354:.\Generated_Source\PSoC4/cyfitter_cfg.c **** 			{0x64u, 0x40u},
 355:.\Generated_Source\PSoC4/cyfitter_cfg.c **** 			{0x65u, 0x40u},
 356:.\Generated_Source\PSoC4/cyfitter_cfg.c **** 			{0x66u, 0xC0u},
 357:.\Generated_Source\PSoC4/cyfitter_cfg.c **** 			{0x68u, 0xC0u},
 358:.\Generated_Source\PSoC4/cyfitter_cfg.c **** 			{0x6Au, 0xC0u},
 359:.\Generated_Source\PSoC4/cyfitter_cfg.c **** 			{0x6Cu, 0xC0u},
 360:.\Generated_Source\PSoC4/cyfitter_cfg.c **** 			{0x6Eu, 0xC0u},
 361:.\Generated_Source\PSoC4/cyfitter_cfg.c **** 			{0x83u, 0x01u},
 362:.\Generated_Source\PSoC4/cyfitter_cfg.c **** 			{0x94u, 0x01u},
 363:.\Generated_Source\PSoC4/cyfitter_cfg.c **** 			{0x9Eu, 0x04u},
 364:.\Generated_Source\PSoC4/cyfitter_cfg.c **** 			{0xA6u, 0x03u},
 365:.\Generated_Source\PSoC4/cyfitter_cfg.c **** 			{0xAEu, 0x04u},
 366:.\Generated_Source\PSoC4/cyfitter_cfg.c **** 			{0xB0u, 0x01u},
 367:.\Generated_Source\PSoC4/cyfitter_cfg.c **** 			{0xB1u, 0x01u},
 368:.\Generated_Source\PSoC4/cyfitter_cfg.c **** 			{0xB2u, 0x02u},
 369:.\Generated_Source\PSoC4/cyfitter_cfg.c **** 			{0xB4u, 0x04u},
 370:.\Generated_Source\PSoC4/cyfitter_cfg.c **** 			{0xBEu, 0x10u},
 371:.\Generated_Source\PSoC4/cyfitter_cfg.c **** 			{0xC0u, 0x10u},
 372:.\Generated_Source\PSoC4/cyfitter_cfg.c **** 			{0xC1u, 0x05u},
ARM GAS  C:\Users\Alan\AppData\Local\Temp\ccp7if5S.s 			page 14


 373:.\Generated_Source\PSoC4/cyfitter_cfg.c **** 			{0xC5u, 0xD0u},
 374:.\Generated_Source\PSoC4/cyfitter_cfg.c **** 			{0xC6u, 0x12u},
 375:.\Generated_Source\PSoC4/cyfitter_cfg.c **** 			{0xC8u, 0x0Eu},
 376:.\Generated_Source\PSoC4/cyfitter_cfg.c **** 			{0xC9u, 0xFFu},
 377:.\Generated_Source\PSoC4/cyfitter_cfg.c **** 			{0xCAu, 0xFFu},
 378:.\Generated_Source\PSoC4/cyfitter_cfg.c **** 			{0xCBu, 0xFFu},
 379:.\Generated_Source\PSoC4/cyfitter_cfg.c **** 			{0xCDu, 0xA0u},
 380:.\Generated_Source\PSoC4/cyfitter_cfg.c **** 			{0xCFu, 0x04u},
 381:.\Generated_Source\PSoC4/cyfitter_cfg.c **** 			{0xD0u, 0x18u},
 382:.\Generated_Source\PSoC4/cyfitter_cfg.c **** 			{0xD2u, 0x80u},
 383:.\Generated_Source\PSoC4/cyfitter_cfg.c **** 			{0xD4u, 0x05u},
 384:.\Generated_Source\PSoC4/cyfitter_cfg.c **** 			{0xD6u, 0x04u},
 385:.\Generated_Source\PSoC4/cyfitter_cfg.c **** 			{0xD8u, 0x04u},
 386:.\Generated_Source\PSoC4/cyfitter_cfg.c **** 			{0xD9u, 0x04u},
 387:.\Generated_Source\PSoC4/cyfitter_cfg.c **** 			{0xDAu, 0x04u},
 388:.\Generated_Source\PSoC4/cyfitter_cfg.c **** 			{0xDBu, 0x04u},
 389:.\Generated_Source\PSoC4/cyfitter_cfg.c **** 			{0xDFu, 0x01u},
 390:.\Generated_Source\PSoC4/cyfitter_cfg.c **** 			{0xE0u, 0x40u},
 391:.\Generated_Source\PSoC4/cyfitter_cfg.c **** 			{0xE2u, 0xC0u},
 392:.\Generated_Source\PSoC4/cyfitter_cfg.c **** 			{0xE4u, 0x40u},
 393:.\Generated_Source\PSoC4/cyfitter_cfg.c **** 			{0xE5u, 0x40u},
 394:.\Generated_Source\PSoC4/cyfitter_cfg.c **** 			{0xE6u, 0xC0u},
 395:.\Generated_Source\PSoC4/cyfitter_cfg.c **** 			{0xE8u, 0xC0u},
 396:.\Generated_Source\PSoC4/cyfitter_cfg.c **** 			{0xEAu, 0xC0u},
 397:.\Generated_Source\PSoC4/cyfitter_cfg.c **** 			{0xECu, 0xC0u},
 398:.\Generated_Source\PSoC4/cyfitter_cfg.c **** 			{0xEEu, 0xC0u},
 399:.\Generated_Source\PSoC4/cyfitter_cfg.c **** 			{0x00u, 0x10u},
 400:.\Generated_Source\PSoC4/cyfitter_cfg.c **** 			{0x0Du, 0x80u},
 401:.\Generated_Source\PSoC4/cyfitter_cfg.c **** 			{0x0Eu, 0x20u},
 402:.\Generated_Source\PSoC4/cyfitter_cfg.c **** 			{0x10u, 0x20u},
 403:.\Generated_Source\PSoC4/cyfitter_cfg.c **** 			{0x16u, 0x20u},
 404:.\Generated_Source\PSoC4/cyfitter_cfg.c **** 			{0x17u, 0x80u},
 405:.\Generated_Source\PSoC4/cyfitter_cfg.c **** 			{0x18u, 0x10u},
 406:.\Generated_Source\PSoC4/cyfitter_cfg.c **** 			{0x19u, 0x40u},
 407:.\Generated_Source\PSoC4/cyfitter_cfg.c **** 			{0x1Eu, 0x68u},
 408:.\Generated_Source\PSoC4/cyfitter_cfg.c **** 			{0x20u, 0x44u},
 409:.\Generated_Source\PSoC4/cyfitter_cfg.c **** 			{0x22u, 0x04u},
 410:.\Generated_Source\PSoC4/cyfitter_cfg.c **** 			{0x23u, 0x02u},
 411:.\Generated_Source\PSoC4/cyfitter_cfg.c **** 			{0x27u, 0x80u},
 412:.\Generated_Source\PSoC4/cyfitter_cfg.c **** 			{0x2Au, 0x81u},
 413:.\Generated_Source\PSoC4/cyfitter_cfg.c **** 			{0x30u, 0x20u},
 414:.\Generated_Source\PSoC4/cyfitter_cfg.c **** 			{0x38u, 0x44u},
 415:.\Generated_Source\PSoC4/cyfitter_cfg.c **** 			{0x3Cu, 0x02u},
 416:.\Generated_Source\PSoC4/cyfitter_cfg.c **** 			{0x40u, 0x04u},
 417:.\Generated_Source\PSoC4/cyfitter_cfg.c **** 			{0x47u, 0x80u},
 418:.\Generated_Source\PSoC4/cyfitter_cfg.c **** 			{0x48u, 0x22u},
 419:.\Generated_Source\PSoC4/cyfitter_cfg.c **** 			{0x49u, 0x01u},
 420:.\Generated_Source\PSoC4/cyfitter_cfg.c **** 			{0x4Fu, 0x81u},
 421:.\Generated_Source\PSoC4/cyfitter_cfg.c **** 			{0x50u, 0x02u},
 422:.\Generated_Source\PSoC4/cyfitter_cfg.c **** 			{0x52u, 0x01u},
 423:.\Generated_Source\PSoC4/cyfitter_cfg.c **** 			{0x55u, 0x80u},
 424:.\Generated_Source\PSoC4/cyfitter_cfg.c **** 			{0x56u, 0x20u},
 425:.\Generated_Source\PSoC4/cyfitter_cfg.c **** 			{0x57u, 0x40u},
 426:.\Generated_Source\PSoC4/cyfitter_cfg.c **** 			{0x59u, 0x41u},
 427:.\Generated_Source\PSoC4/cyfitter_cfg.c **** 			{0x5Au, 0x08u},
 428:.\Generated_Source\PSoC4/cyfitter_cfg.c **** 			{0x5Eu, 0x48u},
 429:.\Generated_Source\PSoC4/cyfitter_cfg.c **** 			{0x5Fu, 0x01u},
ARM GAS  C:\Users\Alan\AppData\Local\Temp\ccp7if5S.s 			page 15


 430:.\Generated_Source\PSoC4/cyfitter_cfg.c **** 			{0x67u, 0x40u},
 431:.\Generated_Source\PSoC4/cyfitter_cfg.c **** 			{0x72u, 0x80u},
 432:.\Generated_Source\PSoC4/cyfitter_cfg.c **** 			{0x74u, 0x01u},
 433:.\Generated_Source\PSoC4/cyfitter_cfg.c **** 			{0x87u, 0x40u},
 434:.\Generated_Source\PSoC4/cyfitter_cfg.c **** 			{0xC0u, 0x02u},
 435:.\Generated_Source\PSoC4/cyfitter_cfg.c **** 			{0xC2u, 0xA0u},
 436:.\Generated_Source\PSoC4/cyfitter_cfg.c **** 			{0xC4u, 0xA4u},
 437:.\Generated_Source\PSoC4/cyfitter_cfg.c **** 			{0xCAu, 0x09u},
 438:.\Generated_Source\PSoC4/cyfitter_cfg.c **** 			{0xCCu, 0x04u},
 439:.\Generated_Source\PSoC4/cyfitter_cfg.c **** 			{0xCEu, 0x8Au},
 440:.\Generated_Source\PSoC4/cyfitter_cfg.c **** 			{0xD0u, 0x14u},
 441:.\Generated_Source\PSoC4/cyfitter_cfg.c **** 			{0xD2u, 0x18u},
 442:.\Generated_Source\PSoC4/cyfitter_cfg.c **** 			{0xD6u, 0xDBu},
 443:.\Generated_Source\PSoC4/cyfitter_cfg.c **** 			{0xD8u, 0x80u},
 444:.\Generated_Source\PSoC4/cyfitter_cfg.c **** 			{0xAFu, 0x02u},
 445:.\Generated_Source\PSoC4/cyfitter_cfg.c **** 			{0xE0u, 0x80u},
 446:.\Generated_Source\PSoC4/cyfitter_cfg.c **** 			{0xEAu, 0x08u},
 447:.\Generated_Source\PSoC4/cyfitter_cfg.c **** 			{0xECu, 0x03u},
 448:.\Generated_Source\PSoC4/cyfitter_cfg.c **** 			{0x86u, 0x40u},
 449:.\Generated_Source\PSoC4/cyfitter_cfg.c **** 			{0xE6u, 0x40u},
 450:.\Generated_Source\PSoC4/cyfitter_cfg.c **** 			{0x0Bu, 0x08u},
 451:.\Generated_Source\PSoC4/cyfitter_cfg.c **** 			{0x0Du, 0x80u},
 452:.\Generated_Source\PSoC4/cyfitter_cfg.c **** 			{0x63u, 0x10u},
 453:.\Generated_Source\PSoC4/cyfitter_cfg.c **** 			{0x6Eu, 0x80u},
 454:.\Generated_Source\PSoC4/cyfitter_cfg.c **** 			{0x8Bu, 0x04u},
 455:.\Generated_Source\PSoC4/cyfitter_cfg.c **** 			{0x93u, 0x10u},
 456:.\Generated_Source\PSoC4/cyfitter_cfg.c **** 			{0xA2u, 0x40u},
 457:.\Generated_Source\PSoC4/cyfitter_cfg.c **** 			{0xA5u, 0x80u},
 458:.\Generated_Source\PSoC4/cyfitter_cfg.c **** 			{0xA9u, 0x80u},
 459:.\Generated_Source\PSoC4/cyfitter_cfg.c **** 			{0xAFu, 0x10u},
 460:.\Generated_Source\PSoC4/cyfitter_cfg.c **** 			{0xC2u, 0xC0u},
 461:.\Generated_Source\PSoC4/cyfitter_cfg.c **** 			{0xD8u, 0x40u},
 462:.\Generated_Source\PSoC4/cyfitter_cfg.c **** 			{0xDAu, 0x80u},
 463:.\Generated_Source\PSoC4/cyfitter_cfg.c **** 			{0xEAu, 0x10u},
 464:.\Generated_Source\PSoC4/cyfitter_cfg.c **** 			{0xECu, 0x80u},
 465:.\Generated_Source\PSoC4/cyfitter_cfg.c **** 			{0x15u, 0x10u},
 466:.\Generated_Source\PSoC4/cyfitter_cfg.c **** 			{0x16u, 0x40u},
 467:.\Generated_Source\PSoC4/cyfitter_cfg.c **** 			{0x45u, 0x80u},
 468:.\Generated_Source\PSoC4/cyfitter_cfg.c **** 			{0x49u, 0x40u},
 469:.\Generated_Source\PSoC4/cyfitter_cfg.c **** 			{0x5Cu, 0x02u},
 470:.\Generated_Source\PSoC4/cyfitter_cfg.c **** 			{0x6Bu, 0x02u},
 471:.\Generated_Source\PSoC4/cyfitter_cfg.c **** 			{0x6Du, 0x40u},
 472:.\Generated_Source\PSoC4/cyfitter_cfg.c **** 			{0xC4u, 0x05u},
 473:.\Generated_Source\PSoC4/cyfitter_cfg.c **** 			{0xD0u, 0x04u},
 474:.\Generated_Source\PSoC4/cyfitter_cfg.c **** 			{0xD2u, 0x08u},
 475:.\Generated_Source\PSoC4/cyfitter_cfg.c **** 			{0xD6u, 0x01u},
 476:.\Generated_Source\PSoC4/cyfitter_cfg.c **** 			{0xDAu, 0x03u},
 477:.\Generated_Source\PSoC4/cyfitter_cfg.c **** 			{0x01u, 0x40u},
 478:.\Generated_Source\PSoC4/cyfitter_cfg.c **** 			{0x07u, 0x02u},
 479:.\Generated_Source\PSoC4/cyfitter_cfg.c **** 			{0x5Du, 0x10u},
 480:.\Generated_Source\PSoC4/cyfitter_cfg.c **** 			{0x89u, 0x40u},
 481:.\Generated_Source\PSoC4/cyfitter_cfg.c **** 			{0x91u, 0x10u},
 482:.\Generated_Source\PSoC4/cyfitter_cfg.c **** 			{0x95u, 0x40u},
 483:.\Generated_Source\PSoC4/cyfitter_cfg.c **** 			{0x9Du, 0x40u},
 484:.\Generated_Source\PSoC4/cyfitter_cfg.c **** 			{0x9Fu, 0x02u},
 485:.\Generated_Source\PSoC4/cyfitter_cfg.c **** 			{0xA9u, 0x80u},
 486:.\Generated_Source\PSoC4/cyfitter_cfg.c **** 			{0xACu, 0x02u},
ARM GAS  C:\Users\Alan\AppData\Local\Temp\ccp7if5S.s 			page 16


 487:.\Generated_Source\PSoC4/cyfitter_cfg.c **** 			{0xAEu, 0x40u},
 488:.\Generated_Source\PSoC4/cyfitter_cfg.c **** 			{0xC0u, 0x03u},
 489:.\Generated_Source\PSoC4/cyfitter_cfg.c **** 			{0xD6u, 0x04u},
 490:.\Generated_Source\PSoC4/cyfitter_cfg.c **** 			{0xE0u, 0x01u},
 491:.\Generated_Source\PSoC4/cyfitter_cfg.c **** 			{0x10u, 0x01u},
 492:.\Generated_Source\PSoC4/cyfitter_cfg.c **** 			{0x11u, 0x01u},
 493:.\Generated_Source\PSoC4/cyfitter_cfg.c **** 		};
 494:.\Generated_Source\PSoC4/cyfitter_cfg.c **** 
 495:.\Generated_Source\PSoC4/cyfitter_cfg.c **** 
 496:.\Generated_Source\PSoC4/cyfitter_cfg.c **** 
 497:.\Generated_Source\PSoC4/cyfitter_cfg.c **** 		CYPACKED typedef struct {
 498:.\Generated_Source\PSoC4/cyfitter_cfg.c **** 			void CYFAR *address;
 499:.\Generated_Source\PSoC4/cyfitter_cfg.c **** 			uint16 size;
 500:.\Generated_Source\PSoC4/cyfitter_cfg.c **** 		} CYPACKED_ATTR cfg_memset_t;
 501:.\Generated_Source\PSoC4/cyfitter_cfg.c **** 
 502:.\Generated_Source\PSoC4/cyfitter_cfg.c **** 		static const cfg_memset_t CYCODE cfg_memset_list [] = {
 503:.\Generated_Source\PSoC4/cyfitter_cfg.c **** 			/* address, size */
 504:.\Generated_Source\PSoC4/cyfitter_cfg.c **** 			{(void CYFAR *)(CYDEV_UDB_P0_U0_BASE), 1024u},
 505:.\Generated_Source\PSoC4/cyfitter_cfg.c **** 			{(void CYFAR *)(CYDEV_UDB_DSI0_BASE), 1024u},
 506:.\Generated_Source\PSoC4/cyfitter_cfg.c **** 		};
 507:.\Generated_Source\PSoC4/cyfitter_cfg.c **** 
 508:.\Generated_Source\PSoC4/cyfitter_cfg.c **** 		uint8 CYDATA i;
 509:.\Generated_Source\PSoC4/cyfitter_cfg.c **** 
 510:.\Generated_Source\PSoC4/cyfitter_cfg.c **** 		/* Zero out critical memory blocks before beginning configuration */
 511:.\Generated_Source\PSoC4/cyfitter_cfg.c **** 		for (i = 0u; i < (sizeof(cfg_memset_list)/sizeof(cfg_memset_list[0])); i++)
 336              		.loc 1 511 0
 337 0118 0024     		mov	r4, #0
 338 011a 10E0     		b	.L14
 339              	.LVL24:
 340              	.L15:
 341              	.LBB4:
 512:.\Generated_Source\PSoC4/cyfitter_cfg.c **** 		{
 513:.\Generated_Source\PSoC4/cyfitter_cfg.c **** 			const cfg_memset_t CYCODE * CYDATA ms = &cfg_memset_list[i];
 514:.\Generated_Source\PSoC4/cyfitter_cfg.c **** 			CYMEMZERO(ms->address, (size_t)(uint32)(ms->size));
 342              		.loc 1 514 0 discriminator 3
 343 011c 4648     		ldr	r0, .L16+8
 344 011e 6300     		lsl	r3, r4, #1
 345 0120 1A19     		add	r2, r3, r4
 346 0122 5200     		lsl	r2, r2, #1
 347 0124 8218     		add	r2, r0, r2
 348 0126 9188     		ldrh	r1, [r2, #4]
 349 0128 1B19     		add	r3, r3, r4
 350 012a 5B00     		lsl	r3, r3, #1
 351 012c 1A5A     		ldrh	r2, [r3, r0]
 352 012e C318     		add	r3, r0, r3
 353 0130 5888     		ldrh	r0, [r3, #2]
 354 0132 0004     		lsl	r0, r0, #16
 355 0134 1043     		orr	r0, r2
 356 0136 FFF7FEFF 		bl	CYMEMZERO
 357              	.LVL25:
 358              	.LBE4:
 511:.\Generated_Source\PSoC4/cyfitter_cfg.c **** 		{
 359              		.loc 1 511 0 discriminator 3
 360 013a 0134     		add	r4, r4, #1
 361              	.LVL26:
 362 013c E4B2     		uxtb	r4, r4
 363              	.LVL27:
ARM GAS  C:\Users\Alan\AppData\Local\Temp\ccp7if5S.s 			page 17


 364              	.L14:
 511:.\Generated_Source\PSoC4/cyfitter_cfg.c **** 		{
 365              		.loc 1 511 0 is_stmt 0 discriminator 1
 366 013e 012C     		cmp	r4, #1
 367 0140 ECD9     		bls	.L15
 515:.\Generated_Source\PSoC4/cyfitter_cfg.c **** 		}
 516:.\Generated_Source\PSoC4/cyfitter_cfg.c **** 
 517:.\Generated_Source\PSoC4/cyfitter_cfg.c **** 		cfg_write_bytes32(cy_cfg_addr_table, cy_cfg_data_table);
 368              		.loc 1 517 0 is_stmt 1
 369 0142 3D49     		ldr	r1, .L16+8
 370 0144 081C     		mov	r0, r1
 371 0146 0C30     		add	r0, r0, #12
 372 0148 3031     		add	r1, r1, #48
 373 014a FFF7FEFF 		bl	cfg_write_bytes32
 374              	.LVL28:
 518:.\Generated_Source\PSoC4/cyfitter_cfg.c **** 
 519:.\Generated_Source\PSoC4/cyfitter_cfg.c **** 		/* Perform normal device configuration. Order is not critical for these items. */
 520:.\Generated_Source\PSoC4/cyfitter_cfg.c **** 		CY_SET_XTND_REG16((void CYFAR *)(CYREG_UDB_BCTL0_DRV), 0x0100u);
 375              		.loc 1 520 0
 376 014e 8022     		mov	r2, #128
 377 0150 5200     		lsl	r2, r2, #1
 378 0152 3A4B     		ldr	r3, .L16+12
 379 0154 1A80     		strh	r2, [r3]
 521:.\Generated_Source\PSoC4/cyfitter_cfg.c **** 		CY_SET_XTND_REG8((void CYFAR *)(CYREG_UDB_BCTL0_DRV + 0x2u), 0x01u);
 380              		.loc 1 521 0
 381 0156 0120     		mov	r0, #1
 382 0158 394B     		ldr	r3, .L16+16
 383 015a 1870     		strb	r0, [r3]
 522:.\Generated_Source\PSoC4/cyfitter_cfg.c **** 
 523:.\Generated_Source\PSoC4/cyfitter_cfg.c **** 		/* HSIOM Starting address: CYDEV_HSIOM_BASE */
 524:.\Generated_Source\PSoC4/cyfitter_cfg.c **** 		CY_SET_XTND_REG32((void CYFAR *)(CYDEV_HSIOM_BASE), 0xEE000000u);
 384              		.loc 1 524 0
 385 015c EE22     		mov	r2, #238
 386 015e 1206     		lsl	r2, r2, #24
 387 0160 384B     		ldr	r3, .L16+20
 388 0162 1A60     		str	r2, [r3]
 525:.\Generated_Source\PSoC4/cyfitter_cfg.c **** 		CY_SET_XTND_REG32((void CYFAR *)(CYREG_HSIOM_PORT_SEL1), 0x00030000u);
 389              		.loc 1 525 0
 390 0164 C023     		mov	r3, #192
 391 0166 9B02     		lsl	r3, r3, #10
 392 0168 374A     		ldr	r2, .L16+24
 393 016a 1360     		str	r3, [r2]
 526:.\Generated_Source\PSoC4/cyfitter_cfg.c **** 		CY_SET_XTND_REG32((void CYFAR *)(CYREG_HSIOM_PORT_SEL2), 0x03000000u);
 394              		.loc 1 526 0
 395 016c C021     		mov	r1, #192
 396 016e 8904     		lsl	r1, r1, #18
 397 0170 364A     		ldr	r2, .L16+28
 398 0172 1160     		str	r1, [r2]
 527:.\Generated_Source\PSoC4/cyfitter_cfg.c **** 		CY_SET_XTND_REG32((void CYFAR *)(CYREG_HSIOM_PORT_SEL3), 0x00000003u);
 399              		.loc 1 527 0
 400 0174 0321     		mov	r1, #3
 401 0176 364A     		ldr	r2, .L16+32
 402 0178 1160     		str	r1, [r2]
 528:.\Generated_Source\PSoC4/cyfitter_cfg.c **** 
 529:.\Generated_Source\PSoC4/cyfitter_cfg.c **** 		/* UDB_PA_0 Starting address: CYDEV_UDB_PA0_BASE */
 530:.\Generated_Source\PSoC4/cyfitter_cfg.c **** 		CY_SET_XTND_REG32((void CYFAR *)(CYDEV_UDB_PA0_BASE), 0x00990000u);
 403              		.loc 1 530 0
ARM GAS  C:\Users\Alan\AppData\Local\Temp\ccp7if5S.s 			page 18


 404 017a 9921     		mov	r1, #153
 405 017c 0904     		lsl	r1, r1, #16
 406 017e 354A     		ldr	r2, .L16+36
 407 0180 1160     		str	r1, [r2]
 531:.\Generated_Source\PSoC4/cyfitter_cfg.c **** 
 532:.\Generated_Source\PSoC4/cyfitter_cfg.c **** 		/* UDB_PA_1 Starting address: CYDEV_UDB_PA1_BASE */
 533:.\Generated_Source\PSoC4/cyfitter_cfg.c **** 		CY_SET_XTND_REG32((void CYFAR *)(CYDEV_UDB_PA1_BASE), 0x00990004u);
 408              		.loc 1 533 0
 409 0182 354A     		ldr	r2, .L16+40
 410 0184 354C     		ldr	r4, .L16+44
 411              	.LVL29:
 412 0186 2260     		str	r2, [r4]
 534:.\Generated_Source\PSoC4/cyfitter_cfg.c **** 		CY_SET_XTND_REG32((void CYFAR *)(CYREG_UDB_PA1_CFG4), 0xA0000000u);
 413              		.loc 1 534 0
 414 0188 A025     		mov	r5, #160
 415 018a 2D06     		lsl	r5, r5, #24
 416 018c 344C     		ldr	r4, .L16+48
 417 018e 2560     		str	r5, [r4]
 535:.\Generated_Source\PSoC4/cyfitter_cfg.c **** 		CY_SET_XTND_REG32((void CYFAR *)(CYREG_UDB_PA1_CFG8), 0x02000000u);
 418              		.loc 1 535 0
 419 0190 8025     		mov	r5, #128
 420 0192 AD04     		lsl	r5, r5, #18
 421 0194 334C     		ldr	r4, .L16+52
 422 0196 2560     		str	r5, [r4]
 536:.\Generated_Source\PSoC4/cyfitter_cfg.c **** 
 537:.\Generated_Source\PSoC4/cyfitter_cfg.c **** 		/* UDB_PA_2 Starting address: CYDEV_UDB_PA2_BASE */
 538:.\Generated_Source\PSoC4/cyfitter_cfg.c **** 		CY_SET_XTND_REG32((void CYFAR *)(CYDEV_UDB_PA2_BASE), 0x00990000u);
 423              		.loc 1 538 0
 424 0198 334C     		ldr	r4, .L16+56
 425 019a 2160     		str	r1, [r4]
 539:.\Generated_Source\PSoC4/cyfitter_cfg.c **** 		CY_SET_XTND_REG32((void CYFAR *)(CYREG_UDB_PA2_CFG4), 0x80000000u);
 426              		.loc 1 539 0
 427 019c 8024     		mov	r4, #128
 428 019e 2406     		lsl	r4, r4, #24
 429 01a0 3249     		ldr	r1, .L16+60
 430 01a2 0C60     		str	r4, [r1]
 540:.\Generated_Source\PSoC4/cyfitter_cfg.c **** 		CY_SET_XTND_REG32((void CYFAR *)(CYREG_UDB_PA2_CFG8), 0x10000000u);
 431              		.loc 1 540 0
 432 01a4 8024     		mov	r4, #128
 433 01a6 6405     		lsl	r4, r4, #21
 434 01a8 3149     		ldr	r1, .L16+64
 435 01aa 0C60     		str	r4, [r1]
 541:.\Generated_Source\PSoC4/cyfitter_cfg.c **** 
 542:.\Generated_Source\PSoC4/cyfitter_cfg.c **** 		/* UDB_PA_3 Starting address: CYDEV_UDB_PA3_BASE */
 543:.\Generated_Source\PSoC4/cyfitter_cfg.c **** 		CY_SET_XTND_REG32((void CYFAR *)(CYDEV_UDB_PA3_BASE), 0x00990004u);
 436              		.loc 1 543 0
 437 01ac 3149     		ldr	r1, .L16+68
 438 01ae 0A60     		str	r2, [r1]
 544:.\Generated_Source\PSoC4/cyfitter_cfg.c **** 		CY_SET_XTND_REG32((void CYFAR *)(CYREG_UDB_PA3_CFG4), 0x00A00000u);
 439              		.loc 1 544 0
 440 01b0 A021     		mov	r1, #160
 441 01b2 0904     		lsl	r1, r1, #16
 442 01b4 304A     		ldr	r2, .L16+72
 443 01b6 1160     		str	r1, [r2]
 545:.\Generated_Source\PSoC4/cyfitter_cfg.c **** 		CY_SET_XTND_REG32((void CYFAR *)(CYREG_UDB_PA3_CFG8), 0x00030000u);
 444              		.loc 1 545 0
 445 01b8 304A     		ldr	r2, .L16+76
ARM GAS  C:\Users\Alan\AppData\Local\Temp\ccp7if5S.s 			page 19


 446 01ba 1360     		str	r3, [r2]
 546:.\Generated_Source\PSoC4/cyfitter_cfg.c **** 
 547:.\Generated_Source\PSoC4/cyfitter_cfg.c **** 		/* TCPWM_CNT0 Starting address: CYDEV_TCPWM_CNT0_TR_CTRL0 */
 548:.\Generated_Source\PSoC4/cyfitter_cfg.c **** 		CY_SET_XTND_REG32((void CYFAR *)(CYREG_TCPWM_CNT0_TR_CTRL0), 0x000E00F0u);
 447              		.loc 1 548 0
 448 01bc 304A     		ldr	r2, .L16+80
 449 01be 314B     		ldr	r3, .L16+84
 450 01c0 1A60     		str	r2, [r3]
 549:.\Generated_Source\PSoC4/cyfitter_cfg.c **** 
 550:.\Generated_Source\PSoC4/cyfitter_cfg.c **** 		/* TCPWM_CNT2 Starting address: CYDEV_TCPWM_CNT2_TR_CTRL0 */
 551:.\Generated_Source\PSoC4/cyfitter_cfg.c **** 		CY_SET_XTND_REG32((void CYFAR *)(CYREG_TCPWM_CNT2_TR_CTRL0), 0x000A0070u);
 451              		.loc 1 551 0
 452 01c2 314A     		ldr	r2, .L16+88
 453 01c4 314B     		ldr	r3, .L16+92
 454 01c6 1A60     		str	r2, [r3]
 552:.\Generated_Source\PSoC4/cyfitter_cfg.c **** 
 553:.\Generated_Source\PSoC4/cyfitter_cfg.c **** 		/* INT_SELECT Starting address: CYDEV_CPUSS_INT_SEL */
 554:.\Generated_Source\PSoC4/cyfitter_cfg.c **** 		CY_SET_XTND_REG32((void CYFAR *)(CYREG_CPUSS_INT_SEL), 0x00000002u);
 455              		.loc 1 554 0
 456 01c8 0223     		mov	r3, #2
 457 01ca 314A     		ldr	r2, .L16+96
 458 01cc 1360     		str	r3, [r2]
 555:.\Generated_Source\PSoC4/cyfitter_cfg.c **** 
 556:.\Generated_Source\PSoC4/cyfitter_cfg.c **** 		/* INT_CONFIG Starting address: CYDEV_UDB_INT_CFG */
 557:.\Generated_Source\PSoC4/cyfitter_cfg.c **** 		CY_SET_XTND_REG32((void CYFAR *)(CYREG_UDB_INT_CFG), 0x00000002u);
 459              		.loc 1 557 0
 460 01ce 314A     		ldr	r2, .L16+100
 461 01d0 1360     		str	r3, [r2]
 558:.\Generated_Source\PSoC4/cyfitter_cfg.c **** 
 559:.\Generated_Source\PSoC4/cyfitter_cfg.c **** 		/* Enable digital routing */
 560:.\Generated_Source\PSoC4/cyfitter_cfg.c **** 		CY_SET_XTND_REG8((void *)CYREG_UDB_UDBIF_BANK_CTL, CY_GET_XTND_REG8((void *)CYREG_UDB_UDBIF_BANK_
 462              		.loc 1 560 0
 463 01d2 314B     		ldr	r3, .L16+104
 464 01d4 1978     		ldrb	r1, [r3]
 465 01d6 0222     		mov	r2, #2
 466 01d8 0A43     		orr	r2, r1
 467 01da 1A70     		strb	r2, [r3]
 561:.\Generated_Source\PSoC4/cyfitter_cfg.c **** 
 562:.\Generated_Source\PSoC4/cyfitter_cfg.c **** 		/* Enable UDB array */
 563:.\Generated_Source\PSoC4/cyfitter_cfg.c **** 		CY_SET_XTND_REG8((void *)CYREG_UDB_UDBIF_WAIT_CFG, (uint8)((CY_GET_XTND_REG8((void *)CYREG_UDB_UD
 468              		.loc 1 563 0
 469 01dc 2F4C     		ldr	r4, .L16+108
 470 01de 2278     		ldrb	r2, [r4]
 471 01e0 3C21     		mov	r1, #60
 472 01e2 8A43     		bic	r2, r1
 473 01e4 2839     		sub	r1, r1, #40
 474 01e6 0A43     		orr	r2, r1
 475 01e8 2270     		strb	r2, [r4]
 564:.\Generated_Source\PSoC4/cyfitter_cfg.c **** 		CY_SET_XTND_REG8((void *)CYREG_UDB_UDBIF_BANK_CTL, (uint8)(CY_GET_XTND_REG8((void *)CYREG_UDB_UDB
 476              		.loc 1 564 0
 477 01ea 1978     		ldrb	r1, [r3]
 478 01ec 1622     		mov	r2, #22
 479 01ee 0A43     		orr	r2, r1
 480 01f0 1A70     		strb	r2, [r3]
 481              	.LBE3:
 565:.\Generated_Source\PSoC4/cyfitter_cfg.c **** 	}
 566:.\Generated_Source\PSoC4/cyfitter_cfg.c **** 
ARM GAS  C:\Users\Alan\AppData\Local\Temp\ccp7if5S.s 			page 20


 567:.\Generated_Source\PSoC4/cyfitter_cfg.c **** 	/* Perform second pass device configuration. These items must be configured in specific order afte
 568:.\Generated_Source\PSoC4/cyfitter_cfg.c **** 	/* IOPINS0_0 Starting address: CYDEV_GPIO_PRT0_BASE */
 569:.\Generated_Source\PSoC4/cyfitter_cfg.c **** 	CY_SET_XTND_REG32((void CYFAR *)(CYREG_GPIO_PRT0_PC), 0x00D80000u);
 482              		.loc 1 569 0
 483 01f2 D822     		mov	r2, #216
 484 01f4 1204     		lsl	r2, r2, #16
 485 01f6 2A4B     		ldr	r3, .L16+112
 486 01f8 1A60     		str	r2, [r3]
 570:.\Generated_Source\PSoC4/cyfitter_cfg.c **** 
 571:.\Generated_Source\PSoC4/cyfitter_cfg.c **** 	/* IOPINS0_1 Starting address: CYDEV_GPIO_PRT1_BASE */
 572:.\Generated_Source\PSoC4/cyfitter_cfg.c **** 	CY_SET_XTND_REG32((void CYFAR *)(CYDEV_GPIO_PRT1_BASE), 0x00000010u);
 487              		.loc 1 572 0
 488 01fa 1022     		mov	r2, #16
 489 01fc 294B     		ldr	r3, .L16+116
 490 01fe 1A60     		str	r2, [r3]
 573:.\Generated_Source\PSoC4/cyfitter_cfg.c **** 	CY_SET_XTND_REG32((void CYFAR *)(CYREG_GPIO_PRT1_PC), 0x00276D80u);
 491              		.loc 1 573 0
 492 0200 294A     		ldr	r2, .L16+120
 493 0202 2A4B     		ldr	r3, .L16+124
 494 0204 1A60     		str	r2, [r3]
 574:.\Generated_Source\PSoC4/cyfitter_cfg.c **** 
 575:.\Generated_Source\PSoC4/cyfitter_cfg.c **** 	/* IOPINS0_2 Starting address: CYDEV_GPIO_PRT2_BASE */
 576:.\Generated_Source\PSoC4/cyfitter_cfg.c **** 	CY_SET_XTND_REG32((void CYFAR *)(CYDEV_GPIO_PRT2_BASE), 0x000000C0u);
 495              		.loc 1 576 0
 496 0206 C022     		mov	r2, #192
 497 0208 294B     		ldr	r3, .L16+128
 498 020a 1A60     		str	r2, [r3]
 577:.\Generated_Source\PSoC4/cyfitter_cfg.c **** 	CY_SET_XTND_REG32((void CYFAR *)(CYREG_GPIO_PRT2_PC), 0x00580000u);
 499              		.loc 1 577 0
 500 020c B022     		mov	r2, #176
 501 020e D203     		lsl	r2, r2, #15
 502 0210 284B     		ldr	r3, .L16+132
 503 0212 1A60     		str	r2, [r3]
 578:.\Generated_Source\PSoC4/cyfitter_cfg.c **** 	CY_SET_XTND_REG32((void CYFAR *)(CYREG_GPIO_PRT2_INTR_CFG), 0x00008000u);
 504              		.loc 1 578 0
 505 0214 8022     		mov	r2, #128
 506 0216 1202     		lsl	r2, r2, #8
 507 0218 274B     		ldr	r3, .L16+136
 508 021a 1A60     		str	r2, [r3]
 579:.\Generated_Source\PSoC4/cyfitter_cfg.c **** 
 580:.\Generated_Source\PSoC4/cyfitter_cfg.c **** 	/* IOPINS0_3 Starting address: CYDEV_GPIO_PRT3_BASE */
 581:.\Generated_Source\PSoC4/cyfitter_cfg.c **** 	CY_SET_XTND_REG32((void CYFAR *)(CYDEV_GPIO_PRT3_BASE), 0x00000001u);
 509              		.loc 1 581 0
 510 021c 274B     		ldr	r3, .L16+140
 511 021e 1860     		str	r0, [r3]
 582:.\Generated_Source\PSoC4/cyfitter_cfg.c **** 	CY_SET_XTND_REG32((void CYFAR *)(CYREG_GPIO_PRT3_PC), 0x00036276u);
 512              		.loc 1 582 0
 513 0220 274A     		ldr	r2, .L16+144
 514 0222 284B     		ldr	r3, .L16+148
 515 0224 1A60     		str	r2, [r3]
 583:.\Generated_Source\PSoC4/cyfitter_cfg.c **** 
 584:.\Generated_Source\PSoC4/cyfitter_cfg.c **** 
 585:.\Generated_Source\PSoC4/cyfitter_cfg.c **** 	/* Setup clocks based on selections from Clock DWR */
 586:.\Generated_Source\PSoC4/cyfitter_cfg.c **** 	ClockSetup();
 516              		.loc 1 586 0
 517 0226 FFF7EBFE 		bl	ClockSetup
 518              	.LVL30:
ARM GAS  C:\Users\Alan\AppData\Local\Temp\ccp7if5S.s 			page 21


 587:.\Generated_Source\PSoC4/cyfitter_cfg.c **** 
 588:.\Generated_Source\PSoC4/cyfitter_cfg.c **** 	/* Perform basic analog initialization to defaults */
 589:.\Generated_Source\PSoC4/cyfitter_cfg.c **** 	AnalogSetDefault();
 519              		.loc 1 589 0
 520 022a FFF7FEFF 		bl	AnalogSetDefault
 521              	.LVL31:
 590:.\Generated_Source\PSoC4/cyfitter_cfg.c **** 
 591:.\Generated_Source\PSoC4/cyfitter_cfg.c **** }
 522              		.loc 1 591 0
 523              		@ sp needed
 524 022e 38BD     		pop	{r3, r4, r5, pc}
 525              	.L17:
 526              		.align	2
 527              	.L16:
 528 0230 6CF02E40 		.word	1076818028
 529 0234 1C700F40 		.word	1074753564
 530 0238 00000000 		.word	.LANCHOR0
 531 023c 00600F40 		.word	1074749440
 532 0240 02600F40 		.word	1074749442
 533 0244 00000240 		.word	1073872896
 534 0248 00010240 		.word	1073873152
 535 024c 00020240 		.word	1073873408
 536 0250 00030240 		.word	1073873664
 537 0254 00500F40 		.word	1074745344
 538 0258 04009900 		.word	10027012
 539 025c 10500F40 		.word	1074745360
 540 0260 14500F40 		.word	1074745364
 541 0264 18500F40 		.word	1074745368
 542 0268 20500F40 		.word	1074745376
 543 026c 24500F40 		.word	1074745380
 544 0270 28500F40 		.word	1074745384
 545 0274 30500F40 		.word	1074745392
 546 0278 34500F40 		.word	1074745396
 547 027c 38500F40 		.word	1074745400
 548 0280 F0000E00 		.word	917744
 549 0284 20012040 		.word	1075839264
 550 0288 70000A00 		.word	655472
 551 028c A0012040 		.word	1075839392
 552 0290 20001040 		.word	1074790432
 553 0294 00800F40 		.word	1074757632
 554 0298 00700F40 		.word	1074753536
 555 029c 01700F40 		.word	1074753537
 556 02a0 08000440 		.word	1074003976
 557 02a4 00010440 		.word	1074004224
 558 02a8 806D2700 		.word	2583936
 559 02ac 08010440 		.word	1074004232
 560 02b0 00020440 		.word	1074004480
 561 02b4 08020440 		.word	1074004488
 562 02b8 0C020440 		.word	1074004492
 563 02bc 00030440 		.word	1074004736
 564 02c0 76620300 		.word	221814
 565 02c4 08030440 		.word	1074004744
 566              		.cfi_endproc
 567              	.LFE8:
 568              		.size	cyfitter_cfg, .-cyfitter_cfg
 569              		.section	.rodata
 570              		.align	2
ARM GAS  C:\Users\Alan\AppData\Local\Temp\ccp7if5S.s 			page 22


 571              		.set	.LANCHOR0,. + 0
 572              		.type	cfg_memset_list.4765, %object
 573              		.size	cfg_memset_list.4765, 12
 574              	cfg_memset_list.4765:
 575 0000 00300F40 		.word	1074737152
 576 0004 0004     		.short	1024
 577 0006 00400F40 		.4byte	1074741248
 578 000a 0004     		.short	1024
 579              		.type	cy_cfg_addr_table.4759, %object
 580              		.size	cy_cfg_addr_table.4759, 36
 581              	cy_cfg_addr_table.4759:
 582 000c 02000F40 		.word	1074724866
 583 0010 4F300F40 		.word	1074737231
 584 0014 2D310F40 		.word	1074737453
 585 0018 04330F40 		.word	1074737924
 586 001c 02400F40 		.word	1074741250
 587 0020 0F410F40 		.word	1074741519
 588 0024 0C420F40 		.word	1074741772
 589 0028 0E430F40 		.word	1074742030
 590 002c 02600F40 		.word	1074749442
 591              		.type	cy_cfg_data_table.4760, %object
 592              		.size	cy_cfg_data_table.4760, 350
 593              	cy_cfg_data_table.4760:
 594 0030 80       		.byte	-128
 595 0031 0D       		.byte	13
 596 0032 81       		.byte	-127
 597 0033 0D       		.byte	13
 598 0034 07       		.byte	7
 599 0035 09       		.byte	9
 600 0036 08       		.byte	8
 601 0037 01       		.byte	1
 602 0038 0D       		.byte	13
 603 0039 02       		.byte	2
 604 003a 1B       		.byte	27
 605 003b 01       		.byte	1
 606 003c 23       		.byte	35
 607 003d 08       		.byte	8
 608 003e 26       		.byte	38
 609 003f 03       		.byte	3
 610 0040 2F       		.byte	47
 611 0041 04       		.byte	4
 612 0042 31       		.byte	49
 613 0043 01       		.byte	1
 614 0044 32       		.byte	50
 615 0045 02       		.byte	2
 616 0046 33       		.byte	51
 617 0047 08       		.byte	8
 618 0048 35       		.byte	53
 619 0049 04       		.byte	4
 620 004a 36       		.byte	54
 621 004b 01       		.byte	1
 622 004c 37       		.byte	55
 623 004d 02       		.byte	2
 624 004e 3F       		.byte	63
 625 004f 44       		.byte	68
 626 0050 40       		.byte	64
 627 0051 20       		.byte	32
ARM GAS  C:\Users\Alan\AppData\Local\Temp\ccp7if5S.s 			page 23


 628 0052 41       		.byte	65
 629 0053 05       		.byte	5
 630 0054 45       		.byte	69
 631 0055 D1       		.byte	-47
 632 0056 47       		.byte	71
 633 0057 20       		.byte	32
 634 0058 48       		.byte	72
 635 0059 23       		.byte	35
 636 005a 49       		.byte	73
 637 005b FF       		.byte	-1
 638 005c 4A       		.byte	74
 639 005d FF       		.byte	-1
 640 005e 4B       		.byte	75
 641 005f FF       		.byte	-1
 642 0060 4D       		.byte	77
 643 0061 A0       		.byte	-96
 644 0062 4F       		.byte	79
 645 0063 04       		.byte	4
 646 0064 50       		.byte	80
 647 0065 18       		.byte	24
 648 0066 52       		.byte	82
 649 0067 80       		.byte	-128
 650 0068 54       		.byte	84
 651 0069 05       		.byte	5
 652 006a 58       		.byte	88
 653 006b 04       		.byte	4
 654 006c 59       		.byte	89
 655 006d 04       		.byte	4
 656 006e 5A       		.byte	90
 657 006f 04       		.byte	4
 658 0070 5B       		.byte	91
 659 0071 04       		.byte	4
 660 0072 5F       		.byte	95
 661 0073 01       		.byte	1
 662 0074 60       		.byte	96
 663 0075 40       		.byte	64
 664 0076 62       		.byte	98
 665 0077 C0       		.byte	-64
 666 0078 64       		.byte	100
 667 0079 40       		.byte	64
 668 007a 65       		.byte	101
 669 007b 40       		.byte	64
 670 007c 66       		.byte	102
 671 007d C0       		.byte	-64
 672 007e 68       		.byte	104
 673 007f C0       		.byte	-64
 674 0080 6A       		.byte	106
 675 0081 C0       		.byte	-64
 676 0082 6C       		.byte	108
 677 0083 C0       		.byte	-64
 678 0084 6E       		.byte	110
 679 0085 C0       		.byte	-64
 680 0086 83       		.byte	-125
 681 0087 01       		.byte	1
 682 0088 94       		.byte	-108
 683 0089 01       		.byte	1
 684 008a 9E       		.byte	-98
ARM GAS  C:\Users\Alan\AppData\Local\Temp\ccp7if5S.s 			page 24


 685 008b 04       		.byte	4
 686 008c A6       		.byte	-90
 687 008d 03       		.byte	3
 688 008e AE       		.byte	-82
 689 008f 04       		.byte	4
 690 0090 B0       		.byte	-80
 691 0091 01       		.byte	1
 692 0092 B1       		.byte	-79
 693 0093 01       		.byte	1
 694 0094 B2       		.byte	-78
 695 0095 02       		.byte	2
 696 0096 B4       		.byte	-76
 697 0097 04       		.byte	4
 698 0098 BE       		.byte	-66
 699 0099 10       		.byte	16
 700 009a C0       		.byte	-64
 701 009b 10       		.byte	16
 702 009c C1       		.byte	-63
 703 009d 05       		.byte	5
 704 009e C5       		.byte	-59
 705 009f D0       		.byte	-48
 706 00a0 C6       		.byte	-58
 707 00a1 12       		.byte	18
 708 00a2 C8       		.byte	-56
 709 00a3 0E       		.byte	14
 710 00a4 C9       		.byte	-55
 711 00a5 FF       		.byte	-1
 712 00a6 CA       		.byte	-54
 713 00a7 FF       		.byte	-1
 714 00a8 CB       		.byte	-53
 715 00a9 FF       		.byte	-1
 716 00aa CD       		.byte	-51
 717 00ab A0       		.byte	-96
 718 00ac CF       		.byte	-49
 719 00ad 04       		.byte	4
 720 00ae D0       		.byte	-48
 721 00af 18       		.byte	24
 722 00b0 D2       		.byte	-46
 723 00b1 80       		.byte	-128
 724 00b2 D4       		.byte	-44
 725 00b3 05       		.byte	5
 726 00b4 D6       		.byte	-42
 727 00b5 04       		.byte	4
 728 00b6 D8       		.byte	-40
 729 00b7 04       		.byte	4
 730 00b8 D9       		.byte	-39
 731 00b9 04       		.byte	4
 732 00ba DA       		.byte	-38
 733 00bb 04       		.byte	4
 734 00bc DB       		.byte	-37
 735 00bd 04       		.byte	4
 736 00be DF       		.byte	-33
 737 00bf 01       		.byte	1
 738 00c0 E0       		.byte	-32
 739 00c1 40       		.byte	64
 740 00c2 E2       		.byte	-30
 741 00c3 C0       		.byte	-64
ARM GAS  C:\Users\Alan\AppData\Local\Temp\ccp7if5S.s 			page 25


 742 00c4 E4       		.byte	-28
 743 00c5 40       		.byte	64
 744 00c6 E5       		.byte	-27
 745 00c7 40       		.byte	64
 746 00c8 E6       		.byte	-26
 747 00c9 C0       		.byte	-64
 748 00ca E8       		.byte	-24
 749 00cb C0       		.byte	-64
 750 00cc EA       		.byte	-22
 751 00cd C0       		.byte	-64
 752 00ce EC       		.byte	-20
 753 00cf C0       		.byte	-64
 754 00d0 EE       		.byte	-18
 755 00d1 C0       		.byte	-64
 756 00d2 00       		.byte	0
 757 00d3 10       		.byte	16
 758 00d4 0D       		.byte	13
 759 00d5 80       		.byte	-128
 760 00d6 0E       		.byte	14
 761 00d7 20       		.byte	32
 762 00d8 10       		.byte	16
 763 00d9 20       		.byte	32
 764 00da 16       		.byte	22
 765 00db 20       		.byte	32
 766 00dc 17       		.byte	23
 767 00dd 80       		.byte	-128
 768 00de 18       		.byte	24
 769 00df 10       		.byte	16
 770 00e0 19       		.byte	25
 771 00e1 40       		.byte	64
 772 00e2 1E       		.byte	30
 773 00e3 68       		.byte	104
 774 00e4 20       		.byte	32
 775 00e5 44       		.byte	68
 776 00e6 22       		.byte	34
 777 00e7 04       		.byte	4
 778 00e8 23       		.byte	35
 779 00e9 02       		.byte	2
 780 00ea 27       		.byte	39
 781 00eb 80       		.byte	-128
 782 00ec 2A       		.byte	42
 783 00ed 81       		.byte	-127
 784 00ee 30       		.byte	48
 785 00ef 20       		.byte	32
 786 00f0 38       		.byte	56
 787 00f1 44       		.byte	68
 788 00f2 3C       		.byte	60
 789 00f3 02       		.byte	2
 790 00f4 40       		.byte	64
 791 00f5 04       		.byte	4
 792 00f6 47       		.byte	71
 793 00f7 80       		.byte	-128
 794 00f8 48       		.byte	72
 795 00f9 22       		.byte	34
 796 00fa 49       		.byte	73
 797 00fb 01       		.byte	1
 798 00fc 4F       		.byte	79
ARM GAS  C:\Users\Alan\AppData\Local\Temp\ccp7if5S.s 			page 26


 799 00fd 81       		.byte	-127
 800 00fe 50       		.byte	80
 801 00ff 02       		.byte	2
 802 0100 52       		.byte	82
 803 0101 01       		.byte	1
 804 0102 55       		.byte	85
 805 0103 80       		.byte	-128
 806 0104 56       		.byte	86
 807 0105 20       		.byte	32
 808 0106 57       		.byte	87
 809 0107 40       		.byte	64
 810 0108 59       		.byte	89
 811 0109 41       		.byte	65
 812 010a 5A       		.byte	90
 813 010b 08       		.byte	8
 814 010c 5E       		.byte	94
 815 010d 48       		.byte	72
 816 010e 5F       		.byte	95
 817 010f 01       		.byte	1
 818 0110 67       		.byte	103
 819 0111 40       		.byte	64
 820 0112 72       		.byte	114
 821 0113 80       		.byte	-128
 822 0114 74       		.byte	116
 823 0115 01       		.byte	1
 824 0116 87       		.byte	-121
 825 0117 40       		.byte	64
 826 0118 C0       		.byte	-64
 827 0119 02       		.byte	2
 828 011a C2       		.byte	-62
 829 011b A0       		.byte	-96
 830 011c C4       		.byte	-60
 831 011d A4       		.byte	-92
 832 011e CA       		.byte	-54
 833 011f 09       		.byte	9
 834 0120 CC       		.byte	-52
 835 0121 04       		.byte	4
 836 0122 CE       		.byte	-50
 837 0123 8A       		.byte	-118
 838 0124 D0       		.byte	-48
 839 0125 14       		.byte	20
 840 0126 D2       		.byte	-46
 841 0127 18       		.byte	24
 842 0128 D6       		.byte	-42
 843 0129 DB       		.byte	-37
 844 012a D8       		.byte	-40
 845 012b 80       		.byte	-128
 846 012c AF       		.byte	-81
 847 012d 02       		.byte	2
 848 012e E0       		.byte	-32
 849 012f 80       		.byte	-128
 850 0130 EA       		.byte	-22
 851 0131 08       		.byte	8
 852 0132 EC       		.byte	-20
 853 0133 03       		.byte	3
 854 0134 86       		.byte	-122
 855 0135 40       		.byte	64
ARM GAS  C:\Users\Alan\AppData\Local\Temp\ccp7if5S.s 			page 27


 856 0136 E6       		.byte	-26
 857 0137 40       		.byte	64
 858 0138 0B       		.byte	11
 859 0139 08       		.byte	8
 860 013a 0D       		.byte	13
 861 013b 80       		.byte	-128
 862 013c 63       		.byte	99
 863 013d 10       		.byte	16
 864 013e 6E       		.byte	110
 865 013f 80       		.byte	-128
 866 0140 8B       		.byte	-117
 867 0141 04       		.byte	4
 868 0142 93       		.byte	-109
 869 0143 10       		.byte	16
 870 0144 A2       		.byte	-94
 871 0145 40       		.byte	64
 872 0146 A5       		.byte	-91
 873 0147 80       		.byte	-128
 874 0148 A9       		.byte	-87
 875 0149 80       		.byte	-128
 876 014a AF       		.byte	-81
 877 014b 10       		.byte	16
 878 014c C2       		.byte	-62
 879 014d C0       		.byte	-64
 880 014e D8       		.byte	-40
 881 014f 40       		.byte	64
 882 0150 DA       		.byte	-38
 883 0151 80       		.byte	-128
 884 0152 EA       		.byte	-22
 885 0153 10       		.byte	16
 886 0154 EC       		.byte	-20
 887 0155 80       		.byte	-128
 888 0156 15       		.byte	21
 889 0157 10       		.byte	16
 890 0158 16       		.byte	22
 891 0159 40       		.byte	64
 892 015a 45       		.byte	69
 893 015b 80       		.byte	-128
 894 015c 49       		.byte	73
 895 015d 40       		.byte	64
 896 015e 5C       		.byte	92
 897 015f 02       		.byte	2
 898 0160 6B       		.byte	107
 899 0161 02       		.byte	2
 900 0162 6D       		.byte	109
 901 0163 40       		.byte	64
 902 0164 C4       		.byte	-60
 903 0165 05       		.byte	5
 904 0166 D0       		.byte	-48
 905 0167 04       		.byte	4
 906 0168 D2       		.byte	-46
 907 0169 08       		.byte	8
 908 016a D6       		.byte	-42
 909 016b 01       		.byte	1
 910 016c DA       		.byte	-38
 911 016d 03       		.byte	3
 912 016e 01       		.byte	1
ARM GAS  C:\Users\Alan\AppData\Local\Temp\ccp7if5S.s 			page 28


 913 016f 40       		.byte	64
 914 0170 07       		.byte	7
 915 0171 02       		.byte	2
 916 0172 5D       		.byte	93
 917 0173 10       		.byte	16
 918 0174 89       		.byte	-119
 919 0175 40       		.byte	64
 920 0176 91       		.byte	-111
 921 0177 10       		.byte	16
 922 0178 95       		.byte	-107
 923 0179 40       		.byte	64
 924 017a 9D       		.byte	-99
 925 017b 40       		.byte	64
 926 017c 9F       		.byte	-97
 927 017d 02       		.byte	2
 928 017e A9       		.byte	-87
 929 017f 80       		.byte	-128
 930 0180 AC       		.byte	-84
 931 0181 02       		.byte	2
 932 0182 AE       		.byte	-82
 933 0183 40       		.byte	64
 934 0184 C0       		.byte	-64
 935 0185 03       		.byte	3
 936 0186 D6       		.byte	-42
 937 0187 04       		.byte	4
 938 0188 E0       		.byte	-32
 939 0189 01       		.byte	1
 940 018a 10       		.byte	16
 941 018b 01       		.byte	1
 942 018c 11       		.byte	17
 943 018d 01       		.byte	1
 944 018e 0000     		.text
 945              	.Letext0:
 946              		.file 2 "c:\\program files (x86)\\cypress\\psoc creator\\3.3\\psoc creator\\import\\gnu\\arm\\4.9.
 947              		.file 3 ".\\Generated_Source\\PSoC4\\cytypes.h"
 948              		.file 4 ".\\Generated_Source\\PSoC4\\CyLib.h"
 949              		.file 5 ".\\Generated_Source\\PSoC4\\CyLFClk.h"