ARM GAS  C:\Users\Alan\AppData\Local\Temp\ccZJYKUe.s 			page 1


   1              		.cpu cortex-m0
   2              		.fpu softvfp
   3              		.eabi_attribute 20, 1
   4              		.eabi_attribute 21, 1
   5              		.eabi_attribute 23, 3
   6              		.eabi_attribute 24, 1
   7              		.eabi_attribute 25, 1
   8              		.eabi_attribute 26, 1
   9              		.eabi_attribute 30, 1
  10              		.eabi_attribute 34, 0
  11              		.eabi_attribute 18, 4
  12              		.code	16
  13              		.file	"main.c"
  14              		.text
  15              	.Ltext0:
  16              		.cfi_sections	.debug_frame
  17              		.section	.text.swisr,"ax",%progbits
  18              		.align	2
  19              		.global	swisr
  20              		.code	16
  21              		.thumb_func
  22              		.type	swisr, %function
  23              	swisr:
  24              	.LFB35:
  25              		.file 1 ".\\main.c"
   1:.\main.c      **** #include <project.h>
   2:.\main.c      **** #include <stdlib.h>
   3:.\main.c      **** 
   4:.\main.c      **** // 16 bit quadrature decoder... the middle is 0x8000
   5:.\main.c      **** #define QD_RESET (0x8000)
   6:.\main.c      **** // Scale the QD to RPMs
   7:.\main.c      **** #define QD_SCALE (5)
   8:.\main.c      **** // The max compare value for the motor PWM (i.e. full speed)
   9:.\main.c      **** #define MAXSPEED (100)
  10:.\main.c      **** 
  11:.\main.c      **** int processTachFlag = 0;
  12:.\main.c      **** int tachLeftNotify = 0;
  13:.\main.c      **** int tachRightNotify = 0;
  14:.\main.c      **** int tachLeft = 0;
  15:.\main.c      **** int tachRight = 0;
  16:.\main.c      **** int8 speedLeft = 0;
  17:.\main.c      **** int8 speedRight = 0;
  18:.\main.c      **** 
  19:.\main.c      **** int motorFlag = 0; // this flag is used to turn the motors on/off
  20:.\main.c      **** 
  21:.\main.c      **** 
  22:.\main.c      **** // This ISR handles button presses on the user button on the board. This will toggle the motors on/
  23:.\main.c      **** CY_ISR(swisr)
  24:.\main.c      **** {
  26              		.loc 1 24 0
  27              		.cfi_startproc
  28 0000 08B5     		push	{r3, lr}
  29              		.cfi_def_cfa_offset 8
  30              		.cfi_offset 3, -8
  31              		.cfi_offset 14, -4
  25:.\main.c      ****     motorFlag = 1;
  32              		.loc 1 25 0
ARM GAS  C:\Users\Alan\AppData\Local\Temp\ccZJYKUe.s 			page 2


  33 0002 0122     		mov	r2, #1
  34 0004 024B     		ldr	r3, .L2
  35 0006 1A60     		str	r2, [r3]
  26:.\main.c      ****     Control_ClearInterrupt();
  36              		.loc 1 26 0
  37 0008 FFF7FEFF 		bl	Control_ClearInterrupt
  38              	.LVL0:
  27:.\main.c      ****     
  28:.\main.c      **** }
  39              		.loc 1 28 0
  40              		@ sp needed
  41 000c 08BD     		pop	{r3, pc}
  42              	.L3:
  43 000e C046     		.align	2
  44              	.L2:
  45 0010 00000000 		.word	.LANCHOR0
  46              		.cfi_endproc
  47              	.LFE35:
  48              		.size	swisr, .-swisr
  49              		.section	.text.tachISR,"ax",%progbits
  50              		.align	2
  51              		.global	tachISR
  52              		.code	16
  53              		.thumb_func
  54              		.type	tachISR, %function
  55              	tachISR:
  56              	.LFB38:
  29:.\main.c      **** 
  30:.\main.c      **** typedef enum motor {
  31:.\main.c      ****     LEFT,
  32:.\main.c      ****     RIGHT
  33:.\main.c      **** } motor;
  34:.\main.c      **** 
  35:.\main.c      **** 
  36:.\main.c      **** // This function updates the GATT database with the current speed
  37:.\main.c      **** void updateSpeed()
  38:.\main.c      **** {
  39:.\main.c      ****     if(CyBle_GetState() != CYBLE_STATE_CONNECTED)
  40:.\main.c      ****         return;
  41:.\main.c      **** 
  42:.\main.c      ****     CYBLE_GATTS_HANDLE_VALUE_NTF_T tempHandle;
  43:.\main.c      ****     
  44:.\main.c      ****     tempHandle.attrHandle = CYBLE_MOTORSERVICE_SPEEDLEFT_CHAR_HANDLE;
  45:.\main.c      ****     tempHandle.value.val = (uint8 *)&speedLeft;
  46:.\main.c      ****     tempHandle.value.len = 1;
  47:.\main.c      ****     CyBle_GattsWriteAttributeValue(&tempHandle, 0, &cyBle_connHandle, 0);
  48:.\main.c      ****     
  49:.\main.c      ****     tempHandle.attrHandle = CYBLE_MOTORSERVICE_SPEEDRIGHT_CHAR_HANDLE;
  50:.\main.c      ****     tempHandle.value.val = (uint8 *)&speedRight;
  51:.\main.c      ****     tempHandle.value.len = 1;
  52:.\main.c      ****     CyBle_GattsWriteAttributeValue(&tempHandle, 0, &cyBle_connHandle, 0);      
  53:.\main.c      **** }
  54:.\main.c      **** 
  55:.\main.c      **** // Configure the speed into the correct PWM, then call the GATT database speed update function
  56:.\main.c      **** void setSpeed(motor m, int speed)
  57:.\main.c      **** {
  58:.\main.c      ****     int s = abs(speed);
ARM GAS  C:\Users\Alan\AppData\Local\Temp\ccZJYKUe.s 			page 3


  59:.\main.c      ****     int dir = (s == speed)?0:1;
  60:.\main.c      ****     
  61:.\main.c      ****     if(s > MAXSPEED)
  62:.\main.c      ****         return;
  63:.\main.c      ****     
  64:.\main.c      ****     switch (m)
  65:.\main.c      ****     {
  66:.\main.c      ****         case LEFT:
  67:.\main.c      ****             DIRLEFT_Write(dir);
  68:.\main.c      ****             PWMLEFT_WriteCompare(s);
  69:.\main.c      ****             speedLeft = speed;         
  70:.\main.c      ****         break;
  71:.\main.c      ****         case RIGHT:
  72:.\main.c      ****             DIRRIGHT_Write(dir);
  73:.\main.c      ****             PWMRIGHT_WriteCompare(s);
  74:.\main.c      ****             speedRight = speed;
  75:.\main.c      ****         break;
  76:.\main.c      ****     }
  77:.\main.c      ****     updateSpeed();      // Update the speeed in the GATT database
  78:.\main.c      **** }
  79:.\main.c      **** 
  80:.\main.c      **** // This ISR is connected to the periodic interrupt source of 187ms
  81:.\main.c      **** CY_ISR(tachISR)
  82:.\main.c      **** {
  57              		.loc 1 82 0
  58              		.cfi_startproc
  59 0000 08B5     		push	{r3, lr}
  60              		.cfi_def_cfa_offset 8
  61              		.cfi_offset 3, -8
  62              		.cfi_offset 14, -4
  83:.\main.c      ****     processTachFlag = 1;
  63              		.loc 1 83 0
  64 0002 0122     		mov	r2, #1
  65 0004 024B     		ldr	r3, .L5
  66 0006 5A60     		str	r2, [r3, #4]
  84:.\main.c      ****     tachPwm_ReadStatusRegister(); // clear the interrupt
  67              		.loc 1 84 0
  68 0008 FFF7FEFF 		bl	tachPwm_ReadStatusRegister
  69              	.LVL1:
  85:.\main.c      ****     
  86:.\main.c      **** }
  70              		.loc 1 86 0
  71              		@ sp needed
  72 000c 08BD     		pop	{r3, pc}
  73              	.L6:
  74 000e C046     		.align	2
  75              	.L5:
  76 0010 00000000 		.word	.LANCHOR0
  77              		.cfi_endproc
  78              	.LFE38:
  79              		.size	tachISR, .-tachISR
  80              		.section	.text.updateSpeed,"ax",%progbits
  81              		.align	2
  82              		.global	updateSpeed
  83              		.code	16
  84              		.thumb_func
  85              		.type	updateSpeed, %function
ARM GAS  C:\Users\Alan\AppData\Local\Temp\ccZJYKUe.s 			page 4


  86              	updateSpeed:
  87              	.LFB36:
  38:.\main.c      ****     if(CyBle_GetState() != CYBLE_STATE_CONNECTED)
  88              		.loc 1 38 0
  89              		.cfi_startproc
  90 0000 F0B5     		push	{r4, r5, r6, r7, lr}
  91              		.cfi_def_cfa_offset 20
  92              		.cfi_offset 4, -20
  93              		.cfi_offset 5, -16
  94              		.cfi_offset 6, -12
  95              		.cfi_offset 7, -8
  96              		.cfi_offset 14, -4
  97 0002 85B0     		sub	sp, sp, #20
  98              		.cfi_def_cfa_offset 40
  39:.\main.c      ****         return;
  99              		.loc 1 39 0
 100 0004 104B     		ldr	r3, .L10
 101 0006 1B78     		ldrb	r3, [r3]
 102 0008 022B     		cmp	r3, #2
 103 000a 1AD1     		bne	.L7
  44:.\main.c      ****     tempHandle.value.val = (uint8 *)&speedLeft;
 104              		.loc 1 44 0
 105 000c 01AC     		add	r4, sp, #4
 106 000e 0C33     		add	r3, r3, #12
 107 0010 2381     		strh	r3, [r4, #8]
  45:.\main.c      ****     tempHandle.value.len = 1;
 108              		.loc 1 45 0
 109 0012 0E4D     		ldr	r5, .L10+4
 110 0014 2B1C     		mov	r3, r5
 111 0016 0833     		add	r3, r3, #8
 112 0018 0193     		str	r3, [sp, #4]
  46:.\main.c      ****     CyBle_GattsWriteAttributeValue(&tempHandle, 0, &cyBle_connHandle, 0);
 113              		.loc 1 46 0
 114 001a 0127     		mov	r7, #1
 115 001c A780     		strh	r7, [r4, #4]
  47:.\main.c      ****     
 116              		.loc 1 47 0
 117 001e 0C4E     		ldr	r6, .L10+8
 118 0020 201C     		mov	r0, r4
 119 0022 0021     		mov	r1, #0
 120 0024 321C     		mov	r2, r6
 121 0026 0023     		mov	r3, #0
 122 0028 FFF7FEFF 		bl	CyBle_GattsWriteAttributeValue
 123              	.LVL2:
  49:.\main.c      ****     tempHandle.value.val = (uint8 *)&speedRight;
 124              		.loc 1 49 0
 125 002c 1123     		mov	r3, #17
 126 002e 2381     		strh	r3, [r4, #8]
  50:.\main.c      ****     tempHandle.value.len = 1;
 127              		.loc 1 50 0
 128 0030 0935     		add	r5, r5, #9
 129 0032 0195     		str	r5, [sp, #4]
  51:.\main.c      ****     CyBle_GattsWriteAttributeValue(&tempHandle, 0, &cyBle_connHandle, 0);      
 130              		.loc 1 51 0
 131 0034 A780     		strh	r7, [r4, #4]
  52:.\main.c      **** }
 132              		.loc 1 52 0
ARM GAS  C:\Users\Alan\AppData\Local\Temp\ccZJYKUe.s 			page 5


 133 0036 201C     		mov	r0, r4
 134 0038 0021     		mov	r1, #0
 135 003a 321C     		mov	r2, r6
 136 003c 0023     		mov	r3, #0
 137 003e FFF7FEFF 		bl	CyBle_GattsWriteAttributeValue
 138              	.LVL3:
 139              	.L7:
  53:.\main.c      **** 
 140              		.loc 1 53 0
 141 0042 05B0     		add	sp, sp, #20
 142              		@ sp needed
 143 0044 F0BD     		pop	{r4, r5, r6, r7, pc}
 144              	.L11:
 145 0046 C046     		.align	2
 146              	.L10:
 147 0048 00000000 		.word	cyBle_state
 148 004c 00000000 		.word	.LANCHOR0
 149 0050 00000000 		.word	cyBle_connHandle
 150              		.cfi_endproc
 151              	.LFE36:
 152              		.size	updateSpeed, .-updateSpeed
 153              		.section	.text.setSpeed,"ax",%progbits
 154              		.align	2
 155              		.global	setSpeed
 156              		.code	16
 157              		.thumb_func
 158              		.type	setSpeed, %function
 159              	setSpeed:
 160              	.LFB37:
  57:.\main.c      ****     int s = abs(speed);
 161              		.loc 1 57 0
 162              		.cfi_startproc
 163              	.LVL4:
 164 0000 38B5     		push	{r3, r4, r5, lr}
 165              		.cfi_def_cfa_offset 16
 166              		.cfi_offset 3, -16
 167              		.cfi_offset 4, -12
 168              		.cfi_offset 5, -8
 169              		.cfi_offset 14, -4
 170 0002 0C1C     		mov	r4, r1
  58:.\main.c      ****     int dir = (s == speed)?0:1;
 171              		.loc 1 58 0
 172 0004 CB17     		asr	r3, r1, #31
 173 0006 CD18     		add	r5, r1, r3
 174 0008 5D40     		eor	r5, r3
 175              	.LVL5:
  59:.\main.c      ****     
 176              		.loc 1 59 0
 177 000a 6B1A     		sub	r3, r5, r1
 178 000c 5A1E     		sub	r2, r3, #1
 179 000e 9341     		sbc	r3, r3, r2
 180 0010 DBB2     		uxtb	r3, r3
 181              	.LVL6:
  61:.\main.c      ****         return;
 182              		.loc 1 61 0
 183 0012 642D     		cmp	r5, #100
 184 0014 17DC     		bgt	.L12
ARM GAS  C:\Users\Alan\AppData\Local\Temp\ccZJYKUe.s 			page 6


  64:.\main.c      ****     {
 185              		.loc 1 64 0
 186 0016 0028     		cmp	r0, #0
 187 0018 02D0     		beq	.L15
 188 001a 0128     		cmp	r0, #1
 189 001c 09D0     		beq	.L16
 190 001e 10E0     		b	.L14
 191              	.L15:
  67:.\main.c      ****             PWMLEFT_WriteCompare(s);
 192              		.loc 1 67 0
 193 0020 181C     		mov	r0, r3
 194              	.LVL7:
 195 0022 FFF7FEFF 		bl	DIRLEFT_Write
 196              	.LVL8:
  68:.\main.c      ****             speedLeft = speed;         
 197              		.loc 1 68 0
 198 0026 281C     		mov	r0, r5
 199 0028 FFF7FEFF 		bl	PWMLEFT_WriteCompare
 200              	.LVL9:
  69:.\main.c      ****         break;
 201              		.loc 1 69 0
 202 002c 064B     		ldr	r3, .L17
 203 002e 1C72     		strb	r4, [r3, #8]
  70:.\main.c      ****         case RIGHT:
 204              		.loc 1 70 0
 205 0030 07E0     		b	.L14
 206              	.LVL10:
 207              	.L16:
  72:.\main.c      ****             PWMRIGHT_WriteCompare(s);
 208              		.loc 1 72 0
 209 0032 181C     		mov	r0, r3
 210              	.LVL11:
 211 0034 FFF7FEFF 		bl	DIRRIGHT_Write
 212              	.LVL12:
  73:.\main.c      ****             speedRight = speed;
 213              		.loc 1 73 0
 214 0038 281C     		mov	r0, r5
 215 003a FFF7FEFF 		bl	PWMRIGHT_WriteCompare
 216              	.LVL13:
  74:.\main.c      ****         break;
 217              		.loc 1 74 0
 218 003e 024B     		ldr	r3, .L17
 219 0040 5C72     		strb	r4, [r3, #9]
 220              	.L14:
  77:.\main.c      **** }
 221              		.loc 1 77 0
 222 0042 FFF7FEFF 		bl	updateSpeed
 223              	.LVL14:
 224              	.L12:
  78:.\main.c      **** 
 225              		.loc 1 78 0
 226              		@ sp needed
 227              	.LVL15:
 228              	.LVL16:
 229 0046 38BD     		pop	{r3, r4, r5, pc}
 230              	.L18:
 231              		.align	2
ARM GAS  C:\Users\Alan\AppData\Local\Temp\ccZJYKUe.s 			page 7


 232              	.L17:
 233 0048 00000000 		.word	.LANCHOR0
 234              		.cfi_endproc
 235              	.LFE37:
 236              		.size	setSpeed, .-setSpeed
 237              		.section	.text.updateRpm,"ax",%progbits
 238              		.align	2
 239              		.global	updateRpm
 240              		.code	16
 241              		.thumb_func
 242              		.type	updateRpm, %function
 243              	updateRpm:
 244              	.LFB39:
  87:.\main.c      **** 
  88:.\main.c      **** 
  89:.\main.c      **** // This function updates the GATT database with the values of the tachometer
  90:.\main.c      **** void updateRpm()
  91:.\main.c      **** {
 245              		.loc 1 91 0
 246              		.cfi_startproc
 247 0000 10B5     		push	{r4, lr}
 248              		.cfi_def_cfa_offset 8
 249              		.cfi_offset 4, -8
 250              		.cfi_offset 14, -4
 251 0002 84B0     		sub	sp, sp, #16
 252              		.cfi_def_cfa_offset 24
  92:.\main.c      ****     if(CyBle_GetState() != CYBLE_STATE_CONNECTED)
 253              		.loc 1 92 0
 254 0004 1B4B     		ldr	r3, .L24
 255 0006 1B78     		ldrb	r3, [r3]
 256 0008 022B     		cmp	r3, #2
 257 000a 31D1     		bne	.L19
  93:.\main.c      ****         return;
  94:.\main.c      ****     
  95:.\main.c      ****     CYBLE_GATTS_HANDLE_VALUE_NTF_T tempHandle;
  96:.\main.c      ****     
  97:.\main.c      ****     tempHandle.attrHandle = CYBLE_MOTORSERVICE_TACHLEFT_CHAR_HANDLE;
 258              		.loc 1 97 0
 259 000c 01A8     		add	r0, sp, #4
 260 000e 1233     		add	r3, r3, #18
 261 0010 0381     		strh	r3, [r0, #8]
  98:.\main.c      ****     tempHandle.value.val = (uint8 *)&tachLeft;
 262              		.loc 1 98 0
 263 0012 194C     		ldr	r4, .L24+4
 264 0014 231C     		mov	r3, r4
 265 0016 0C33     		add	r3, r3, #12
 266 0018 0193     		str	r3, [sp, #4]
  99:.\main.c      ****     tempHandle.value.len = 4; // 4 bytes for integer
 267              		.loc 1 99 0
 268 001a 0423     		mov	r3, #4
 269 001c 8380     		strh	r3, [r0, #4]
 100:.\main.c      ****     CyBle_GattsWriteAttributeValue(&tempHandle, 0, &cyBle_connHandle, 0);
 270              		.loc 1 100 0
 271 001e 0021     		mov	r1, #0
 272 0020 164A     		ldr	r2, .L24+8
 273 0022 0023     		mov	r3, #0
 274 0024 FFF7FEFF 		bl	CyBle_GattsWriteAttributeValue
ARM GAS  C:\Users\Alan\AppData\Local\Temp\ccZJYKUe.s 			page 8


 275              	.LVL17:
 101:.\main.c      ****     
 102:.\main.c      ****     if (tachLeftNotify)
 276              		.loc 1 102 0
 277 0028 2369     		ldr	r3, [r4, #16]
 278 002a 002B     		cmp	r3, #0
 279 002c 07D0     		beq	.L21
 103:.\main.c      ****         CyBle_GattsNotification(cyBle_connHandle, &tempHandle);
 280              		.loc 1 103 0
 281 002e 134A     		ldr	r2, .L24+8
 282 0030 1378     		ldrb	r3, [r2]
 283 0032 5078     		ldrb	r0, [r2, #1]
 284 0034 0002     		lsl	r0, r0, #8
 285 0036 1843     		orr	r0, r3
 286 0038 01A9     		add	r1, sp, #4
 287 003a FFF7FEFF 		bl	CyBle_GattsNotification
 288              	.LVL18:
 289              	.L21:
 104:.\main.c      ****         
 105:.\main.c      ****     tempHandle.attrHandle = CYBLE_MOTORSERVICE_TACHRIGHT_CHAR_HANDLE;
 290              		.loc 1 105 0
 291 003e 01A8     		add	r0, sp, #4
 292 0040 1823     		mov	r3, #24
 293 0042 0381     		strh	r3, [r0, #8]
 106:.\main.c      ****     tempHandle.value.val = (uint8 *)&tachRight;
 294              		.loc 1 106 0
 295 0044 0C4C     		ldr	r4, .L24+4
 296 0046 231C     		mov	r3, r4
 297 0048 1433     		add	r3, r3, #20
 298 004a 0193     		str	r3, [sp, #4]
 107:.\main.c      ****     tempHandle.value.len = 4; // 4 bytes for integer
 299              		.loc 1 107 0
 300 004c 0423     		mov	r3, #4
 301 004e 8380     		strh	r3, [r0, #4]
 108:.\main.c      ****     CyBle_GattsWriteAttributeValue(&tempHandle, 0, &cyBle_connHandle, 0);
 302              		.loc 1 108 0
 303 0050 0021     		mov	r1, #0
 304 0052 0A4A     		ldr	r2, .L24+8
 305 0054 0023     		mov	r3, #0
 306 0056 FFF7FEFF 		bl	CyBle_GattsWriteAttributeValue
 307              	.LVL19:
 109:.\main.c      ****     
 110:.\main.c      ****     if (tachRightNotify)
 308              		.loc 1 110 0
 309 005a A369     		ldr	r3, [r4, #24]
 310 005c 002B     		cmp	r3, #0
 311 005e 07D0     		beq	.L19
 111:.\main.c      ****         CyBle_GattsNotification(cyBle_connHandle, &tempHandle); 
 312              		.loc 1 111 0
 313 0060 064A     		ldr	r2, .L24+8
 314 0062 1378     		ldrb	r3, [r2]
 315 0064 5078     		ldrb	r0, [r2, #1]
 316 0066 0002     		lsl	r0, r0, #8
 317 0068 1843     		orr	r0, r3
 318 006a 01A9     		add	r1, sp, #4
 319 006c FFF7FEFF 		bl	CyBle_GattsNotification
 320              	.LVL20:
ARM GAS  C:\Users\Alan\AppData\Local\Temp\ccZJYKUe.s 			page 9


 321              	.L19:
 112:.\main.c      ****         
 113:.\main.c      **** }
 322              		.loc 1 113 0
 323 0070 04B0     		add	sp, sp, #16
 324              		@ sp needed
 325 0072 10BD     		pop	{r4, pc}
 326              	.L25:
 327              		.align	2
 328              	.L24:
 329 0074 00000000 		.word	cyBle_state
 330 0078 00000000 		.word	.LANCHOR0
 331 007c 00000000 		.word	cyBle_connHandle
 332              		.cfi_endproc
 333              	.LFE39:
 334              		.size	updateRpm, .-updateRpm
 335              		.section	.text.BleCallBack,"ax",%progbits
 336              		.align	2
 337              		.global	BleCallBack
 338              		.code	16
 339              		.thumb_func
 340              		.type	BleCallBack, %function
 341              	BleCallBack:
 342              	.LFB41:
 114:.\main.c      **** 
 115:.\main.c      **** // This function is called a few times/second and calculates the actual RPMs of the motor
 116:.\main.c      **** // by reading the quadrature encoder and calculating the RPMs
 117:.\main.c      **** inline void processTach()
 118:.\main.c      **** {
 119:.\main.c      ****     processTachFlag = 0;
 120:.\main.c      ****     tachLeft =  ( QDLEFT_ReadCounter()  - QD_RESET ) * QD_SCALE;
 121:.\main.c      ****     tachRight = ( QDRIGHT_ReadCounter() - QD_RESET ) * QD_SCALE;
 122:.\main.c      ****     QDLEFT_WriteCounter(QD_RESET);
 123:.\main.c      ****     QDRIGHT_WriteCounter(QD_RESET);
 124:.\main.c      ****     updateRpm(); // Update the GATT database with the new RPM values
 125:.\main.c      **** }
 126:.\main.c      **** 
 127:.\main.c      **** // This function handles the BLE Stack
 128:.\main.c      **** void BleCallBack(uint32 event, void* eventParam)
 129:.\main.c      **** {
 343              		.loc 1 129 0
 344              		.cfi_startproc
 345              	.LVL21:
 346 0000 10B5     		push	{r4, lr}
 347              		.cfi_def_cfa_offset 8
 348              		.cfi_offset 4, -8
 349              		.cfi_offset 14, -4
 350 0002 0C1C     		mov	r4, r1
 130:.\main.c      ****     CYBLE_GATTS_WRITE_REQ_PARAM_T *wrReqParam;
 131:.\main.c      ****     
 132:.\main.c      ****     switch(event)
 351              		.loc 1 132 0
 352 0004 2828     		cmp	r0, #40
 353 0006 08D0     		beq	.L28
 354 0008 02D8     		bhi	.L29
 355 000a 0128     		cmp	r0, #1
 356 000c 05D0     		beq	.L28
ARM GAS  C:\Users\Alan\AppData\Local\Temp\ccZJYKUe.s 			page 10


 357 000e 4CE0     		b	.L26
 358              	.L29:
 359 0010 4128     		cmp	r0, #65
 360 0012 0CD0     		beq	.L30
 361 0014 4C28     		cmp	r0, #76
 362 0016 11D0     		beq	.L31
 363 0018 47E0     		b	.L26
 364              	.L28:
 133:.\main.c      ****     {
 134:.\main.c      ****         case CYBLE_EVT_STACK_ON:
 135:.\main.c      ****         case CYBLE_EVT_GAP_DEVICE_DISCONNECTED:
 136:.\main.c      ****             tachLeftNotify = 0;
 365              		.loc 1 136 0
 366 001a 244B     		ldr	r3, .L36
 367 001c 0022     		mov	r2, #0
 368 001e 1A61     		str	r2, [r3, #16]
 137:.\main.c      ****             tachRightNotify = 0;
 369              		.loc 1 137 0
 370 0020 9A61     		str	r2, [r3, #24]
 138:.\main.c      ****             CyBle_GappStartAdvertisement(CYBLE_ADVERTISING_FAST);
 371              		.loc 1 138 0
 372 0022 0020     		mov	r0, #0
 373              	.LVL22:
 374 0024 FFF7FEFF 		bl	CyBle_GappStartAdvertisement
 375              	.LVL23:
 139:.\main.c      ****             ledpwm_Start();
 376              		.loc 1 139 0
 377 0028 FFF7FEFF 		bl	ledpwm_Start
 378              	.LVL24:
 140:.\main.c      ****         break;
 379              		.loc 1 140 0
 380 002c 3DE0     		b	.L26
 381              	.LVL25:
 382              	.L30:
 141:.\main.c      ****             
 142:.\main.c      ****         case CYBLE_EVT_GATT_CONNECT_IND:
 143:.\main.c      ****             updateRpm();
 383              		.loc 1 143 0
 384 002e FFF7FEFF 		bl	updateRpm
 385              	.LVL26:
 144:.\main.c      ****             updateSpeed();
 386              		.loc 1 144 0
 387 0032 FFF7FEFF 		bl	updateSpeed
 388              	.LVL27:
 145:.\main.c      ****             ledpwm_Stop();
 389              		.loc 1 145 0
 390 0036 FFF7FEFF 		bl	ledpwm_Stop
 391              	.LVL28:
 146:.\main.c      ****         break;
 392              		.loc 1 146 0
 393 003a 36E0     		b	.L26
 394              	.LVL29:
 395              	.L31:
 147:.\main.c      ****             
 148:.\main.c      ****         case CYBLE_EVT_GATTS_WRITE_REQ:
 149:.\main.c      ****             wrReqParam = (CYBLE_GATTS_WRITE_REQ_PARAM_T *) eventParam;
 150:.\main.c      ****             
ARM GAS  C:\Users\Alan\AppData\Local\Temp\ccZJYKUe.s 			page 11


 151:.\main.c      ****             if(wrReqParam->handleValPair.attrHandle == CYBLE_MOTORSERVICE_SPEEDLEFT_CHAR_HANDLE)
 396              		.loc 1 151 0
 397 003c 8B89     		ldrh	r3, [r1, #12]
 398 003e 0E2B     		cmp	r3, #14
 399 0040 05D1     		bne	.L32
 152:.\main.c      ****                 setSpeed(LEFT, (int8)wrReqParam->handleValPair.value.val[0]);
 400              		.loc 1 152 0
 401 0042 4B68     		ldr	r3, [r1, #4]
 402 0044 0021     		mov	r1, #0
 403              	.LVL30:
 404 0046 5956     		ldrsb	r1, [r3, r1]
 405 0048 0020     		mov	r0, #0
 406              	.LVL31:
 407 004a FFF7FEFF 		bl	setSpeed
 408              	.LVL32:
 409              	.L32:
 153:.\main.c      ****                 
 154:.\main.c      **** 
 155:.\main.c      ****             if(wrReqParam->handleValPair.attrHandle == CYBLE_MOTORSERVICE_SPEEDRIGHT_CHAR_HANDLE)
 410              		.loc 1 155 0
 411 004e A389     		ldrh	r3, [r4, #12]
 412 0050 112B     		cmp	r3, #17
 413 0052 05D1     		bne	.L33
 156:.\main.c      ****                 setSpeed(RIGHT, (int8)wrReqParam->handleValPair.value.val[0]);    
 414              		.loc 1 156 0
 415 0054 6368     		ldr	r3, [r4, #4]
 416 0056 0021     		mov	r1, #0
 417 0058 5956     		ldrsb	r1, [r3, r1]
 418 005a 0120     		mov	r0, #1
 419 005c FFF7FEFF 		bl	setSpeed
 420              	.LVL33:
 421              	.L33:
 157:.\main.c      ****                 
 158:.\main.c      ****             if(wrReqParam->handleValPair.attrHandle == CYBLE_MOTORSERVICE_TACHLEFT_TACHLEFTCCCD_DES
 422              		.loc 1 158 0
 423 0060 A389     		ldrh	r3, [r4, #12]
 424 0062 152B     		cmp	r3, #21
 425 0064 0BD1     		bne	.L34
 159:.\main.c      ****             {
 160:.\main.c      ****                 CyBle_GattsWriteAttributeValue(&wrReqParam->handleValPair, 0, &cyBle_connHandle, CY
 426              		.loc 1 160 0
 427 0066 201D     		add	r0, r4, #4
 428 0068 0021     		mov	r1, #0
 429 006a 114A     		ldr	r2, .L36+4
 430 006c 2B33     		add	r3, r3, #43
 431 006e FFF7FEFF 		bl	CyBle_GattsWriteAttributeValue
 432              	.LVL34:
 161:.\main.c      ****                 tachLeftNotify = wrReqParam->handleValPair.value.val[0] & 0x01;
 433              		.loc 1 161 0
 434 0072 6368     		ldr	r3, [r4, #4]
 435 0074 1B78     		ldrb	r3, [r3]
 436 0076 0122     		mov	r2, #1
 437 0078 1340     		and	r3, r2
 438 007a 0C4A     		ldr	r2, .L36
 439 007c 1361     		str	r3, [r2, #16]
 440              	.L34:
 162:.\main.c      ****             }
ARM GAS  C:\Users\Alan\AppData\Local\Temp\ccZJYKUe.s 			page 12


 163:.\main.c      ****             
 164:.\main.c      ****             
 165:.\main.c      ****             if(wrReqParam->handleValPair.attrHandle == CYBLE_MOTORSERVICE_TACHRIGHT_TACHRIGHTCCCD_D
 441              		.loc 1 165 0
 442 007e A389     		ldrh	r3, [r4, #12]
 443 0080 1A2B     		cmp	r3, #26
 444 0082 0BD1     		bne	.L35
 166:.\main.c      ****             {
 167:.\main.c      ****                 CyBle_GattsWriteAttributeValue(&wrReqParam->handleValPair, 0, &cyBle_connHandle, CY
 445              		.loc 1 167 0
 446 0084 201D     		add	r0, r4, #4
 447 0086 0021     		mov	r1, #0
 448 0088 094A     		ldr	r2, .L36+4
 449 008a 2633     		add	r3, r3, #38
 450 008c FFF7FEFF 		bl	CyBle_GattsWriteAttributeValue
 451              	.LVL35:
 168:.\main.c      ****                 tachRightNotify = wrReqParam->handleValPair.value.val[0] & 0x01;
 452              		.loc 1 168 0
 453 0090 6368     		ldr	r3, [r4, #4]
 454 0092 1B78     		ldrb	r3, [r3]
 455 0094 0122     		mov	r2, #1
 456 0096 1340     		and	r3, r2
 457 0098 044A     		ldr	r2, .L36
 458 009a 9361     		str	r3, [r2, #24]
 459              	.L35:
 169:.\main.c      ****             }            
 170:.\main.c      ****             
 171:.\main.c      ****             CyBle_GattsWriteRsp(cyBle_connHandle);
 460              		.loc 1 171 0
 461 009c 044A     		ldr	r2, .L36+4
 462 009e 1378     		ldrb	r3, [r2]
 463 00a0 5078     		ldrb	r0, [r2, #1]
 464 00a2 0002     		lsl	r0, r0, #8
 465 00a4 1843     		orr	r0, r3
 466 00a6 FFF7FEFF 		bl	CyBle_GattsWriteRsp
 467              	.LVL36:
 468              	.L26:
 172:.\main.c      ****             
 173:.\main.c      ****         break;
 174:.\main.c      ****             
 175:.\main.c      ****         default:
 176:.\main.c      ****         break;
 177:.\main.c      ****     }
 178:.\main.c      **** }
 469              		.loc 1 178 0
 470              		@ sp needed
 471              	.LVL37:
 472 00aa 10BD     		pop	{r4, pc}
 473              	.L37:
 474              		.align	2
 475              	.L36:
 476 00ac 00000000 		.word	.LANCHOR0
 477 00b0 00000000 		.word	cyBle_connHandle
 478              		.cfi_endproc
 479              	.LFE41:
 480              		.size	BleCallBack, .-BleCallBack
 481              		.section	.text.processTach,"ax",%progbits
ARM GAS  C:\Users\Alan\AppData\Local\Temp\ccZJYKUe.s 			page 13


 482              		.align	2
 483              		.global	processTach
 484              		.code	16
 485              		.thumb_func
 486              		.type	processTach, %function
 487              	processTach:
 488              	.LFB40:
 118:.\main.c      ****     processTachFlag = 0;
 489              		.loc 1 118 0
 490              		.cfi_startproc
 491 0000 10B5     		push	{r4, lr}
 492              		.cfi_def_cfa_offset 8
 493              		.cfi_offset 4, -8
 494              		.cfi_offset 14, -4
 119:.\main.c      ****     tachLeft =  ( QDLEFT_ReadCounter()  - QD_RESET ) * QD_SCALE;
 495              		.loc 1 119 0
 496 0002 0F4C     		ldr	r4, .L39
 497 0004 0023     		mov	r3, #0
 498 0006 6360     		str	r3, [r4, #4]
 120:.\main.c      ****     tachRight = ( QDRIGHT_ReadCounter() - QD_RESET ) * QD_SCALE;
 499              		.loc 1 120 0
 500 0008 FFF7FEFF 		bl	QDLEFT_ReadCounter
 501              	.LVL38:
 502 000c 8300     		lsl	r3, r0, #2
 503 000e 1818     		add	r0, r3, r0
 504 0010 0C4B     		ldr	r3, .L39+4
 505 0012 9C46     		mov	ip, r3
 506 0014 6044     		add	r0, r0, ip
 507 0016 E060     		str	r0, [r4, #12]
 121:.\main.c      ****     QDLEFT_WriteCounter(QD_RESET);
 508              		.loc 1 121 0
 509 0018 FFF7FEFF 		bl	QDRIGHT_ReadCounter
 510              	.LVL39:
 511 001c 8300     		lsl	r3, r0, #2
 512 001e 1818     		add	r0, r3, r0
 513 0020 084B     		ldr	r3, .L39+4
 514 0022 9C46     		mov	ip, r3
 515 0024 6044     		add	r0, r0, ip
 516 0026 6061     		str	r0, [r4, #20]
 122:.\main.c      ****     QDRIGHT_WriteCounter(QD_RESET);
 517              		.loc 1 122 0
 518 0028 8024     		mov	r4, #128
 519 002a 2402     		lsl	r4, r4, #8
 520 002c 201C     		mov	r0, r4
 521 002e FFF7FEFF 		bl	QDLEFT_WriteCounter
 522              	.LVL40:
 123:.\main.c      ****     updateRpm(); // Update the GATT database with the new RPM values
 523              		.loc 1 123 0
 524 0032 201C     		mov	r0, r4
 525 0034 FFF7FEFF 		bl	QDRIGHT_WriteCounter
 526              	.LVL41:
 124:.\main.c      **** }
 527              		.loc 1 124 0
 528 0038 FFF7FEFF 		bl	updateRpm
 529              	.LVL42:
 125:.\main.c      **** 
 530              		.loc 1 125 0
ARM GAS  C:\Users\Alan\AppData\Local\Temp\ccZJYKUe.s 			page 14


 531              		@ sp needed
 532 003c 10BD     		pop	{r4, pc}
 533              	.L40:
 534 003e C046     		.align	2
 535              	.L39:
 536 0040 00000000 		.word	.LANCHOR0
 537 0044 0080FDFF 		.word	-163840
 538              		.cfi_endproc
 539              	.LFE40:
 540              		.size	processTach, .-processTach
 541              		.section	.text.handleMotor,"ax",%progbits
 542              		.align	2
 543              		.global	handleMotor
 544              		.code	16
 545              		.thumb_func
 546              		.type	handleMotor, %function
 547              	handleMotor:
 548              	.LFB42:
 179:.\main.c      ****     
 180:.\main.c      **** // This function will turn the motors on/off if the user presses the button    
 181:.\main.c      **** void handleMotor()
 182:.\main.c      **** {
 549              		.loc 1 182 0
 550              		.cfi_startproc
 551 0000 08B5     		push	{r3, lr}
 552              		.cfi_def_cfa_offset 8
 553              		.cfi_offset 3, -8
 554              		.cfi_offset 14, -4
 183:.\main.c      ****     static int motorState = 1;
 184:.\main.c      ****     if(motorFlag)
 555              		.loc 1 184 0
 556 0002 0D4B     		ldr	r3, .L45
 557 0004 1B68     		ldr	r3, [r3]
 558 0006 002B     		cmp	r3, #0
 559 0008 14D0     		beq	.L41
 185:.\main.c      ****     {
 186:.\main.c      ****         if(motorState)
 560              		.loc 1 186 0
 561 000a 0C4B     		ldr	r3, .L45+4
 562 000c 1B68     		ldr	r3, [r3]
 563 000e 002B     		cmp	r3, #0
 564 0010 04D0     		beq	.L43
 187:.\main.c      ****         {
 188:.\main.c      ****             PWMLEFT_Stop();
 565              		.loc 1 188 0
 566 0012 FFF7FEFF 		bl	PWMLEFT_Stop
 567              	.LVL43:
 189:.\main.c      ****             PWMRIGHT_Stop();
 568              		.loc 1 189 0
 569 0016 FFF7FEFF 		bl	PWMRIGHT_Stop
 570              	.LVL44:
 571 001a 03E0     		b	.L44
 572              	.L43:
 190:.\main.c      ****         }
 191:.\main.c      ****         else
 192:.\main.c      ****         {
 193:.\main.c      ****             PWMLEFT_Start();
ARM GAS  C:\Users\Alan\AppData\Local\Temp\ccZJYKUe.s 			page 15


 573              		.loc 1 193 0
 574 001c FFF7FEFF 		bl	PWMLEFT_Start
 575              	.LVL45:
 194:.\main.c      ****             PWMRIGHT_Start(); 
 576              		.loc 1 194 0
 577 0020 FFF7FEFF 		bl	PWMRIGHT_Start
 578              	.LVL46:
 579              	.L44:
 195:.\main.c      ****         }
 196:.\main.c      ****         motorState = !motorState;
 580              		.loc 1 196 0
 581 0024 054A     		ldr	r2, .L45+4
 582 0026 1368     		ldr	r3, [r2]
 583 0028 5942     		neg	r1, r3
 584 002a 4B41     		adc	r3, r3, r1
 585 002c 1360     		str	r3, [r2]
 197:.\main.c      ****         motorFlag = 0;
 586              		.loc 1 197 0
 587 002e 0022     		mov	r2, #0
 588 0030 014B     		ldr	r3, .L45
 589 0032 1A60     		str	r2, [r3]
 590              	.L41:
 198:.\main.c      ****     } 
 199:.\main.c      **** }
 591              		.loc 1 199 0
 592              		@ sp needed
 593 0034 08BD     		pop	{r3, pc}
 594              	.L46:
 595 0036 C046     		.align	2
 596              	.L45:
 597 0038 00000000 		.word	.LANCHOR0
 598 003c 00000000 		.word	.LANCHOR1
 599              		.cfi_endproc
 600              	.LFE42:
 601              		.size	handleMotor, .-handleMotor
 602              		.section	.text.main,"ax",%progbits
 603              		.align	2
 604              		.global	main
 605              		.code	16
 606              		.thumb_func
 607              		.type	main, %function
 608              	main:
 609              	.LFB43:
 200:.\main.c      **** 
 201:.\main.c      **** int main()
 202:.\main.c      **** {
 610              		.loc 1 202 0
 611              		.cfi_startproc
 612 0000 10B5     		push	{r4, lr}
 613              		.cfi_def_cfa_offset 8
 614              		.cfi_offset 4, -8
 615              		.cfi_offset 14, -4
 203:.\main.c      ****            
 204:.\main.c      ****     CyGlobalIntEnable; /* Enable global interrupts. */
 616              		.loc 1 204 0
 617              	@ 204 ".\main.c" 1
 618 0002 62B6     		CPSIE   i
ARM GAS  C:\Users\Alan\AppData\Local\Temp\ccZJYKUe.s 			page 16


 619              	@ 0 "" 2
 205:.\main.c      **** 
 206:.\main.c      ****     swint_StartEx(swisr); // start the interrupt handler for the switch
 620              		.loc 1 206 0
 621              		.code	16
 622 0004 2648     		ldr	r0, .L50
 623 0006 FFF7FEFF 		bl	swint_StartEx
 624              	.LVL47:
 207:.\main.c      ****     
 208:.\main.c      ****     // Get the Motor PWMs going
 209:.\main.c      ****     PWMLEFT_Start();
 625              		.loc 1 209 0
 626 000a FFF7FEFF 		bl	PWMLEFT_Start
 627              	.LVL48:
 210:.\main.c      ****     PWMRIGHT_Start();
 628              		.loc 1 210 0
 629 000e FFF7FEFF 		bl	PWMRIGHT_Start
 630              	.LVL49:
 211:.\main.c      ****     setSpeed(LEFT,0);
 631              		.loc 1 211 0
 632 0012 0020     		mov	r0, #0
 633 0014 0021     		mov	r1, #0
 634 0016 FFF7FEFF 		bl	setSpeed
 635              	.LVL50:
 212:.\main.c      ****     setSpeed(RIGHT,0);
 636              		.loc 1 212 0
 637 001a 0120     		mov	r0, #1
 638 001c 0021     		mov	r1, #0
 639 001e FFF7FEFF 		bl	setSpeed
 640              	.LVL51:
 213:.\main.c      ****     
 214:.\main.c      ****     // Start the quadrature encoders
 215:.\main.c      ****     QDLEFT_Start();
 641              		.loc 1 215 0
 642 0022 FFF7FEFF 		bl	QDLEFT_Start
 643              	.LVL52:
 216:.\main.c      ****     QDRIGHT_Start();
 644              		.loc 1 216 0
 645 0026 FFF7FEFF 		bl	QDRIGHT_Start
 646              	.LVL53:
 217:.\main.c      ****     QDLEFT_TriggerCommand(QDLEFT_MASK, QDLEFT_CMD_RELOAD);
 647              		.loc 1 217 0
 648 002a 0120     		mov	r0, #1
 649 002c 0821     		mov	r1, #8
 650 002e FFF7FEFF 		bl	QDLEFT_TriggerCommand
 651              	.LVL54:
 218:.\main.c      ****     QDRIGHT_TriggerCommand(QDRIGHT_MASK, QDRIGHT_CMD_RELOAD);
 652              		.loc 1 218 0
 653 0032 0420     		mov	r0, #4
 654 0034 0821     		mov	r1, #8
 655 0036 FFF7FEFF 		bl	QDRIGHT_TriggerCommand
 656              	.LVL55:
 219:.\main.c      ****     
 220:.\main.c      ****     // Start the timer and ISR for the tachometer
 221:.\main.c      ****     tachPwm_Start();
 657              		.loc 1 221 0
 658 003a FFF7FEFF 		bl	tachPwm_Start
ARM GAS  C:\Users\Alan\AppData\Local\Temp\ccZJYKUe.s 			page 17


 659              	.LVL56:
 222:.\main.c      ****     tachTimer_StartEx(tachISR);
 660              		.loc 1 222 0
 661 003e 1948     		ldr	r0, .L50+4
 662 0040 FFF7FEFF 		bl	tachTimer_StartEx
 663              	.LVL57:
 223:.\main.c      ****     
 224:.\main.c      ****     ledpwm_Start();
 664              		.loc 1 224 0
 665 0044 FFF7FEFF 		bl	ledpwm_Start
 666              	.LVL58:
 225:.\main.c      ****     
 226:.\main.c      ****     // Start the BLE
 227:.\main.c      ****     CyBle_Start(BleCallBack);
 667              		.loc 1 227 0
 668 0048 1748     		ldr	r0, .L50+8
 669 004a FFF7FEFF 		bl	CyBle_Start
 670              	.LVL59:
 671              	.L49:
 228:.\main.c      **** 
 229:.\main.c      ****     for(;;)
 230:.\main.c      ****     {      
 231:.\main.c      ****         handleMotor();
 672              		.loc 1 231 0
 673 004e FFF7FEFF 		bl	handleMotor
 674              	.LVL60:
 232:.\main.c      ****         
 233:.\main.c      ****         if(processTachFlag)
 675              		.loc 1 233 0
 676 0052 164B     		ldr	r3, .L50+12
 677 0054 5B68     		ldr	r3, [r3, #4]
 678 0056 002B     		cmp	r3, #0
 679 0058 1CD0     		beq	.L48
 680              	.LBB4:
 681              	.LBB5:
 119:.\main.c      ****     tachLeft =  ( QDLEFT_ReadCounter()  - QD_RESET ) * QD_SCALE;
 682              		.loc 1 119 0
 683 005a 144C     		ldr	r4, .L50+12
 684 005c 0023     		mov	r3, #0
 685 005e 6360     		str	r3, [r4, #4]
 120:.\main.c      ****     tachRight = ( QDRIGHT_ReadCounter() - QD_RESET ) * QD_SCALE;
 686              		.loc 1 120 0
 687 0060 FFF7FEFF 		bl	QDLEFT_ReadCounter
 688              	.LVL61:
 689 0064 8300     		lsl	r3, r0, #2
 690 0066 1818     		add	r0, r3, r0
 691 0068 114B     		ldr	r3, .L50+16
 692 006a 9C46     		mov	ip, r3
 693 006c 6044     		add	r0, r0, ip
 694 006e E060     		str	r0, [r4, #12]
 121:.\main.c      ****     QDLEFT_WriteCounter(QD_RESET);
 695              		.loc 1 121 0
 696 0070 FFF7FEFF 		bl	QDRIGHT_ReadCounter
 697              	.LVL62:
 698 0074 8300     		lsl	r3, r0, #2
 699 0076 1818     		add	r0, r3, r0
 700 0078 0D4B     		ldr	r3, .L50+16
ARM GAS  C:\Users\Alan\AppData\Local\Temp\ccZJYKUe.s 			page 18


 701 007a 9C46     		mov	ip, r3
 702 007c 6044     		add	r0, r0, ip
 703 007e 6061     		str	r0, [r4, #20]
 122:.\main.c      ****     QDRIGHT_WriteCounter(QD_RESET);
 704              		.loc 1 122 0
 705 0080 8024     		mov	r4, #128
 706 0082 2402     		lsl	r4, r4, #8
 707 0084 201C     		mov	r0, r4
 708 0086 FFF7FEFF 		bl	QDLEFT_WriteCounter
 709              	.LVL63:
 123:.\main.c      ****     updateRpm(); // Update the GATT database with the new RPM values
 710              		.loc 1 123 0
 711 008a 201C     		mov	r0, r4
 712 008c FFF7FEFF 		bl	QDRIGHT_WriteCounter
 713              	.LVL64:
 124:.\main.c      **** }
 714              		.loc 1 124 0
 715 0090 FFF7FEFF 		bl	updateRpm
 716              	.LVL65:
 717              	.L48:
 718              	.LBE5:
 719              	.LBE4:
 234:.\main.c      ****             processTach();
 235:.\main.c      ****             
 236:.\main.c      ****         CyBle_ProcessEvents();
 720              		.loc 1 236 0
 721 0094 FFF7FEFF 		bl	CyBle_ProcessEvents
 722              	.LVL66:
 237:.\main.c      ****         CyBle_EnterLPM(CYBLE_BLESS_DEEPSLEEP);
 723              		.loc 1 237 0
 724 0098 0320     		mov	r0, #3
 725 009a FFF7FEFF 		bl	CyBle_EnterLPM
 726              	.LVL67:
 238:.\main.c      ****     }
 727              		.loc 1 238 0
 728 009e D6E7     		b	.L49
 729              	.L51:
 730              		.align	2
 731              	.L50:
 732 00a0 00000000 		.word	swisr
 733 00a4 00000000 		.word	tachISR
 734 00a8 00000000 		.word	BleCallBack
 735 00ac 00000000 		.word	.LANCHOR0
 736 00b0 0080FDFF 		.word	-163840
 737              		.cfi_endproc
 738              	.LFE43:
 739              		.size	main, .-main
 740              		.global	motorFlag
 741              		.global	speedRight
 742              		.global	speedLeft
 743              		.global	tachRight
 744              		.global	tachLeft
 745              		.global	tachRightNotify
 746              		.global	tachLeftNotify
 747              		.global	processTachFlag
 748              		.data
 749              		.align	2
ARM GAS  C:\Users\Alan\AppData\Local\Temp\ccZJYKUe.s 			page 19


 750              		.set	.LANCHOR1,. + 0
 751              		.type	motorState.7475, %object
 752              		.size	motorState.7475, 4
 753              	motorState.7475:
 754 0000 01000000 		.word	1
 755              		.bss
 756              		.align	2
 757              		.set	.LANCHOR0,. + 0
 758              		.type	motorFlag, %object
 759              		.size	motorFlag, 4
 760              	motorFlag:
 761 0000 00000000 		.space	4
 762              		.type	processTachFlag, %object
 763              		.size	processTachFlag, 4
 764              	processTachFlag:
 765 0004 00000000 		.space	4
 766              		.type	speedLeft, %object
 767              		.size	speedLeft, 1
 768              	speedLeft:
 769 0008 00       		.space	1
 770              		.type	speedRight, %object
 771              		.size	speedRight, 1
 772              	speedRight:
 773 0009 00       		.space	1
 774 000a 0000     		.space	2
 775              		.type	tachLeft, %object
 776              		.size	tachLeft, 4
 777              	tachLeft:
 778 000c 00000000 		.space	4
 779              		.type	tachLeftNotify, %object
 780              		.size	tachLeftNotify, 4
 781              	tachLeftNotify:
 782 0010 00000000 		.space	4
 783              		.type	tachRight, %object
 784              		.size	tachRight, 4
 785              	tachRight:
 786 0014 00000000 		.space	4
 787              		.type	tachRightNotify, %object
 788              		.size	tachRightNotify, 4
 789              	tachRightNotify:
 790 0018 00000000 		.space	4
 791              		.text
 792              	.Letext0:
 793              		.file 2 "Generated_Source\\PSoC4/cytypes.h"
 794              		.file 3 "Generated_Source\\PSoC4/BLE_Stack.h"
 795              		.file 4 "Generated_Source\\PSoC4/BLE_StackGatt.h"
 796              		.file 5 "Generated_Source\\PSoC4/BLE_StackGattServer.h"
 797              		.file 6 "Generated_Source\\PSoC4/BLE.h"
 798              		.file 7 "Generated_Source\\PSoC4/BLE_eventHandler.h"
 799              		.file 8 "Generated_Source\\PSoC4/Control.h"
 800              		.file 9 "Generated_Source\\PSoC4/tachPwm.h"
 801              		.file 10 "Generated_Source\\PSoC4/DIRLEFT.h"
 802              		.file 11 "Generated_Source\\PSoC4/PWMLEFT.h"
 803              		.file 12 "Generated_Source\\PSoC4/DIRRIGHT.h"
 804              		.file 13 "Generated_Source\\PSoC4/PWMRIGHT.h"
 805              		.file 14 "Generated_Source\\PSoC4/BLE_StackGattDb.h"
 806              		.file 15 "Generated_Source\\PSoC4/ledpwm.h"
ARM GAS  C:\Users\Alan\AppData\Local\Temp\ccZJYKUe.s 			page 20


 807              		.file 16 "Generated_Source\\PSoC4/QDLEFT.h"
 808              		.file 17 "Generated_Source\\PSoC4/QDRIGHT.h"
 809              		.file 18 "Generated_Source\\PSoC4/swint.h"
 810              		.file 19 "Generated_Source\\PSoC4/tachTimer.h"