ARM GAS  C:\Users\Alan\AppData\Local\Temp\ccMlqGx9.s 			page 1


   1              		.cpu cortex-m0
   2              		.fpu softvfp
   3              		.eabi_attribute 20, 1
   4              		.eabi_attribute 21, 1
   5              		.eabi_attribute 23, 3
   6              		.eabi_attribute 24, 1
   7              		.eabi_attribute 25, 1
   8              		.eabi_attribute 26, 1
   9              		.eabi_attribute 30, 1
  10              		.eabi_attribute 34, 0
  11              		.eabi_attribute 18, 4
  12              		.code	16
  13              		.file	"swint.c"
  14              		.text
  15              	.Ltext0:
  16              		.cfi_sections	.debug_frame
  17              		.section	.text.swint_Interrupt,"ax",%progbits
  18              		.align	2
  19              		.global	swint_Interrupt
  20              		.code	16
  21              		.thumb_func
  22              		.type	swint_Interrupt, %function
  23              	swint_Interrupt:
  24              	.LFB5:
  25              		.file 1 ".\\Generated_Source\\PSoC4\\swint.c"
   1:.\Generated_Source\PSoC4/swint.c **** /*******************************************************************************
   2:.\Generated_Source\PSoC4/swint.c **** * File Name: swint.c  
   3:.\Generated_Source\PSoC4/swint.c **** * Version 1.70
   4:.\Generated_Source\PSoC4/swint.c **** *
   5:.\Generated_Source\PSoC4/swint.c **** *  Description:
   6:.\Generated_Source\PSoC4/swint.c **** *   API for controlling the state of an interrupt.
   7:.\Generated_Source\PSoC4/swint.c **** *
   8:.\Generated_Source\PSoC4/swint.c **** *
   9:.\Generated_Source\PSoC4/swint.c **** *  Note:
  10:.\Generated_Source\PSoC4/swint.c **** *
  11:.\Generated_Source\PSoC4/swint.c **** ********************************************************************************
  12:.\Generated_Source\PSoC4/swint.c **** * Copyright 2008-2015, Cypress Semiconductor Corporation.  All rights reserved.
  13:.\Generated_Source\PSoC4/swint.c **** * You may use this file only in accordance with the license, terms, conditions, 
  14:.\Generated_Source\PSoC4/swint.c **** * disclaimers, and limitations in the end user license agreement accompanying 
  15:.\Generated_Source\PSoC4/swint.c **** * the software package with which this file was provided.
  16:.\Generated_Source\PSoC4/swint.c **** *******************************************************************************/
  17:.\Generated_Source\PSoC4/swint.c **** 
  18:.\Generated_Source\PSoC4/swint.c **** 
  19:.\Generated_Source\PSoC4/swint.c **** #include <cydevice_trm.h>
  20:.\Generated_Source\PSoC4/swint.c **** #include <CyLib.h>
  21:.\Generated_Source\PSoC4/swint.c **** #include <swint.h>
  22:.\Generated_Source\PSoC4/swint.c **** #include "cyapicallbacks.h"
  23:.\Generated_Source\PSoC4/swint.c **** 
  24:.\Generated_Source\PSoC4/swint.c **** #if !defined(swint__REMOVED) /* Check for removal by optimization */
  25:.\Generated_Source\PSoC4/swint.c **** 
  26:.\Generated_Source\PSoC4/swint.c **** /*******************************************************************************
  27:.\Generated_Source\PSoC4/swint.c **** *  Place your includes, defines and code here 
  28:.\Generated_Source\PSoC4/swint.c **** ********************************************************************************/
  29:.\Generated_Source\PSoC4/swint.c **** /* `#START swint_intc` */
  30:.\Generated_Source\PSoC4/swint.c **** 
  31:.\Generated_Source\PSoC4/swint.c **** /* `#END` */
  32:.\Generated_Source\PSoC4/swint.c **** 
ARM GAS  C:\Users\Alan\AppData\Local\Temp\ccMlqGx9.s 			page 2


  33:.\Generated_Source\PSoC4/swint.c **** extern cyisraddress CyRamVectors[CYINT_IRQ_BASE + CY_NUM_INTERRUPTS];
  34:.\Generated_Source\PSoC4/swint.c **** 
  35:.\Generated_Source\PSoC4/swint.c **** /* Declared in startup, used to set unused interrupts to. */
  36:.\Generated_Source\PSoC4/swint.c **** CY_ISR_PROTO(IntDefaultHandler);
  37:.\Generated_Source\PSoC4/swint.c **** 
  38:.\Generated_Source\PSoC4/swint.c **** 
  39:.\Generated_Source\PSoC4/swint.c **** /*******************************************************************************
  40:.\Generated_Source\PSoC4/swint.c **** * Function Name: swint_Start
  41:.\Generated_Source\PSoC4/swint.c **** ********************************************************************************
  42:.\Generated_Source\PSoC4/swint.c **** *
  43:.\Generated_Source\PSoC4/swint.c **** * Summary:
  44:.\Generated_Source\PSoC4/swint.c **** *  Set up the interrupt and enable it. This function disables the interrupt, 
  45:.\Generated_Source\PSoC4/swint.c **** *  sets the default interrupt vector, sets the priority from the value in the
  46:.\Generated_Source\PSoC4/swint.c **** *  Design Wide Resources Interrupt Editor, then enables the interrupt to the 
  47:.\Generated_Source\PSoC4/swint.c **** *  interrupt controller.
  48:.\Generated_Source\PSoC4/swint.c **** *
  49:.\Generated_Source\PSoC4/swint.c **** * Parameters:  
  50:.\Generated_Source\PSoC4/swint.c **** *   None
  51:.\Generated_Source\PSoC4/swint.c **** *
  52:.\Generated_Source\PSoC4/swint.c **** * Return:
  53:.\Generated_Source\PSoC4/swint.c **** *   None
  54:.\Generated_Source\PSoC4/swint.c **** *
  55:.\Generated_Source\PSoC4/swint.c **** *******************************************************************************/
  56:.\Generated_Source\PSoC4/swint.c **** void swint_Start(void)
  57:.\Generated_Source\PSoC4/swint.c **** {
  58:.\Generated_Source\PSoC4/swint.c ****     /* For all we know the interrupt is active. */
  59:.\Generated_Source\PSoC4/swint.c ****     swint_Disable();
  60:.\Generated_Source\PSoC4/swint.c **** 
  61:.\Generated_Source\PSoC4/swint.c ****     /* Set the ISR to point to the swint Interrupt. */
  62:.\Generated_Source\PSoC4/swint.c ****     swint_SetVector(&swint_Interrupt);
  63:.\Generated_Source\PSoC4/swint.c **** 
  64:.\Generated_Source\PSoC4/swint.c ****     /* Set the priority. */
  65:.\Generated_Source\PSoC4/swint.c ****     swint_SetPriority((uint8)swint_INTC_PRIOR_NUMBER);
  66:.\Generated_Source\PSoC4/swint.c **** 
  67:.\Generated_Source\PSoC4/swint.c ****     /* Enable it. */
  68:.\Generated_Source\PSoC4/swint.c ****     swint_Enable();
  69:.\Generated_Source\PSoC4/swint.c **** }
  70:.\Generated_Source\PSoC4/swint.c **** 
  71:.\Generated_Source\PSoC4/swint.c **** 
  72:.\Generated_Source\PSoC4/swint.c **** /*******************************************************************************
  73:.\Generated_Source\PSoC4/swint.c **** * Function Name: swint_StartEx
  74:.\Generated_Source\PSoC4/swint.c **** ********************************************************************************
  75:.\Generated_Source\PSoC4/swint.c **** *
  76:.\Generated_Source\PSoC4/swint.c **** * Summary:
  77:.\Generated_Source\PSoC4/swint.c **** *  Sets up the interrupt and enables it. This function disables the interrupt,
  78:.\Generated_Source\PSoC4/swint.c **** *  sets the interrupt vector based on the address passed in, sets the priority 
  79:.\Generated_Source\PSoC4/swint.c **** *  from the value in the Design Wide Resources Interrupt Editor, then enables 
  80:.\Generated_Source\PSoC4/swint.c **** *  the interrupt to the interrupt controller.
  81:.\Generated_Source\PSoC4/swint.c **** *  
  82:.\Generated_Source\PSoC4/swint.c **** *  When defining ISR functions, the CY_ISR and CY_ISR_PROTO macros should be 
  83:.\Generated_Source\PSoC4/swint.c **** *  used to provide consistent definition across compilers:
  84:.\Generated_Source\PSoC4/swint.c **** *  
  85:.\Generated_Source\PSoC4/swint.c **** *  Function definition example:
  86:.\Generated_Source\PSoC4/swint.c **** *   CY_ISR(MyISR)
  87:.\Generated_Source\PSoC4/swint.c **** *   {
  88:.\Generated_Source\PSoC4/swint.c **** *   }
  89:.\Generated_Source\PSoC4/swint.c **** *   Function prototype example:
ARM GAS  C:\Users\Alan\AppData\Local\Temp\ccMlqGx9.s 			page 3


  90:.\Generated_Source\PSoC4/swint.c **** *   CY_ISR_PROTO(MyISR);
  91:.\Generated_Source\PSoC4/swint.c **** *
  92:.\Generated_Source\PSoC4/swint.c **** * Parameters:  
  93:.\Generated_Source\PSoC4/swint.c **** *   address: Address of the ISR to set in the interrupt vector table.
  94:.\Generated_Source\PSoC4/swint.c **** *
  95:.\Generated_Source\PSoC4/swint.c **** * Return:
  96:.\Generated_Source\PSoC4/swint.c **** *   None
  97:.\Generated_Source\PSoC4/swint.c **** *
  98:.\Generated_Source\PSoC4/swint.c **** *******************************************************************************/
  99:.\Generated_Source\PSoC4/swint.c **** void swint_StartEx(cyisraddress address)
 100:.\Generated_Source\PSoC4/swint.c **** {
 101:.\Generated_Source\PSoC4/swint.c ****     /* For all we know the interrupt is active. */
 102:.\Generated_Source\PSoC4/swint.c ****     swint_Disable();
 103:.\Generated_Source\PSoC4/swint.c **** 
 104:.\Generated_Source\PSoC4/swint.c ****     /* Set the ISR to point to the swint Interrupt. */
 105:.\Generated_Source\PSoC4/swint.c ****     swint_SetVector(address);
 106:.\Generated_Source\PSoC4/swint.c **** 
 107:.\Generated_Source\PSoC4/swint.c ****     /* Set the priority. */
 108:.\Generated_Source\PSoC4/swint.c ****     swint_SetPriority((uint8)swint_INTC_PRIOR_NUMBER);
 109:.\Generated_Source\PSoC4/swint.c **** 
 110:.\Generated_Source\PSoC4/swint.c ****     /* Enable it. */
 111:.\Generated_Source\PSoC4/swint.c ****     swint_Enable();
 112:.\Generated_Source\PSoC4/swint.c **** }
 113:.\Generated_Source\PSoC4/swint.c **** 
 114:.\Generated_Source\PSoC4/swint.c **** 
 115:.\Generated_Source\PSoC4/swint.c **** /*******************************************************************************
 116:.\Generated_Source\PSoC4/swint.c **** * Function Name: swint_Stop
 117:.\Generated_Source\PSoC4/swint.c **** ********************************************************************************
 118:.\Generated_Source\PSoC4/swint.c **** *
 119:.\Generated_Source\PSoC4/swint.c **** * Summary:
 120:.\Generated_Source\PSoC4/swint.c **** *   Disables and removes the interrupt.
 121:.\Generated_Source\PSoC4/swint.c **** *
 122:.\Generated_Source\PSoC4/swint.c **** * Parameters:  
 123:.\Generated_Source\PSoC4/swint.c **** *   None
 124:.\Generated_Source\PSoC4/swint.c **** *
 125:.\Generated_Source\PSoC4/swint.c **** * Return:
 126:.\Generated_Source\PSoC4/swint.c **** *   None
 127:.\Generated_Source\PSoC4/swint.c **** *
 128:.\Generated_Source\PSoC4/swint.c **** *******************************************************************************/
 129:.\Generated_Source\PSoC4/swint.c **** void swint_Stop(void)
 130:.\Generated_Source\PSoC4/swint.c **** {
 131:.\Generated_Source\PSoC4/swint.c ****     /* Disable this interrupt. */
 132:.\Generated_Source\PSoC4/swint.c ****     swint_Disable();
 133:.\Generated_Source\PSoC4/swint.c **** 
 134:.\Generated_Source\PSoC4/swint.c ****     /* Set the ISR to point to the passive one. */
 135:.\Generated_Source\PSoC4/swint.c ****     swint_SetVector(&IntDefaultHandler);
 136:.\Generated_Source\PSoC4/swint.c **** }
 137:.\Generated_Source\PSoC4/swint.c **** 
 138:.\Generated_Source\PSoC4/swint.c **** 
 139:.\Generated_Source\PSoC4/swint.c **** /*******************************************************************************
 140:.\Generated_Source\PSoC4/swint.c **** * Function Name: swint_Interrupt
 141:.\Generated_Source\PSoC4/swint.c **** ********************************************************************************
 142:.\Generated_Source\PSoC4/swint.c **** *
 143:.\Generated_Source\PSoC4/swint.c **** * Summary:
 144:.\Generated_Source\PSoC4/swint.c **** *   The default Interrupt Service Routine for swint.
 145:.\Generated_Source\PSoC4/swint.c **** *
 146:.\Generated_Source\PSoC4/swint.c **** *   Add custom code between the START and END comments to keep the next version
ARM GAS  C:\Users\Alan\AppData\Local\Temp\ccMlqGx9.s 			page 4


 147:.\Generated_Source\PSoC4/swint.c **** *   of this file from over-writing your code.
 148:.\Generated_Source\PSoC4/swint.c **** *
 149:.\Generated_Source\PSoC4/swint.c **** *   Note You may use either the default ISR by using this API, or you may define
 150:.\Generated_Source\PSoC4/swint.c **** *   your own separate ISR through ISR_StartEx().
 151:.\Generated_Source\PSoC4/swint.c **** *
 152:.\Generated_Source\PSoC4/swint.c **** * Parameters:  
 153:.\Generated_Source\PSoC4/swint.c **** *   None
 154:.\Generated_Source\PSoC4/swint.c **** *
 155:.\Generated_Source\PSoC4/swint.c **** * Return:
 156:.\Generated_Source\PSoC4/swint.c **** *   None
 157:.\Generated_Source\PSoC4/swint.c **** *
 158:.\Generated_Source\PSoC4/swint.c **** *******************************************************************************/
 159:.\Generated_Source\PSoC4/swint.c **** CY_ISR(swint_Interrupt)
 160:.\Generated_Source\PSoC4/swint.c **** {
  26              		.loc 1 160 0
  27              		.cfi_startproc
 161:.\Generated_Source\PSoC4/swint.c ****     #ifdef swint_INTERRUPT_INTERRUPT_CALLBACK
 162:.\Generated_Source\PSoC4/swint.c ****         swint_Interrupt_InterruptCallback();
 163:.\Generated_Source\PSoC4/swint.c ****     #endif /* swint_INTERRUPT_INTERRUPT_CALLBACK */ 
 164:.\Generated_Source\PSoC4/swint.c **** 
 165:.\Generated_Source\PSoC4/swint.c ****     /*  Place your Interrupt code here. */
 166:.\Generated_Source\PSoC4/swint.c ****     /* `#START swint_Interrupt` */
 167:.\Generated_Source\PSoC4/swint.c **** 
 168:.\Generated_Source\PSoC4/swint.c ****     /* `#END` */
 169:.\Generated_Source\PSoC4/swint.c **** }
  28              		.loc 1 169 0
  29              		@ sp needed
  30 0000 7047     		bx	lr
  31              		.cfi_endproc
  32              	.LFE5:
  33              		.size	swint_Interrupt, .-swint_Interrupt
  34 0002 C046     		.section	.text.swint_SetVector,"ax",%progbits
  35              		.align	2
  36              		.global	swint_SetVector
  37              		.code	16
  38              		.thumb_func
  39              		.type	swint_SetVector, %function
  40              	swint_SetVector:
  41              	.LFB6:
 170:.\Generated_Source\PSoC4/swint.c **** 
 171:.\Generated_Source\PSoC4/swint.c **** 
 172:.\Generated_Source\PSoC4/swint.c **** /*******************************************************************************
 173:.\Generated_Source\PSoC4/swint.c **** * Function Name: swint_SetVector
 174:.\Generated_Source\PSoC4/swint.c **** ********************************************************************************
 175:.\Generated_Source\PSoC4/swint.c **** *
 176:.\Generated_Source\PSoC4/swint.c **** * Summary:
 177:.\Generated_Source\PSoC4/swint.c **** *   Change the ISR vector for the Interrupt. Note calling swint_Start
 178:.\Generated_Source\PSoC4/swint.c **** *   will override any effect this method would have had. To set the vector 
 179:.\Generated_Source\PSoC4/swint.c **** *   before the component has been started use swint_StartEx instead.
 180:.\Generated_Source\PSoC4/swint.c **** * 
 181:.\Generated_Source\PSoC4/swint.c **** *   When defining ISR functions, the CY_ISR and CY_ISR_PROTO macros should be 
 182:.\Generated_Source\PSoC4/swint.c **** *   used to provide consistent definition across compilers:
 183:.\Generated_Source\PSoC4/swint.c **** *
 184:.\Generated_Source\PSoC4/swint.c **** *   Function definition example:
 185:.\Generated_Source\PSoC4/swint.c **** *   CY_ISR(MyISR)
 186:.\Generated_Source\PSoC4/swint.c **** *   {
 187:.\Generated_Source\PSoC4/swint.c **** *   }
ARM GAS  C:\Users\Alan\AppData\Local\Temp\ccMlqGx9.s 			page 5


 188:.\Generated_Source\PSoC4/swint.c **** *
 189:.\Generated_Source\PSoC4/swint.c **** *   Function prototype example:
 190:.\Generated_Source\PSoC4/swint.c **** *     CY_ISR_PROTO(MyISR);
 191:.\Generated_Source\PSoC4/swint.c **** *
 192:.\Generated_Source\PSoC4/swint.c **** * Parameters:
 193:.\Generated_Source\PSoC4/swint.c **** *   address: Address of the ISR to set in the interrupt vector table.
 194:.\Generated_Source\PSoC4/swint.c **** *
 195:.\Generated_Source\PSoC4/swint.c **** * Return:
 196:.\Generated_Source\PSoC4/swint.c **** *   None
 197:.\Generated_Source\PSoC4/swint.c **** *
 198:.\Generated_Source\PSoC4/swint.c **** *******************************************************************************/
 199:.\Generated_Source\PSoC4/swint.c **** void swint_SetVector(cyisraddress address)
 200:.\Generated_Source\PSoC4/swint.c **** {
  42              		.loc 1 200 0
  43              		.cfi_startproc
  44              	.LVL0:
 201:.\Generated_Source\PSoC4/swint.c ****     CyRamVectors[CYINT_IRQ_BASE + swint__INTC_NUMBER] = address;
  45              		.loc 1 201 0
  46 0000 014B     		ldr	r3, .L3
  47 0002 9864     		str	r0, [r3, #72]
 202:.\Generated_Source\PSoC4/swint.c **** }
  48              		.loc 1 202 0
  49              		@ sp needed
  50 0004 7047     		bx	lr
  51              	.L4:
  52 0006 C046     		.align	2
  53              	.L3:
  54 0008 00000000 		.word	CyRamVectors
  55              		.cfi_endproc
  56              	.LFE6:
  57              		.size	swint_SetVector, .-swint_SetVector
  58              		.section	.text.swint_GetVector,"ax",%progbits
  59              		.align	2
  60              		.global	swint_GetVector
  61              		.code	16
  62              		.thumb_func
  63              		.type	swint_GetVector, %function
  64              	swint_GetVector:
  65              	.LFB7:
 203:.\Generated_Source\PSoC4/swint.c **** 
 204:.\Generated_Source\PSoC4/swint.c **** 
 205:.\Generated_Source\PSoC4/swint.c **** /*******************************************************************************
 206:.\Generated_Source\PSoC4/swint.c **** * Function Name: swint_GetVector
 207:.\Generated_Source\PSoC4/swint.c **** ********************************************************************************
 208:.\Generated_Source\PSoC4/swint.c **** *
 209:.\Generated_Source\PSoC4/swint.c **** * Summary:
 210:.\Generated_Source\PSoC4/swint.c **** *   Gets the "address" of the current ISR vector for the Interrupt.
 211:.\Generated_Source\PSoC4/swint.c **** *
 212:.\Generated_Source\PSoC4/swint.c **** * Parameters:
 213:.\Generated_Source\PSoC4/swint.c **** *   None
 214:.\Generated_Source\PSoC4/swint.c **** *
 215:.\Generated_Source\PSoC4/swint.c **** * Return:
 216:.\Generated_Source\PSoC4/swint.c **** *   Address of the ISR in the interrupt vector table.
 217:.\Generated_Source\PSoC4/swint.c **** *
 218:.\Generated_Source\PSoC4/swint.c **** *******************************************************************************/
 219:.\Generated_Source\PSoC4/swint.c **** cyisraddress swint_GetVector(void)
 220:.\Generated_Source\PSoC4/swint.c **** {
ARM GAS  C:\Users\Alan\AppData\Local\Temp\ccMlqGx9.s 			page 6


  66              		.loc 1 220 0
  67              		.cfi_startproc
 221:.\Generated_Source\PSoC4/swint.c ****     return CyRamVectors[CYINT_IRQ_BASE + swint__INTC_NUMBER];
  68              		.loc 1 221 0
  69 0000 014B     		ldr	r3, .L6
  70 0002 986C     		ldr	r0, [r3, #72]
 222:.\Generated_Source\PSoC4/swint.c **** }
  71              		.loc 1 222 0
  72              		@ sp needed
  73 0004 7047     		bx	lr
  74              	.L7:
  75 0006 C046     		.align	2
  76              	.L6:
  77 0008 00000000 		.word	CyRamVectors
  78              		.cfi_endproc
  79              	.LFE7:
  80              		.size	swint_GetVector, .-swint_GetVector
  81              		.section	.text.swint_SetPriority,"ax",%progbits
  82              		.align	2
  83              		.global	swint_SetPriority
  84              		.code	16
  85              		.thumb_func
  86              		.type	swint_SetPriority, %function
  87              	swint_SetPriority:
  88              	.LFB8:
 223:.\Generated_Source\PSoC4/swint.c **** 
 224:.\Generated_Source\PSoC4/swint.c **** 
 225:.\Generated_Source\PSoC4/swint.c **** /*******************************************************************************
 226:.\Generated_Source\PSoC4/swint.c **** * Function Name: swint_SetPriority
 227:.\Generated_Source\PSoC4/swint.c **** ********************************************************************************
 228:.\Generated_Source\PSoC4/swint.c **** *
 229:.\Generated_Source\PSoC4/swint.c **** * Summary:
 230:.\Generated_Source\PSoC4/swint.c **** *   Sets the Priority of the Interrupt. 
 231:.\Generated_Source\PSoC4/swint.c **** *
 232:.\Generated_Source\PSoC4/swint.c **** *   Note calling swint_Start or swint_StartEx will 
 233:.\Generated_Source\PSoC4/swint.c **** *   override any effect this API would have had. This API should only be called
 234:.\Generated_Source\PSoC4/swint.c **** *   after swint_Start or swint_StartEx has been called. 
 235:.\Generated_Source\PSoC4/swint.c **** *   To set the initial priority for the component, use the Design-Wide Resources
 236:.\Generated_Source\PSoC4/swint.c **** *   Interrupt Editor.
 237:.\Generated_Source\PSoC4/swint.c **** *
 238:.\Generated_Source\PSoC4/swint.c **** *   Note This API has no effect on Non-maskable interrupt NMI).
 239:.\Generated_Source\PSoC4/swint.c **** *
 240:.\Generated_Source\PSoC4/swint.c **** * Parameters:
 241:.\Generated_Source\PSoC4/swint.c **** *   priority: Priority of the interrupt, 0 being the highest priority
 242:.\Generated_Source\PSoC4/swint.c **** *             PSoC 3 and PSoC 5LP: Priority is from 0 to 7.
 243:.\Generated_Source\PSoC4/swint.c **** *             PSoC 4: Priority is from 0 to 3.
 244:.\Generated_Source\PSoC4/swint.c **** *
 245:.\Generated_Source\PSoC4/swint.c **** * Return:
 246:.\Generated_Source\PSoC4/swint.c **** *   None
 247:.\Generated_Source\PSoC4/swint.c **** *
 248:.\Generated_Source\PSoC4/swint.c **** *******************************************************************************/
 249:.\Generated_Source\PSoC4/swint.c **** void swint_SetPriority(uint8 priority)
 250:.\Generated_Source\PSoC4/swint.c **** {
  89              		.loc 1 250 0
  90              		.cfi_startproc
  91              	.LVL1:
  92 0000 10B5     		push	{r4, lr}
ARM GAS  C:\Users\Alan\AppData\Local\Temp\ccMlqGx9.s 			page 7


  93              		.cfi_def_cfa_offset 8
  94              		.cfi_offset 4, -8
  95              		.cfi_offset 14, -4
  96 0002 041C     		mov	r4, r0
  97              	.LVL2:
 251:.\Generated_Source\PSoC4/swint.c **** 	uint8 interruptState;
 252:.\Generated_Source\PSoC4/swint.c ****     uint32 priorityOffset = ((swint__INTC_NUMBER % 4u) * 8u) + 6u;
 253:.\Generated_Source\PSoC4/swint.c ****     
 254:.\Generated_Source\PSoC4/swint.c **** 	interruptState = CyEnterCriticalSection();
  98              		.loc 1 254 0
  99 0004 FFF7FEFF 		bl	CyEnterCriticalSection
 100              	.LVL3:
 255:.\Generated_Source\PSoC4/swint.c ****     *swint_INTC_PRIOR = (*swint_INTC_PRIOR & (uint32)(~swint__INTC_PRIOR_MASK)) |
 101              		.loc 1 255 0
 102 0008 044A     		ldr	r2, .L9
 103 000a 1168     		ldr	r1, [r2]
 104 000c 044B     		ldr	r3, .L9+4
 105 000e 0B40     		and	r3, r1
 256:.\Generated_Source\PSoC4/swint.c ****                                     ((uint32)priority << priorityOffset);
 106              		.loc 1 256 0
 107 0010 A405     		lsl	r4, r4, #22
 255:.\Generated_Source\PSoC4/swint.c ****     *swint_INTC_PRIOR = (*swint_INTC_PRIOR & (uint32)(~swint__INTC_PRIOR_MASK)) |
 108              		.loc 1 255 0
 109 0012 1C43     		orr	r4, r3
 110 0014 1460     		str	r4, [r2]
 257:.\Generated_Source\PSoC4/swint.c **** 	CyExitCriticalSection(interruptState);
 111              		.loc 1 257 0
 112 0016 FFF7FEFF 		bl	CyExitCriticalSection
 113              	.LVL4:
 258:.\Generated_Source\PSoC4/swint.c **** }
 114              		.loc 1 258 0
 115              		@ sp needed
 116 001a 10BD     		pop	{r4, pc}
 117              	.L10:
 118              		.align	2
 119              	.L9:
 120 001c 00E400E0 		.word	-536812544
 121 0020 FFFF3FFF 		.word	-12582913
 122              		.cfi_endproc
 123              	.LFE8:
 124              		.size	swint_SetPriority, .-swint_SetPriority
 125              		.section	.text.swint_GetPriority,"ax",%progbits
 126              		.align	2
 127              		.global	swint_GetPriority
 128              		.code	16
 129              		.thumb_func
 130              		.type	swint_GetPriority, %function
 131              	swint_GetPriority:
 132              	.LFB9:
 259:.\Generated_Source\PSoC4/swint.c **** 
 260:.\Generated_Source\PSoC4/swint.c **** 
 261:.\Generated_Source\PSoC4/swint.c **** /*******************************************************************************
 262:.\Generated_Source\PSoC4/swint.c **** * Function Name: swint_GetPriority
 263:.\Generated_Source\PSoC4/swint.c **** ********************************************************************************
 264:.\Generated_Source\PSoC4/swint.c **** *
 265:.\Generated_Source\PSoC4/swint.c **** * Summary:
 266:.\Generated_Source\PSoC4/swint.c **** *   Gets the Priority of the Interrupt.
ARM GAS  C:\Users\Alan\AppData\Local\Temp\ccMlqGx9.s 			page 8


 267:.\Generated_Source\PSoC4/swint.c **** *
 268:.\Generated_Source\PSoC4/swint.c **** * Parameters:
 269:.\Generated_Source\PSoC4/swint.c **** *   None
 270:.\Generated_Source\PSoC4/swint.c **** *
 271:.\Generated_Source\PSoC4/swint.c **** * Return:
 272:.\Generated_Source\PSoC4/swint.c **** *   Priority of the interrupt, 0 being the highest priority
 273:.\Generated_Source\PSoC4/swint.c **** *    PSoC 3 and PSoC 5LP: Priority is from 0 to 7.
 274:.\Generated_Source\PSoC4/swint.c **** *    PSoC 4: Priority is from 0 to 3.
 275:.\Generated_Source\PSoC4/swint.c **** *
 276:.\Generated_Source\PSoC4/swint.c **** *******************************************************************************/
 277:.\Generated_Source\PSoC4/swint.c **** uint8 swint_GetPriority(void)
 278:.\Generated_Source\PSoC4/swint.c **** {
 133              		.loc 1 278 0
 134              		.cfi_startproc
 135              	.LVL5:
 279:.\Generated_Source\PSoC4/swint.c ****     uint32 priority;
 280:.\Generated_Source\PSoC4/swint.c **** 	uint32 priorityOffset = ((swint__INTC_NUMBER % 4u) * 8u) + 6u;
 281:.\Generated_Source\PSoC4/swint.c **** 
 282:.\Generated_Source\PSoC4/swint.c ****     priority = (*swint_INTC_PRIOR & swint__INTC_PRIOR_MASK) >> priorityOffset;
 136              		.loc 1 282 0
 137 0000 024B     		ldr	r3, .L12
 138 0002 1868     		ldr	r0, [r3]
 139 0004 0002     		lsl	r0, r0, #8
 140              	.LVL6:
 283:.\Generated_Source\PSoC4/swint.c **** 
 284:.\Generated_Source\PSoC4/swint.c ****     return (uint8)priority;
 141              		.loc 1 284 0
 142 0006 800F     		lsr	r0, r0, #30
 143              	.LVL7:
 285:.\Generated_Source\PSoC4/swint.c **** }
 144              		.loc 1 285 0
 145              		@ sp needed
 146 0008 7047     		bx	lr
 147              	.L13:
 148 000a C046     		.align	2
 149              	.L12:
 150 000c 00E400E0 		.word	-536812544
 151              		.cfi_endproc
 152              	.LFE9:
 153              		.size	swint_GetPriority, .-swint_GetPriority
 154              		.section	.text.swint_Enable,"ax",%progbits
 155              		.align	2
 156              		.global	swint_Enable
 157              		.code	16
 158              		.thumb_func
 159              		.type	swint_Enable, %function
 160              	swint_Enable:
 161              	.LFB10:
 286:.\Generated_Source\PSoC4/swint.c **** 
 287:.\Generated_Source\PSoC4/swint.c **** 
 288:.\Generated_Source\PSoC4/swint.c **** /*******************************************************************************
 289:.\Generated_Source\PSoC4/swint.c **** * Function Name: swint_Enable
 290:.\Generated_Source\PSoC4/swint.c **** ********************************************************************************
 291:.\Generated_Source\PSoC4/swint.c **** *
 292:.\Generated_Source\PSoC4/swint.c **** * Summary:
 293:.\Generated_Source\PSoC4/swint.c **** *   Enables the interrupt to the interrupt controller. Do not call this function
 294:.\Generated_Source\PSoC4/swint.c **** *   unless ISR_Start() has been called or the functionality of the ISR_Start() 
ARM GAS  C:\Users\Alan\AppData\Local\Temp\ccMlqGx9.s 			page 9


 295:.\Generated_Source\PSoC4/swint.c **** *   function, which sets the vector and the priority, has been called.
 296:.\Generated_Source\PSoC4/swint.c **** *
 297:.\Generated_Source\PSoC4/swint.c **** * Parameters:
 298:.\Generated_Source\PSoC4/swint.c **** *   None
 299:.\Generated_Source\PSoC4/swint.c **** *
 300:.\Generated_Source\PSoC4/swint.c **** * Return:
 301:.\Generated_Source\PSoC4/swint.c **** *   None
 302:.\Generated_Source\PSoC4/swint.c **** *
 303:.\Generated_Source\PSoC4/swint.c **** *******************************************************************************/
 304:.\Generated_Source\PSoC4/swint.c **** void swint_Enable(void)
 305:.\Generated_Source\PSoC4/swint.c **** {
 162              		.loc 1 305 0
 163              		.cfi_startproc
 306:.\Generated_Source\PSoC4/swint.c ****     /* Enable the general interrupt. */
 307:.\Generated_Source\PSoC4/swint.c ****     *swint_INTC_SET_EN = swint__INTC_MASK;
 164              		.loc 1 307 0
 165 0000 0422     		mov	r2, #4
 166 0002 014B     		ldr	r3, .L15
 167 0004 1A60     		str	r2, [r3]
 308:.\Generated_Source\PSoC4/swint.c **** }
 168              		.loc 1 308 0
 169              		@ sp needed
 170 0006 7047     		bx	lr
 171              	.L16:
 172              		.align	2
 173              	.L15:
 174 0008 00E100E0 		.word	-536813312
 175              		.cfi_endproc
 176              	.LFE10:
 177              		.size	swint_Enable, .-swint_Enable
 178              		.section	.text.swint_GetState,"ax",%progbits
 179              		.align	2
 180              		.global	swint_GetState
 181              		.code	16
 182              		.thumb_func
 183              		.type	swint_GetState, %function
 184              	swint_GetState:
 185              	.LFB11:
 309:.\Generated_Source\PSoC4/swint.c **** 
 310:.\Generated_Source\PSoC4/swint.c **** 
 311:.\Generated_Source\PSoC4/swint.c **** /*******************************************************************************
 312:.\Generated_Source\PSoC4/swint.c **** * Function Name: swint_GetState
 313:.\Generated_Source\PSoC4/swint.c **** ********************************************************************************
 314:.\Generated_Source\PSoC4/swint.c **** *
 315:.\Generated_Source\PSoC4/swint.c **** * Summary:
 316:.\Generated_Source\PSoC4/swint.c **** *   Gets the state (enabled, disabled) of the Interrupt.
 317:.\Generated_Source\PSoC4/swint.c **** *
 318:.\Generated_Source\PSoC4/swint.c **** * Parameters:
 319:.\Generated_Source\PSoC4/swint.c **** *   None
 320:.\Generated_Source\PSoC4/swint.c **** *
 321:.\Generated_Source\PSoC4/swint.c **** * Return:
 322:.\Generated_Source\PSoC4/swint.c **** *   1 if enabled, 0 if disabled.
 323:.\Generated_Source\PSoC4/swint.c **** *
 324:.\Generated_Source\PSoC4/swint.c **** *******************************************************************************/
 325:.\Generated_Source\PSoC4/swint.c **** uint8 swint_GetState(void)
 326:.\Generated_Source\PSoC4/swint.c **** {
 186              		.loc 1 326 0
ARM GAS  C:\Users\Alan\AppData\Local\Temp\ccMlqGx9.s 			page 10


 187              		.cfi_startproc
 327:.\Generated_Source\PSoC4/swint.c ****     /* Get the state of the general interrupt. */
 328:.\Generated_Source\PSoC4/swint.c ****     return ((*swint_INTC_SET_EN & (uint32)swint__INTC_MASK) != 0u) ? 1u:0u;
 188              		.loc 1 328 0
 189 0000 034B     		ldr	r3, .L20
 190 0002 1B68     		ldr	r3, [r3]
 191 0004 5B07     		lsl	r3, r3, #29
 192 0006 01D5     		bpl	.L19
 193 0008 0120     		mov	r0, #1
 194 000a 00E0     		b	.L18
 195              	.L19:
 196 000c 0020     		mov	r0, #0
 197              	.L18:
 329:.\Generated_Source\PSoC4/swint.c **** }
 198              		.loc 1 329 0 discriminator 4
 199              		@ sp needed
 200 000e 7047     		bx	lr
 201              	.L21:
 202              		.align	2
 203              	.L20:
 204 0010 00E100E0 		.word	-536813312
 205              		.cfi_endproc
 206              	.LFE11:
 207              		.size	swint_GetState, .-swint_GetState
 208              		.section	.text.swint_Disable,"ax",%progbits
 209              		.align	2
 210              		.global	swint_Disable
 211              		.code	16
 212              		.thumb_func
 213              		.type	swint_Disable, %function
 214              	swint_Disable:
 215              	.LFB12:
 330:.\Generated_Source\PSoC4/swint.c **** 
 331:.\Generated_Source\PSoC4/swint.c **** 
 332:.\Generated_Source\PSoC4/swint.c **** /*******************************************************************************
 333:.\Generated_Source\PSoC4/swint.c **** * Function Name: swint_Disable
 334:.\Generated_Source\PSoC4/swint.c **** ********************************************************************************
 335:.\Generated_Source\PSoC4/swint.c **** *
 336:.\Generated_Source\PSoC4/swint.c **** * Summary:
 337:.\Generated_Source\PSoC4/swint.c **** *   Disables the Interrupt in the interrupt controller.
 338:.\Generated_Source\PSoC4/swint.c **** *
 339:.\Generated_Source\PSoC4/swint.c **** * Parameters:
 340:.\Generated_Source\PSoC4/swint.c **** *   None
 341:.\Generated_Source\PSoC4/swint.c **** *
 342:.\Generated_Source\PSoC4/swint.c **** * Return:
 343:.\Generated_Source\PSoC4/swint.c **** *   None
 344:.\Generated_Source\PSoC4/swint.c **** *
 345:.\Generated_Source\PSoC4/swint.c **** *******************************************************************************/
 346:.\Generated_Source\PSoC4/swint.c **** void swint_Disable(void)
 347:.\Generated_Source\PSoC4/swint.c **** {
 216              		.loc 1 347 0
 217              		.cfi_startproc
 348:.\Generated_Source\PSoC4/swint.c ****     /* Disable the general interrupt. */
 349:.\Generated_Source\PSoC4/swint.c ****     *swint_INTC_CLR_EN = swint__INTC_MASK;
 218              		.loc 1 349 0
 219 0000 0422     		mov	r2, #4
 220 0002 014B     		ldr	r3, .L23
ARM GAS  C:\Users\Alan\AppData\Local\Temp\ccMlqGx9.s 			page 11


 221 0004 1A60     		str	r2, [r3]
 350:.\Generated_Source\PSoC4/swint.c **** }
 222              		.loc 1 350 0
 223              		@ sp needed
 224 0006 7047     		bx	lr
 225              	.L24:
 226              		.align	2
 227              	.L23:
 228 0008 80E100E0 		.word	-536813184
 229              		.cfi_endproc
 230              	.LFE12:
 231              		.size	swint_Disable, .-swint_Disable
 232              		.section	.text.swint_Start,"ax",%progbits
 233              		.align	2
 234              		.global	swint_Start
 235              		.code	16
 236              		.thumb_func
 237              		.type	swint_Start, %function
 238              	swint_Start:
 239              	.LFB2:
  57:.\Generated_Source\PSoC4/swint.c ****     /* For all we know the interrupt is active. */
 240              		.loc 1 57 0
 241              		.cfi_startproc
 242 0000 08B5     		push	{r3, lr}
 243              		.cfi_def_cfa_offset 8
 244              		.cfi_offset 3, -8
 245              		.cfi_offset 14, -4
  59:.\Generated_Source\PSoC4/swint.c **** 
 246              		.loc 1 59 0
 247 0002 FFF7FEFF 		bl	swint_Disable
 248              	.LVL8:
  62:.\Generated_Source\PSoC4/swint.c **** 
 249              		.loc 1 62 0
 250 0006 0448     		ldr	r0, .L26
 251 0008 FFF7FEFF 		bl	swint_SetVector
 252              	.LVL9:
  65:.\Generated_Source\PSoC4/swint.c **** 
 253              		.loc 1 65 0
 254 000c 0320     		mov	r0, #3
 255 000e FFF7FEFF 		bl	swint_SetPriority
 256              	.LVL10:
  68:.\Generated_Source\PSoC4/swint.c **** }
 257              		.loc 1 68 0
 258 0012 FFF7FEFF 		bl	swint_Enable
 259              	.LVL11:
  69:.\Generated_Source\PSoC4/swint.c **** 
 260              		.loc 1 69 0
 261              		@ sp needed
 262 0016 08BD     		pop	{r3, pc}
 263              	.L27:
 264              		.align	2
 265              	.L26:
 266 0018 00000000 		.word	swint_Interrupt
 267              		.cfi_endproc
 268              	.LFE2:
 269              		.size	swint_Start, .-swint_Start
 270              		.section	.text.swint_StartEx,"ax",%progbits
ARM GAS  C:\Users\Alan\AppData\Local\Temp\ccMlqGx9.s 			page 12


 271              		.align	2
 272              		.global	swint_StartEx
 273              		.code	16
 274              		.thumb_func
 275              		.type	swint_StartEx, %function
 276              	swint_StartEx:
 277              	.LFB3:
 100:.\Generated_Source\PSoC4/swint.c ****     /* For all we know the interrupt is active. */
 278              		.loc 1 100 0
 279              		.cfi_startproc
 280              	.LVL12:
 281 0000 10B5     		push	{r4, lr}
 282              		.cfi_def_cfa_offset 8
 283              		.cfi_offset 4, -8
 284              		.cfi_offset 14, -4
 285 0002 041C     		mov	r4, r0
 102:.\Generated_Source\PSoC4/swint.c **** 
 286              		.loc 1 102 0
 287 0004 FFF7FEFF 		bl	swint_Disable
 288              	.LVL13:
 105:.\Generated_Source\PSoC4/swint.c **** 
 289              		.loc 1 105 0
 290 0008 201C     		mov	r0, r4
 291 000a FFF7FEFF 		bl	swint_SetVector
 292              	.LVL14:
 108:.\Generated_Source\PSoC4/swint.c **** 
 293              		.loc 1 108 0
 294 000e 0320     		mov	r0, #3
 295 0010 FFF7FEFF 		bl	swint_SetPriority
 296              	.LVL15:
 111:.\Generated_Source\PSoC4/swint.c **** }
 297              		.loc 1 111 0
 298 0014 FFF7FEFF 		bl	swint_Enable
 299              	.LVL16:
 112:.\Generated_Source\PSoC4/swint.c **** 
 300              		.loc 1 112 0
 301              		@ sp needed
 302              	.LVL17:
 303 0018 10BD     		pop	{r4, pc}
 304              		.cfi_endproc
 305              	.LFE3:
 306              		.size	swint_StartEx, .-swint_StartEx
 307 001a C046     		.section	.text.swint_Stop,"ax",%progbits
 308              		.align	2
 309              		.global	swint_Stop
 310              		.code	16
 311              		.thumb_func
 312              		.type	swint_Stop, %function
 313              	swint_Stop:
 314              	.LFB4:
 130:.\Generated_Source\PSoC4/swint.c ****     /* Disable this interrupt. */
 315              		.loc 1 130 0
 316              		.cfi_startproc
 317 0000 08B5     		push	{r3, lr}
 318              		.cfi_def_cfa_offset 8
 319              		.cfi_offset 3, -8
 320              		.cfi_offset 14, -4
ARM GAS  C:\Users\Alan\AppData\Local\Temp\ccMlqGx9.s 			page 13


 132:.\Generated_Source\PSoC4/swint.c **** 
 321              		.loc 1 132 0
 322 0002 FFF7FEFF 		bl	swint_Disable
 323              	.LVL18:
 135:.\Generated_Source\PSoC4/swint.c **** }
 324              		.loc 1 135 0
 325 0006 0248     		ldr	r0, .L30
 326 0008 FFF7FEFF 		bl	swint_SetVector
 327              	.LVL19:
 136:.\Generated_Source\PSoC4/swint.c **** 
 328              		.loc 1 136 0
 329              		@ sp needed
 330 000c 08BD     		pop	{r3, pc}
 331              	.L31:
 332 000e C046     		.align	2
 333              	.L30:
 334 0010 00000000 		.word	IntDefaultHandler
 335              		.cfi_endproc
 336              	.LFE4:
 337              		.size	swint_Stop, .-swint_Stop
 338              		.section	.text.swint_SetPending,"ax",%progbits
 339              		.align	2
 340              		.global	swint_SetPending
 341              		.code	16
 342              		.thumb_func
 343              		.type	swint_SetPending, %function
 344              	swint_SetPending:
 345              	.LFB13:
 351:.\Generated_Source\PSoC4/swint.c **** 
 352:.\Generated_Source\PSoC4/swint.c **** 
 353:.\Generated_Source\PSoC4/swint.c **** /*******************************************************************************
 354:.\Generated_Source\PSoC4/swint.c **** * Function Name: swint_SetPending
 355:.\Generated_Source\PSoC4/swint.c **** ********************************************************************************
 356:.\Generated_Source\PSoC4/swint.c **** *
 357:.\Generated_Source\PSoC4/swint.c **** * Summary:
 358:.\Generated_Source\PSoC4/swint.c **** *   Causes the Interrupt to enter the pending state, a software method of
 359:.\Generated_Source\PSoC4/swint.c **** *   generating the interrupt.
 360:.\Generated_Source\PSoC4/swint.c **** *
 361:.\Generated_Source\PSoC4/swint.c **** * Parameters:
 362:.\Generated_Source\PSoC4/swint.c **** *   None
 363:.\Generated_Source\PSoC4/swint.c **** *
 364:.\Generated_Source\PSoC4/swint.c **** * Return:
 365:.\Generated_Source\PSoC4/swint.c **** *   None
 366:.\Generated_Source\PSoC4/swint.c **** *
 367:.\Generated_Source\PSoC4/swint.c **** * Side Effects:
 368:.\Generated_Source\PSoC4/swint.c **** *   If interrupts are enabled and the interrupt is set up properly, the ISR is
 369:.\Generated_Source\PSoC4/swint.c **** *   entered (depending on the priority of this interrupt and other pending 
 370:.\Generated_Source\PSoC4/swint.c **** *   interrupts).
 371:.\Generated_Source\PSoC4/swint.c **** *
 372:.\Generated_Source\PSoC4/swint.c **** *******************************************************************************/
 373:.\Generated_Source\PSoC4/swint.c **** void swint_SetPending(void)
 374:.\Generated_Source\PSoC4/swint.c **** {
 346              		.loc 1 374 0
 347              		.cfi_startproc
 375:.\Generated_Source\PSoC4/swint.c ****     *swint_INTC_SET_PD = swint__INTC_MASK;
 348              		.loc 1 375 0
 349 0000 0422     		mov	r2, #4
ARM GAS  C:\Users\Alan\AppData\Local\Temp\ccMlqGx9.s 			page 14


 350 0002 014B     		ldr	r3, .L33
 351 0004 1A60     		str	r2, [r3]
 376:.\Generated_Source\PSoC4/swint.c **** }
 352              		.loc 1 376 0
 353              		@ sp needed
 354 0006 7047     		bx	lr
 355              	.L34:
 356              		.align	2
 357              	.L33:
 358 0008 00E200E0 		.word	-536813056
 359              		.cfi_endproc
 360              	.LFE13:
 361              		.size	swint_SetPending, .-swint_SetPending
 362              		.section	.text.swint_ClearPending,"ax",%progbits
 363              		.align	2
 364              		.global	swint_ClearPending
 365              		.code	16
 366              		.thumb_func
 367              		.type	swint_ClearPending, %function
 368              	swint_ClearPending:
 369              	.LFB14:
 377:.\Generated_Source\PSoC4/swint.c **** 
 378:.\Generated_Source\PSoC4/swint.c **** 
 379:.\Generated_Source\PSoC4/swint.c **** /*******************************************************************************
 380:.\Generated_Source\PSoC4/swint.c **** * Function Name: swint_ClearPending
 381:.\Generated_Source\PSoC4/swint.c **** ********************************************************************************
 382:.\Generated_Source\PSoC4/swint.c **** *
 383:.\Generated_Source\PSoC4/swint.c **** * Summary:
 384:.\Generated_Source\PSoC4/swint.c **** *   Clears a pending interrupt in the interrupt controller.
 385:.\Generated_Source\PSoC4/swint.c **** *
 386:.\Generated_Source\PSoC4/swint.c **** *   Note Some interrupt sources are clear-on-read and require the block 
 387:.\Generated_Source\PSoC4/swint.c **** *   interrupt/status register to be read/cleared with the appropriate block API 
 388:.\Generated_Source\PSoC4/swint.c **** *   (GPIO, UART, and so on). Otherwise the ISR will continue to remain in 
 389:.\Generated_Source\PSoC4/swint.c **** *   pending state even though the interrupt itself is cleared using this API.
 390:.\Generated_Source\PSoC4/swint.c **** *
 391:.\Generated_Source\PSoC4/swint.c **** * Parameters:
 392:.\Generated_Source\PSoC4/swint.c **** *   None
 393:.\Generated_Source\PSoC4/swint.c **** *
 394:.\Generated_Source\PSoC4/swint.c **** * Return:
 395:.\Generated_Source\PSoC4/swint.c **** *   None
 396:.\Generated_Source\PSoC4/swint.c **** *
 397:.\Generated_Source\PSoC4/swint.c **** *******************************************************************************/
 398:.\Generated_Source\PSoC4/swint.c **** void swint_ClearPending(void)
 399:.\Generated_Source\PSoC4/swint.c **** {
 370              		.loc 1 399 0
 371              		.cfi_startproc
 400:.\Generated_Source\PSoC4/swint.c ****     *swint_INTC_CLR_PD = swint__INTC_MASK;
 372              		.loc 1 400 0
 373 0000 0422     		mov	r2, #4
 374 0002 014B     		ldr	r3, .L36
 375 0004 1A60     		str	r2, [r3]
 401:.\Generated_Source\PSoC4/swint.c **** }
 376              		.loc 1 401 0
 377              		@ sp needed
 378 0006 7047     		bx	lr
 379              	.L37:
 380              		.align	2
ARM GAS  C:\Users\Alan\AppData\Local\Temp\ccMlqGx9.s 			page 15


 381              	.L36:
 382 0008 80E200E0 		.word	-536812928
 383              		.cfi_endproc
 384              	.LFE14:
 385              		.size	swint_ClearPending, .-swint_ClearPending
 386              		.text
 387              	.Letext0:
 388              		.file 2 "Generated_Source\\PSoC4/cytypes.h"
 389              		.file 3 "Generated_Source\\PSoC4/CyLib.h"