ARM GAS  C:\Users\Alan\AppData\Local\Temp\ccih7e8i.s 			page 1


   1              		.cpu cortex-m0
   2              		.fpu softvfp
   3              		.eabi_attribute 20, 1
   4              		.eabi_attribute 21, 1
   5              		.eabi_attribute 23, 3
   6              		.eabi_attribute 24, 1
   7              		.eabi_attribute 25, 1
   8              		.eabi_attribute 26, 1
   9              		.eabi_attribute 30, 1
  10              		.eabi_attribute 34, 0
  11              		.eabi_attribute 18, 4
  12              		.code	16
  13              		.file	"ble.c"
  14              		.text
  15              	.Ltext0:
  16              		.cfi_sections	.debug_frame
  17              		.section	.text.CyBle_ChangeAdLocalName,"ax",%progbits
  18              		.align	2
  19              		.code	16
  20              		.thumb_func
  21              		.type	CyBle_ChangeAdLocalName, %function
  22              	CyBle_ChangeAdLocalName:
  23              	.LFB10:
  24              		.file 1 ".\\Generated_Source\\PSoC4\\ble.c"
   1:.\Generated_Source\PSoC4/ble.c **** /***************************************************************************//**
   2:.\Generated_Source\PSoC4/ble.c **** * \file CYBLE.c
   3:.\Generated_Source\PSoC4/ble.c **** * \version 2.30
   4:.\Generated_Source\PSoC4/ble.c **** * 
   5:.\Generated_Source\PSoC4/ble.c **** * \brief
   6:.\Generated_Source\PSoC4/ble.c **** *  This file contains the source code for the Common APIs of the BLE Component.
   7:.\Generated_Source\PSoC4/ble.c **** * 
   8:.\Generated_Source\PSoC4/ble.c **** ********************************************************************************
   9:.\Generated_Source\PSoC4/ble.c **** * \copyright
  10:.\Generated_Source\PSoC4/ble.c **** * Copyright 2014-2015, Cypress Semiconductor Corporation.  All rights reserved.
  11:.\Generated_Source\PSoC4/ble.c **** * You may use this file only in accordance with the license, terms, conditions,
  12:.\Generated_Source\PSoC4/ble.c **** * disclaimers, and limitations in the end user license agreement accompanying
  13:.\Generated_Source\PSoC4/ble.c **** * the software package with which this file was provided.
  14:.\Generated_Source\PSoC4/ble.c **** *******************************************************************************/
  15:.\Generated_Source\PSoC4/ble.c **** 
  16:.\Generated_Source\PSoC4/ble.c **** #include "BLE_eventHandler.h"
  17:.\Generated_Source\PSoC4/ble.c **** #include "BLE_HAL_PVT.h"
  18:.\Generated_Source\PSoC4/ble.c **** #include <stdlib.h>
  19:.\Generated_Source\PSoC4/ble.c **** 
  20:.\Generated_Source\PSoC4/ble.c **** 
  21:.\Generated_Source\PSoC4/ble.c **** /***************************************
  22:.\Generated_Source\PSoC4/ble.c **** * Function Prototypes
  23:.\Generated_Source\PSoC4/ble.c **** ***************************************/
  24:.\Generated_Source\PSoC4/ble.c **** 
  25:.\Generated_Source\PSoC4/ble.c **** #if(CYBLE_GATT_ROLE_SERVER)
  26:.\Generated_Source\PSoC4/ble.c ****     #if(CYBLE_GAP_ROLE_PERIPHERAL)
  27:.\Generated_Source\PSoC4/ble.c ****         static void CyBle_ChangeAdLocalName(const char8 name[], uint8 dest);
  28:.\Generated_Source\PSoC4/ble.c ****     #endif /* (CYBLE_GAP_ROLE_PERIPHERAL) */
  29:.\Generated_Source\PSoC4/ble.c **** #endif /* (CYBLE_GATT_ROLE_SERVER) */
  30:.\Generated_Source\PSoC4/ble.c ****     
  31:.\Generated_Source\PSoC4/ble.c **** 
  32:.\Generated_Source\PSoC4/ble.c **** /***************************************
  33:.\Generated_Source\PSoC4/ble.c **** * Global Variables
ARM GAS  C:\Users\Alan\AppData\Local\Temp\ccih7e8i.s 			page 2


  34:.\Generated_Source\PSoC4/ble.c **** ***************************************/
  35:.\Generated_Source\PSoC4/ble.c **** 
  36:.\Generated_Source\PSoC4/ble.c **** /* Indicates whether the BLE has been initialized. The variable is initialized to
  37:.\Generated_Source\PSoC4/ble.c ****    0 and set to 1 the first time CyBle_Start() is called. This allows the component
  38:.\Generated_Source\PSoC4/ble.c ****    to restart without reinitialization after the first call to the CyBle_Start() 
  39:.\Generated_Source\PSoC4/ble.c ****    routine. If reinitialization of the component is required, the variable should 
  40:.\Generated_Source\PSoC4/ble.c ****    be set to 0 before the CyBle_Start() routine is called. Alternatively, the BLE
  41:.\Generated_Source\PSoC4/ble.c ****    can be reinitialized by calling the CyBle_Init() function.
  42:.\Generated_Source\PSoC4/ble.c **** */
  43:.\Generated_Source\PSoC4/ble.c **** uint8  cyBle_initVar = 0u;
  44:.\Generated_Source\PSoC4/ble.c **** 
  45:.\Generated_Source\PSoC4/ble.c **** /* Allocate RAM memory for stack. This buffer could be reused by application when 
  46:.\Generated_Source\PSoC4/ble.c ****    BLE component is stopped. For export mode buffer is allocated in heap.
  47:.\Generated_Source\PSoC4/ble.c **** */
  48:.\Generated_Source\PSoC4/ble.c **** #if(CYBLE_SHARING_MODE_EXPORT)
  49:.\Generated_Source\PSoC4/ble.c ****     
  50:.\Generated_Source\PSoC4/ble.c **** uint8 *cyBle_stackMemoryRam = NULL;
  51:.\Generated_Source\PSoC4/ble.c **** 
  52:.\Generated_Source\PSoC4/ble.c **** #else
  53:.\Generated_Source\PSoC4/ble.c **** 
  54:.\Generated_Source\PSoC4/ble.c **** CYBLE_CYALIGNED_BEGIN uint8 cyBle_stackMemoryRam[CYBLE_STACK_RAM_SIZE] CYBLE_CYALIGNED_END;
  55:.\Generated_Source\PSoC4/ble.c **** 
  56:.\Generated_Source\PSoC4/ble.c **** #endif  /* CYBLE_SHARING_MODE_EXPORT */
  57:.\Generated_Source\PSoC4/ble.c **** 
  58:.\Generated_Source\PSoC4/ble.c **** #if(CYBLE_GAP_ROLE_PERIPHERAL || CYBLE_GAP_ROLE_BROADCASTER)
  59:.\Generated_Source\PSoC4/ble.c **** 
  60:.\Generated_Source\PSoC4/ble.c **** CYBLE_GAPP_DISC_PARAM_T cyBle_discoveryParam =
  61:.\Generated_Source\PSoC4/ble.c **** {
  62:.\Generated_Source\PSoC4/ble.c ****     0x0020u,    /* uint16 advertising_interval_min */
  63:.\Generated_Source\PSoC4/ble.c ****     0x0030u,    /* uint16 advertising_interval_max */
  64:.\Generated_Source\PSoC4/ble.c ****     CYBLE_GAPP_CONNECTABLE_UNDIRECTED_ADV, /* uint8 advertising_type */
  65:.\Generated_Source\PSoC4/ble.c ****     0x00u,      /* uint8 own_addr_type */
  66:.\Generated_Source\PSoC4/ble.c ****     0x00u,      /* uint8 direct_addr_type */
  67:.\Generated_Source\PSoC4/ble.c ****     {0x00u, 0x00u, 0x00u, 0x50u, 0xA0u, 0x00u}, /* uint8* direct_addr */
  68:.\Generated_Source\PSoC4/ble.c ****     0x07u,      /* uint8 advertising_channel_map */
  69:.\Generated_Source\PSoC4/ble.c ****     0x00u,      /* uint8 advertising_filter_policy */
  70:.\Generated_Source\PSoC4/ble.c **** };
  71:.\Generated_Source\PSoC4/ble.c **** 
  72:.\Generated_Source\PSoC4/ble.c **** CYBLE_GAPP_DISC_DATA_T cyBle_discoveryData =
  73:.\Generated_Source\PSoC4/ble.c **** {
  74:.\Generated_Source\PSoC4/ble.c ****     { 0x02u, 0x01u, 0x06u, 0x06u, 0x09u, 0x52u, 0x6Fu,
  75:.\Generated_Source\PSoC4/ble.c ****     0x62u, 0x6Fu, 0x74u, 0x11u, 0x07u, 0xF0u, 0x34u, 0x9Bu,
  76:.\Generated_Source\PSoC4/ble.c ****     0x5Fu, 0x80u, 0x00u, 0x00u, 0x80u, 0x00u, 0x10u, 0x00u,
  77:.\Generated_Source\PSoC4/ble.c ****     0x00u, 0x00u, 0x00u, 0x00u, 0x00u, 0x00u, 0x00u, 0x00u }, /* uint8 advertising_data[CYBLE_MAX_A
  78:.\Generated_Source\PSoC4/ble.c ****     0x1Cu,      /* uint8 adv_data_length */
  79:.\Generated_Source\PSoC4/ble.c **** };
  80:.\Generated_Source\PSoC4/ble.c **** 
  81:.\Generated_Source\PSoC4/ble.c **** CYBLE_GAPP_SCAN_RSP_DATA_T cyBle_scanRspData =
  82:.\Generated_Source\PSoC4/ble.c **** {
  83:.\Generated_Source\PSoC4/ble.c ****     { 0x00u, 0x00u, 0x00u, 0x00u, 0x00u, 0x00u, 0x00u,
  84:.\Generated_Source\PSoC4/ble.c ****     0x00u, 0x00u, 0x00u, 0x00u, 0x00u, 0x00u, 0x00u, 0x00u,
  85:.\Generated_Source\PSoC4/ble.c ****     0x00u, 0x00u, 0x00u, 0x00u, 0x00u, 0x00u, 0x00u, 0x00u,
  86:.\Generated_Source\PSoC4/ble.c ****     0x00u, 0x00u, 0x00u, 0x00u, 0x00u, 0x00u, 0x00u, 0x00u }, /* uint8 scan_rsp_data[CYBLE_MAX_SCAN
  87:.\Generated_Source\PSoC4/ble.c ****     0x00u,      /* uint8 scan_rsp_data_length */
  88:.\Generated_Source\PSoC4/ble.c **** };
  89:.\Generated_Source\PSoC4/ble.c **** 
  90:.\Generated_Source\PSoC4/ble.c **** /* This variable of type CYBLE_GAPP_DISC_MODE_INFO_T is present only when 
ARM GAS  C:\Users\Alan\AppData\Local\Temp\ccih7e8i.s 			page 3


  91:.\Generated_Source\PSoC4/ble.c ****    the BLE component is configured for Peripheral GAP role or Central and 
  92:.\Generated_Source\PSoC4/ble.c ****    Peripheral GAP role. It contains the Advertisement settings and also the 
  93:.\Generated_Source\PSoC4/ble.c ****    Advertisement and Scan response data parameters entered in the customizer.
  94:.\Generated_Source\PSoC4/ble.c ****    This variable can be used by advanced users to change Advertisement settings,
  95:.\Generated_Source\PSoC4/ble.c ****    Advertisement or Scan response data in runtime. 
  96:.\Generated_Source\PSoC4/ble.c **** */
  97:.\Generated_Source\PSoC4/ble.c **** CYBLE_GAPP_DISC_MODE_INFO_T cyBle_discoveryModeInfo =
  98:.\Generated_Source\PSoC4/ble.c **** {
  99:.\Generated_Source\PSoC4/ble.c ****     0x02u,      /* uint8 discMode */
 100:.\Generated_Source\PSoC4/ble.c ****     &cyBle_discoveryParam,
 101:.\Generated_Source\PSoC4/ble.c ****     &cyBle_discoveryData,
 102:.\Generated_Source\PSoC4/ble.c ****     &cyBle_scanRspData,
 103:.\Generated_Source\PSoC4/ble.c ****     0x0000u,    /* uint16 advTo */
 104:.\Generated_Source\PSoC4/ble.c **** };
 105:.\Generated_Source\PSoC4/ble.c **** 
 106:.\Generated_Source\PSoC4/ble.c **** 
 107:.\Generated_Source\PSoC4/ble.c **** #endif /* CYBLE_GAP_ROLE_PERIPHERAL || CYBLE_GAP_ROLE_BROADCASTER */
 108:.\Generated_Source\PSoC4/ble.c **** 
 109:.\Generated_Source\PSoC4/ble.c **** #if(CYBLE_GAP_ROLE_CENTRAL)
 110:.\Generated_Source\PSoC4/ble.c ****     
 111:.\Generated_Source\PSoC4/ble.c **** CYBLE_GAPC_CONN_PARAM_T cyBle_connectionParameters;
 112:.\Generated_Source\PSoC4/ble.c **** 
 113:.\Generated_Source\PSoC4/ble.c **** /* Connecting timeout is set to 30 seconds in CyBle_Init function. 
 114:.\Generated_Source\PSoC4/ble.c ****    Not zero value starts timer in CyBle_GapcConnectDevice API.
 115:.\Generated_Source\PSoC4/ble.c **** */
 116:.\Generated_Source\PSoC4/ble.c **** uint16 cyBle_connectingTimeout;
 117:.\Generated_Source\PSoC4/ble.c ****     
 118:.\Generated_Source\PSoC4/ble.c **** #endif /* CYBLE_GAP_ROLE_CENTRAL */
 119:.\Generated_Source\PSoC4/ble.c **** 
 120:.\Generated_Source\PSoC4/ble.c **** #if(CYBLE_GAP_ROLE_CENTRAL || CYBLE_GAP_ROLE_OBSERVER)
 121:.\Generated_Source\PSoC4/ble.c ****     
 122:.\Generated_Source\PSoC4/ble.c **** 
 123:.\Generated_Source\PSoC4/ble.c ****     
 124:.\Generated_Source\PSoC4/ble.c **** #endif /* CYBLE_GAP_ROLE_CENTRAL || CYBLE_GAP_ROLE_OBSERVER */
 125:.\Generated_Source\PSoC4/ble.c **** 
 126:.\Generated_Source\PSoC4/ble.c **** #if((CYBLE_GAP_ROLE_PERIPHERAL || CYBLE_GAP_ROLE_CENTRAL) && (CYBLE_BONDING_REQUIREMENT == CYBLE_BO
 127:.\Generated_Source\PSoC4/ble.c **** 
 128:.\Generated_Source\PSoC4/ble.c **** uint8 cyBle_peerBonding;
 129:.\Generated_Source\PSoC4/ble.c **** uint8 cyBle_pendingFlashWrite;
 130:.\Generated_Source\PSoC4/ble.c ****     
 131:.\Generated_Source\PSoC4/ble.c **** #endif  /* (CYBLE_BONDING_REQUIREMENT == CYBLE_BONDING_YES) */
 132:.\Generated_Source\PSoC4/ble.c **** 
 133:.\Generated_Source\PSoC4/ble.c **** CYBLE_CALLBACK_T CyBle_ApplCallback;
 134:.\Generated_Source\PSoC4/ble.c **** CYBLE_GAP_BD_ADDR_T cyBle_deviceAddress = {{0x00u, 0x00u, 0x00u, 0x50u, 0xA0u, 0x00u}, 0x00u };
 135:.\Generated_Source\PSoC4/ble.c **** CYBLE_GAP_BD_ADDR_T * cyBle_sflashDeviceAddress = CYBLE_SFLASH_DEVICE_ADDRESS_PTR;
 136:.\Generated_Source\PSoC4/ble.c **** 
 137:.\Generated_Source\PSoC4/ble.c **** #if(CYBLE_MODE_PROFILE)
 138:.\Generated_Source\PSoC4/ble.c ****     #if defined(__ARMCC_VERSION)
 139:.\Generated_Source\PSoC4/ble.c ****         CY_ALIGN(CYDEV_FLS_ROW_SIZE) const uint8 cyBle_StackFlashptr[CYBLE_STACK_FLASH_SIZE] = {0u}
 140:.\Generated_Source\PSoC4/ble.c ****     #elif defined (__GNUC__)
 141:.\Generated_Source\PSoC4/ble.c ****         const uint8 cyBle_StackFlashptr[CYBLE_STACK_FLASH_SIZE] CY_ALIGN(CYDEV_FLS_ROW_SIZE) = {0u}
 142:.\Generated_Source\PSoC4/ble.c ****     #elif defined (__ICCARM__)
 143:.\Generated_Source\PSoC4/ble.c ****         #pragma data_alignment=CY_FLASH_SIZEOF_ROW
 144:.\Generated_Source\PSoC4/ble.c ****         const uint8 cyBle_StackFlashptr[CYBLE_STACK_FLASH_SIZE] = {0u};
 145:.\Generated_Source\PSoC4/ble.c ****     #endif  /* (__ARMCC_VERSION) */
 146:.\Generated_Source\PSoC4/ble.c **** #endif /* (CYBLE_MODE_PROFILE) */
 147:.\Generated_Source\PSoC4/ble.c **** 
ARM GAS  C:\Users\Alan\AppData\Local\Temp\ccih7e8i.s 			page 4


 148:.\Generated_Source\PSoC4/ble.c **** 
 149:.\Generated_Source\PSoC4/ble.c **** /******************************************************************************
 150:.\Generated_Source\PSoC4/ble.c **** * Function Name: CyBle_Init
 151:.\Generated_Source\PSoC4/ble.c **** ***************************************************************************//**
 152:.\Generated_Source\PSoC4/ble.c **** *
 153:.\Generated_Source\PSoC4/ble.c **** *   Initializes the component with the parameters set in the customizer.
 154:.\Generated_Source\PSoC4/ble.c **** * 
 155:.\Generated_Source\PSoC4/ble.c **** *  \return
 156:.\Generated_Source\PSoC4/ble.c **** *   None
 157:.\Generated_Source\PSoC4/ble.c **** * 
 158:.\Generated_Source\PSoC4/ble.c **** ******************************************************************************/
 159:.\Generated_Source\PSoC4/ble.c **** void CyBle_Init(void)
 160:.\Generated_Source\PSoC4/ble.c **** {
 161:.\Generated_Source\PSoC4/ble.c ****     cyBle_eventHandlerFlag = 0u;
 162:.\Generated_Source\PSoC4/ble.c ****     cyBle_busyStatus = CYBLE_STACK_STATE_FREE;
 163:.\Generated_Source\PSoC4/ble.c **** 
 164:.\Generated_Source\PSoC4/ble.c ****     #if(CYBLE_GAP_ROLE_PERIPHERAL || CYBLE_GAP_ROLE_BROADCASTER) 
 165:.\Generated_Source\PSoC4/ble.c ****         cyBle_advertisingIntervalType = CYBLE_ADVERTISING_FAST; 
 166:.\Generated_Source\PSoC4/ble.c ****     #endif /* (CYBLE_GAP_ROLE_PERIPHERAL || CYBLE_GAP_ROLE_BROADCASTER)  */
 167:.\Generated_Source\PSoC4/ble.c ****     #if(CYBLE_GAP_ROLE_CENTRAL || CYBLE_GAP_ROLE_OBSERVER)
 168:.\Generated_Source\PSoC4/ble.c ****         cyBle_scanningIntervalType = CYBLE_SCANNING_FAST; 
 169:.\Generated_Source\PSoC4/ble.c ****     #endif /* (CYBLE_GAP_ROLE_CENTRAL || CYBLE_GAP_ROLE_OBSERVER) */
 170:.\Generated_Source\PSoC4/ble.c ****         
 171:.\Generated_Source\PSoC4/ble.c ****     /* Init default connection parameters. 
 172:.\Generated_Source\PSoC4/ble.c ****        Application may change it before initiating a connection */
 173:.\Generated_Source\PSoC4/ble.c ****     #if(CYBLE_GAP_ROLE_CENTRAL)
 174:.\Generated_Source\PSoC4/ble.c ****         cyBle_connectionParameters.scanIntv = cyBle_discoveryInfo.scanIntv;
 175:.\Generated_Source\PSoC4/ble.c ****         cyBle_connectionParameters.scanWindow = cyBle_discoveryInfo.scanWindow;
 176:.\Generated_Source\PSoC4/ble.c ****         cyBle_connectionParameters.ownAddrType = cyBle_discoveryInfo.ownAddrType;
 177:.\Generated_Source\PSoC4/ble.c ****         cyBle_connectionParameters.initiatorFilterPolicy = cyBle_discoveryInfo.scanFilterPolicy;
 178:.\Generated_Source\PSoC4/ble.c ****         cyBle_connectionParameters.connIntvMin = CYBLE_GAPC_CONNECTION_INTERVAL_MIN;
 179:.\Generated_Source\PSoC4/ble.c ****         cyBle_connectionParameters.connIntvMax = CYBLE_GAPC_CONNECTION_INTERVAL_MAX;
 180:.\Generated_Source\PSoC4/ble.c ****         cyBle_connectionParameters.connLatency = CYBLE_GAPC_CONNECTION_SLAVE_LATENCY;
 181:.\Generated_Source\PSoC4/ble.c ****         cyBle_connectionParameters.supervisionTO = CYBLE_GAPC_CONNECTION_TIME_OUT;
 182:.\Generated_Source\PSoC4/ble.c ****         cyBle_connectionParameters.minCeLength = 0x0000u;
 183:.\Generated_Source\PSoC4/ble.c ****         cyBle_connectionParameters.maxCeLength = 0xFFFFu;
 184:.\Generated_Source\PSoC4/ble.c ****         
 185:.\Generated_Source\PSoC4/ble.c ****         cyBle_connectingTimeout = CYBLE_GAPC_CONNECTING_TIMEOUT;
 186:.\Generated_Source\PSoC4/ble.c ****     #endif /* CYBLE_GAP_ROLE_CENTRAL */
 187:.\Generated_Source\PSoC4/ble.c **** 
 188:.\Generated_Source\PSoC4/ble.c ****     CyBle_ServiceInit();
 189:.\Generated_Source\PSoC4/ble.c **** 
 190:.\Generated_Source\PSoC4/ble.c ****     #if((CYBLE_GAP_ROLE_PERIPHERAL || CYBLE_GAP_ROLE_CENTRAL) && (CYBLE_BONDING_REQUIREMENT == CYBL
 191:.\Generated_Source\PSoC4/ble.c ****         cyBle_pendingFlashWrite = 0u;
 192:.\Generated_Source\PSoC4/ble.c ****         cyBle_peerBonding = CYBLE_GAP_BONDING_NONE;
 193:.\Generated_Source\PSoC4/ble.c ****     #endif  /* (CYBLE_BONDING_REQUIREMENT == CYBLE_BONDING_YES) */
 194:.\Generated_Source\PSoC4/ble.c **** 
 195:.\Generated_Source\PSoC4/ble.c **** }
 196:.\Generated_Source\PSoC4/ble.c **** 
 197:.\Generated_Source\PSoC4/ble.c **** 
 198:.\Generated_Source\PSoC4/ble.c **** /******************************************************************************
 199:.\Generated_Source\PSoC4/ble.c **** * Function Name: CyBle_ServiceInit
 200:.\Generated_Source\PSoC4/ble.c **** ***************************************************************************//**
 201:.\Generated_Source\PSoC4/ble.c **** * 
 202:.\Generated_Source\PSoC4/ble.c **** *  Initializes all included services.
 203:.\Generated_Source\PSoC4/ble.c **** * 
 204:.\Generated_Source\PSoC4/ble.c **** * \return
ARM GAS  C:\Users\Alan\AppData\Local\Temp\ccih7e8i.s 			page 5


 205:.\Generated_Source\PSoC4/ble.c **** *  None
 206:.\Generated_Source\PSoC4/ble.c **** * 
 207:.\Generated_Source\PSoC4/ble.c **** ******************************************************************************/
 208:.\Generated_Source\PSoC4/ble.c **** void CyBle_ServiceInit(void)
 209:.\Generated_Source\PSoC4/ble.c **** {
 210:.\Generated_Source\PSoC4/ble.c ****     #if(CYBLE_GATT_ROLE_CLIENT)
 211:.\Generated_Source\PSoC4/ble.c ****         (void)memset(&cyBle_gapc, 0, sizeof(cyBle_gapc));
 212:.\Generated_Source\PSoC4/ble.c ****         (void)memset(&cyBle_gattc, 0, sizeof(cyBle_gattc));
 213:.\Generated_Source\PSoC4/ble.c ****     #endif /* CYBLE_GATT_ROLE_CLIENT */
 214:.\Generated_Source\PSoC4/ble.c ****     
 215:.\Generated_Source\PSoC4/ble.c **** 	#ifdef CYBLE_ANCS
 216:.\Generated_Source\PSoC4/ble.c ****         CyBle_AncsInit();
 217:.\Generated_Source\PSoC4/ble.c ****     #endif /* CYBLE_ANCS */
 218:.\Generated_Source\PSoC4/ble.c **** 	
 219:.\Generated_Source\PSoC4/ble.c ****     #ifdef CYBLE_ANS
 220:.\Generated_Source\PSoC4/ble.c ****         CyBle_AnsInit();
 221:.\Generated_Source\PSoC4/ble.c ****     #endif /* CYBLE_ANS */
 222:.\Generated_Source\PSoC4/ble.c ****     
 223:.\Generated_Source\PSoC4/ble.c ****     #ifdef CYBLE_BAS
 224:.\Generated_Source\PSoC4/ble.c ****         CyBle_BasInit();
 225:.\Generated_Source\PSoC4/ble.c ****     #endif /* CYBLE_BAS */
 226:.\Generated_Source\PSoC4/ble.c ****     
 227:.\Generated_Source\PSoC4/ble.c ****     #ifdef CYBLE_BLS
 228:.\Generated_Source\PSoC4/ble.c ****         CyBle_BlsInit();
 229:.\Generated_Source\PSoC4/ble.c ****     #endif /* CYBLE_BLS */
 230:.\Generated_Source\PSoC4/ble.c ****     
 231:.\Generated_Source\PSoC4/ble.c ****     #ifdef CYBLE_BMS
 232:.\Generated_Source\PSoC4/ble.c ****         CyBle_BmsInit();
 233:.\Generated_Source\PSoC4/ble.c ****     #endif /* CYBLE_BMS */
 234:.\Generated_Source\PSoC4/ble.c ****     
 235:.\Generated_Source\PSoC4/ble.c ****     #ifdef CYBLE_CGMS
 236:.\Generated_Source\PSoC4/ble.c ****         CyBle_CgmsInit();
 237:.\Generated_Source\PSoC4/ble.c ****     #endif /* CYBLE_CGMS */
 238:.\Generated_Source\PSoC4/ble.c **** 
 239:.\Generated_Source\PSoC4/ble.c ****     #ifdef CYBLE_CPS
 240:.\Generated_Source\PSoC4/ble.c ****         CyBle_CpsInit();
 241:.\Generated_Source\PSoC4/ble.c ****     #endif /* CYBLE_CPS */
 242:.\Generated_Source\PSoC4/ble.c **** 
 243:.\Generated_Source\PSoC4/ble.c ****     #ifdef CYBLE_CSCS
 244:.\Generated_Source\PSoC4/ble.c ****         CyBle_CscsInit();
 245:.\Generated_Source\PSoC4/ble.c ****     #endif /* CYBLE_CSCS */
 246:.\Generated_Source\PSoC4/ble.c ****     
 247:.\Generated_Source\PSoC4/ble.c ****     #ifdef CYBLE_CTS
 248:.\Generated_Source\PSoC4/ble.c ****         CyBle_CtsInit();
 249:.\Generated_Source\PSoC4/ble.c ****     #endif /* CYBLE_CTS */
 250:.\Generated_Source\PSoC4/ble.c **** 
 251:.\Generated_Source\PSoC4/ble.c ****     #ifdef CYBLE_DIS
 252:.\Generated_Source\PSoC4/ble.c ****         CyBle_DisInit();
 253:.\Generated_Source\PSoC4/ble.c ****     #endif /* CYBLE_DIS */
 254:.\Generated_Source\PSoC4/ble.c **** 
 255:.\Generated_Source\PSoC4/ble.c ****     #ifdef CYBLE_ESS
 256:.\Generated_Source\PSoC4/ble.c ****         CyBle_EssInit();
 257:.\Generated_Source\PSoC4/ble.c ****     #endif /* CYBLE_ESS */
 258:.\Generated_Source\PSoC4/ble.c ****     
 259:.\Generated_Source\PSoC4/ble.c ****     #ifdef CYBLE_GLS
 260:.\Generated_Source\PSoC4/ble.c ****         CyBle_GlsInit();
 261:.\Generated_Source\PSoC4/ble.c ****     #endif /* CYBLE_GLS */
ARM GAS  C:\Users\Alan\AppData\Local\Temp\ccih7e8i.s 			page 6


 262:.\Generated_Source\PSoC4/ble.c ****     
 263:.\Generated_Source\PSoC4/ble.c ****     #ifdef CYBLE_CUSTOM
 264:.\Generated_Source\PSoC4/ble.c ****         CyBle_CustomInit();
 265:.\Generated_Source\PSoC4/ble.c ****     #endif /* CYBLE_CUSTOM */
 266:.\Generated_Source\PSoC4/ble.c **** 
 267:.\Generated_Source\PSoC4/ble.c ****     #ifdef CYBLE_HIDS
 268:.\Generated_Source\PSoC4/ble.c ****         CyBle_HidsInit();
 269:.\Generated_Source\PSoC4/ble.c ****     #endif /* CYBLE_HIDS */
 270:.\Generated_Source\PSoC4/ble.c **** 
 271:.\Generated_Source\PSoC4/ble.c ****     #ifdef CYBLE_HRS
 272:.\Generated_Source\PSoC4/ble.c ****         CyBle_HrsInit();
 273:.\Generated_Source\PSoC4/ble.c ****     #endif /* CYBLE_HRS */
 274:.\Generated_Source\PSoC4/ble.c ****     
 275:.\Generated_Source\PSoC4/ble.c ****     #ifdef CYBLE_HTS
 276:.\Generated_Source\PSoC4/ble.c ****         CyBle_HtsInit();
 277:.\Generated_Source\PSoC4/ble.c ****     #endif /* CYBLE_RSCS */
 278:.\Generated_Source\PSoC4/ble.c **** 
 279:.\Generated_Source\PSoC4/ble.c ****     #ifdef CYBLE_IAS
 280:.\Generated_Source\PSoC4/ble.c ****         CyBle_IasInit();
 281:.\Generated_Source\PSoC4/ble.c ****     #endif /* CYBLE_IAS */
 282:.\Generated_Source\PSoC4/ble.c **** 
 283:.\Generated_Source\PSoC4/ble.c ****     #ifdef CYBLE_LLS
 284:.\Generated_Source\PSoC4/ble.c ****         CyBle_LlsInit();
 285:.\Generated_Source\PSoC4/ble.c ****     #endif /* CYBLE_LLS */
 286:.\Generated_Source\PSoC4/ble.c **** 
 287:.\Generated_Source\PSoC4/ble.c ****     #ifdef CYBLE_RTUS
 288:.\Generated_Source\PSoC4/ble.c ****         CyBle_RtusInit();
 289:.\Generated_Source\PSoC4/ble.c ****     #endif /* CYBLE_RTUS */
 290:.\Generated_Source\PSoC4/ble.c **** 
 291:.\Generated_Source\PSoC4/ble.c ****     #ifdef CYBLE_LNS
 292:.\Generated_Source\PSoC4/ble.c ****         CyBle_LnsInit();
 293:.\Generated_Source\PSoC4/ble.c ****     #endif /* CYBLE_LNS */
 294:.\Generated_Source\PSoC4/ble.c ****     
 295:.\Generated_Source\PSoC4/ble.c ****     #ifdef CYBLE_PASS
 296:.\Generated_Source\PSoC4/ble.c ****         CyBle_PassInit();
 297:.\Generated_Source\PSoC4/ble.c ****     #endif /* CYBLE_PASS */
 298:.\Generated_Source\PSoC4/ble.c ****     
 299:.\Generated_Source\PSoC4/ble.c ****     #ifdef CYBLE_RSCS
 300:.\Generated_Source\PSoC4/ble.c ****         CyBle_RscsInit();
 301:.\Generated_Source\PSoC4/ble.c ****     #endif /* CYBLE_RSCS */
 302:.\Generated_Source\PSoC4/ble.c **** 
 303:.\Generated_Source\PSoC4/ble.c ****     #ifdef CYBLE_SCPS
 304:.\Generated_Source\PSoC4/ble.c ****         CyBle_ScpsInit();
 305:.\Generated_Source\PSoC4/ble.c ****     #endif /* CYBLE_SCPS */
 306:.\Generated_Source\PSoC4/ble.c ****     
 307:.\Generated_Source\PSoC4/ble.c ****     #ifdef CYBLE_TPS
 308:.\Generated_Source\PSoC4/ble.c ****         CyBle_TpsInit();
 309:.\Generated_Source\PSoC4/ble.c ****     #endif /* CYBLE_TPS */
 310:.\Generated_Source\PSoC4/ble.c ****     
 311:.\Generated_Source\PSoC4/ble.c ****     #ifdef CYBLE_UDS
 312:.\Generated_Source\PSoC4/ble.c ****         CyBle_UdsInit();
 313:.\Generated_Source\PSoC4/ble.c ****     #endif /* CYBLE_UDS */
 314:.\Generated_Source\PSoC4/ble.c **** 
 315:.\Generated_Source\PSoC4/ble.c ****     #ifdef CYBLE_WPTS
 316:.\Generated_Source\PSoC4/ble.c ****         CyBle_WptsInit();
 317:.\Generated_Source\PSoC4/ble.c ****     #endif /* CYBLE_WPTS */
 318:.\Generated_Source\PSoC4/ble.c **** 
ARM GAS  C:\Users\Alan\AppData\Local\Temp\ccih7e8i.s 			page 7


 319:.\Generated_Source\PSoC4/ble.c ****     #ifdef CYBLE_WSS
 320:.\Generated_Source\PSoC4/ble.c ****         CyBle_WssInit();
 321:.\Generated_Source\PSoC4/ble.c ****     #endif /* CYBLE_WSS */
 322:.\Generated_Source\PSoC4/ble.c **** }
 323:.\Generated_Source\PSoC4/ble.c **** 
 324:.\Generated_Source\PSoC4/ble.c **** 
 325:.\Generated_Source\PSoC4/ble.c **** /******************************************************************************
 326:.\Generated_Source\PSoC4/ble.c **** * Function Name: CyBle_Start
 327:.\Generated_Source\PSoC4/ble.c **** ***************************************************************************//**
 328:.\Generated_Source\PSoC4/ble.c **** * 
 329:.\Generated_Source\PSoC4/ble.c **** *  This function initializes the BLE Stack, which consists of the BLE Stack 
 330:.\Generated_Source\PSoC4/ble.c **** *  Manager, BLE Controller, and BLE Host modules. It takes care of initializing
 331:.\Generated_Source\PSoC4/ble.c **** *  the Profile layer, schedulers, Timer and other platform related
 332:.\Generated_Source\PSoC4/ble.c **** *  resources required for the BLE component. It also registers the callback 
 333:.\Generated_Source\PSoC4/ble.c **** *  function for BLE events that will be registered in the BLE stack.
 334:.\Generated_Source\PSoC4/ble.c **** * 
 335:.\Generated_Source\PSoC4/ble.c **** *  Note that this function does not reset the BLE Stack.
 336:.\Generated_Source\PSoC4/ble.c **** * 
 337:.\Generated_Source\PSoC4/ble.c **** *  For HCI-Mode of operation, this function will not initialize the BLE Host 
 338:.\Generated_Source\PSoC4/ble.c **** *  module.
 339:.\Generated_Source\PSoC4/ble.c **** * 
 340:.\Generated_Source\PSoC4/ble.c **** *  Calling this function results in the generation of CYBLE_EVT_STACK_ON event
 341:.\Generated_Source\PSoC4/ble.c **** *  on successful initialization of the BLE Stack.
 342:.\Generated_Source\PSoC4/ble.c **** * 
 343:.\Generated_Source\PSoC4/ble.c **** *  \param callbackFunc: Event callback function to receive events from BLE stack.
 344:.\Generated_Source\PSoC4/ble.c **** *   CYBLE_CALLBACK_T is a function pointer type.
 345:.\Generated_Source\PSoC4/ble.c **** * 
 346:.\Generated_Source\PSoC4/ble.c **** * \return
 347:.\Generated_Source\PSoC4/ble.c **** *  CYBLE_API_RESULT_T : Return value indicates if the function succeeded or 
 348:.\Generated_Source\PSoC4/ble.c **** *  failed. Following are the possible error codes.
 349:.\Generated_Source\PSoC4/ble.c **** * 
 350:.\Generated_Source\PSoC4/ble.c **** *   <table>
 351:.\Generated_Source\PSoC4/ble.c **** *  	  <tr>
 352:.\Generated_Source\PSoC4/ble.c **** *       <th>Error codes</th>
 353:.\Generated_Source\PSoC4/ble.c **** *       <th>Description</th>
 354:.\Generated_Source\PSoC4/ble.c **** *     </tr>
 355:.\Generated_Source\PSoC4/ble.c **** *     <tr>
 356:.\Generated_Source\PSoC4/ble.c **** *       <td>CYBLE_ERROR_OK</td>
 357:.\Generated_Source\PSoC4/ble.c **** *       <td>On successful operation.</td>
 358:.\Generated_Source\PSoC4/ble.c **** *     </tr>
 359:.\Generated_Source\PSoC4/ble.c **** *     <tr>
 360:.\Generated_Source\PSoC4/ble.c **** *       <td>CYBLE_ERROR_INVALID_PARAMETER</td>
 361:.\Generated_Source\PSoC4/ble.c **** *       <td>On passing a NULL pointer to the function when the BLE stack is not built in HCI mode. 
 362:.\Generated_Source\PSoC4/ble.c **** *			CYBLE_ERROR_INVALID_PARAMETER is never returned in HCI mode.</td>
 363:.\Generated_Source\PSoC4/ble.c **** *     </tr>
 364:.\Generated_Source\PSoC4/ble.c **** *     <tr>
 365:.\Generated_Source\PSoC4/ble.c **** *       <td>CYBLE_ERROR_REPEATED_ATTEMPTS</td>
 366:.\Generated_Source\PSoC4/ble.c **** *       <td>On invoking this function more than once without calling CyBle_Shutdown() 
 367:.\Generated_Source\PSoC4/ble.c **** *           function between calls to this function.</td>
 368:.\Generated_Source\PSoC4/ble.c **** *     </tr>
 369:.\Generated_Source\PSoC4/ble.c **** *     <tr>
 370:.\Generated_Source\PSoC4/ble.c **** *       <td>CYBLE_ERROR_MEMORY_ALLOCATION_FAILED</td>
 371:.\Generated_Source\PSoC4/ble.c **** *       <td>There is insufficient memory available.</td>
 372:.\Generated_Source\PSoC4/ble.c **** *     </tr>
 373:.\Generated_Source\PSoC4/ble.c **** *   </table>
 374:.\Generated_Source\PSoC4/ble.c **** * 
 375:.\Generated_Source\PSoC4/ble.c **** *  \globalvars
ARM GAS  C:\Users\Alan\AppData\Local\Temp\ccih7e8i.s 			page 8


 376:.\Generated_Source\PSoC4/ble.c **** *   The CyBle_initVar variable is used to indicate initial
 377:.\Generated_Source\PSoC4/ble.c **** *   configuration of this component. The variable is initialized to zero (0u)
 378:.\Generated_Source\PSoC4/ble.c **** *   and set to one (1u) the first time CyBle_Start() is called. This
 379:.\Generated_Source\PSoC4/ble.c **** *   allows for component initialization without re-initialization in all
 380:.\Generated_Source\PSoC4/ble.c **** *   subsequent calls to the CyBle_Start() routine.
 381:.\Generated_Source\PSoC4/ble.c **** * 
 382:.\Generated_Source\PSoC4/ble.c **** ******************************************************************************/
 383:.\Generated_Source\PSoC4/ble.c **** CYBLE_API_RESULT_T CyBle_Start(CYBLE_CALLBACK_T callbackFunc)
 384:.\Generated_Source\PSoC4/ble.c **** {
 385:.\Generated_Source\PSoC4/ble.c ****     CYBLE_API_RESULT_T apiResult = CYBLE_ERROR_OK;
 386:.\Generated_Source\PSoC4/ble.c ****     
 387:.\Generated_Source\PSoC4/ble.c ****     #if(CYBLE_MODE_PROFILE)
 388:.\Generated_Source\PSoC4/ble.c ****     
 389:.\Generated_Source\PSoC4/ble.c ****     CYBLE_STK_APP_DATA_BUFF_T cyBle_stackDataBuff[CYBLE_STACK_BUF_COUNT] = 
 390:.\Generated_Source\PSoC4/ble.c ****     {
 391:.\Generated_Source\PSoC4/ble.c ****         {CYBLE_GATT_MTU_PLUS_L2CAP_MEM_EXT, CYBLE_GATT_MTU_BUF_COUNT},
 392:.\Generated_Source\PSoC4/ble.c ****         {CYBLE_GATT_MAX_ATTR_LEN_PLUS_L2CAP_MEM_EXT, 1u},
 393:.\Generated_Source\PSoC4/ble.c ****         {CYBLE_L2CAP_PSM_PLUS_L2CAP_MEM_EXT, CYBLE_L2CAP_PSM_COUNT},
 394:.\Generated_Source\PSoC4/ble.c ****         {CYBLE_L2CAP_CBFC_PLUS_L2CAP_MEM_EXT, CYBLE_L2CAP_LOGICAL_CHANNEL_COUNT},
 395:.\Generated_Source\PSoC4/ble.c ****         {CYBLE_L2CAP_MTU_PLUS_L2CAP_MEM_EXT, CYBLE_L2CAP_LOGICAL_CHANNEL_COUNT},
 396:.\Generated_Source\PSoC4/ble.c ****         {CYBLE_L2CAP_MPS_PLUS_L2CAP_MEM_EXT, CYBLE_L2CAP_LOGICAL_CHANNEL_COUNT * (CYBLE_L2CAP_MTU/C
 397:.\Generated_Source\PSoC4/ble.c ****     }; 
 398:.\Generated_Source\PSoC4/ble.c **** 
 399:.\Generated_Source\PSoC4/ble.c ****     #endif /* CYBLE_MODE_PROFILE */
 400:.\Generated_Source\PSoC4/ble.c ****     
 401:.\Generated_Source\PSoC4/ble.c ****     /* If not initialized then initialize all the required hardware and software */
 402:.\Generated_Source\PSoC4/ble.c ****     if(cyBle_initVar == 0u)
 403:.\Generated_Source\PSoC4/ble.c ****     {
 404:.\Generated_Source\PSoC4/ble.c ****         CyBle_Init();
 405:.\Generated_Source\PSoC4/ble.c ****         cyBle_initVar = 1u;
 406:.\Generated_Source\PSoC4/ble.c ****     }
 407:.\Generated_Source\PSoC4/ble.c ****     
 408:.\Generated_Source\PSoC4/ble.c ****     if(callbackFunc != NULL)
 409:.\Generated_Source\PSoC4/ble.c ****     {
 410:.\Generated_Source\PSoC4/ble.c ****     #if(CYBLE_SHARING_MODE_EXPORT)
 411:.\Generated_Source\PSoC4/ble.c ****         if(cyBle_stackMemoryRam == NULL)
 412:.\Generated_Source\PSoC4/ble.c ****         {
 413:.\Generated_Source\PSoC4/ble.c ****             cyBle_stackMemoryRam = (uint8 *)malloc(CYBLE_STACK_RAM_SIZE);
 414:.\Generated_Source\PSoC4/ble.c ****             if(cyBle_stackMemoryRam == NULL)
 415:.\Generated_Source\PSoC4/ble.c ****             {
 416:.\Generated_Source\PSoC4/ble.c ****                 apiResult = CYBLE_ERROR_MEMORY_ALLOCATION_FAILED;
 417:.\Generated_Source\PSoC4/ble.c ****             } 
 418:.\Generated_Source\PSoC4/ble.c ****         }
 419:.\Generated_Source\PSoC4/ble.c ****     #endif /* CYBLE_SHARING_MODE_EXPORT */
 420:.\Generated_Source\PSoC4/ble.c ****         if(apiResult == CYBLE_ERROR_OK)
 421:.\Generated_Source\PSoC4/ble.c ****         {
 422:.\Generated_Source\PSoC4/ble.c ****             CyBle_ApplCallback = callbackFunc;
 423:.\Generated_Source\PSoC4/ble.c ****             
 424:.\Generated_Source\PSoC4/ble.c ****         #if(CYBLE_MODE_PROFILE)
 425:.\Generated_Source\PSoC4/ble.c ****             apiResult = CyBle_StackInit(&CyBle_EventHandler, cyBle_stackMemoryRam, CYBLE_STACK_RAM_
 426:.\Generated_Source\PSoC4/ble.c ****                 cyBle_stackDataBuff, CYBLE_STACK_BUF_COUNT, cyBle_flashStorage.stackFlashptr, CYBLE
 427:.\Generated_Source\PSoC4/ble.c ****         #else
 428:.\Generated_Source\PSoC4/ble.c ****             apiResult = CyBle_StackInit(&CyBle_EventHandler, cyBle_stackMemoryRam, CYBLE_STACK_RAM_
 429:.\Generated_Source\PSoC4/ble.c ****                 NULL, 0u, NULL, 0u);
 430:.\Generated_Source\PSoC4/ble.c ****         #endif /* CYBLE_MODE_PROFILE */
 431:.\Generated_Source\PSoC4/ble.c **** 
 432:.\Generated_Source\PSoC4/ble.c ****             if(apiResult == CYBLE_ERROR_OK)
ARM GAS  C:\Users\Alan\AppData\Local\Temp\ccih7e8i.s 			page 9


 433:.\Generated_Source\PSoC4/ble.c ****             {
 434:.\Generated_Source\PSoC4/ble.c ****                 CyBle_SetState(CYBLE_STATE_INITIALIZING);
 435:.\Generated_Source\PSoC4/ble.c ****                 
 436:.\Generated_Source\PSoC4/ble.c ****             #if (CYBLE_GATT_ROLE_CLIENT)
 437:.\Generated_Source\PSoC4/ble.c ****                 CyBle_SetClientState(CYBLE_CLIENT_STATE_DISCONNECTED);
 438:.\Generated_Source\PSoC4/ble.c ****             #endif /* CYBLE_GATT_ROLE_CLIENT */
 439:.\Generated_Source\PSoC4/ble.c ****                 
 440:.\Generated_Source\PSoC4/ble.c ****             #if(CYBLE_GATT_ROLE_SERVER)
 441:.\Generated_Source\PSoC4/ble.c ****                 apiResult = CyBle_GattsDbRegister(cyBle_gattDB, CYBLE_GATT_DB_INDEX_COUNT, CYBLE_GA
 442:.\Generated_Source\PSoC4/ble.c ****             #endif /* CYBLE_GATT_ROLE_SERVER */
 443:.\Generated_Source\PSoC4/ble.c ****             }
 444:.\Generated_Source\PSoC4/ble.c ****         }
 445:.\Generated_Source\PSoC4/ble.c ****     }
 446:.\Generated_Source\PSoC4/ble.c ****     else
 447:.\Generated_Source\PSoC4/ble.c ****     {
 448:.\Generated_Source\PSoC4/ble.c ****         apiResult = CYBLE_ERROR_INVALID_PARAMETER;
 449:.\Generated_Source\PSoC4/ble.c ****     }
 450:.\Generated_Source\PSoC4/ble.c **** 
 451:.\Generated_Source\PSoC4/ble.c ****     return (apiResult);
 452:.\Generated_Source\PSoC4/ble.c **** }
 453:.\Generated_Source\PSoC4/ble.c **** 
 454:.\Generated_Source\PSoC4/ble.c **** 
 455:.\Generated_Source\PSoC4/ble.c **** /******************************************************************************
 456:.\Generated_Source\PSoC4/ble.c **** * Function Name: CyBle_Stop
 457:.\Generated_Source\PSoC4/ble.c **** ***************************************************************************//**
 458:.\Generated_Source\PSoC4/ble.c **** * 
 459:.\Generated_Source\PSoC4/ble.c **** *  This function stops any ongoing operation in the BLE Stack and forces the 
 460:.\Generated_Source\PSoC4/ble.c **** *  BLE Stack to shut down. The only function that can be called after calling
 461:.\Generated_Source\PSoC4/ble.c **** *  this function is CyBle_Start(). 
 462:.\Generated_Source\PSoC4/ble.c **** * 
 463:.\Generated_Source\PSoC4/ble.c **** * \return
 464:.\Generated_Source\PSoC4/ble.c **** *  None
 465:.\Generated_Source\PSoC4/ble.c **** * 
 466:.\Generated_Source\PSoC4/ble.c **** ******************************************************************************/
 467:.\Generated_Source\PSoC4/ble.c **** void CyBle_Stop(void)
 468:.\Generated_Source\PSoC4/ble.c **** {
 469:.\Generated_Source\PSoC4/ble.c ****     CyBle_Shutdown();                         /* Stop all ongoing activities */
 470:.\Generated_Source\PSoC4/ble.c ****     CyBle_SetState(CYBLE_STATE_STOPPED);
 471:.\Generated_Source\PSoC4/ble.c ****     #if(CYBLE_SHARING_MODE_EXPORT)
 472:.\Generated_Source\PSoC4/ble.c ****         if(cyBle_stackMemoryRam != NULL)
 473:.\Generated_Source\PSoC4/ble.c ****         {
 474:.\Generated_Source\PSoC4/ble.c ****             free(cyBle_stackMemoryRam);
 475:.\Generated_Source\PSoC4/ble.c ****         }
 476:.\Generated_Source\PSoC4/ble.c ****     #endif /* CYBLE_SHARING_MODE_EXPORT */
 477:.\Generated_Source\PSoC4/ble.c **** }
 478:.\Generated_Source\PSoC4/ble.c **** 
 479:.\Generated_Source\PSoC4/ble.c **** 
 480:.\Generated_Source\PSoC4/ble.c **** #if((CYBLE_GAP_ROLE_PERIPHERAL || CYBLE_GAP_ROLE_CENTRAL) && (CYBLE_BONDING_REQUIREMENT == CYBLE_BO
 481:.\Generated_Source\PSoC4/ble.c **** 
 482:.\Generated_Source\PSoC4/ble.c ****     
 483:.\Generated_Source\PSoC4/ble.c **** /******************************************************************************
 484:.\Generated_Source\PSoC4/ble.c **** * Function Name: CyBle_StoreBondingData
 485:.\Generated_Source\PSoC4/ble.c **** ***************************************************************************//**
 486:.\Generated_Source\PSoC4/ble.c **** * 
 487:.\Generated_Source\PSoC4/ble.c **** *  This function writes the new bonding data from RAM to the dedicated Flash 
 488:.\Generated_Source\PSoC4/ble.c **** *  location as defined by the component. It performs data comparing between RAM
 489:.\Generated_Source\PSoC4/ble.c **** *  and Flash before writing to Flash. If there is no change between RAM and Flash
ARM GAS  C:\Users\Alan\AppData\Local\Temp\ccih7e8i.s 			page 10


 490:.\Generated_Source\PSoC4/ble.c **** *  data, then no write is performed. It writes only one flash row in one call.
 491:.\Generated_Source\PSoC4/ble.c **** *  Application should keep calling this function till API return CYBLE_ERROR_OK. 
 492:.\Generated_Source\PSoC4/ble.c **** *  This function is available only when Bonding requirement is selected in
 493:.\Generated_Source\PSoC4/ble.c **** *  Security settings.    
 494:.\Generated_Source\PSoC4/ble.c **** * 
 495:.\Generated_Source\PSoC4/ble.c **** *  \param isForceWrite:  If value is set to 0, then stack will check if flash write 
 496:.\Generated_Source\PSoC4/ble.c **** *                 is permissible. 
 497:.\Generated_Source\PSoC4/ble.c **** *  
 498:.\Generated_Source\PSoC4/ble.c **** * \return
 499:.\Generated_Source\PSoC4/ble.c **** *  Return value is of type CYBLE_API_RESULT_T.
 500:.\Generated_Source\PSoC4/ble.c **** *
 501:.\Generated_Source\PSoC4/ble.c **** *   Errors codes                         | Description
 502:.\Generated_Source\PSoC4/ble.c **** *   ----------------------------------   | ------------------------------------
 503:.\Generated_Source\PSoC4/ble.c **** *   CYBLE_ERROR_OK                       | On successful operation
 504:.\Generated_Source\PSoC4/ble.c **** *   CYBLE_ERROR_FLASH_WRITE_NOT_PERMITED | Flash Write is not complete
 505:.\Generated_Source\PSoC4/ble.c **** *    
 506:.\Generated_Source\PSoC4/ble.c **** *  \sideeffect
 507:.\Generated_Source\PSoC4/ble.c **** *   For BLE devices with 128K of Flash memory this API will automatically 
 508:.\Generated_Source\PSoC4/ble.c **** *   modify the clock settings for the device.
 509:.\Generated_Source\PSoC4/ble.c **** *   Writing to flash requires changes to be done to the IMO (set to 48 MHz)
 510:.\Generated_Source\PSoC4/ble.c **** *   and HFCLK (source set to IMO) settings. The configuration is restored before
 511:.\Generated_Source\PSoC4/ble.c **** *   returning. This will impact the operation of most of the hardware in the
 512:.\Generated_Source\PSoC4/ble.c **** *   device.
 513:.\Generated_Source\PSoC4/ble.c **** * 
 514:.\Generated_Source\PSoC4/ble.c **** *  \globalvars
 515:.\Generated_Source\PSoC4/ble.c **** *   The BLE_pendingFlashWrite variable is used to detect status
 516:.\Generated_Source\PSoC4/ble.c **** *   of pending write to flash operation for stack data and CCCD.
 517:.\Generated_Source\PSoC4/ble.c **** *   This API automatically clears pending bits after write operation complete.
 518:.\Generated_Source\PSoC4/ble.c **** *     
 519:.\Generated_Source\PSoC4/ble.c **** ******************************************************************************/
 520:.\Generated_Source\PSoC4/ble.c **** CYBLE_API_RESULT_T CyBle_StoreBondingData(uint8 isForceWrite)
 521:.\Generated_Source\PSoC4/ble.c **** {
 522:.\Generated_Source\PSoC4/ble.c ****     CYBLE_API_RESULT_T apiResult = CYBLE_ERROR_OK;
 523:.\Generated_Source\PSoC4/ble.c ****     
 524:.\Generated_Source\PSoC4/ble.c ****     /* Store Stack data */
 525:.\Generated_Source\PSoC4/ble.c ****     if((cyBle_pendingFlashWrite & CYBLE_PENDING_STACK_FLASH_WRITE_BIT) != 0u)
 526:.\Generated_Source\PSoC4/ble.c ****     {
 527:.\Generated_Source\PSoC4/ble.c ****         apiResult = CyBle_StoreStackData(isForceWrite);
 528:.\Generated_Source\PSoC4/ble.c ****         if(apiResult == CYBLE_ERROR_OK)
 529:.\Generated_Source\PSoC4/ble.c ****         {
 530:.\Generated_Source\PSoC4/ble.c ****             cyBle_pendingFlashWrite &= (uint8)~CYBLE_PENDING_STACK_FLASH_WRITE_BIT;
 531:.\Generated_Source\PSoC4/ble.c ****             /* Change apiResult if there are more pending data to store */
 532:.\Generated_Source\PSoC4/ble.c ****             if((cyBle_pendingFlashWrite & CYBLE_PENDING_CCCD_FLASH_WRITE_BIT) != 0u)
 533:.\Generated_Source\PSoC4/ble.c ****             {
 534:.\Generated_Source\PSoC4/ble.c ****                 apiResult = CYBLE_ERROR_FLASH_WRITE_NOT_PERMITED;
 535:.\Generated_Source\PSoC4/ble.c ****             }
 536:.\Generated_Source\PSoC4/ble.c ****         }
 537:.\Generated_Source\PSoC4/ble.c ****     }
 538:.\Generated_Source\PSoC4/ble.c **** #if(CYBLE_GATT_DB_CCCD_COUNT != 0u)
 539:.\Generated_Source\PSoC4/ble.c ****     /* Store CCCD values */
 540:.\Generated_Source\PSoC4/ble.c ****     if( ((apiResult == CYBLE_ERROR_OK) || (isForceWrite != 0u)) && 
 541:.\Generated_Source\PSoC4/ble.c ****         ((cyBle_pendingFlashWrite & CYBLE_PENDING_CCCD_FLASH_WRITE_BIT) != 0u) &&
 542:.\Generated_Source\PSoC4/ble.c ****         (cyBle_connHandle.bdHandle <= CYBLE_GAP_MAX_BONDED_DEVICE))
 543:.\Generated_Source\PSoC4/ble.c ****     {
 544:.\Generated_Source\PSoC4/ble.c ****         apiResult = CyBle_StoreAppData(cyBle_attValuesCCCD, cyBle_flashStorage.attValuesCCCDFlashMe
 545:.\Generated_Source\PSoC4/ble.c ****                                        CYBLE_GATT_DB_CCCD_COUNT, isForceWrite);
 546:.\Generated_Source\PSoC4/ble.c ****         if(apiResult == CYBLE_ERROR_OK)
ARM GAS  C:\Users\Alan\AppData\Local\Temp\ccih7e8i.s 			page 11


 547:.\Generated_Source\PSoC4/ble.c ****         {
 548:.\Generated_Source\PSoC4/ble.c ****             cyBle_pendingFlashWrite &= (uint8)~CYBLE_PENDING_CCCD_FLASH_WRITE_BIT;
 549:.\Generated_Source\PSoC4/ble.c ****         }
 550:.\Generated_Source\PSoC4/ble.c ****     }
 551:.\Generated_Source\PSoC4/ble.c **** #endif /* CYBLE_GATT_DB_CCCD_COUNT != 0u */
 552:.\Generated_Source\PSoC4/ble.c ****     return(apiResult);
 553:.\Generated_Source\PSoC4/ble.c **** }
 554:.\Generated_Source\PSoC4/ble.c **** 
 555:.\Generated_Source\PSoC4/ble.c **** 
 556:.\Generated_Source\PSoC4/ble.c **** #endif /* (CYBLE_GAP_ROLE_PERIPHERAL || CYBLE_GAP_ROLE_CENTRAL) && (CYBLE_BONDING_REQUIREMENT == CY
 557:.\Generated_Source\PSoC4/ble.c **** 
 558:.\Generated_Source\PSoC4/ble.c **** 
 559:.\Generated_Source\PSoC4/ble.c **** #if(CYBLE_GAP_ROLE_PERIPHERAL || CYBLE_GAP_ROLE_BROADCASTER)
 560:.\Generated_Source\PSoC4/ble.c **** 
 561:.\Generated_Source\PSoC4/ble.c ****     /******************************************************************************
 562:.\Generated_Source\PSoC4/ble.c ****     *  Function Name: CyBle_GappStartAdvertisement
 563:.\Generated_Source\PSoC4/ble.c ****     ***************************************************************************//**
 564:.\Generated_Source\PSoC4/ble.c ****     *     
 565:.\Generated_Source\PSoC4/ble.c ****     *  This function is used to start the advertisement using the advertisement data 
 566:.\Generated_Source\PSoC4/ble.c ****     *  set in the component customizer's GUI. After invoking this API, the device 
 567:.\Generated_Source\PSoC4/ble.c ****     *  will be available for connection by the devices configured for GAP central 
 568:.\Generated_Source\PSoC4/ble.c ****     *  role. It is only included if the device is configured for GAP Peripheral or 
 569:.\Generated_Source\PSoC4/ble.c ****     *  GAP Peripheral + Central role.
 570:.\Generated_Source\PSoC4/ble.c ****     *  
 571:.\Generated_Source\PSoC4/ble.c ****     *  On start of advertisement, GAP Peripheral receives the
 572:.\Generated_Source\PSoC4/ble.c ****     *  CYBLE_EVT_GAPP_ADVERTISEMENT_START_STOP event. The following events are 
 573:.\Generated_Source\PSoC4/ble.c ****     *  possible on invoking this function:
 574:.\Generated_Source\PSoC4/ble.c ****     *  
 575:.\Generated_Source\PSoC4/ble.c ****     *  * CYBLE_EVT_GAP_DEVICE_CONNECTED: If the device connects to remote GAP 
 576:.\Generated_Source\PSoC4/ble.c ****     *                                      Central device
 577:.\Generated_Source\PSoC4/ble.c ****     *  * CYBLE_EVT_TIMEOUT: If no device in GAP Central mode connects to this 
 578:.\Generated_Source\PSoC4/ble.c ****     *                       device within the specified timeout limit. Stack 
 579:.\Generated_Source\PSoC4/ble.c ****     *                       automatically initiate stop advertising when Slow 
 580:.\Generated_Source\PSoC4/ble.c ****     *                       advertising was initiated, or starts Slow advertising
 581:.\Generated_Source\PSoC4/ble.c ****     *                       after Fast advertising timeout occur.
 582:.\Generated_Source\PSoC4/ble.c ****     *  * CYBLE_EVT_GAPP_ADVERTISEMENT_START_STOP: If device started or stopped
 583:.\Generated_Source\PSoC4/ble.c ****     *                                               advertising. Use CyBle_GetState()
 584:.\Generated_Source\PSoC4/ble.c ****     *                                               to determine the state. Sequential 
 585:.\Generated_Source\PSoC4/ble.c ****     *                                               advertising could be started when
 586:.\Generated_Source\PSoC4/ble.c ****     *                                               CYBLE_STATE_DISCONNECTED state is
 587:.\Generated_Source\PSoC4/ble.c ****     *                                               returned.
 588:.\Generated_Source\PSoC4/ble.c ****     * 
 589:.\Generated_Source\PSoC4/ble.c ****     *  \param advertisingIntervalType: Fast or slow advertising interval with timings
 590:.\Generated_Source\PSoC4/ble.c ****     *                                 entered in Advertising settings section of the
 591:.\Generated_Source\PSoC4/ble.c ****     *                                 customizer.
 592:.\Generated_Source\PSoC4/ble.c ****     *  * CYBLE_ADVERTISING_FAST   0x00u
 593:.\Generated_Source\PSoC4/ble.c ****     *  * CYBLE_ADVERTISING_SLOW   0x01u
 594:.\Generated_Source\PSoC4/ble.c ****     *  * CYBLE_ADVERTISING_CUSTOM 0x02u
 595:.\Generated_Source\PSoC4/ble.c ****     * 
 596:.\Generated_Source\PSoC4/ble.c ****     * \return
 597:.\Generated_Source\PSoC4/ble.c ****     *  CYBLE_API_RESULT_T : Return value indicates if the function succeeded or
 598:.\Generated_Source\PSoC4/ble.c ****     *  failed. Following are the possible error codes.
 599:.\Generated_Source\PSoC4/ble.c ****     * 
 600:.\Generated_Source\PSoC4/ble.c ****     *   Errors codes                      |  Description
 601:.\Generated_Source\PSoC4/ble.c ****     *   --------------------------------- |  --------------------------------
 602:.\Generated_Source\PSoC4/ble.c ****     *   CYBLE_ERROR_OK                    |  On successful operation.
 603:.\Generated_Source\PSoC4/ble.c ****     *   CYBLE_ERROR_INVALID_PARAMETER     |  On passing an invalid parameter.
ARM GAS  C:\Users\Alan\AppData\Local\Temp\ccih7e8i.s 			page 12


 604:.\Generated_Source\PSoC4/ble.c ****     *   CYBLE_ERROR_INVALID_STATE         |  On calling this API not in Disconnected state.
 605:.\Generated_Source\PSoC4/ble.c ****     *
 606:.\Generated_Source\PSoC4/ble.c ****     * 
 607:.\Generated_Source\PSoC4/ble.c ****     *******************************************************************************/
 608:.\Generated_Source\PSoC4/ble.c ****     CYBLE_API_RESULT_T CyBle_GappStartAdvertisement(uint8 advertisingIntervalType)
 609:.\Generated_Source\PSoC4/ble.c ****     {
 610:.\Generated_Source\PSoC4/ble.c ****         CYBLE_API_RESULT_T apiResult;
 611:.\Generated_Source\PSoC4/ble.c ****         
 612:.\Generated_Source\PSoC4/ble.c ****         if(advertisingIntervalType > CYBLE_ADVERTISING_CUSTOM)
 613:.\Generated_Source\PSoC4/ble.c ****         {
 614:.\Generated_Source\PSoC4/ble.c ****             apiResult = CYBLE_ERROR_INVALID_PARAMETER;
 615:.\Generated_Source\PSoC4/ble.c ****         }
 616:.\Generated_Source\PSoC4/ble.c ****         else if((CYBLE_STATE_DISCONNECTED == CyBle_GetState()) && ((cyBle_eventHandlerFlag & CYBLE_
 617:.\Generated_Source\PSoC4/ble.c ****         {   
 618:.\Generated_Source\PSoC4/ble.c ****             if(advertisingIntervalType == CYBLE_ADVERTISING_FAST)
 619:.\Generated_Source\PSoC4/ble.c ****             {
 620:.\Generated_Source\PSoC4/ble.c ****                 cyBle_discoveryModeInfo.advTo = CYBLE_FAST_ADV_TIMEOUT;
 621:.\Generated_Source\PSoC4/ble.c ****                 cyBle_discoveryModeInfo.advParam->advIntvMin = CYBLE_FAST_ADV_INT_MIN;
 622:.\Generated_Source\PSoC4/ble.c ****                 cyBle_discoveryModeInfo.advParam->advIntvMax = CYBLE_FAST_ADV_INT_MAX;
 623:.\Generated_Source\PSoC4/ble.c ****             }
 624:.\Generated_Source\PSoC4/ble.c ****             else if(advertisingIntervalType == CYBLE_ADVERTISING_SLOW)
 625:.\Generated_Source\PSoC4/ble.c ****             {
 626:.\Generated_Source\PSoC4/ble.c ****                 cyBle_discoveryModeInfo.advTo = CYBLE_SLOW_ADV_TIMEOUT;
 627:.\Generated_Source\PSoC4/ble.c ****                 cyBle_discoveryModeInfo.advParam->advIntvMin = CYBLE_SLOW_ADV_INT_MIN;
 628:.\Generated_Source\PSoC4/ble.c ****                 cyBle_discoveryModeInfo.advParam->advIntvMax = CYBLE_SLOW_ADV_INT_MAX;
 629:.\Generated_Source\PSoC4/ble.c ****             }       
 630:.\Generated_Source\PSoC4/ble.c ****             else /* Do not update advertising intervals */
 631:.\Generated_Source\PSoC4/ble.c ****             {
 632:.\Generated_Source\PSoC4/ble.c ****             }
 633:.\Generated_Source\PSoC4/ble.c ****             cyBle_advertisingIntervalType = advertisingIntervalType;
 634:.\Generated_Source\PSoC4/ble.c ****             apiResult = CyBle_GappEnterDiscoveryMode(&cyBle_discoveryModeInfo);
 635:.\Generated_Source\PSoC4/ble.c ****         
 636:.\Generated_Source\PSoC4/ble.c ****             if(CYBLE_ERROR_OK == apiResult)
 637:.\Generated_Source\PSoC4/ble.c ****             {
 638:.\Generated_Source\PSoC4/ble.c ****                 cyBle_eventHandlerFlag |= CYBLE_START_FLAG;
 639:.\Generated_Source\PSoC4/ble.c ****             }
 640:.\Generated_Source\PSoC4/ble.c ****         }
 641:.\Generated_Source\PSoC4/ble.c ****         else
 642:.\Generated_Source\PSoC4/ble.c ****         {
 643:.\Generated_Source\PSoC4/ble.c ****             apiResult = CYBLE_ERROR_INVALID_STATE;
 644:.\Generated_Source\PSoC4/ble.c ****         }
 645:.\Generated_Source\PSoC4/ble.c **** 
 646:.\Generated_Source\PSoC4/ble.c ****         return (apiResult);
 647:.\Generated_Source\PSoC4/ble.c ****     }
 648:.\Generated_Source\PSoC4/ble.c **** 
 649:.\Generated_Source\PSoC4/ble.c ****     
 650:.\Generated_Source\PSoC4/ble.c ****     /******************************************************************************
 651:.\Generated_Source\PSoC4/ble.c ****     * Function Name: CyBle_GappStopAdvertisement
 652:.\Generated_Source\PSoC4/ble.c ****     ***************************************************************************//**
 653:.\Generated_Source\PSoC4/ble.c ****     * 
 654:.\Generated_Source\PSoC4/ble.c ****     *   This function can be used to exit from discovery mode. After the execution 
 655:.\Generated_Source\PSoC4/ble.c ****     *   of this function, there will no longer be any advertisements. On stopping 
 656:.\Generated_Source\PSoC4/ble.c ****     *   advertising, GAP Peripheral receives CYBLE_EVT_GAPP_ADVERTISEMENT_START_STOP
 657:.\Generated_Source\PSoC4/ble.c ****     *   event. It is expected that the application layer tracks the function call 
 658:.\Generated_Source\PSoC4/ble.c ****     *   performed before occurrence of this event as this event can occur on making 
 659:.\Generated_Source\PSoC4/ble.c ****     *   a call to Cy_BleGappStartAdvertisement(), CyBle_GappEnterDiscoveryMode(), 
 660:.\Generated_Source\PSoC4/ble.c ****     *   or CyBle_GappStartAdvertisement() functions as well.
ARM GAS  C:\Users\Alan\AppData\Local\Temp\ccih7e8i.s 			page 13


 661:.\Generated_Source\PSoC4/ble.c ****     *   
 662:.\Generated_Source\PSoC4/ble.c ****     *   The following event occurs on invoking this function:
 663:.\Generated_Source\PSoC4/ble.c ****     *   * CYBLE_EVT_GAPP_ADVERTISEMENT_START_STOP
 664:.\Generated_Source\PSoC4/ble.c ****     * 
 665:.\Generated_Source\PSoC4/ble.c ****     *  \return
 666:.\Generated_Source\PSoC4/ble.c ****     *   None
 667:.\Generated_Source\PSoC4/ble.c ****     * 
 668:.\Generated_Source\PSoC4/ble.c ****     *******************************************************************************/
 669:.\Generated_Source\PSoC4/ble.c ****     void CyBle_GappStopAdvertisement(void)
 670:.\Generated_Source\PSoC4/ble.c ****     {
 671:.\Generated_Source\PSoC4/ble.c ****         CyBle_GappExitDiscoveryMode();
 672:.\Generated_Source\PSoC4/ble.c ****         cyBle_eventHandlerFlag |= CYBLE_STOP_FLAG;
 673:.\Generated_Source\PSoC4/ble.c ****     }
 674:.\Generated_Source\PSoC4/ble.c ****     
 675:.\Generated_Source\PSoC4/ble.c ****     
 676:.\Generated_Source\PSoC4/ble.c ****     /******************************************************************************
 677:.\Generated_Source\PSoC4/ble.c ****     * Function Name: CyBle_ChangeAdDeviceAddress
 678:.\Generated_Source\PSoC4/ble.c ****     ***************************************************************************//**
 679:.\Generated_Source\PSoC4/ble.c ****     * 
 680:.\Generated_Source\PSoC4/ble.c ****     *  This API is used to set the Bluetooth device address into the advertisement 
 681:.\Generated_Source\PSoC4/ble.c ****     *  or scan response data structure.
 682:.\Generated_Source\PSoC4/ble.c ****     * 
 683:.\Generated_Source\PSoC4/ble.c ****     *  \param bdAddr: Bluetooth Device address. The variable is of type CYBLE_GAP_BD_ADDR_T
 684:.\Generated_Source\PSoC4/ble.c ****     *  \param dest: 0 - selects advertisement structure, not zero value selects scan 
 685:.\Generated_Source\PSoC4/ble.c ****     *               response structure.
 686:.\Generated_Source\PSoC4/ble.c ****     * 
 687:.\Generated_Source\PSoC4/ble.c ****     * \return
 688:.\Generated_Source\PSoC4/ble.c ****     *  None
 689:.\Generated_Source\PSoC4/ble.c ****     *  
 690:.\Generated_Source\PSoC4/ble.c ****     *******************************************************************************/
 691:.\Generated_Source\PSoC4/ble.c ****     void CyBle_ChangeAdDeviceAddress(const CYBLE_GAP_BD_ADDR_T* bdAddr, uint8 dest)
 692:.\Generated_Source\PSoC4/ble.c ****     {
 693:.\Generated_Source\PSoC4/ble.c ****         uint8 i;
 694:.\Generated_Source\PSoC4/ble.c ****         uint8 *destBuffer = NULL;
 695:.\Generated_Source\PSoC4/ble.c ****         
 696:.\Generated_Source\PSoC4/ble.c ****         if(dest == 0u)      /* Destination - advertising structure */
 697:.\Generated_Source\PSoC4/ble.c ****         {
 698:.\Generated_Source\PSoC4/ble.c ****             #ifdef CYBLE_ADV_PKT_INDEX_BLUETOOTH_DEVICE_ADDRESS
 699:.\Generated_Source\PSoC4/ble.c ****                 destBuffer = &cyBle_discoveryData.advData[CYBLE_ADV_PKT_INDEX_BLUETOOTH_DEVICE_ADDR
 700:.\Generated_Source\PSoC4/ble.c ****             #endif /* CYBLE_ADV_PKT_INDEX_BLUETOOTH_DEVICE_ADDRESS */
 701:.\Generated_Source\PSoC4/ble.c ****         }
 702:.\Generated_Source\PSoC4/ble.c ****         else                /* Destination - scan response structure */
 703:.\Generated_Source\PSoC4/ble.c ****         {
 704:.\Generated_Source\PSoC4/ble.c ****             #ifdef CYBLE_SCN_PKT_INDEX_BLUETOOTH_DEVICE_ADDRESS
 705:.\Generated_Source\PSoC4/ble.c ****                 destBuffer = &cyBle_scanRspData.scanRspData[CYBLE_SCN_PKT_INDEX_BLUETOOTH_DEVICE_AD
 706:.\Generated_Source\PSoC4/ble.c ****             #endif /* CYBLE_SCN_PKT_INDEX_BLUETOOTH_DEVICE_ADDRESS */    
 707:.\Generated_Source\PSoC4/ble.c ****         }
 708:.\Generated_Source\PSoC4/ble.c ****         
 709:.\Generated_Source\PSoC4/ble.c ****         if(destBuffer != NULL)
 710:.\Generated_Source\PSoC4/ble.c ****         {
 711:.\Generated_Source\PSoC4/ble.c ****             /* Update Device Address type */
 712:.\Generated_Source\PSoC4/ble.c ****             destBuffer[0u] = bdAddr->type;
 713:.\Generated_Source\PSoC4/ble.c ****             
 714:.\Generated_Source\PSoC4/ble.c ****             for(i = 0u; i < CYBLE_GAP_BD_ADDR_SIZE; i++)
 715:.\Generated_Source\PSoC4/ble.c ****             {
 716:.\Generated_Source\PSoC4/ble.c ****                 destBuffer[i + 1u] = bdAddr->bdAddr[i];
 717:.\Generated_Source\PSoC4/ble.c ****             }
ARM GAS  C:\Users\Alan\AppData\Local\Temp\ccih7e8i.s 			page 14


 718:.\Generated_Source\PSoC4/ble.c ****         }
 719:.\Generated_Source\PSoC4/ble.c ****     }
 720:.\Generated_Source\PSoC4/ble.c ****   
 721:.\Generated_Source\PSoC4/ble.c **** #endif /* CYBLE_GAP_ROLE_PERIPHERAL || CYBLE_GAP_ROLE_BROADCASTER */
 722:.\Generated_Source\PSoC4/ble.c **** 
 723:.\Generated_Source\PSoC4/ble.c **** 
 724:.\Generated_Source\PSoC4/ble.c **** #if(CYBLE_GAP_ROLE_CENTRAL || CYBLE_GAP_ROLE_OBSERVER)
 725:.\Generated_Source\PSoC4/ble.c **** 
 726:.\Generated_Source\PSoC4/ble.c ****     /******************************************************************************
 727:.\Generated_Source\PSoC4/ble.c ****     * Function Name: CyBle_GapcStartScan
 728:.\Generated_Source\PSoC4/ble.c ****     ***************************************************************************//**
 729:.\Generated_Source\PSoC4/ble.c ****     * 
 730:.\Generated_Source\PSoC4/ble.c ****     *   This function is used for discovering GAP peripheral devices that are 
 731:.\Generated_Source\PSoC4/ble.c ****     *   available for connection. It performs the scanning routine using the 
 732:.\Generated_Source\PSoC4/ble.c ****     *   parameters entered in the component's customizer.
 733:.\Generated_Source\PSoC4/ble.c ****     *   
 734:.\Generated_Source\PSoC4/ble.c ****     *   As soon as the discovery operation starts, CYBLE_EVT_GAPC_SCAN_START_STOP 
 735:.\Generated_Source\PSoC4/ble.c ****     *   event is generated. The CYBLE_EVT_GAPC_SCAN_PROGRESS_RESULT event is 
 736:.\Generated_Source\PSoC4/ble.c ****     *   generated when a GAP peripheral device is located. There are three discovery
 737:.\Generated_Source\PSoC4/ble.c ****     *   procedures can be selected in the customizer's GUI:
 738:.\Generated_Source\PSoC4/ble.c ****     *   
 739:.\Generated_Source\PSoC4/ble.c ****     *   * Observation procedure: A device performing the observer role receives only
 740:.\Generated_Source\PSoC4/ble.c ****     *                            advertisement data from devices irrespective of 
 741:.\Generated_Source\PSoC4/ble.c ****     *                            their discoverable mode settings. Advertisement 
 742:.\Generated_Source\PSoC4/ble.c ****     *                            data received is provided by the event,      
 743:.\Generated_Source\PSoC4/ble.c ****     *                            CYBLE_EVT_GAPC_SCAN_PROGRESS_RESULT. This procedure
 744:.\Generated_Source\PSoC4/ble.c ****     *                            requires the scanType sub parameter to be passive
 745:.\Generated_Source\PSoC4/ble.c ****     *                            scanning. 
 746:.\Generated_Source\PSoC4/ble.c ****     *   
 747:.\Generated_Source\PSoC4/ble.c ****     *   * Limited Discovery procedure: A device performing the limited discovery
 748:.\Generated_Source\PSoC4/ble.c ****     *                                  procedure receives advertisement data and 
 749:.\Generated_Source\PSoC4/ble.c ****     *                                  scan# response data from devices in the 
 750:.\Generated_Source\PSoC4/ble.c ****     *                                  limited discoverable mode only. Received data
 751:.\Generated_Source\PSoC4/ble.c ****     *                                  is provided by the event, 
 752:.\Generated_Source\PSoC4/ble.c ****     *                                  CYBLE_EVT_GAPC_SCAN_PROGRESS_RESULT. This 
 753:.\Generated_Source\PSoC4/ble.c ****     *                                  procedure requires the scanType sub-parameter 
 754:.\Generated_Source\PSoC4/ble.c ****     *                                  to be active scanning.
 755:.\Generated_Source\PSoC4/ble.c ****     *   
 756:.\Generated_Source\PSoC4/ble.c ****     *   * General Discovery procedure: A device performing the general discovery 
 757:.\Generated_Source\PSoC4/ble.c ****     *                                  procedure receives the advertisement data and
 758:.\Generated_Source\PSoC4/ble.c ****     *                                  scan response data from devices in both 
 759:.\Generated_Source\PSoC4/ble.c ****     *                                  limited discoverable mode and the general 
 760:.\Generated_Source\PSoC4/ble.c ****     *                                  discoverable mode. Received data is provided
 761:.\Generated_Source\PSoC4/ble.c ****     *                                  by the event,
 762:.\Generated_Source\PSoC4/ble.c ****     *                                  CYBLE_EVT_GAPC_SCAN_PROGRESS_RESULT. This 
 763:.\Generated_Source\PSoC4/ble.c ****     *                                  procedure requires the scanType sub-parameter
 764:.\Generated_Source\PSoC4/ble.c ****     *                                  to be active scanning.
 765:.\Generated_Source\PSoC4/ble.c ****     *   
 766:.\Generated_Source\PSoC4/ble.c ****     *   Every Advertisement / Scan response packet received results in a new event, 
 767:.\Generated_Source\PSoC4/ble.c ****     *   CYBLE_EVT_GAPC_SCAN_PROGRESS_RESULT.
 768:.\Generated_Source\PSoC4/ble.c ****     *   If 'scanTo' sub-parameter is a non-zero value, then upon commencement of 
 769:.\Generated_Source\PSoC4/ble.c ****     *   discovery procedure and elapsed time = 'scanTo', CYBLE_EVT_TIMEOUT event
 770:.\Generated_Source\PSoC4/ble.c ****     *   is generated with the event parameter indicating CYBLE_GAP_SCAN_TO.
 771:.\Generated_Source\PSoC4/ble.c ****     *   Possible generated events are:
 772:.\Generated_Source\PSoC4/ble.c ****     *   * CYBLE_EVT_GAPC_SCAN_START_STOP: If a device started or stopped scanning. 
 773:.\Generated_Source\PSoC4/ble.c ****     *                                     Use CyBle_GetState() to determine the 
 774:.\Generated_Source\PSoC4/ble.c ****     *                                     state. Sequential scanning could be 
ARM GAS  C:\Users\Alan\AppData\Local\Temp\ccih7e8i.s 			page 15


 775:.\Generated_Source\PSoC4/ble.c ****     *                                     started when CYBLE_STATE_DISCONNECTED 
 776:.\Generated_Source\PSoC4/ble.c ****     *                                     state is returned. 
 777:.\Generated_Source\PSoC4/ble.c ****     *   * CYBLE_EVT_GAPC_SCAN_PROGRESS_RESULT 
 778:.\Generated_Source\PSoC4/ble.c ****     *   * CYBLE_EVT_TIMEOUT (CYBLE_GAP_SCAN_TO)
 779:.\Generated_Source\PSoC4/ble.c ****     * 
 780:.\Generated_Source\PSoC4/ble.c ****     *   \param scanningIntervalType:  Fast or slow scanning interval with
 781:.\Generated_Source\PSoC4/ble.c ****     *       timings entered in Scan settings section of the customizer.
 782:.\Generated_Source\PSoC4/ble.c ****     * 	  * CYBLE_SCANNING_FAST   0x00u
 783:.\Generated_Source\PSoC4/ble.c ****     * 	  * CYBLE_SCANNING_SLOW   0x01u
 784:.\Generated_Source\PSoC4/ble.c ****     * 	  * CYBLE_SCANNING_CUSTOM 0x02u
 785:.\Generated_Source\PSoC4/ble.c ****     * 
 786:.\Generated_Source\PSoC4/ble.c ****     * \return
 787:.\Generated_Source\PSoC4/ble.c ****     *  CYBLE_API_RESULT_T : Return value indicates if the function succeeded or
 788:.\Generated_Source\PSoC4/ble.c ****     *  failed. Following are the possible error codes.
 789:.\Generated_Source\PSoC4/ble.c ****     *
 790:.\Generated_Source\PSoC4/ble.c ****     *   Errors codes                       | Description
 791:.\Generated_Source\PSoC4/ble.c ****     *   ---------------------------------- | -----------------------------------
 792:.\Generated_Source\PSoC4/ble.c ****     *   CYBLE_ERROR_OK                     | On successful operation.
 793:.\Generated_Source\PSoC4/ble.c ****     *   CYBLE_ERROR_STACK_INTERNAL         | An error occurred in the BLE stack.
 794:.\Generated_Source\PSoC4/ble.c ****     *   CYBLE_ERROR_INVALID_PARAMETER      | On passing an invalid parameter.
 795:.\Generated_Source\PSoC4/ble.c ****     *  
 796:.\Generated_Source\PSoC4/ble.c ****     *******************************************************************************/
 797:.\Generated_Source\PSoC4/ble.c ****     CYBLE_API_RESULT_T CyBle_GapcStartScan(uint8 scanningIntervalType)
 798:.\Generated_Source\PSoC4/ble.c ****     {
 799:.\Generated_Source\PSoC4/ble.c ****         CYBLE_API_RESULT_T apiResult;
 800:.\Generated_Source\PSoC4/ble.c **** 
 801:.\Generated_Source\PSoC4/ble.c ****         if(scanningIntervalType > CYBLE_SCANNING_CUSTOM)
 802:.\Generated_Source\PSoC4/ble.c ****         {
 803:.\Generated_Source\PSoC4/ble.c ****             apiResult = CYBLE_ERROR_INVALID_PARAMETER;
 804:.\Generated_Source\PSoC4/ble.c ****         }
 805:.\Generated_Source\PSoC4/ble.c ****         else
 806:.\Generated_Source\PSoC4/ble.c ****         {
 807:.\Generated_Source\PSoC4/ble.c ****             if(scanningIntervalType == CYBLE_SCANNING_FAST)
 808:.\Generated_Source\PSoC4/ble.c ****             {
 809:.\Generated_Source\PSoC4/ble.c ****                 cyBle_discoveryInfo.scanTo = CYBLE_FAST_SCAN_TIMEOUT;
 810:.\Generated_Source\PSoC4/ble.c ****                 cyBle_discoveryInfo.scanIntv = CYBLE_FAST_SCAN_INTERVAL;
 811:.\Generated_Source\PSoC4/ble.c ****                 cyBle_discoveryInfo.scanWindow = CYBLE_FAST_SCAN_WINDOW;
 812:.\Generated_Source\PSoC4/ble.c ****             }
 813:.\Generated_Source\PSoC4/ble.c ****             else if(scanningIntervalType == CYBLE_SCANNING_SLOW)
 814:.\Generated_Source\PSoC4/ble.c ****             {
 815:.\Generated_Source\PSoC4/ble.c ****                 cyBle_discoveryInfo.scanTo = CYBLE_SLOW_SCAN_TIMEOUT;
 816:.\Generated_Source\PSoC4/ble.c ****                 cyBle_discoveryInfo.scanIntv = CYBLE_SLOW_SCAN_INTERVAL;
 817:.\Generated_Source\PSoC4/ble.c ****                 cyBle_discoveryInfo.scanWindow = CYBLE_SLOW_SCAN_WINDOW;
 818:.\Generated_Source\PSoC4/ble.c ****             }       
 819:.\Generated_Source\PSoC4/ble.c ****             else /* Do not update scanning intervals */
 820:.\Generated_Source\PSoC4/ble.c ****             {
 821:.\Generated_Source\PSoC4/ble.c ****             }
 822:.\Generated_Source\PSoC4/ble.c ****             
 823:.\Generated_Source\PSoC4/ble.c ****             cyBle_scanningIntervalType = scanningIntervalType;
 824:.\Generated_Source\PSoC4/ble.c ****             apiResult = CyBle_GapcStartDiscovery(&cyBle_discoveryInfo);
 825:.\Generated_Source\PSoC4/ble.c ****         
 826:.\Generated_Source\PSoC4/ble.c ****             if(CYBLE_ERROR_OK == apiResult)
 827:.\Generated_Source\PSoC4/ble.c ****             {
 828:.\Generated_Source\PSoC4/ble.c ****                 cyBle_eventHandlerFlag |= CYBLE_START_FLAG;
 829:.\Generated_Source\PSoC4/ble.c ****             }
 830:.\Generated_Source\PSoC4/ble.c ****         }
 831:.\Generated_Source\PSoC4/ble.c ****        
ARM GAS  C:\Users\Alan\AppData\Local\Temp\ccih7e8i.s 			page 16


 832:.\Generated_Source\PSoC4/ble.c ****         return (apiResult);
 833:.\Generated_Source\PSoC4/ble.c ****     }
 834:.\Generated_Source\PSoC4/ble.c ****     
 835:.\Generated_Source\PSoC4/ble.c ****     
 836:.\Generated_Source\PSoC4/ble.c ****     /******************************************************************************
 837:.\Generated_Source\PSoC4/ble.c ****     * Function Name: CyBle_GapcStopScan
 838:.\Generated_Source\PSoC4/ble.c ****     ***************************************************************************//**
 839:.\Generated_Source\PSoC4/ble.c ****     * 
 840:.\Generated_Source\PSoC4/ble.c ****     *   This function used to stop the discovery of devices. On stopping discovery
 841:.\Generated_Source\PSoC4/ble.c ****     *   operation, CYBLE_EVT_GAPC_SCAN_START_STOP event is generated. Application
 842:.\Generated_Source\PSoC4/ble.c ****     *   layer needs to keep track of the function call made before receiving this
 843:.\Generated_Source\PSoC4/ble.c ****     *   event to associate this event with either the start or stop discovery
 844:.\Generated_Source\PSoC4/ble.c ****     *   function.
 845:.\Generated_Source\PSoC4/ble.c ****     * 
 846:.\Generated_Source\PSoC4/ble.c ****     *   Possible events generated are:
 847:.\Generated_Source\PSoC4/ble.c ****     *    * CYBLE_EVT_GAPC_SCAN_START_STOP
 848:.\Generated_Source\PSoC4/ble.c ****     * 
 849:.\Generated_Source\PSoC4/ble.c ****     *  \return
 850:.\Generated_Source\PSoC4/ble.c ****     *   None
 851:.\Generated_Source\PSoC4/ble.c ****     * 
 852:.\Generated_Source\PSoC4/ble.c ****     *******************************************************************************/
 853:.\Generated_Source\PSoC4/ble.c ****     void CyBle_GapcStopScan(void)
 854:.\Generated_Source\PSoC4/ble.c ****     {
 855:.\Generated_Source\PSoC4/ble.c ****         CyBle_GapcStopDiscovery();
 856:.\Generated_Source\PSoC4/ble.c ****         
 857:.\Generated_Source\PSoC4/ble.c ****         cyBle_eventHandlerFlag |= CYBLE_STOP_FLAG;
 858:.\Generated_Source\PSoC4/ble.c ****     }
 859:.\Generated_Source\PSoC4/ble.c **** 
 860:.\Generated_Source\PSoC4/ble.c ****     
 861:.\Generated_Source\PSoC4/ble.c **** #endif /* CYBLE_GAP_ROLE_CENTRAL || CYBLE_GAP_ROLE_OBSERVER */
 862:.\Generated_Source\PSoC4/ble.c **** 
 863:.\Generated_Source\PSoC4/ble.c **** 
 864:.\Generated_Source\PSoC4/ble.c **** #if(CYBLE_GAP_ROLE_CENTRAL)
 865:.\Generated_Source\PSoC4/ble.c **** 
 866:.\Generated_Source\PSoC4/ble.c ****     /******************************************************************************
 867:.\Generated_Source\PSoC4/ble.c ****     * Function Name: CyBle_GapcConnectDevice
 868:.\Generated_Source\PSoC4/ble.c ****     ***************************************************************************//**
 869:.\Generated_Source\PSoC4/ble.c ****     * 
 870:.\Generated_Source\PSoC4/ble.c ****     *  This function is used to send a connection request to the remote device with
 871:.\Generated_Source\PSoC4/ble.c ****     *  the connection parameters set in the component customizer. This function needs
 872:.\Generated_Source\PSoC4/ble.c ****     *  to be called only once after the target device is discovered by 
 873:.\Generated_Source\PSoC4/ble.c ****     *  CyBle_GapcStartScan() and further scanning has stopped. Scanning is 
 874:.\Generated_Source\PSoC4/ble.c ****     *  successfully stopped on invoking CyBle_GapcStopScan() and then receiving the
 875:.\Generated_Source\PSoC4/ble.c ****     *  event CYBLE_EVT_GAPC_SCAN_START_STOP with sub-parameter 'success' = 0x01u.
 876:.\Generated_Source\PSoC4/ble.c ****     *  
 877:.\Generated_Source\PSoC4/ble.c ****     *  On successful connection, the following events are generated at the GAP 
 878:.\Generated_Source\PSoC4/ble.c ****     *  Central device (as well as the GAP Peripheral device), in the following order.
 879:.\Generated_Source\PSoC4/ble.c ****     *  * CYBLE_EVT_GATT_CONNECT_IND
 880:.\Generated_Source\PSoC4/ble.c ****     *  * CYBLE_EVT_GAP_DEVICE_CONNECTED
 881:.\Generated_Source\PSoC4/ble.c ****     *  
 882:.\Generated_Source\PSoC4/ble.c ****     *  A procedure is considered to have timed out if a connection response packet is 
 883:.\Generated_Source\PSoC4/ble.c ****     *  not received within time set by cyBle_connectingTimeout global variable
 884:.\Generated_Source\PSoC4/ble.c ****     *  (30 seconds by default). CYBLE_EVT_TIMEOUT event with CYBLE_GENERIC_TO parameter
 885:.\Generated_Source\PSoC4/ble.c ****     *  will indicate about connection procedure timeout. Connection will automatically
 886:.\Generated_Source\PSoC4/ble.c ****     *  be canceled and state will be changed to CYBLE_STATE_DISCONNECTED.
 887:.\Generated_Source\PSoC4/ble.c ****     * 
 888:.\Generated_Source\PSoC4/ble.c ****     *  \param address: The device address of the remote device to connect to. 
ARM GAS  C:\Users\Alan\AppData\Local\Temp\ccih7e8i.s 			page 17


 889:.\Generated_Source\PSoC4/ble.c ****     *  \param timeout: Timeout for which timer to be started in seconds.
 890:.\Generated_Source\PSoC4/ble.c ****     *  
 891:.\Generated_Source\PSoC4/ble.c ****     * \return
 892:.\Generated_Source\PSoC4/ble.c ****     *  CYBLE_API_RESULT_T : Return value indicates if the function succeeded or 
 893:.\Generated_Source\PSoC4/ble.c ****     *  failed. Following are the possible error codes.
 894:.\Generated_Source\PSoC4/ble.c ****     *
 895:.\Generated_Source\PSoC4/ble.c ****     *   Errors codes                       | Description
 896:.\Generated_Source\PSoC4/ble.c ****     *   ------------                       | -----------
 897:.\Generated_Source\PSoC4/ble.c ****     *   CYBLE_ERROR_OK                     | On successful operation.
 898:.\Generated_Source\PSoC4/ble.c ****     *   CYBLE_ERROR_STACK_INTERNAL         | On error occurred in the BLE stack.
 899:.\Generated_Source\PSoC4/ble.c ****     *   CYBLE_ERROR_INVALID_PARAMETER      | On passing an invalid parameter.
 900:.\Generated_Source\PSoC4/ble.c ****     *   CYBLE_ERROR_INVALID_STATE          | On calling this API not in Disconnected state.
 901:.\Generated_Source\PSoC4/ble.c ****     *  
 902:.\Generated_Source\PSoC4/ble.c ****     ******************************************************************************/
 903:.\Generated_Source\PSoC4/ble.c ****     CYBLE_API_RESULT_T CyBle_GapcConnectDevice(const CYBLE_GAP_BD_ADDR_T * address)
 904:.\Generated_Source\PSoC4/ble.c ****     {
 905:.\Generated_Source\PSoC4/ble.c ****         CYBLE_API_RESULT_T apiResult;
 906:.\Generated_Source\PSoC4/ble.c ****         uint8 i;
 907:.\Generated_Source\PSoC4/ble.c **** 
 908:.\Generated_Source\PSoC4/ble.c ****         if(CYBLE_STATE_DISCONNECTED != CyBle_GetState())
 909:.\Generated_Source\PSoC4/ble.c ****         {
 910:.\Generated_Source\PSoC4/ble.c ****             apiResult = CYBLE_ERROR_INVALID_STATE;
 911:.\Generated_Source\PSoC4/ble.c ****         }
 912:.\Generated_Source\PSoC4/ble.c ****         else if(address == NULL)
 913:.\Generated_Source\PSoC4/ble.c ****         {
 914:.\Generated_Source\PSoC4/ble.c ****             apiResult = CYBLE_ERROR_INVALID_PARAMETER;
 915:.\Generated_Source\PSoC4/ble.c ****         }
 916:.\Generated_Source\PSoC4/ble.c ****         else
 917:.\Generated_Source\PSoC4/ble.c ****         {
 918:.\Generated_Source\PSoC4/ble.c ****             for(i = 0u; i < CYBLE_GAP_BD_ADDR_SIZE; i++)
 919:.\Generated_Source\PSoC4/ble.c ****             {
 920:.\Generated_Source\PSoC4/ble.c ****                 cyBle_connectionParameters.peerBdAddr[i] = address->bdAddr[i];
 921:.\Generated_Source\PSoC4/ble.c ****             }
 922:.\Generated_Source\PSoC4/ble.c ****             cyBle_connectionParameters.peerAddrType = address -> type;
 923:.\Generated_Source\PSoC4/ble.c ****             apiResult = CyBle_GapcInitConnection(&cyBle_connectionParameters);
 924:.\Generated_Source\PSoC4/ble.c ****             
 925:.\Generated_Source\PSoC4/ble.c ****             if(CYBLE_ERROR_OK == apiResult)
 926:.\Generated_Source\PSoC4/ble.c ****             {
 927:.\Generated_Source\PSoC4/ble.c ****                 CyBle_SetState(CYBLE_STATE_CONNECTING);
 928:.\Generated_Source\PSoC4/ble.c ****                 if(cyBle_connectingTimeout != 0u)
 929:.\Generated_Source\PSoC4/ble.c ****                 {
 930:.\Generated_Source\PSoC4/ble.c ****                     (void)CyBle_StartTimer(cyBle_connectingTimeout);
 931:.\Generated_Source\PSoC4/ble.c ****                 }
 932:.\Generated_Source\PSoC4/ble.c ****             }
 933:.\Generated_Source\PSoC4/ble.c ****         }
 934:.\Generated_Source\PSoC4/ble.c ****         return (apiResult);
 935:.\Generated_Source\PSoC4/ble.c ****     }
 936:.\Generated_Source\PSoC4/ble.c ****     
 937:.\Generated_Source\PSoC4/ble.c **** 
 938:.\Generated_Source\PSoC4/ble.c ****     /******************************************************************************
 939:.\Generated_Source\PSoC4/ble.c ****     * Function Name: CyBle_GapcCancelDeviceConnection
 940:.\Generated_Source\PSoC4/ble.c ****     ***************************************************************************//**
 941:.\Generated_Source\PSoC4/ble.c ****     * 
 942:.\Generated_Source\PSoC4/ble.c ****     *  This function cancels a previously initiated connection with the remote 
 943:.\Generated_Source\PSoC4/ble.c ****     *  device. It is a blocking function. No event is generated on calling this 
 944:.\Generated_Source\PSoC4/ble.c ****     *  function. If the devices are already connected then this function should not
 945:.\Generated_Source\PSoC4/ble.c ****     *  be used. If you intend to disconnect from an existing connection, the function
ARM GAS  C:\Users\Alan\AppData\Local\Temp\ccih7e8i.s 			page 18


 946:.\Generated_Source\PSoC4/ble.c ****     *  CyBle_GapDisconnect() should be used.
 947:.\Generated_Source\PSoC4/ble.c ****     * 
 948:.\Generated_Source\PSoC4/ble.c ****     * \return
 949:.\Generated_Source\PSoC4/ble.c ****     *  CYBLE_API_RESULT_T : Return value indicates if the function succeeded or 
 950:.\Generated_Source\PSoC4/ble.c ****     *  failed. Following are the possible error codes.
 951:.\Generated_Source\PSoC4/ble.c ****     *
 952:.\Generated_Source\PSoC4/ble.c ****     *   Errors codes                       | Description
 953:.\Generated_Source\PSoC4/ble.c ****     *   ---------------------------------- | --------------------------------------
 954:.\Generated_Source\PSoC4/ble.c ****     *   CYBLE_ERROR_OK                     | On successful operation.
 955:.\Generated_Source\PSoC4/ble.c ****     *   CYBLE_ERROR_STACK_INTERNAL         | An error occurred in the BLE stack.
 956:.\Generated_Source\PSoC4/ble.c ****     *   CYBLE_ERROR_INVALID_OPERATION      | Device is already connected.
 957:.\Generated_Source\PSoC4/ble.c ****     *  
 958:.\Generated_Source\PSoC4/ble.c ****     *******************************************************************************/
 959:.\Generated_Source\PSoC4/ble.c ****     CYBLE_API_RESULT_T CyBle_GapcCancelDeviceConnection(void)
 960:.\Generated_Source\PSoC4/ble.c ****     {
 961:.\Generated_Source\PSoC4/ble.c ****         CYBLE_API_RESULT_T apiResult;
 962:.\Generated_Source\PSoC4/ble.c ****         
 963:.\Generated_Source\PSoC4/ble.c ****         apiResult = CyBle_GapcCancelConnection();
 964:.\Generated_Source\PSoC4/ble.c ****             
 965:.\Generated_Source\PSoC4/ble.c ****         if(cyBle_connectingTimeout != 0u)
 966:.\Generated_Source\PSoC4/ble.c ****         {
 967:.\Generated_Source\PSoC4/ble.c ****             (void)CyBle_StopTimer();
 968:.\Generated_Source\PSoC4/ble.c ****         }
 969:.\Generated_Source\PSoC4/ble.c **** 
 970:.\Generated_Source\PSoC4/ble.c ****         if(CYBLE_ERROR_OK == apiResult)
 971:.\Generated_Source\PSoC4/ble.c ****         {
 972:.\Generated_Source\PSoC4/ble.c ****             CyBle_SetState(CYBLE_STATE_DISCONNECTED);
 973:.\Generated_Source\PSoC4/ble.c ****         }
 974:.\Generated_Source\PSoC4/ble.c ****         return (apiResult);
 975:.\Generated_Source\PSoC4/ble.c ****     }    
 976:.\Generated_Source\PSoC4/ble.c **** 
 977:.\Generated_Source\PSoC4/ble.c ****     
 978:.\Generated_Source\PSoC4/ble.c **** #endif /* CYBLE_GAP_ROLE_CENTRAL */
 979:.\Generated_Source\PSoC4/ble.c **** 
 980:.\Generated_Source\PSoC4/ble.c **** 
 981:.\Generated_Source\PSoC4/ble.c **** #if(CYBLE_GATT_ROLE_SERVER)
 982:.\Generated_Source\PSoC4/ble.c **** 
 983:.\Generated_Source\PSoC4/ble.c **** #if(CYBLE_GAP_ROLE_PERIPHERAL)
 984:.\Generated_Source\PSoC4/ble.c **** 
 985:.\Generated_Source\PSoC4/ble.c ****         /******************************************************************************
 986:.\Generated_Source\PSoC4/ble.c ****         * Function Name: CyBle_ChangeAdLocalName
 987:.\Generated_Source\PSoC4/ble.c ****         ***************************************************************************//**
 988:.\Generated_Source\PSoC4/ble.c ****         *  This API is used to set the local device name in the advertisement or scan 
 989:.\Generated_Source\PSoC4/ble.c ****         *  response data structure.
 990:.\Generated_Source\PSoC4/ble.c ****         * 
 991:.\Generated_Source\PSoC4/ble.c ****         *  \param name: The local device name string to be set in advertisement data 
 992:.\Generated_Source\PSoC4/ble.c ****         *            structure.
 993:.\Generated_Source\PSoC4/ble.c ****         *  \param dest: 0 - advertisement structure, not zero value selects scan response
 994:.\Generated_Source\PSoC4/ble.c ****         *              structure.
 995:.\Generated_Source\PSoC4/ble.c ****         * 
 996:.\Generated_Source\PSoC4/ble.c ****         * \return
 997:.\Generated_Source\PSoC4/ble.c ****         *  None
 998:.\Generated_Source\PSoC4/ble.c ****         *  
 999:.\Generated_Source\PSoC4/ble.c ****         *******************************************************************************/
1000:.\Generated_Source\PSoC4/ble.c ****         static void CyBle_ChangeAdLocalName(const char8 name[], uint8 dest)
1001:.\Generated_Source\PSoC4/ble.c ****         {
  25              		.loc 1 1001 0
ARM GAS  C:\Users\Alan\AppData\Local\Temp\ccih7e8i.s 			page 19


  26              		.cfi_startproc
  27              	.LVL0:
  28 0000 70B5     		push	{r4, r5, r6, lr}
  29              		.cfi_def_cfa_offset 16
  30              		.cfi_offset 4, -16
  31              		.cfi_offset 5, -12
  32              		.cfi_offset 6, -8
  33              		.cfi_offset 14, -4
  34              	.LVL1:
1002:.\Generated_Source\PSoC4/ble.c ****             uint8 i;
1003:.\Generated_Source\PSoC4/ble.c ****             uint8 flag = 0u;
1004:.\Generated_Source\PSoC4/ble.c ****             uint8 adLength = 0u;
1005:.\Generated_Source\PSoC4/ble.c ****             uint8 byteCounter = 0u;
1006:.\Generated_Source\PSoC4/ble.c ****             uint8 *destBuffer;
1007:.\Generated_Source\PSoC4/ble.c ****             uint8 maxLength;
1008:.\Generated_Source\PSoC4/ble.c ****             
1009:.\Generated_Source\PSoC4/ble.c ****             if(dest == 0u)      /* Destination - advertising structure */
  35              		.loc 1 1009 0
  36 0002 0029     		cmp	r1, #0
  37 0004 05D1     		bne	.L2
  38              	.LVL2:
1010:.\Generated_Source\PSoC4/ble.c ****             {
1011:.\Generated_Source\PSoC4/ble.c ****                 destBuffer = cyBle_discoveryData.advData;
1012:.\Generated_Source\PSoC4/ble.c ****                 maxLength = cyBle_discoveryData.advDataLen;
  39              		.loc 1 1012 0
  40 0006 1A4C     		ldr	r4, .L15
  41 0008 E67F     		ldrb	r6, [r4, #31]
  42              	.LVL3:
  43              	.L4:
1013:.\Generated_Source\PSoC4/ble.c ****             }
1014:.\Generated_Source\PSoC4/ble.c ****             else                /* Destination - scan response structure */
1015:.\Generated_Source\PSoC4/ble.c ****             {
1016:.\Generated_Source\PSoC4/ble.c ****                 destBuffer = cyBle_scanRspData.scanRspData;
1017:.\Generated_Source\PSoC4/ble.c ****                 maxLength = cyBle_scanRspData.scanRspDataLen;
1018:.\Generated_Source\PSoC4/ble.c ****             }
1019:.\Generated_Source\PSoC4/ble.c ****             
1020:.\Generated_Source\PSoC4/ble.c ****             while((byteCounter < maxLength) && (0u == flag))
1021:.\Generated_Source\PSoC4/ble.c ****             {
1022:.\Generated_Source\PSoC4/ble.c ****                 adLength = destBuffer[byteCounter];
1023:.\Generated_Source\PSoC4/ble.c ****                 
1024:.\Generated_Source\PSoC4/ble.c ****                 if(0u != adLength)
1025:.\Generated_Source\PSoC4/ble.c ****                 {
1026:.\Generated_Source\PSoC4/ble.c ****                     /* Increment byte counter so it can point to AD type */
1027:.\Generated_Source\PSoC4/ble.c ****                     byteCounter++;
1028:.\Generated_Source\PSoC4/ble.c ****                     
1029:.\Generated_Source\PSoC4/ble.c ****                     if((CYBLE_SHORT_LOCAL_NAME == destBuffer[byteCounter]) || 
1030:.\Generated_Source\PSoC4/ble.c ****                        (CYBLE_COMPLETE_LOCAL_NAME == destBuffer[byteCounter]))
1031:.\Generated_Source\PSoC4/ble.c ****                     {
1032:.\Generated_Source\PSoC4/ble.c ****                         /* Start of the Local Name AD type was fount. Set flag and exit the loop. *
1033:.\Generated_Source\PSoC4/ble.c ****                         flag = 1u;
  44              		.loc 1 1033 0
  45 000a 0023     		mov	r3, #0
  46 000c 0022     		mov	r2, #0
  47 000e 0025     		mov	r5, #0
  48 0010 0FE0     		b	.L3
  49              	.LVL4:
  50              	.L2:
ARM GAS  C:\Users\Alan\AppData\Local\Temp\ccih7e8i.s 			page 20


1017:.\Generated_Source\PSoC4/ble.c ****             }
  51              		.loc 1 1017 0
  52 0012 184C     		ldr	r4, .L15+4
  53 0014 E67F     		ldrb	r6, [r4, #31]
  54              	.LVL5:
  55 0016 F8E7     		b	.L4
  56              	.LVL6:
  57              	.L7:
1022:.\Generated_Source\PSoC4/ble.c ****                 
  58              		.loc 1 1022 0
  59 0018 E25C     		ldrb	r2, [r4, r3]
  60              	.LVL7:
1024:.\Generated_Source\PSoC4/ble.c ****                 {
  61              		.loc 1 1024 0
  62 001a 002A     		cmp	r2, #0
  63 001c 0DD0     		beq	.L5
1027:.\Generated_Source\PSoC4/ble.c ****                     
  64              		.loc 1 1027 0
  65 001e 0133     		add	r3, r3, #1
  66              	.LVL8:
  67 0020 DBB2     		uxtb	r3, r3
  68              	.LVL9:
1029:.\Generated_Source\PSoC4/ble.c ****                        (CYBLE_COMPLETE_LOCAL_NAME == destBuffer[byteCounter]))
  69              		.loc 1 1029 0
  70 0022 E15C     		ldrb	r1, [r4, r3]
  71 0024 0839     		sub	r1, r1, #8
  72 0026 0129     		cmp	r1, #1
  73 0028 02D9     		bls	.L14
1034:.\Generated_Source\PSoC4/ble.c ****                     }
1035:.\Generated_Source\PSoC4/ble.c ****                     else
1036:.\Generated_Source\PSoC4/ble.c ****                     {
1037:.\Generated_Source\PSoC4/ble.c ****                         byteCounter += adLength;
  74              		.loc 1 1037 0
  75 002a 9B18     		add	r3, r3, r2
  76              	.LVL10:
  77 002c DBB2     		uxtb	r3, r3
  78              	.LVL11:
  79 002e 00E0     		b	.L3
  80              	.L14:
1033:.\Generated_Source\PSoC4/ble.c ****                     }
  81              		.loc 1 1033 0
  82 0030 0125     		mov	r5, #1
  83              	.LVL12:
  84              	.L3:
1020:.\Generated_Source\PSoC4/ble.c ****             {
  85              		.loc 1 1020 0
  86 0032 B342     		cmp	r3, r6
  87 0034 01D2     		bcs	.L5
1020:.\Generated_Source\PSoC4/ble.c ****             {
  88              		.loc 1 1020 0 is_stmt 0 discriminator 1
  89 0036 002D     		cmp	r5, #0
  90 0038 EED0     		beq	.L7
  91              	.L5:
1038:.\Generated_Source\PSoC4/ble.c ****                     }
1039:.\Generated_Source\PSoC4/ble.c ****                 }
1040:.\Generated_Source\PSoC4/ble.c ****                 else
1041:.\Generated_Source\PSoC4/ble.c ****                 {
ARM GAS  C:\Users\Alan\AppData\Local\Temp\ccih7e8i.s 			page 21


1042:.\Generated_Source\PSoC4/ble.c ****                     /* The end of advertisement data structure was encountered though exit the loop
1043:.\Generated_Source\PSoC4/ble.c ****                     break;
1044:.\Generated_Source\PSoC4/ble.c ****                 }
1045:.\Generated_Source\PSoC4/ble.c ****             }
1046:.\Generated_Source\PSoC4/ble.c ****             
1047:.\Generated_Source\PSoC4/ble.c ****             if(0u != flag)
  92              		.loc 1 1047 0 is_stmt 1
  93 003a 002D     		cmp	r5, #0
  94 003c 16D0     		beq	.L1
1048:.\Generated_Source\PSoC4/ble.c ****             {
1049:.\Generated_Source\PSoC4/ble.c ****                 /* Reuse "adLength" to hold location of the last character of local name in 
1050:.\Generated_Source\PSoC4/ble.c ****                    AD structure. */
1051:.\Generated_Source\PSoC4/ble.c ****                 adLength += byteCounter;
  95              		.loc 1 1051 0
  96 003e D218     		add	r2, r2, r3
  97              	.LVL13:
  98 0040 D1B2     		uxtb	r1, r2
  99              	.LVL14:
1052:.\Generated_Source\PSoC4/ble.c ****                 
1053:.\Generated_Source\PSoC4/ble.c ****                 /* Increment byte counter to point to start of the local Name string */
1054:.\Generated_Source\PSoC4/ble.c ****                 byteCounter++;
 100              		.loc 1 1054 0
 101 0042 0133     		add	r3, r3, #1
 102              	.LVL15:
 103 0044 DBB2     		uxtb	r3, r3
 104              	.LVL16:
1055:.\Generated_Source\PSoC4/ble.c ****                 
1056:.\Generated_Source\PSoC4/ble.c ****                 for(i = byteCounter; ((i < (adLength)) && (CYBLE_NULL_CHARCTER != name[i - byteCoun
 105              		.loc 1 1056 0
 106 0046 1A1C     		mov	r2, r3
 107 0048 02E0     		b	.L9
 108              	.LVL17:
 109              	.L11:
1057:.\Generated_Source\PSoC4/ble.c ****                 {
1058:.\Generated_Source\PSoC4/ble.c ****                     destBuffer[i] = (uint8)name[i - byteCounter];
 110              		.loc 1 1058 0 discriminator 4
 111 004a A554     		strb	r5, [r4, r2]
1056:.\Generated_Source\PSoC4/ble.c ****                 {
 112              		.loc 1 1056 0 discriminator 4
 113 004c 0132     		add	r2, r2, #1
 114              	.LVL18:
 115 004e D2B2     		uxtb	r2, r2
 116              	.LVL19:
 117              	.L9:
1056:.\Generated_Source\PSoC4/ble.c ****                 {
 118              		.loc 1 1056 0 is_stmt 0 discriminator 1
 119 0050 8A42     		cmp	r2, r1
 120 0052 09D2     		bcs	.L12
1056:.\Generated_Source\PSoC4/ble.c ****                 {
 121              		.loc 1 1056 0 discriminator 3
 122 0054 D51A     		sub	r5, r2, r3
 123 0056 455D     		ldrb	r5, [r0, r5]
 124 0058 002D     		cmp	r5, #0
 125 005a F6D1     		bne	.L11
 126 005c 04E0     		b	.L12
 127              	.LVL20:
 128              	.L13:
ARM GAS  C:\Users\Alan\AppData\Local\Temp\ccih7e8i.s 			page 22


1059:.\Generated_Source\PSoC4/ble.c ****                 }
1060:.\Generated_Source\PSoC4/ble.c ****                 
1061:.\Generated_Source\PSoC4/ble.c ****                 /* This loop handles the case when new local name is shorted than old one.
1062:.\Generated_Source\PSoC4/ble.c ****                    In this case all remaining characters should be null characters. */
1063:.\Generated_Source\PSoC4/ble.c ****                 while(adLength > i)
1064:.\Generated_Source\PSoC4/ble.c ****                 {
1065:.\Generated_Source\PSoC4/ble.c ****                     /* Terminate string */
1066:.\Generated_Source\PSoC4/ble.c ****                     destBuffer[i] = (uint8)CYBLE_NULL_CHARCTER;
 129              		.loc 1 1066 0 is_stmt 1
 130 005e A318     		add	r3, r4, r2
 131 0060 0020     		mov	r0, #0
 132 0062 1870     		strb	r0, [r3]
1067:.\Generated_Source\PSoC4/ble.c ****                     i++;
 133              		.loc 1 1067 0
 134 0064 0132     		add	r2, r2, #1
 135              	.LVL21:
 136 0066 D2B2     		uxtb	r2, r2
 137              	.LVL22:
 138              	.L12:
1063:.\Generated_Source\PSoC4/ble.c ****                 {
 139              		.loc 1 1063 0
 140 0068 9142     		cmp	r1, r2
 141 006a F8D8     		bhi	.L13
 142              	.LVL23:
 143              	.L1:
1068:.\Generated_Source\PSoC4/ble.c ****                 }
1069:.\Generated_Source\PSoC4/ble.c ****             }
1070:.\Generated_Source\PSoC4/ble.c ****         }
 144              		.loc 1 1070 0
 145              		@ sp needed
 146              	.LVL24:
 147              	.LVL25:
 148 006c 70BD     		pop	{r4, r5, r6, pc}
 149              	.L16:
 150 006e C046     		.align	2
 151              	.L15:
 152 0070 00000000 		.word	.LANCHOR0
 153 0074 00000000 		.word	.LANCHOR1
 154              		.cfi_endproc
 155              	.LFE10:
 156              		.size	CyBle_ChangeAdLocalName, .-CyBle_ChangeAdLocalName
 157              		.section	.text.CyBle_ServiceInit,"ax",%progbits
 158              		.align	2
 159              		.global	CyBle_ServiceInit
 160              		.code	16
 161              		.thumb_func
 162              		.type	CyBle_ServiceInit, %function
 163              	CyBle_ServiceInit:
 164              	.LFB3:
 209:.\Generated_Source\PSoC4/ble.c ****     #if(CYBLE_GATT_ROLE_CLIENT)
 165              		.loc 1 209 0
 166              		.cfi_startproc
 167 0000 08B5     		push	{r3, lr}
 168              		.cfi_def_cfa_offset 8
 169              		.cfi_offset 3, -8
 170              		.cfi_offset 14, -4
 264:.\Generated_Source\PSoC4/ble.c ****     #endif /* CYBLE_CUSTOM */
ARM GAS  C:\Users\Alan\AppData\Local\Temp\ccih7e8i.s 			page 23


 171              		.loc 1 264 0
 172 0002 FFF7FEFF 		bl	CyBle_CustomInit
 173              	.LVL26:
 322:.\Generated_Source\PSoC4/ble.c **** 
 174              		.loc 1 322 0
 175              		@ sp needed
 176 0006 08BD     		pop	{r3, pc}
 177              		.cfi_endproc
 178              	.LFE3:
 179              		.size	CyBle_ServiceInit, .-CyBle_ServiceInit
 180              		.section	.text.CyBle_Init,"ax",%progbits
 181              		.align	2
 182              		.global	CyBle_Init
 183              		.code	16
 184              		.thumb_func
 185              		.type	CyBle_Init, %function
 186              	CyBle_Init:
 187              	.LFB2:
 160:.\Generated_Source\PSoC4/ble.c ****     cyBle_eventHandlerFlag = 0u;
 188              		.loc 1 160 0
 189              		.cfi_startproc
 190 0000 10B5     		push	{r4, lr}
 191              		.cfi_def_cfa_offset 8
 192              		.cfi_offset 4, -8
 193              		.cfi_offset 14, -4
 161:.\Generated_Source\PSoC4/ble.c ****     cyBle_busyStatus = CYBLE_STACK_STATE_FREE;
 194              		.loc 1 161 0
 195 0002 0024     		mov	r4, #0
 196 0004 064B     		ldr	r3, .L19
 197 0006 1C70     		strb	r4, [r3]
 162:.\Generated_Source\PSoC4/ble.c **** 
 198              		.loc 1 162 0
 199 0008 064B     		ldr	r3, .L19+4
 200 000a 1C70     		strb	r4, [r3]
 165:.\Generated_Source\PSoC4/ble.c ****     #endif /* (CYBLE_GAP_ROLE_PERIPHERAL || CYBLE_GAP_ROLE_BROADCASTER)  */
 201              		.loc 1 165 0
 202 000c 064B     		ldr	r3, .L19+8
 203 000e 1C70     		strb	r4, [r3]
 188:.\Generated_Source\PSoC4/ble.c **** 
 204              		.loc 1 188 0
 205 0010 FFF7FEFF 		bl	CyBle_ServiceInit
 206              	.LVL27:
 191:.\Generated_Source\PSoC4/ble.c ****         cyBle_peerBonding = CYBLE_GAP_BONDING_NONE;
 207              		.loc 1 191 0
 208 0014 054B     		ldr	r3, .L19+12
 209 0016 1C70     		strb	r4, [r3]
 192:.\Generated_Source\PSoC4/ble.c ****     #endif  /* (CYBLE_BONDING_REQUIREMENT == CYBLE_BONDING_YES) */
 210              		.loc 1 192 0
 211 0018 054B     		ldr	r3, .L19+16
 212 001a 1C70     		strb	r4, [r3]
 195:.\Generated_Source\PSoC4/ble.c **** 
 213              		.loc 1 195 0
 214              		@ sp needed
 215 001c 10BD     		pop	{r4, pc}
 216              	.L20:
 217 001e C046     		.align	2
 218              	.L19:
ARM GAS  C:\Users\Alan\AppData\Local\Temp\ccih7e8i.s 			page 24


 219 0020 00000000 		.word	cyBle_eventHandlerFlag
 220 0024 00000000 		.word	cyBle_busyStatus
 221 0028 00000000 		.word	cyBle_advertisingIntervalType
 222 002c 00000000 		.word	cyBle_pendingFlashWrite
 223 0030 00000000 		.word	cyBle_peerBonding
 224              		.cfi_endproc
 225              	.LFE2:
 226              		.size	CyBle_Init, .-CyBle_Init
 227              		.section	.text.CyBle_Start,"ax",%progbits
 228              		.align	2
 229              		.global	CyBle_Start
 230              		.code	16
 231              		.thumb_func
 232              		.type	CyBle_Start, %function
 233              	CyBle_Start:
 234              	.LFB4:
 384:.\Generated_Source\PSoC4/ble.c ****     CYBLE_API_RESULT_T apiResult = CYBLE_ERROR_OK;
 235              		.loc 1 384 0
 236              		.cfi_startproc
 237              	.LVL28:
 238 0000 10B5     		push	{r4, lr}
 239              		.cfi_def_cfa_offset 8
 240              		.cfi_offset 4, -8
 241              		.cfi_offset 14, -4
 242 0002 8AB0     		sub	sp, sp, #40
 243              		.cfi_def_cfa_offset 48
 244 0004 041C     		mov	r4, r0
 245              	.LVL29:
 389:.\Generated_Source\PSoC4/ble.c ****     {
 246              		.loc 1 389 0
 247 0006 04A8     		add	r0, sp, #16
 248              	.LVL30:
 249 0008 1649     		ldr	r1, .L25
 250 000a 1822     		mov	r2, #24
 251 000c FFF7FEFF 		bl	memcpy
 252              	.LVL31:
 402:.\Generated_Source\PSoC4/ble.c ****     {
 253              		.loc 1 402 0
 254 0010 2023     		mov	r3, #32
 255 0012 154A     		ldr	r2, .L25+4
 256 0014 D35C     		ldrb	r3, [r2, r3]
 257 0016 002B     		cmp	r3, #0
 258 0018 05D1     		bne	.L22
 404:.\Generated_Source\PSoC4/ble.c ****         cyBle_initVar = 1u;
 259              		.loc 1 404 0
 260 001a FFF7FEFF 		bl	CyBle_Init
 261              	.LVL32:
 405:.\Generated_Source\PSoC4/ble.c ****     }
 262              		.loc 1 405 0
 263 001e 0121     		mov	r1, #1
 264 0020 2023     		mov	r3, #32
 265 0022 114A     		ldr	r2, .L25+4
 266 0024 D154     		strb	r1, [r2, r3]
 267              	.L22:
 408:.\Generated_Source\PSoC4/ble.c ****     {
 268              		.loc 1 408 0
 269 0026 002C     		cmp	r4, #0
ARM GAS  C:\Users\Alan\AppData\Local\Temp\ccih7e8i.s 			page 25


 270 0028 19D0     		beq	.L24
 422:.\Generated_Source\PSoC4/ble.c ****             
 271              		.loc 1 422 0
 272 002a 104B     		ldr	r3, .L25+8
 273 002c 1C60     		str	r4, [r3]
 425:.\Generated_Source\PSoC4/ble.c ****                 cyBle_stackDataBuff, CYBLE_STACK_BUF_COUNT, cyBle_flashStorage.stackFlashptr, CYBLE
 274              		.loc 1 425 0
 275 002e 0623     		mov	r3, #6
 276 0030 0093     		str	r3, [sp]
 277 0032 0F4B     		ldr	r3, .L25+12
 278 0034 0193     		str	r3, [sp, #4]
 279 0036 6E23     		mov	r3, #110
 280 0038 FF33     		add	r3, r3, #255
 281 003a 0293     		str	r3, [sp, #8]
 282 003c 0D48     		ldr	r0, .L25+16
 283 003e 0E49     		ldr	r1, .L25+20
 284 0040 0E4A     		ldr	r2, .L25+24
 285 0042 04AB     		add	r3, sp, #16
 286 0044 FFF7FEFF 		bl	CyBle_StackInit
 287              	.LVL33:
 432:.\Generated_Source\PSoC4/ble.c ****             {
 288              		.loc 1 432 0
 289 0048 0028     		cmp	r0, #0
 290 004a 09D1     		bne	.L23
 434:.\Generated_Source\PSoC4/ble.c ****                 
 291              		.loc 1 434 0
 292 004c 0122     		mov	r2, #1
 293 004e 0C4B     		ldr	r3, .L25+28
 294 0050 1A70     		strb	r2, [r3]
 441:.\Generated_Source\PSoC4/ble.c ****             #endif /* CYBLE_GATT_ROLE_SERVER */
 295              		.loc 1 441 0
 296 0052 0C48     		ldr	r0, .L25+32
 297              	.LVL34:
 298 0054 1A21     		mov	r1, #26
 299 0056 0932     		add	r2, r2, #9
 300 0058 FFF7FEFF 		bl	CyBle_GattsDbRegister
 301              	.LVL35:
 302 005c 00E0     		b	.L23
 303              	.LVL36:
 304              	.L24:
 448:.\Generated_Source\PSoC4/ble.c ****     }
 305              		.loc 1 448 0
 306 005e 0120     		mov	r0, #1
 307              	.LVL37:
 308              	.L23:
 452:.\Generated_Source\PSoC4/ble.c **** 
 309              		.loc 1 452 0
 310 0060 0AB0     		add	sp, sp, #40
 311              		@ sp needed
 312              	.LVL38:
 313 0062 10BD     		pop	{r4, pc}
 314              	.L26:
 315              		.align	2
 316              	.L25:
 317 0064 00000000 		.word	.LANCHOR2
 318 0068 00000000 		.word	.LANCHOR1
 319 006c 00000000 		.word	CyBle_ApplCallback
ARM GAS  C:\Users\Alan\AppData\Local\Temp\ccih7e8i.s 			page 26


 320 0070 00000000 		.word	cyBle_flashStorage
 321 0074 00000000 		.word	CyBle_EventHandler
 322 0078 00000000 		.word	cyBle_stackMemoryRam
 323 007c C40A0000 		.word	2756
 324 0080 00000000 		.word	cyBle_state
 325 0084 00000000 		.word	cyBle_gattDB
 326              		.cfi_endproc
 327              	.LFE4:
 328              		.size	CyBle_Start, .-CyBle_Start
 329              		.section	.text.CyBle_Stop,"ax",%progbits
 330              		.align	2
 331              		.global	CyBle_Stop
 332              		.code	16
 333              		.thumb_func
 334              		.type	CyBle_Stop, %function
 335              	CyBle_Stop:
 336              	.LFB5:
 468:.\Generated_Source\PSoC4/ble.c ****     CyBle_Shutdown();                         /* Stop all ongoing activities */
 337              		.loc 1 468 0
 338              		.cfi_startproc
 339 0000 08B5     		push	{r3, lr}
 340              		.cfi_def_cfa_offset 8
 341              		.cfi_offset 3, -8
 342              		.cfi_offset 14, -4
 469:.\Generated_Source\PSoC4/ble.c ****     CyBle_SetState(CYBLE_STATE_STOPPED);
 343              		.loc 1 469 0
 344 0002 FFF7FEFF 		bl	CyBle_Shutdown
 345              	.LVL39:
 470:.\Generated_Source\PSoC4/ble.c ****     #if(CYBLE_SHARING_MODE_EXPORT)
 346              		.loc 1 470 0
 347 0006 0022     		mov	r2, #0
 348 0008 014B     		ldr	r3, .L28
 349 000a 1A70     		strb	r2, [r3]
 477:.\Generated_Source\PSoC4/ble.c **** 
 350              		.loc 1 477 0
 351              		@ sp needed
 352 000c 08BD     		pop	{r3, pc}
 353              	.L29:
 354 000e C046     		.align	2
 355              	.L28:
 356 0010 00000000 		.word	cyBle_state
 357              		.cfi_endproc
 358              	.LFE5:
 359              		.size	CyBle_Stop, .-CyBle_Stop
 360              		.section	.text.CyBle_StoreBondingData,"ax",%progbits
 361              		.align	2
 362              		.global	CyBle_StoreBondingData
 363              		.code	16
 364              		.thumb_func
 365              		.type	CyBle_StoreBondingData, %function
 366              	CyBle_StoreBondingData:
 367              	.LFB6:
 521:.\Generated_Source\PSoC4/ble.c ****     CYBLE_API_RESULT_T apiResult = CYBLE_ERROR_OK;
 368              		.loc 1 521 0
 369              		.cfi_startproc
 370              	.LVL40:
 371 0000 10B5     		push	{r4, lr}
ARM GAS  C:\Users\Alan\AppData\Local\Temp\ccih7e8i.s 			page 27


 372              		.cfi_def_cfa_offset 8
 373              		.cfi_offset 4, -8
 374              		.cfi_offset 14, -4
 375 0002 041C     		mov	r4, r0
 376              	.LVL41:
 525:.\Generated_Source\PSoC4/ble.c ****     {
 377              		.loc 1 525 0
 378 0004 194B     		ldr	r3, .L36
 379 0006 1B78     		ldrb	r3, [r3]
 380 0008 DB07     		lsl	r3, r3, #31
 381 000a 0BD5     		bpl	.L34
 527:.\Generated_Source\PSoC4/ble.c ****         if(apiResult == CYBLE_ERROR_OK)
 382              		.loc 1 527 0
 383 000c FFF7FEFF 		bl	CyBle_StoreStackData
 384              	.LVL42:
 528:.\Generated_Source\PSoC4/ble.c ****         {
 385              		.loc 1 528 0
 386 0010 0028     		cmp	r0, #0
 387 0012 0AD1     		bne	.L31
 530:.\Generated_Source\PSoC4/ble.c ****             /* Change apiResult if there are more pending data to store */
 388              		.loc 1 530 0
 389 0014 154A     		ldr	r2, .L36
 390 0016 1378     		ldrb	r3, [r2]
 391 0018 0121     		mov	r1, #1
 392 001a 8B43     		bic	r3, r1
 393 001c 1370     		strb	r3, [r2]
 532:.\Generated_Source\PSoC4/ble.c ****             {
 394              		.loc 1 532 0
 395 001e 9B07     		lsl	r3, r3, #30
 396 0020 02D4     		bmi	.L35
 397 0022 02E0     		b	.L31
 398              	.LVL43:
 399              	.L34:
 522:.\Generated_Source\PSoC4/ble.c ****     
 400              		.loc 1 522 0
 401 0024 0020     		mov	r0, #0
 402              	.LVL44:
 403 0026 00E0     		b	.L31
 404              	.LVL45:
 405              	.L35:
 534:.\Generated_Source\PSoC4/ble.c ****             }
 406              		.loc 1 534 0
 407 0028 2820     		mov	r0, #40
 408              	.LVL46:
 409              	.L31:
 540:.\Generated_Source\PSoC4/ble.c ****         ((cyBle_pendingFlashWrite & CYBLE_PENDING_CCCD_FLASH_WRITE_BIT) != 0u) &&
 410              		.loc 1 540 0
 411 002a 0028     		cmp	r0, #0
 412 002c 01D0     		beq	.L32
 540:.\Generated_Source\PSoC4/ble.c ****         ((cyBle_pendingFlashWrite & CYBLE_PENDING_CCCD_FLASH_WRITE_BIT) != 0u) &&
 413              		.loc 1 540 0 is_stmt 0 discriminator 2
 414 002e 002C     		cmp	r4, #0
 415 0030 1BD0     		beq	.L33
 416              	.L32:
 541:.\Generated_Source\PSoC4/ble.c ****         (cyBle_connHandle.bdHandle <= CYBLE_GAP_MAX_BONDED_DEVICE))
 417              		.loc 1 541 0 is_stmt 1 discriminator 3
 418 0032 0E4B     		ldr	r3, .L36
ARM GAS  C:\Users\Alan\AppData\Local\Temp\ccih7e8i.s 			page 28


 419 0034 1B78     		ldrb	r3, [r3]
 540:.\Generated_Source\PSoC4/ble.c ****         ((cyBle_pendingFlashWrite & CYBLE_PENDING_CCCD_FLASH_WRITE_BIT) != 0u) &&
 420              		.loc 1 540 0 discriminator 3
 421 0036 9B07     		lsl	r3, r3, #30
 422 0038 17D5     		bpl	.L33
 542:.\Generated_Source\PSoC4/ble.c ****     {
 423              		.loc 1 542 0
 424 003a 0D4B     		ldr	r3, .L36+4
 425 003c 1B78     		ldrb	r3, [r3]
 541:.\Generated_Source\PSoC4/ble.c ****         (cyBle_connHandle.bdHandle <= CYBLE_GAP_MAX_BONDED_DEVICE))
 426              		.loc 1 541 0
 427 003e 042B     		cmp	r3, #4
 428 0040 13D8     		bhi	.L33
 544:.\Generated_Source\PSoC4/ble.c ****                                        CYBLE_GATT_DB_CCCD_COUNT, isForceWrite);
 429              		.loc 1 544 0
 430 0042 5900     		lsl	r1, r3, #1
 431 0044 CB18     		add	r3, r1, r3
 432 0046 5B00     		lsl	r3, r3, #1
 433 0048 0A49     		ldr	r1, .L36+8
 434 004a CB18     		add	r3, r1, r3
 435 004c 6E33     		add	r3, r3, #110
 436 004e FF33     		add	r3, r3, #255
 437 0050 191C     		mov	r1, r3
 438 0052 0948     		ldr	r0, .L36+12
 439              	.LVL47:
 440 0054 0622     		mov	r2, #6
 441 0056 231C     		mov	r3, r4
 442 0058 FFF7FEFF 		bl	CyBle_StoreAppData
 443              	.LVL48:
 546:.\Generated_Source\PSoC4/ble.c ****         {
 444              		.loc 1 546 0
 445 005c 0028     		cmp	r0, #0
 446 005e 04D1     		bne	.L33
 548:.\Generated_Source\PSoC4/ble.c ****         }
 447              		.loc 1 548 0
 448 0060 024A     		ldr	r2, .L36
 449 0062 1378     		ldrb	r3, [r2]
 450 0064 0221     		mov	r1, #2
 451 0066 8B43     		bic	r3, r1
 452 0068 1370     		strb	r3, [r2]
 453              	.LVL49:
 454              	.L33:
 553:.\Generated_Source\PSoC4/ble.c **** 
 455              		.loc 1 553 0
 456              		@ sp needed
 457 006a 10BD     		pop	{r4, pc}
 458              	.L37:
 459              		.align	2
 460              	.L36:
 461 006c 00000000 		.word	cyBle_pendingFlashWrite
 462 0070 00000000 		.word	cyBle_connHandle
 463 0074 00000000 		.word	cyBle_flashStorage
 464 0078 00000000 		.word	cyBle_attValuesCCCD
 465              		.cfi_endproc
 466              	.LFE6:
 467              		.size	CyBle_StoreBondingData, .-CyBle_StoreBondingData
 468              		.section	.text.CyBle_GappStartAdvertisement,"ax",%progbits
ARM GAS  C:\Users\Alan\AppData\Local\Temp\ccih7e8i.s 			page 29


 469              		.align	2
 470              		.global	CyBle_GappStartAdvertisement
 471              		.code	16
 472              		.thumb_func
 473              		.type	CyBle_GappStartAdvertisement, %function
 474              	CyBle_GappStartAdvertisement:
 475              	.LFB7:
 609:.\Generated_Source\PSoC4/ble.c ****         CYBLE_API_RESULT_T apiResult;
 476              		.loc 1 609 0
 477              		.cfi_startproc
 478              	.LVL50:
 479 0000 08B5     		push	{r3, lr}
 480              		.cfi_def_cfa_offset 8
 481              		.cfi_offset 3, -8
 482              		.cfi_offset 14, -4
 612:.\Generated_Source\PSoC4/ble.c ****         {
 483              		.loc 1 612 0
 484 0002 0228     		cmp	r0, #2
 485 0004 2ED8     		bhi	.L42
 616:.\Generated_Source\PSoC4/ble.c ****         {   
 486              		.loc 1 616 0
 487 0006 1B4B     		ldr	r3, .L45
 488 0008 1B78     		ldrb	r3, [r3]
 489 000a 042B     		cmp	r3, #4
 490 000c 2CD1     		bne	.L43
 616:.\Generated_Source\PSoC4/ble.c ****         {   
 491              		.loc 1 616 0 is_stmt 0 discriminator 1
 492 000e 1A4B     		ldr	r3, .L45+4
 493 0010 1B78     		ldrb	r3, [r3]
 494 0012 5B07     		lsl	r3, r3, #29
 495 0014 2BD4     		bmi	.L44
 618:.\Generated_Source\PSoC4/ble.c ****             {
 496              		.loc 1 618 0 is_stmt 1
 497 0016 0028     		cmp	r0, #0
 498 0018 09D1     		bne	.L40
 620:.\Generated_Source\PSoC4/ble.c ****                 cyBle_discoveryModeInfo.advParam->advIntvMin = CYBLE_FAST_ADV_INT_MIN;
 499              		.loc 1 620 0
 500 001a 184B     		ldr	r3, .L45+8
 501 001c 0022     		mov	r2, #0
 502 001e 1A86     		strh	r2, [r3, #48]
 621:.\Generated_Source\PSoC4/ble.c ****                 cyBle_discoveryModeInfo.advParam->advIntvMax = CYBLE_FAST_ADV_INT_MAX;
 503              		.loc 1 621 0
 504 0020 2032     		add	r2, r2, #32
 505 0022 596A     		ldr	r1, [r3, #36]
 506 0024 0A80     		strh	r2, [r1]
 622:.\Generated_Source\PSoC4/ble.c ****             }
 507              		.loc 1 622 0
 508 0026 5B6A     		ldr	r3, [r3, #36]
 509 0028 1032     		add	r2, r2, #16
 510 002a 5A80     		strh	r2, [r3, #2]
 511 002c 0CE0     		b	.L41
 512              	.L40:
 624:.\Generated_Source\PSoC4/ble.c ****             {
 513              		.loc 1 624 0
 514 002e 0128     		cmp	r0, #1
 515 0030 0AD1     		bne	.L41
 626:.\Generated_Source\PSoC4/ble.c ****                 cyBle_discoveryModeInfo.advParam->advIntvMin = CYBLE_SLOW_ADV_INT_MIN;
ARM GAS  C:\Users\Alan\AppData\Local\Temp\ccih7e8i.s 			page 30


 516              		.loc 1 626 0
 517 0032 124B     		ldr	r3, .L45+8
 518 0034 9622     		mov	r2, #150
 519 0036 1A86     		strh	r2, [r3, #48]
 627:.\Generated_Source\PSoC4/ble.c ****                 cyBle_discoveryModeInfo.advParam->advIntvMax = CYBLE_SLOW_ADV_INT_MAX;
 520              		.loc 1 627 0
 521 0038 C822     		mov	r2, #200
 522 003a D200     		lsl	r2, r2, #3
 523 003c 596A     		ldr	r1, [r3, #36]
 524 003e 0A80     		strh	r2, [r1]
 628:.\Generated_Source\PSoC4/ble.c ****             }       
 525              		.loc 1 628 0
 526 0040 5B6A     		ldr	r3, [r3, #36]
 527 0042 8022     		mov	r2, #128
 528 0044 D201     		lsl	r2, r2, #7
 529 0046 5A80     		strh	r2, [r3, #2]
 530              	.L41:
 633:.\Generated_Source\PSoC4/ble.c ****             apiResult = CyBle_GappEnterDiscoveryMode(&cyBle_discoveryModeInfo);
 531              		.loc 1 633 0
 532 0048 0D4B     		ldr	r3, .L45+12
 533 004a 1870     		strb	r0, [r3]
 634:.\Generated_Source\PSoC4/ble.c ****         
 534              		.loc 1 634 0
 535 004c 0B48     		ldr	r0, .L45+8
 536              	.LVL51:
 537 004e 2030     		add	r0, r0, #32
 538 0050 FFF7FEFF 		bl	CyBle_GappEnterDiscoveryMode
 539              	.LVL52:
 636:.\Generated_Source\PSoC4/ble.c ****             {
 540              		.loc 1 636 0
 541 0054 0028     		cmp	r0, #0
 542 0056 0CD1     		bne	.L39
 638:.\Generated_Source\PSoC4/ble.c ****             }
 543              		.loc 1 638 0
 544 0058 074A     		ldr	r2, .L45+4
 545 005a 1178     		ldrb	r1, [r2]
 546 005c 0423     		mov	r3, #4
 547 005e 0B43     		orr	r3, r1
 548 0060 1370     		strb	r3, [r2]
 549 0062 06E0     		b	.L39
 550              	.LVL53:
 551              	.L42:
 614:.\Generated_Source\PSoC4/ble.c ****         }
 552              		.loc 1 614 0
 553 0064 0120     		mov	r0, #1
 554              	.LVL54:
 555 0066 04E0     		b	.L39
 556              	.LVL55:
 557              	.L43:
 643:.\Generated_Source\PSoC4/ble.c ****         }
 558              		.loc 1 643 0
 559 0068 0420     		mov	r0, #4
 560              	.LVL56:
 561 006a FF30     		add	r0, r0, #255
 562 006c 01E0     		b	.L39
 563              	.LVL57:
 564              	.L44:
ARM GAS  C:\Users\Alan\AppData\Local\Temp\ccih7e8i.s 			page 31


 565 006e 0420     		mov	r0, #4
 566              	.LVL58:
 567 0070 FF30     		add	r0, r0, #255
 568              	.L39:
 569              	.LVL59:
 647:.\Generated_Source\PSoC4/ble.c **** 
 570              		.loc 1 647 0
 571              		@ sp needed
 572 0072 08BD     		pop	{r3, pc}
 573              	.L46:
 574              		.align	2
 575              	.L45:
 576 0074 00000000 		.word	cyBle_state
 577 0078 00000000 		.word	cyBle_eventHandlerFlag
 578 007c 00000000 		.word	.LANCHOR0
 579 0080 00000000 		.word	cyBle_advertisingIntervalType
 580              		.cfi_endproc
 581              	.LFE7:
 582              		.size	CyBle_GappStartAdvertisement, .-CyBle_GappStartAdvertisement
 583              		.section	.text.CyBle_GappStopAdvertisement,"ax",%progbits
 584              		.align	2
 585              		.global	CyBle_GappStopAdvertisement
 586              		.code	16
 587              		.thumb_func
 588              		.type	CyBle_GappStopAdvertisement, %function
 589              	CyBle_GappStopAdvertisement:
 590              	.LFB8:
 670:.\Generated_Source\PSoC4/ble.c ****         CyBle_GappExitDiscoveryMode();
 591              		.loc 1 670 0
 592              		.cfi_startproc
 593 0000 08B5     		push	{r3, lr}
 594              		.cfi_def_cfa_offset 8
 595              		.cfi_offset 3, -8
 596              		.cfi_offset 14, -4
 671:.\Generated_Source\PSoC4/ble.c ****         cyBle_eventHandlerFlag |= CYBLE_STOP_FLAG;
 597              		.loc 1 671 0
 598 0002 FFF7FEFF 		bl	CyBle_GappExitDiscoveryMode
 599              	.LVL60:
 672:.\Generated_Source\PSoC4/ble.c ****     }
 600              		.loc 1 672 0
 601 0006 034A     		ldr	r2, .L48
 602 0008 1178     		ldrb	r1, [r2]
 603 000a 0823     		mov	r3, #8
 604 000c 0B43     		orr	r3, r1
 605 000e 1370     		strb	r3, [r2]
 673:.\Generated_Source\PSoC4/ble.c ****     
 606              		.loc 1 673 0
 607              		@ sp needed
 608 0010 08BD     		pop	{r3, pc}
 609              	.L49:
 610 0012 C046     		.align	2
 611              	.L48:
 612 0014 00000000 		.word	cyBle_eventHandlerFlag
 613              		.cfi_endproc
 614              	.LFE8:
 615              		.size	CyBle_GappStopAdvertisement, .-CyBle_GappStopAdvertisement
 616              		.section	.text.CyBle_ChangeAdDeviceAddress,"ax",%progbits
ARM GAS  C:\Users\Alan\AppData\Local\Temp\ccih7e8i.s 			page 32


 617              		.align	2
 618              		.global	CyBle_ChangeAdDeviceAddress
 619              		.code	16
 620              		.thumb_func
 621              		.type	CyBle_ChangeAdDeviceAddress, %function
 622              	CyBle_ChangeAdDeviceAddress:
 623              	.LFB9:
 692:.\Generated_Source\PSoC4/ble.c ****         uint8 i;
 624              		.loc 1 692 0
 625              		.cfi_startproc
 626              	.LVL61:
 719:.\Generated_Source\PSoC4/ble.c ****   
 627              		.loc 1 719 0
 628              		@ sp needed
 629 0000 7047     		bx	lr
 630              		.cfi_endproc
 631              	.LFE9:
 632              		.size	CyBle_ChangeAdDeviceAddress, .-CyBle_ChangeAdDeviceAddress
 633 0002 C046     		.section	.text.CyBle_GapSetLocalName,"ax",%progbits
 634              		.align	2
 635              		.global	CyBle_GapSetLocalName
 636              		.code	16
 637              		.thumb_func
 638              		.type	CyBle_GapSetLocalName, %function
 639              	CyBle_GapSetLocalName:
 640              	.LFB11:
1071:.\Generated_Source\PSoC4/ble.c ****         
1072:.\Generated_Source\PSoC4/ble.c **** #endif /* (CYBLE_GAP_ROLE_PERIPHERAL) */  
1073:.\Generated_Source\PSoC4/ble.c ****     
1074:.\Generated_Source\PSoC4/ble.c ****     
1075:.\Generated_Source\PSoC4/ble.c ****     /******************************************************************************
1076:.\Generated_Source\PSoC4/ble.c ****     * Function Name: CyBle_GapSetLocalName
1077:.\Generated_Source\PSoC4/ble.c ****     ***************************************************************************//**
1078:.\Generated_Source\PSoC4/ble.c ****     *  This API is used to set the local device name - a Characteristic of the 
1079:.\Generated_Source\PSoC4/ble.c ****     *  GAP Service. If the characteristic length entered in the component customizer
1080:.\Generated_Source\PSoC4/ble.c ****     *  is shorter than the string specified by the "name" parameter, the local device
1081:.\Generated_Source\PSoC4/ble.c ****     *  name will be cut to the length specified in the customizer.
1082:.\Generated_Source\PSoC4/ble.c ****     * 
1083:.\Generated_Source\PSoC4/ble.c ****     *  \param name: The local device name string. The name string to be written as
1084:.\Generated_Source\PSoC4/ble.c ****     *              the local device name. It represents a UTF-8 encoded User
1085:.\Generated_Source\PSoC4/ble.c ****     *              Friendly Descriptive Name for the device. The length of the local
1086:.\Generated_Source\PSoC4/ble.c ****     *              device string is entered into the component customizer and it can
1087:.\Generated_Source\PSoC4/ble.c ****     *              be set to a value from 0 to 248 bytes. If the name contained in
1088:.\Generated_Source\PSoC4/ble.c ****     *              the parameter is shorter than the length from the customizer, the
1089:.\Generated_Source\PSoC4/ble.c ****     *              end of the name is indicated by a NULL octet (0x00).
1090:.\Generated_Source\PSoC4/ble.c ****     * 
1091:.\Generated_Source\PSoC4/ble.c ****     * \return
1092:.\Generated_Source\PSoC4/ble.c ****     *  CYBLE_API_RESULT_T : Return value indicates if the function succeeded or 
1093:.\Generated_Source\PSoC4/ble.c ****     *  failed. Following are the possible error codes.
1094:.\Generated_Source\PSoC4/ble.c ****     *
1095:.\Generated_Source\PSoC4/ble.c ****     *   Errors codes                       | Description
1096:.\Generated_Source\PSoC4/ble.c ****     *   ------------                       | -----------
1097:.\Generated_Source\PSoC4/ble.c ****     *   CYBLE_ERROR_OK                     | Function completed successfully.
1098:.\Generated_Source\PSoC4/ble.c ****     *   CYBLE_ERROR_INVALID_PARAMETER      | On specifying NULL as input parameter
1099:.\Generated_Source\PSoC4/ble.c ****     *  
1100:.\Generated_Source\PSoC4/ble.c ****     *******************************************************************************/
1101:.\Generated_Source\PSoC4/ble.c ****     CYBLE_API_RESULT_T CyBle_GapSetLocalName(const char8 name[])
ARM GAS  C:\Users\Alan\AppData\Local\Temp\ccih7e8i.s 			page 33


1102:.\Generated_Source\PSoC4/ble.c ****     {
 641              		.loc 1 1102 0
 642              		.cfi_startproc
 643              	.LVL62:
 644 0000 10B5     		push	{r4, lr}
 645              		.cfi_def_cfa_offset 8
 646              		.cfi_offset 4, -8
 647              		.cfi_offset 14, -4
 648              	.LVL63:
1103:.\Generated_Source\PSoC4/ble.c ****         CYBLE_API_RESULT_T apiResult = CYBLE_ERROR_OK;
1104:.\Generated_Source\PSoC4/ble.c ****         uint8 i;
1105:.\Generated_Source\PSoC4/ble.c ****         char8 *ptr;
1106:.\Generated_Source\PSoC4/ble.c ****         uint8 charLen;
1107:.\Generated_Source\PSoC4/ble.c **** 
1108:.\Generated_Source\PSoC4/ble.c ****         if(NULL != name)
 649              		.loc 1 1108 0
 650 0002 0028     		cmp	r0, #0
 651 0004 1DD0     		beq	.L57
1109:.\Generated_Source\PSoC4/ble.c ****         {
1110:.\Generated_Source\PSoC4/ble.c ****             /* Get the pointer to the Device Name characteristic  */
1111:.\Generated_Source\PSoC4/ble.c ****             ptr = (char8 *) CYBLE_GATT_DB_ATTR_GET_ATTR_GEN_PTR(CYBLE_GAP_DEVICE_NAME_INDEX + 1u);
 652              		.loc 1 1111 0
 653 0006 104B     		ldr	r3, .L58
 654 0008 9A6B     		ldr	r2, [r3, #56]
 655 000a 5468     		ldr	r4, [r2, #4]
 656              	.LVL64:
1112:.\Generated_Source\PSoC4/ble.c **** 
1113:.\Generated_Source\PSoC4/ble.c ****             /* First need to get the maximum length of the characteristic data in the GATT
1114:.\Generated_Source\PSoC4/ble.c ****                 database to make sure there is enough place for the data. The length
1115:.\Generated_Source\PSoC4/ble.c ****                 can't be longer than 248, so only the LSB of 16 bit of length is to
1116:.\Generated_Source\PSoC4/ble.c ****                 be used. */
1117:.\Generated_Source\PSoC4/ble.c ****             charLen = (uint8)CYBLE_GATT_DB_ATTR_GET_ATTR_GEN_MAX_LEN(CYBLE_GAP_DEVICE_NAME_INDEX + 
 657              		.loc 1 1117 0
 658 000c 998E     		ldrh	r1, [r3, #52]
 659 000e C9B2     		uxtb	r1, r1
 660              	.LVL65:
1118:.\Generated_Source\PSoC4/ble.c **** 
1119:.\Generated_Source\PSoC4/ble.c ****             /* Copy name into characteristic */
1120:.\Generated_Source\PSoC4/ble.c ****             for(i = 0u; ((i < charLen) && (CYBLE_NULL_CHARCTER != name[i])); i++)
 661              		.loc 1 1120 0
 662 0010 0023     		mov	r3, #0
 663 0012 02E0     		b	.L53
 664              	.LVL66:
 665              	.L55:
1121:.\Generated_Source\PSoC4/ble.c ****             {
1122:.\Generated_Source\PSoC4/ble.c ****                 ptr[i] = name[i];
 666              		.loc 1 1122 0 discriminator 4
 667 0014 E254     		strb	r2, [r4, r3]
1120:.\Generated_Source\PSoC4/ble.c ****             {
 668              		.loc 1 1120 0 discriminator 4
 669 0016 0133     		add	r3, r3, #1
 670              	.LVL67:
 671 0018 DBB2     		uxtb	r3, r3
 672              	.LVL68:
 673              	.L53:
1120:.\Generated_Source\PSoC4/ble.c ****             {
 674              		.loc 1 1120 0 is_stmt 0 discriminator 1
ARM GAS  C:\Users\Alan\AppData\Local\Temp\ccih7e8i.s 			page 34


 675 001a 8B42     		cmp	r3, r1
 676 001c 02D2     		bcs	.L54
1120:.\Generated_Source\PSoC4/ble.c ****             {
 677              		.loc 1 1120 0 discriminator 3
 678 001e C25C     		ldrb	r2, [r0, r3]
 679 0020 002A     		cmp	r2, #0
 680 0022 F7D1     		bne	.L55
 681              	.L54:
1123:.\Generated_Source\PSoC4/ble.c ****             }
1124:.\Generated_Source\PSoC4/ble.c **** 
1125:.\Generated_Source\PSoC4/ble.c ****             if(i < charLen)
 682              		.loc 1 1125 0 is_stmt 1
 683 0024 8B42     		cmp	r3, r1
 684 0026 02D2     		bcs	.L56
1126:.\Generated_Source\PSoC4/ble.c ****             {
1127:.\Generated_Source\PSoC4/ble.c ****                 /* Terminate string */
1128:.\Generated_Source\PSoC4/ble.c ****                 ptr[i] = CYBLE_NULL_CHARCTER;
 685              		.loc 1 1128 0
 686 0028 E318     		add	r3, r4, r3
 687              	.LVL69:
 688 002a 0022     		mov	r2, #0
 689 002c 1A70     		strb	r2, [r3]
 690              	.L56:
 691 002e 041C     		mov	r4, r0
 692              	.LVL70:
1129:.\Generated_Source\PSoC4/ble.c ****             }
1130:.\Generated_Source\PSoC4/ble.c ****             
1131:.\Generated_Source\PSoC4/ble.c ****             /* Set new actual length */
1132:.\Generated_Source\PSoC4/ble.c ****             
1133:.\Generated_Source\PSoC4/ble.c ****             /* Update device name in advertising and scan response structure */
1134:.\Generated_Source\PSoC4/ble.c ****             #if(CYBLE_GAP_ROLE_PERIPHERAL)
1135:.\Generated_Source\PSoC4/ble.c ****                 CyBle_ChangeAdLocalName(name, 0u);
 693              		.loc 1 1135 0
 694 0030 0021     		mov	r1, #0
 695              	.LVL71:
 696 0032 FFF7FEFF 		bl	CyBle_ChangeAdLocalName
 697              	.LVL72:
1136:.\Generated_Source\PSoC4/ble.c ****                 CyBle_ChangeAdLocalName(name, 1u);
 698              		.loc 1 1136 0
 699 0036 201C     		mov	r0, r4
 700 0038 0121     		mov	r1, #1
 701 003a FFF7FEFF 		bl	CyBle_ChangeAdLocalName
 702              	.LVL73:
1103:.\Generated_Source\PSoC4/ble.c ****         uint8 i;
 703              		.loc 1 1103 0
 704 003e 0020     		mov	r0, #0
 705 0040 00E0     		b	.L52
 706              	.LVL74:
 707              	.L57:
1137:.\Generated_Source\PSoC4/ble.c ****             #endif /* (CYBLE_GAP_ROLE_PERIPHERAL) */
1138:.\Generated_Source\PSoC4/ble.c ****         }
1139:.\Generated_Source\PSoC4/ble.c ****         else
1140:.\Generated_Source\PSoC4/ble.c ****         {
1141:.\Generated_Source\PSoC4/ble.c ****             apiResult = CYBLE_ERROR_INVALID_PARAMETER;
 708              		.loc 1 1141 0
 709 0042 0120     		mov	r0, #1
 710              	.LVL75:
ARM GAS  C:\Users\Alan\AppData\Local\Temp\ccih7e8i.s 			page 35


 711              	.L52:
1142:.\Generated_Source\PSoC4/ble.c ****         }
1143:.\Generated_Source\PSoC4/ble.c ****         
1144:.\Generated_Source\PSoC4/ble.c ****         return(apiResult);
1145:.\Generated_Source\PSoC4/ble.c ****     }
 712              		.loc 1 1145 0
 713              		@ sp needed
 714 0044 10BD     		pop	{r4, pc}
 715              	.L59:
 716 0046 C046     		.align	2
 717              	.L58:
 718 0048 00000000 		.word	cyBle_gattDB
 719              		.cfi_endproc
 720              	.LFE11:
 721              		.size	CyBle_GapSetLocalName, .-CyBle_GapSetLocalName
 722              		.section	.text.CyBle_GapGetLocalName,"ax",%progbits
 723              		.align	2
 724              		.global	CyBle_GapGetLocalName
 725              		.code	16
 726              		.thumb_func
 727              		.type	CyBle_GapGetLocalName, %function
 728              	CyBle_GapGetLocalName:
 729              	.LFB12:
1146:.\Generated_Source\PSoC4/ble.c **** 
1147:.\Generated_Source\PSoC4/ble.c **** 
1148:.\Generated_Source\PSoC4/ble.c ****     /******************************************************************************
1149:.\Generated_Source\PSoC4/ble.c ****     * Function Name: CyBle_GapGetLocalName
1150:.\Generated_Source\PSoC4/ble.c ****     ***************************************************************************//**
1151:.\Generated_Source\PSoC4/ble.c ****     *  
1152:.\Generated_Source\PSoC4/ble.c ****     *  This API is used to read the local device name - a Characteristic of the 
1153:.\Generated_Source\PSoC4/ble.c ****     *  GAP Service.
1154:.\Generated_Source\PSoC4/ble.c ****     * 
1155:.\Generated_Source\PSoC4/ble.c ****     * \param name: The local device name string. Used to read the local name to the
1156:.\Generated_Source\PSoC4/ble.c ****     *             given string array. It represents a UTF-8 encoded User Friendly 
1157:.\Generated_Source\PSoC4/ble.c ****     *             Descriptive Name for the device. The length of the local device
1158:.\Generated_Source\PSoC4/ble.c ****     *             string is entered into the component customizer and it can be set
1159:.\Generated_Source\PSoC4/ble.c ****     *             to a value from 0 to 248 bytes. If the name contained in the
1160:.\Generated_Source\PSoC4/ble.c ****     *             parameter is shorter than the length from the customizer, the end
1161:.\Generated_Source\PSoC4/ble.c ****     *             of the name is indicated by a NULL octet (0x00).
1162:.\Generated_Source\PSoC4/ble.c ****     * 
1163:.\Generated_Source\PSoC4/ble.c ****     * \return
1164:.\Generated_Source\PSoC4/ble.c ****     *  CYBLE_API_RESULT_T : Return value indicates if the function succeeded or 
1165:.\Generated_Source\PSoC4/ble.c ****     *  failed. Following are the possible error codes.
1166:.\Generated_Source\PSoC4/ble.c ****     *
1167:.\Generated_Source\PSoC4/ble.c ****     *   Errors codes                       | Description
1168:.\Generated_Source\PSoC4/ble.c ****     *   ------------                       | -----------
1169:.\Generated_Source\PSoC4/ble.c ****     *   CYBLE_ERROR_OK                     | Function completed successfully.
1170:.\Generated_Source\PSoC4/ble.c ****     *   CYBLE_ERROR_INVALID_PARAMETER      | On specifying NULL as input parameter
1171:.\Generated_Source\PSoC4/ble.c ****     *
1172:.\Generated_Source\PSoC4/ble.c ****     *******************************************************************************/
1173:.\Generated_Source\PSoC4/ble.c ****     CYBLE_API_RESULT_T CyBle_GapGetLocalName(char8 name[])
1174:.\Generated_Source\PSoC4/ble.c ****     {
 730              		.loc 1 1174 0
 731              		.cfi_startproc
 732              	.LVL76:
 733 0000 10B5     		push	{r4, lr}
 734              		.cfi_def_cfa_offset 8
ARM GAS  C:\Users\Alan\AppData\Local\Temp\ccih7e8i.s 			page 36


 735              		.cfi_offset 4, -8
 736              		.cfi_offset 14, -4
 737              	.LVL77:
1175:.\Generated_Source\PSoC4/ble.c ****         CYBLE_API_RESULT_T apiResult = CYBLE_ERROR_OK;
1176:.\Generated_Source\PSoC4/ble.c ****         uint8 charLen;
1177:.\Generated_Source\PSoC4/ble.c ****         uint8 i;
1178:.\Generated_Source\PSoC4/ble.c ****         char8 *ptr;
1179:.\Generated_Source\PSoC4/ble.c **** 
1180:.\Generated_Source\PSoC4/ble.c ****         if(NULL != name)
 738              		.loc 1 1180 0
 739 0002 0028     		cmp	r0, #0
 740 0004 12D0     		beq	.L65
1181:.\Generated_Source\PSoC4/ble.c ****         {
1182:.\Generated_Source\PSoC4/ble.c ****             /* Get the pointer to the Device Name characteristic  */
1183:.\Generated_Source\PSoC4/ble.c ****             ptr = (char8 *) CYBLE_GATT_DB_ATTR_GET_ATTR_GEN_PTR(CYBLE_GAP_DEVICE_NAME_INDEX + 1u);
 741              		.loc 1 1183 0
 742 0006 0A4B     		ldr	r3, .L66
 743 0008 9B6B     		ldr	r3, [r3, #56]
 744 000a 5C68     		ldr	r4, [r3, #4]
 745              	.LVL78:
1184:.\Generated_Source\PSoC4/ble.c **** 
1185:.\Generated_Source\PSoC4/ble.c ****             /* First need to get the length of the characteristic data in the GATT
1186:.\Generated_Source\PSoC4/ble.c ****                 database to make sure there is enough place for the data. The length
1187:.\Generated_Source\PSoC4/ble.c ****                 can't be longer than 248, so only the LSB of 16 bit of length is to
1188:.\Generated_Source\PSoC4/ble.c ****                 be used. */
1189:.\Generated_Source\PSoC4/ble.c ****             charLen = (uint8)CYBLE_GATT_DB_ATTR_GET_ATTR_GEN_LEN(CYBLE_GAP_DEVICE_NAME_INDEX + 1u);
 746              		.loc 1 1189 0
 747 000c 1978     		ldrb	r1, [r3]
 748              	.LVL79:
1190:.\Generated_Source\PSoC4/ble.c **** 
1191:.\Generated_Source\PSoC4/ble.c ****             /* Copy name from characteristic */
1192:.\Generated_Source\PSoC4/ble.c ****             for(i = 0u; ((i < charLen) && (CYBLE_NULL_CHARCTER != ptr[i])); i++)
 749              		.loc 1 1192 0
 750 000e 0023     		mov	r3, #0
 751 0010 02E0     		b	.L62
 752              	.LVL80:
 753              	.L64:
1193:.\Generated_Source\PSoC4/ble.c ****             {
1194:.\Generated_Source\PSoC4/ble.c ****                 name[i] = ptr[i];
 754              		.loc 1 1194 0 discriminator 4
 755 0012 C254     		strb	r2, [r0, r3]
1192:.\Generated_Source\PSoC4/ble.c ****             {
 756              		.loc 1 1192 0 discriminator 4
 757 0014 0133     		add	r3, r3, #1
 758              	.LVL81:
 759 0016 DBB2     		uxtb	r3, r3
 760              	.LVL82:
 761              	.L62:
1192:.\Generated_Source\PSoC4/ble.c ****             {
 762              		.loc 1 1192 0 is_stmt 0 discriminator 1
 763 0018 8B42     		cmp	r3, r1
 764 001a 02D2     		bcs	.L63
1192:.\Generated_Source\PSoC4/ble.c ****             {
 765              		.loc 1 1192 0 discriminator 3
 766 001c E25C     		ldrb	r2, [r4, r3]
 767 001e 002A     		cmp	r2, #0
 768 0020 F7D1     		bne	.L64
ARM GAS  C:\Users\Alan\AppData\Local\Temp\ccih7e8i.s 			page 37


 769              	.L63:
1195:.\Generated_Source\PSoC4/ble.c ****             }
1196:.\Generated_Source\PSoC4/ble.c **** 
1197:.\Generated_Source\PSoC4/ble.c ****             /* Terminate string */
1198:.\Generated_Source\PSoC4/ble.c ****             name[i] = CYBLE_NULL_CHARCTER;
 770              		.loc 1 1198 0 is_stmt 1
 771 0022 C318     		add	r3, r0, r3
 772              	.LVL83:
 773 0024 0022     		mov	r2, #0
 774 0026 1A70     		strb	r2, [r3]
1175:.\Generated_Source\PSoC4/ble.c ****         uint8 charLen;
 775              		.loc 1 1175 0
 776 0028 0020     		mov	r0, #0
 777              	.LVL84:
 778 002a 00E0     		b	.L61
 779              	.LVL85:
 780              	.L65:
1199:.\Generated_Source\PSoC4/ble.c ****         }
1200:.\Generated_Source\PSoC4/ble.c ****         else
1201:.\Generated_Source\PSoC4/ble.c ****         {
1202:.\Generated_Source\PSoC4/ble.c ****             apiResult = CYBLE_ERROR_INVALID_PARAMETER;
 781              		.loc 1 1202 0
 782 002c 0120     		mov	r0, #1
 783              	.LVL86:
 784              	.L61:
1203:.\Generated_Source\PSoC4/ble.c ****         }
1204:.\Generated_Source\PSoC4/ble.c ****         
1205:.\Generated_Source\PSoC4/ble.c ****         return(apiResult);
1206:.\Generated_Source\PSoC4/ble.c ****     }
 785              		.loc 1 1206 0
 786              		@ sp needed
 787 002e 10BD     		pop	{r4, pc}
 788              	.L67:
 789              		.align	2
 790              	.L66:
 791 0030 00000000 		.word	cyBle_gattDB
 792              		.cfi_endproc
 793              	.LFE12:
 794              		.size	CyBle_GapGetLocalName, .-CyBle_GapGetLocalName
 795              		.section	.text.CyBle_Get16ByPtr,"ax",%progbits
 796              		.align	2
 797              		.global	CyBle_Get16ByPtr
 798              		.code	16
 799              		.thumb_func
 800              		.type	CyBle_Get16ByPtr, %function
 801              	CyBle_Get16ByPtr:
 802              	.LFB13:
1207:.\Generated_Source\PSoC4/ble.c **** 
1208:.\Generated_Source\PSoC4/ble.c **** #endif /* (CYBLE_GATT_ROLE_SERVER) */
1209:.\Generated_Source\PSoC4/ble.c **** 
1210:.\Generated_Source\PSoC4/ble.c **** 
1211:.\Generated_Source\PSoC4/ble.c **** /******************************************************************************
1212:.\Generated_Source\PSoC4/ble.c **** * Function Name: CyBle_Get16ByPtr
1213:.\Generated_Source\PSoC4/ble.c **** ***************************************************************************//**
1214:.\Generated_Source\PSoC4/ble.c **** * 
1215:.\Generated_Source\PSoC4/ble.c **** *  Returns the two-bytes value by using a pointer to the LSB.
1216:.\Generated_Source\PSoC4/ble.c **** * 
ARM GAS  C:\Users\Alan\AppData\Local\Temp\ccih7e8i.s 			page 38


1217:.\Generated_Source\PSoC4/ble.c **** *  \param ptr: Pointer to the LSB of two-bytes data (little endian).
1218:.\Generated_Source\PSoC4/ble.c **** * 
1219:.\Generated_Source\PSoC4/ble.c **** *  \return
1220:.\Generated_Source\PSoC4/ble.c **** *  uint16: Two-bytes data.
1221:.\Generated_Source\PSoC4/ble.c **** * 
1222:.\Generated_Source\PSoC4/ble.c **** ******************************************************************************/
1223:.\Generated_Source\PSoC4/ble.c **** uint16 CyBle_Get16ByPtr(const uint8 ptr[])
1224:.\Generated_Source\PSoC4/ble.c **** {
 803              		.loc 1 1224 0
 804              		.cfi_startproc
 805              	.LVL87:
1225:.\Generated_Source\PSoC4/ble.c ****     return ((uint16) ptr[0u] | ((uint16) (((uint16) ptr[1u]) << 8u)));
 806              		.loc 1 1225 0
 807 0000 0378     		ldrb	r3, [r0]
 808 0002 4078     		ldrb	r0, [r0, #1]
 809              	.LVL88:
 810 0004 0002     		lsl	r0, r0, #8
 811 0006 1843     		orr	r0, r3
1226:.\Generated_Source\PSoC4/ble.c **** }
 812              		.loc 1 1226 0
 813              		@ sp needed
 814 0008 7047     		bx	lr
 815              		.cfi_endproc
 816              	.LFE13:
 817              		.size	CyBle_Get16ByPtr, .-CyBle_Get16ByPtr
 818 000a C046     		.section	.text.CyBle_Set16ByPtr,"ax",%progbits
 819              		.align	2
 820              		.global	CyBle_Set16ByPtr
 821              		.code	16
 822              		.thumb_func
 823              		.type	CyBle_Set16ByPtr, %function
 824              	CyBle_Set16ByPtr:
 825              	.LFB14:
1227:.\Generated_Source\PSoC4/ble.c **** 
1228:.\Generated_Source\PSoC4/ble.c **** 
1229:.\Generated_Source\PSoC4/ble.c **** /******************************************************************************
1230:.\Generated_Source\PSoC4/ble.c **** * Function Name: CyBle_Set16ByPtr
1231:.\Generated_Source\PSoC4/ble.c **** ***************************************************************************//**
1232:.\Generated_Source\PSoC4/ble.c **** * 
1233:.\Generated_Source\PSoC4/ble.c **** *  Sets the two-bytes value by using a pointer to the LSB.
1234:.\Generated_Source\PSoC4/ble.c **** * 
1235:.\Generated_Source\PSoC4/ble.c **** *  \param ptr:    Pointer to the LSB of two-bytes data (little endian).
1236:.\Generated_Source\PSoC4/ble.c **** *  \param value:  Two-bytes data to be written.
1237:.\Generated_Source\PSoC4/ble.c **** * 
1238:.\Generated_Source\PSoC4/ble.c **** *  \return
1239:.\Generated_Source\PSoC4/ble.c **** *  None
1240:.\Generated_Source\PSoC4/ble.c **** * 
1241:.\Generated_Source\PSoC4/ble.c **** ******************************************************************************/
1242:.\Generated_Source\PSoC4/ble.c **** void CyBle_Set16ByPtr(uint8 ptr[], uint16 value)
1243:.\Generated_Source\PSoC4/ble.c **** {
 826              		.loc 1 1243 0
 827              		.cfi_startproc
 828              	.LVL89:
1244:.\Generated_Source\PSoC4/ble.c ****     ptr[0u] = (uint8) value;
 829              		.loc 1 1244 0
 830 0000 0170     		strb	r1, [r0]
1245:.\Generated_Source\PSoC4/ble.c ****     ptr[1u] = (uint8) (value >> 8u);
ARM GAS  C:\Users\Alan\AppData\Local\Temp\ccih7e8i.s 			page 39


 831              		.loc 1 1245 0
 832 0002 090A     		lsr	r1, r1, #8
 833              	.LVL90:
 834 0004 4170     		strb	r1, [r0, #1]
1246:.\Generated_Source\PSoC4/ble.c **** }
 835              		.loc 1 1246 0
 836              		@ sp needed
 837 0006 7047     		bx	lr
 838              		.cfi_endproc
 839              	.LFE14:
 840              		.size	CyBle_Set16ByPtr, .-CyBle_Set16ByPtr
 841              		.global	cyBle_StackFlashptr
 842              		.global	cyBle_sflashDeviceAddress
 843              		.global	cyBle_deviceAddress
 844              		.comm	CyBle_ApplCallback,4,4
 845              		.comm	cyBle_pendingFlashWrite,1,1
 846              		.comm	cyBle_peerBonding,1,1
 847              		.global	cyBle_discoveryModeInfo
 848              		.global	cyBle_scanRspData
 849              		.global	cyBle_discoveryData
 850              		.global	cyBle_discoveryParam
 851              		.comm	cyBle_stackMemoryRam,2756,8
 852              		.global	cyBle_initVar
 853              		.section	.rodata
 854              		.align	7
 855              		.set	.LANCHOR2,. + 0
 856              	.LC0:
 857 0000 2400     		.short	36
 858 0002 03       		.byte	3
 859 0003 00       		.space	1
 860 0004 1800     		.short	24
 861 0006 01       		.byte	1
 862 0007 00       		.space	1
 863 0008 3000     		.short	48
 864 000a 01       		.byte	1
 865 000b 00       		.space	1
 866 000c 4800     		.short	72
 867 000e 01       		.byte	1
 868 000f 00       		.space	1
 869 0010 2400     		.short	36
 870 0012 01       		.byte	1
 871 0013 00       		.space	1
 872 0014 2400     		.short	36
 873 0016 01       		.byte	1
 874 0017 00       		.space	1
 875 0018 00000000 		.space	104
 875      00000000 
 875      00000000 
 875      00000000 
 875      00000000 
 876              		.type	cyBle_StackFlashptr, %object
 877              		.size	cyBle_StackFlashptr, 365
 878              	cyBle_StackFlashptr:
 879 0080 00000000 		.space	365
 879      00000000 
 879      00000000 
 879      00000000 
ARM GAS  C:\Users\Alan\AppData\Local\Temp\ccih7e8i.s 			page 40


 879      00000000 
 880 01ed 00000000 		.data
 880      00000000 
 880      00000000 
 880      00000000 
 880      000000
 881              		.align	2
 882              		.set	.LANCHOR0,. + 0
 883              		.type	cyBle_discoveryData, %object
 884              		.size	cyBle_discoveryData, 32
 885              	cyBle_discoveryData:
 886 0000 02       		.byte	2
 887 0001 01       		.byte	1
 888 0002 06       		.byte	6
 889 0003 06       		.byte	6
 890 0004 09       		.byte	9
 891 0005 52       		.byte	82
 892 0006 6F       		.byte	111
 893 0007 62       		.byte	98
 894 0008 6F       		.byte	111
 895 0009 74       		.byte	116
 896 000a 11       		.byte	17
 897 000b 07       		.byte	7
 898 000c F0       		.byte	-16
 899 000d 34       		.byte	52
 900 000e 9B       		.byte	-101
 901 000f 5F       		.byte	95
 902 0010 80       		.byte	-128
 903 0011 00       		.byte	0
 904 0012 00       		.byte	0
 905 0013 80       		.byte	-128
 906 0014 00       		.byte	0
 907 0015 10       		.byte	16
 908 0016 00       		.byte	0
 909 0017 00       		.byte	0
 910 0018 00       		.byte	0
 911 0019 00       		.byte	0
 912 001a 00       		.byte	0
 913 001b 00       		.byte	0
 914 001c 00       		.byte	0
 915 001d 00       		.byte	0
 916 001e 00       		.byte	0
 917 001f 1C       		.byte	28
 918              		.type	cyBle_discoveryModeInfo, %object
 919              		.size	cyBle_discoveryModeInfo, 20
 920              	cyBle_discoveryModeInfo:
 921 0020 02       		.byte	2
 922 0021 000000   		.space	3
 923 0024 00000000 		.word	cyBle_discoveryParam
 924 0028 00000000 		.word	cyBle_discoveryData
 925 002c 00000000 		.word	cyBle_scanRspData
 926 0030 0000     		.short	0
 927 0032 0000     		.space	2
 928              		.type	cyBle_sflashDeviceAddress, %object
 929              		.size	cyBle_sflashDeviceAddress, 4
 930              	cyBle_sflashDeviceAddress:
 931 0034 00F2FF0F 		.word	268431872
ARM GAS  C:\Users\Alan\AppData\Local\Temp\ccih7e8i.s 			page 41


 932              		.type	cyBle_deviceAddress, %object
 933              		.size	cyBle_deviceAddress, 7
 934              	cyBle_deviceAddress:
 935 0038 00       		.byte	0
 936 0039 00       		.byte	0
 937 003a 00       		.byte	0
 938 003b 50       		.byte	80
 939 003c A0       		.byte	-96
 940 003d 00       		.byte	0
 941 003e 00       		.byte	0
 942 003f 00       		.space	1
 943              		.type	cyBle_discoveryParam, %object
 944              		.size	cyBle_discoveryParam, 16
 945              	cyBle_discoveryParam:
 946 0040 2000     		.short	32
 947 0042 3000     		.short	48
 948 0044 00       		.byte	0
 949 0045 00       		.byte	0
 950 0046 00       		.byte	0
 951 0047 00       		.byte	0
 952 0048 00       		.byte	0
 953 0049 00       		.byte	0
 954 004a 50       		.byte	80
 955 004b A0       		.byte	-96
 956 004c 00       		.byte	0
 957 004d 07       		.byte	7
 958 004e 00       		.byte	0
 959 004f 00       		.space	1
 960              		.bss
 961              		.align	2
 962              		.set	.LANCHOR1,. + 0
 963              		.type	cyBle_scanRspData, %object
 964              		.size	cyBle_scanRspData, 32
 965              	cyBle_scanRspData:
 966 0000 00000000 		.space	32
 966      00000000 
 966      00000000 
 966      00000000 
 966      00000000 
 967              		.type	cyBle_initVar, %object
 968              		.size	cyBle_initVar, 1
 969              	cyBle_initVar:
 970 0020 00       		.space	1
 971 0021 000000   		.text
 972              	.Letext0:
 973              		.file 2 ".\\Generated_Source\\PSoC4\\cytypes.h"
 974              		.file 3 ".\\Generated_Source\\PSoC4\\BLE_Stack.h"
 975              		.file 4 ".\\Generated_Source\\PSoC4\\BLE_StackGap.h"
 976              		.file 5 ".\\Generated_Source\\PSoC4\\BLE_StackGatt.h"
 977              		.file 6 ".\\Generated_Source\\PSoC4\\BLE_StackGattDb.h"
 978              		.file 7 ".\\Generated_Source\\PSoC4\\BLE.h"
 979              		.file 8 ".\\Generated_Source\\PSoC4\\BLE_gatt.h"
 980              		.file 9 ".\\Generated_Source\\PSoC4\\BLE_eventHandler.h"
 981              		.file 10 ".\\Generated_Source\\PSoC4\\BLE_custom.h"
 982              		.file 11 ".\\Generated_Source\\PSoC4\\BLE_StackHostMain.h"