ARM GAS  C:\Users\Alan\AppData\Local\Temp\cc47LVCU.s 			page 1


   1              		.cpu cortex-m0
   2              		.fpu softvfp
   3              		.eabi_attribute 20, 1
   4              		.eabi_attribute 21, 1
   5              		.eabi_attribute 23, 3
   6              		.eabi_attribute 24, 1
   7              		.eabi_attribute 25, 1
   8              		.eabi_attribute 26, 1
   9              		.eabi_attribute 30, 1
  10              		.eabi_attribute 34, 0
  11              		.eabi_attribute 18, 4
  12              		.code	16
  13              		.file	"CyLib.c"
  14              		.text
  15              	.Ltext0:
  16              		.cfi_sections	.debug_frame
  17              		.section	.text.CySysClkImoStart,"ax",%progbits
  18              		.align	2
  19              		.global	CySysClkImoStart
  20              		.code	16
  21              		.thumb_func
  22              		.type	CySysClkImoStart, %function
  23              	CySysClkImoStart:
  24              	.LFB2:
  25              		.file 1 ".\\Generated_Source\\PSoC4\\CyLib.c"
   1:.\Generated_Source\PSoC4/CyLib.c **** /*******************************************************************************
   2:.\Generated_Source\PSoC4/CyLib.c **** * File Name: CyLib.c
   3:.\Generated_Source\PSoC4/CyLib.c **** * Version 5.20
   4:.\Generated_Source\PSoC4/CyLib.c **** *
   5:.\Generated_Source\PSoC4/CyLib.c **** *  Description:
   6:.\Generated_Source\PSoC4/CyLib.c **** *   Provides a system API for the clocking, interrupts, and watchdog timer.
   7:.\Generated_Source\PSoC4/CyLib.c **** *
   8:.\Generated_Source\PSoC4/CyLib.c **** *  Note:
   9:.\Generated_Source\PSoC4/CyLib.c **** *   Documentation of the API's in this file is located in the
  10:.\Generated_Source\PSoC4/CyLib.c **** *   System Reference Guide provided with PSoC Creator.
  11:.\Generated_Source\PSoC4/CyLib.c **** *
  12:.\Generated_Source\PSoC4/CyLib.c **** ********************************************************************************
  13:.\Generated_Source\PSoC4/CyLib.c **** * Copyright 2010-2015, Cypress Semiconductor Corporation.  All rights reserved.
  14:.\Generated_Source\PSoC4/CyLib.c **** * You may use this file only in accordance with the license, terms, conditions,
  15:.\Generated_Source\PSoC4/CyLib.c **** * disclaimers, and limitations in the end user license agreement accompanying
  16:.\Generated_Source\PSoC4/CyLib.c **** * the software package with which this file was provided.
  17:.\Generated_Source\PSoC4/CyLib.c **** *******************************************************************************/
  18:.\Generated_Source\PSoC4/CyLib.c **** 
  19:.\Generated_Source\PSoC4/CyLib.c **** #include "CyLib.h"
  20:.\Generated_Source\PSoC4/CyLib.c **** 
  21:.\Generated_Source\PSoC4/CyLib.c **** #if(CY_IP_SRSSV2 && CY_IP_FMLT)
  22:.\Generated_Source\PSoC4/CyLib.c ****     #include "CyFlash.h"
  23:.\Generated_Source\PSoC4/CyLib.c **** #endif /* (CY_IP_SRSSV2 && CY_IP_FMLT) */
  24:.\Generated_Source\PSoC4/CyLib.c **** 
  25:.\Generated_Source\PSoC4/CyLib.c **** 
  26:.\Generated_Source\PSoC4/CyLib.c **** /* Do not use these definitions directly in your application */
  27:.\Generated_Source\PSoC4/CyLib.c **** uint32 cydelayFreqHz  = CYDEV_BCLK__SYSCLK__HZ;
  28:.\Generated_Source\PSoC4/CyLib.c **** uint32 cydelayFreqKhz = (CYDEV_BCLK__SYSCLK__HZ + CY_DELAY_1K_MINUS_1_THRESHOLD) / CY_DELAY_1K_THRE
  29:.\Generated_Source\PSoC4/CyLib.c **** uint8  cydelayFreqMhz = (uint8)((CYDEV_BCLK__SYSCLK__HZ + CY_DELAY_1M_MINUS_1_THRESHOLD) / CY_DELAY
  30:.\Generated_Source\PSoC4/CyLib.c **** uint32 cydelay32kMs   = CY_DELAY_MS_OVERFLOW * ((CYDEV_BCLK__SYSCLK__HZ + CY_DELAY_1K_MINUS_1_THRES
  31:.\Generated_Source\PSoC4/CyLib.c ****                         CY_DELAY_1K_THRESHOLD);
  32:.\Generated_Source\PSoC4/CyLib.c **** 
ARM GAS  C:\Users\Alan\AppData\Local\Temp\cc47LVCU.s 			page 2


  33:.\Generated_Source\PSoC4/CyLib.c **** 
  34:.\Generated_Source\PSoC4/CyLib.c **** static cySysTickCallback CySysTickCallbacks[CY_SYS_SYST_NUM_OF_CALLBACKS];
  35:.\Generated_Source\PSoC4/CyLib.c **** static void CySysTickServiceCallbacks(void);
  36:.\Generated_Source\PSoC4/CyLib.c **** #if (CY_PSOC4_4100M || CY_PSOC4_4200M)
  37:.\Generated_Source\PSoC4/CyLib.c ****     static uint32 CySysClkImoGetWcoLock(void);
  38:.\Generated_Source\PSoC4/CyLib.c **** #endif  /* (CY_PSOC4_4100M || CY_PSOC4_4200M) */
  39:.\Generated_Source\PSoC4/CyLib.c **** 
  40:.\Generated_Source\PSoC4/CyLib.c **** 
  41:.\Generated_Source\PSoC4/CyLib.c **** /*******************************************************************************
  42:.\Generated_Source\PSoC4/CyLib.c **** * Indicates whether or not the SysTick has been initialized. The variable is
  43:.\Generated_Source\PSoC4/CyLib.c **** * initialized to 0 and set to 1 the first time CySysTickStart() is called.
  44:.\Generated_Source\PSoC4/CyLib.c **** *
  45:.\Generated_Source\PSoC4/CyLib.c **** * This allows the component to restart without reinitialization after the first
  46:.\Generated_Source\PSoC4/CyLib.c **** * call to the CySysTickStart() routine.
  47:.\Generated_Source\PSoC4/CyLib.c **** *
  48:.\Generated_Source\PSoC4/CyLib.c **** * If reinitialization of the SysTick is required, call CySysTickInit() before
  49:.\Generated_Source\PSoC4/CyLib.c **** * calling CySysTickStart(). Alternatively, the SysTick can be reinitialized by
  50:.\Generated_Source\PSoC4/CyLib.c **** * calling the CySysTickInit() and CySysTickEnable() functions.
  51:.\Generated_Source\PSoC4/CyLib.c **** *******************************************************************************/
  52:.\Generated_Source\PSoC4/CyLib.c **** uint32 CySysTickInitVar = 0u;
  53:.\Generated_Source\PSoC4/CyLib.c **** 
  54:.\Generated_Source\PSoC4/CyLib.c **** 
  55:.\Generated_Source\PSoC4/CyLib.c **** #if(CY_IP_SRSSV2)
  56:.\Generated_Source\PSoC4/CyLib.c ****         /* Conversion between CySysClkWriteImoFreq() parameter and register's value */
  57:.\Generated_Source\PSoC4/CyLib.c ****         const uint8 cyImoFreqMhz2Reg[CY_SYS_CLK_IMO_FREQ_TABLE_SIZE] = {
  58:.\Generated_Source\PSoC4/CyLib.c ****             /*  3 MHz */ 0x03u,  /*  4 MHz */ 0x04u,  /*  5 MHz */ 0x05u,  /*  6 MHz */ 0x06u,
  59:.\Generated_Source\PSoC4/CyLib.c ****             /*  7 MHz */ 0x07u,  /*  8 MHz */ 0x08u,  /*  9 MHz */ 0x09u,  /* 10 MHz */ 0x0Au,
  60:.\Generated_Source\PSoC4/CyLib.c ****             /* 11 MHz */ 0x0Bu,  /* 12 MHz */ 0x0Cu,  /* 13 MHz */ 0x0Eu,  /* 14 MHz */ 0x0Fu,
  61:.\Generated_Source\PSoC4/CyLib.c ****             /* 15 MHz */ 0x10u,  /* 16 MHz */ 0x11u,  /* 17 MHz */ 0x12u,  /* 18 MHz */ 0x13u,
  62:.\Generated_Source\PSoC4/CyLib.c ****             /* 19 MHz */ 0x14u,  /* 20 MHz */ 0x15u,  /* 21 MHz */ 0x16u,  /* 22 MHz */ 0x17u,
  63:.\Generated_Source\PSoC4/CyLib.c ****             /* 23 MHz */ 0x18u,  /* 24 MHz */ 0x19u,  /* 25 MHz */ 0x1Bu,  /* 26 MHz */ 0x1Cu,
  64:.\Generated_Source\PSoC4/CyLib.c ****             /* 27 MHz */ 0x1Du,  /* 28 MHz */ 0x1Eu,  /* 29 MHz */ 0x1Fu,  /* 30 MHz */ 0x20u,
  65:.\Generated_Source\PSoC4/CyLib.c ****             /* 31 MHz */ 0x21u,  /* 32 MHz */ 0x22u,  /* 33 MHz */ 0x23u,  /* 34 MHz */ 0x25u,
  66:.\Generated_Source\PSoC4/CyLib.c ****             /* 35 MHz */ 0x26u,  /* 36 MHz */ 0x27u,  /* 37 MHz */ 0x28u,  /* 38 MHz */ 0x29u,
  67:.\Generated_Source\PSoC4/CyLib.c ****             /* 39 MHz */ 0x2Au,  /* 40 MHz */ 0x2Bu,  /* 41 MHz */ 0x2Eu,  /* 42 MHz */ 0x2Fu,
  68:.\Generated_Source\PSoC4/CyLib.c ****             /* 43 MHz */ 0x30u,  /* 44 MHz */ 0x31u,  /* 45 MHz */ 0x32u,  /* 46 MHz */ 0x33u,
  69:.\Generated_Source\PSoC4/CyLib.c ****             /* 47 MHz */ 0x34u,  /* 48 MHz */ 0x35u };
  70:.\Generated_Source\PSoC4/CyLib.c **** #endif /* (CY_IP_SRSSV2) */
  71:.\Generated_Source\PSoC4/CyLib.c **** 
  72:.\Generated_Source\PSoC4/CyLib.c **** 
  73:.\Generated_Source\PSoC4/CyLib.c **** /*******************************************************************************
  74:.\Generated_Source\PSoC4/CyLib.c **** * Function Name: CySysClkImoStart
  75:.\Generated_Source\PSoC4/CyLib.c **** ********************************************************************************
  76:.\Generated_Source\PSoC4/CyLib.c **** *
  77:.\Generated_Source\PSoC4/CyLib.c **** * Summary:
  78:.\Generated_Source\PSoC4/CyLib.c **** *  Enables the IMO.
  79:.\Generated_Source\PSoC4/CyLib.c **** *
  80:.\Generated_Source\PSoC4/CyLib.c **** *  For PSoC 4100M / PSoC 4200M devices, this function will also enable WCO lock
  81:.\Generated_Source\PSoC4/CyLib.c **** *  if selected in the Design Wide Resources tab.
  82:.\Generated_Source\PSoC4/CyLib.c **** *
  83:.\Generated_Source\PSoC4/CyLib.c **** * Parameters:
  84:.\Generated_Source\PSoC4/CyLib.c **** *  None
  85:.\Generated_Source\PSoC4/CyLib.c **** *
  86:.\Generated_Source\PSoC4/CyLib.c **** * Return:
  87:.\Generated_Source\PSoC4/CyLib.c **** *  None
  88:.\Generated_Source\PSoC4/CyLib.c **** *
  89:.\Generated_Source\PSoC4/CyLib.c **** *******************************************************************************/
ARM GAS  C:\Users\Alan\AppData\Local\Temp\cc47LVCU.s 			page 3


  90:.\Generated_Source\PSoC4/CyLib.c **** void CySysClkImoStart(void)
  91:.\Generated_Source\PSoC4/CyLib.c **** {
  26              		.loc 1 91 0
  27              		.cfi_startproc
  92:.\Generated_Source\PSoC4/CyLib.c ****     CY_SYS_CLK_IMO_CONFIG_REG |= CY_SYS_CLK_IMO_CONFIG_ENABLE;
  28              		.loc 1 92 0
  29 0000 034A     		ldr	r2, .L2
  30 0002 1368     		ldr	r3, [r2]
  31 0004 8021     		mov	r1, #128
  32 0006 0906     		lsl	r1, r1, #24
  33 0008 0B43     		orr	r3, r1
  34 000a 1360     		str	r3, [r2]
  93:.\Generated_Source\PSoC4/CyLib.c **** 
  94:.\Generated_Source\PSoC4/CyLib.c ****     #if (CY_PSOC4_4100M || CY_PSOC4_4200M)
  95:.\Generated_Source\PSoC4/CyLib.c ****         #if (CYDEV_IMO_TRIMMED_BY_WCO == 1u)
  96:.\Generated_Source\PSoC4/CyLib.c ****             CySysClkImoEnableWcoLock();
  97:.\Generated_Source\PSoC4/CyLib.c ****         #endif  /* (CYDEV_IMO_TRIMMED_BY_WCO == 1u) */
  98:.\Generated_Source\PSoC4/CyLib.c ****     #endif  /* (CY_PSOC4_4100M || CY_PSOC4_4200M) */
  99:.\Generated_Source\PSoC4/CyLib.c **** 
 100:.\Generated_Source\PSoC4/CyLib.c **** }
  35              		.loc 1 100 0
  36              		@ sp needed
  37 000c 7047     		bx	lr
  38              	.L3:
  39 000e C046     		.align	2
  40              	.L2:
  41 0010 08010B40 		.word	1074462984
  42              		.cfi_endproc
  43              	.LFE2:
  44              		.size	CySysClkImoStart, .-CySysClkImoStart
  45              		.section	.text.CySysClkImoStop,"ax",%progbits
  46              		.align	2
  47              		.global	CySysClkImoStop
  48              		.code	16
  49              		.thumb_func
  50              		.type	CySysClkImoStop, %function
  51              	CySysClkImoStop:
  52              	.LFB3:
 101:.\Generated_Source\PSoC4/CyLib.c **** 
 102:.\Generated_Source\PSoC4/CyLib.c **** 
 103:.\Generated_Source\PSoC4/CyLib.c **** /*******************************************************************************
 104:.\Generated_Source\PSoC4/CyLib.c **** * Function Name: CySysClkImoStop
 105:.\Generated_Source\PSoC4/CyLib.c **** ********************************************************************************
 106:.\Generated_Source\PSoC4/CyLib.c **** *
 107:.\Generated_Source\PSoC4/CyLib.c **** * Summary:
 108:.\Generated_Source\PSoC4/CyLib.c **** *  Disables the IMO.
 109:.\Generated_Source\PSoC4/CyLib.c **** *
 110:.\Generated_Source\PSoC4/CyLib.c **** *  For PSoC 4100M/PSoC 4200M devices , this function will also disable WCO lock
 111:.\Generated_Source\PSoC4/CyLib.c **** *  if already enabled.
 112:.\Generated_Source\PSoC4/CyLib.c **** *
 113:.\Generated_Source\PSoC4/CyLib.c **** * Parameters:
 114:.\Generated_Source\PSoC4/CyLib.c **** *  None
 115:.\Generated_Source\PSoC4/CyLib.c **** *
 116:.\Generated_Source\PSoC4/CyLib.c **** * Return:
 117:.\Generated_Source\PSoC4/CyLib.c **** *  None
 118:.\Generated_Source\PSoC4/CyLib.c **** *
 119:.\Generated_Source\PSoC4/CyLib.c **** *******************************************************************************/
ARM GAS  C:\Users\Alan\AppData\Local\Temp\cc47LVCU.s 			page 4


 120:.\Generated_Source\PSoC4/CyLib.c **** void CySysClkImoStop(void)
 121:.\Generated_Source\PSoC4/CyLib.c **** {
  53              		.loc 1 121 0
  54              		.cfi_startproc
 122:.\Generated_Source\PSoC4/CyLib.c ****     #if (CY_PSOC4_4100M || CY_PSOC4_4200M)
 123:.\Generated_Source\PSoC4/CyLib.c ****         CySysClkImoDisableWcoLock();
 124:.\Generated_Source\PSoC4/CyLib.c ****     #endif  /* #if (CY_PSOC4_4100M || CY_PSOC4_4200M) */
 125:.\Generated_Source\PSoC4/CyLib.c **** 
 126:.\Generated_Source\PSoC4/CyLib.c ****     CY_SYS_CLK_IMO_CONFIG_REG &= ( uint32 ) ( ~( uint32 )CY_SYS_CLK_IMO_CONFIG_ENABLE);
  55              		.loc 1 126 0
  56 0000 024A     		ldr	r2, .L5
  57 0002 1368     		ldr	r3, [r2]
  58 0004 5B00     		lsl	r3, r3, #1
  59 0006 5B08     		lsr	r3, r3, #1
  60 0008 1360     		str	r3, [r2]
 127:.\Generated_Source\PSoC4/CyLib.c **** }
  61              		.loc 1 127 0
  62              		@ sp needed
  63 000a 7047     		bx	lr
  64              	.L6:
  65              		.align	2
  66              	.L5:
  67 000c 08010B40 		.word	1074462984
  68              		.cfi_endproc
  69              	.LFE3:
  70              		.size	CySysClkImoStop, .-CySysClkImoStop
  71              		.section	.text.CySysClkWriteHfclkDirect,"ax",%progbits
  72              		.align	2
  73              		.global	CySysClkWriteHfclkDirect
  74              		.code	16
  75              		.thumb_func
  76              		.type	CySysClkWriteHfclkDirect, %function
  77              	CySysClkWriteHfclkDirect:
  78              	.LFB4:
 128:.\Generated_Source\PSoC4/CyLib.c **** 
 129:.\Generated_Source\PSoC4/CyLib.c **** #if (CY_PSOC4_4100M || CY_PSOC4_4200M)
 130:.\Generated_Source\PSoC4/CyLib.c **** 
 131:.\Generated_Source\PSoC4/CyLib.c ****     /*******************************************************************************
 132:.\Generated_Source\PSoC4/CyLib.c ****     * Function Name: CySysClkImoEnableWcoLock
 133:.\Generated_Source\PSoC4/CyLib.c ****     ********************************************************************************
 134:.\Generated_Source\PSoC4/CyLib.c ****     *
 135:.\Generated_Source\PSoC4/CyLib.c ****     * Summary:
 136:.\Generated_Source\PSoC4/CyLib.c ****     *  Enables the IMO to WCO lock feature. This function works only if the WCO is
 137:.\Generated_Source\PSoC4/CyLib.c ****     *  already enabled. If the WCO is not enabled then this function returns
 138:.\Generated_Source\PSoC4/CyLib.c ****     *  without enabling the lock feature.
 139:.\Generated_Source\PSoC4/CyLib.c ****     *
 140:.\Generated_Source\PSoC4/CyLib.c ****     *  This function is applicable for PSoC 4100M/PSoC 4200M devices only.
 141:.\Generated_Source\PSoC4/CyLib.c ****     *
 142:.\Generated_Source\PSoC4/CyLib.c ****     * Parameters:
 143:.\Generated_Source\PSoC4/CyLib.c ****     *  None
 144:.\Generated_Source\PSoC4/CyLib.c ****     *
 145:.\Generated_Source\PSoC4/CyLib.c ****     * Return:
 146:.\Generated_Source\PSoC4/CyLib.c ****     *  None
 147:.\Generated_Source\PSoC4/CyLib.c ****     *
 148:.\Generated_Source\PSoC4/CyLib.c ****     *******************************************************************************/
 149:.\Generated_Source\PSoC4/CyLib.c ****     void CySysClkImoEnableWcoLock(void)
 150:.\Generated_Source\PSoC4/CyLib.c ****     {
ARM GAS  C:\Users\Alan\AppData\Local\Temp\cc47LVCU.s 			page 5


 151:.\Generated_Source\PSoC4/CyLib.c ****         uint32 i;
 152:.\Generated_Source\PSoC4/CyLib.c ****         uint32 freq = CY_SYS_CLK_IMO_MIN_FREQ_MHZ;
 153:.\Generated_Source\PSoC4/CyLib.c ****         uint8  interruptState;
 154:.\Generated_Source\PSoC4/CyLib.c ****         uint32 regTmp;
 155:.\Generated_Source\PSoC4/CyLib.c ****         volatile uint32 flashCtlReg;
 156:.\Generated_Source\PSoC4/CyLib.c **** 
 157:.\Generated_Source\PSoC4/CyLib.c ****         if (0u != CySysClkWcoEnabled())
 158:.\Generated_Source\PSoC4/CyLib.c ****         {
 159:.\Generated_Source\PSoC4/CyLib.c ****             interruptState = CyEnterCriticalSection();
 160:.\Generated_Source\PSoC4/CyLib.c **** 
 161:.\Generated_Source\PSoC4/CyLib.c ****             /* Get current IMO frequency based on the register value */
 162:.\Generated_Source\PSoC4/CyLib.c ****             for(i = 0u; i < CY_SYS_CLK_IMO_FREQ_TABLE_SIZE; i++)
 163:.\Generated_Source\PSoC4/CyLib.c ****             {
 164:.\Generated_Source\PSoC4/CyLib.c ****                 if ((uint8) (CY_SYS_CLK_IMO_TRIM2_REG & CY_SYS_CLK_IMO_FREQ_BITS_MASK) == cyImoFreq
 165:.\Generated_Source\PSoC4/CyLib.c ****                 {
 166:.\Generated_Source\PSoC4/CyLib.c ****                     freq = i + CY_SYS_CLK_IMO_FREQ_TABLE_OFFSET;
 167:.\Generated_Source\PSoC4/CyLib.c ****                     break;
 168:.\Generated_Source\PSoC4/CyLib.c ****                 }
 169:.\Generated_Source\PSoC4/CyLib.c ****             }
 170:.\Generated_Source\PSoC4/CyLib.c **** 
 171:.\Generated_Source\PSoC4/CyLib.c ****             if ((CY_SYS_CLK_IMO_TRIM4_REG & CY_SYS_CLK_IMO_TRIM4_GAIN_MASK) == 0u)
 172:.\Generated_Source\PSoC4/CyLib.c ****             {
 173:.\Generated_Source\PSoC4/CyLib.c **** 			    CY_SYS_CLK_IMO_TRIM4_REG = (CY_SYS_CLK_IMO_TRIM4_REG & (uint32) ~CY_SYS_CLK_IMO_TRIM4_GAIN_M
 174:.\Generated_Source\PSoC4/CyLib.c **** 			             				    CY_SYS_CLK_IMO_TRIM4_GAIN;
 175:.\Generated_Source\PSoC4/CyLib.c ****             }
 176:.\Generated_Source\PSoC4/CyLib.c **** 
 177:.\Generated_Source\PSoC4/CyLib.c ****             regTmp  = CY_SYS_CLK_WCO_DPLL_REG & ~(CY_SYS_CLK_WCO_DPLL_MULT_MASK |
 178:.\Generated_Source\PSoC4/CyLib.c ****                                                   CY_SYS_CLK_WCO_CONFIG_DPLL_LF_IGAIN_MASK |
 179:.\Generated_Source\PSoC4/CyLib.c ****                                                   CY_SYS_CLK_WCO_CONFIG_DPLL_LF_PGAIN_MASK);
 180:.\Generated_Source\PSoC4/CyLib.c **** 
 181:.\Generated_Source\PSoC4/CyLib.c ****             /* Set multiplier to determine IMO frequency in multiples of the WCO frequency */
 182:.\Generated_Source\PSoC4/CyLib.c ****             regTmp |= (CY_SYS_CLK_WCO_DPLL_MULT_VALUE(freq) & CY_SYS_CLK_WCO_DPLL_MULT_MASK);
 183:.\Generated_Source\PSoC4/CyLib.c **** 
 184:.\Generated_Source\PSoC4/CyLib.c ****             /* Set DPLL Loop Filter Integral and Proportional Gains Setting */
 185:.\Generated_Source\PSoC4/CyLib.c ****             regTmp |= (CY_SYS_CLK_WCO_CONFIG_DPLL_LF_IGAIN | CY_SYS_CLK_WCO_CONFIG_DPLL_LF_PGAIN);
 186:.\Generated_Source\PSoC4/CyLib.c **** 
 187:.\Generated_Source\PSoC4/CyLib.c ****             CY_SYS_CLK_WCO_DPLL_REG = regTmp;
 188:.\Generated_Source\PSoC4/CyLib.c **** 
 189:.\Generated_Source\PSoC4/CyLib.c ****             flashCtlReg = CY_FLASH_CTL_REG;
 190:.\Generated_Source\PSoC4/CyLib.c ****             CySysFlashSetWaitCycles(CY_SYS_CLK_IMO_MAX_FREQ_MHZ);
 191:.\Generated_Source\PSoC4/CyLib.c ****             CY_SYS_CLK_WCO_CONFIG_REG |= CY_SYS_CLK_WCO_CONFIG_DPLL_ENABLE;
 192:.\Generated_Source\PSoC4/CyLib.c ****             CyDelay(320u);
 193:.\Generated_Source\PSoC4/CyLib.c ****             CY_FLASH_CTL_REG = flashCtlReg;
 194:.\Generated_Source\PSoC4/CyLib.c **** 
 195:.\Generated_Source\PSoC4/CyLib.c ****             CyExitCriticalSection(interruptState);
 196:.\Generated_Source\PSoC4/CyLib.c ****         }
 197:.\Generated_Source\PSoC4/CyLib.c ****     }
 198:.\Generated_Source\PSoC4/CyLib.c **** 
 199:.\Generated_Source\PSoC4/CyLib.c **** 
 200:.\Generated_Source\PSoC4/CyLib.c ****     /*******************************************************************************
 201:.\Generated_Source\PSoC4/CyLib.c ****     * Function Name: CySysClkImoDisableWcoLock
 202:.\Generated_Source\PSoC4/CyLib.c ****     ********************************************************************************
 203:.\Generated_Source\PSoC4/CyLib.c ****     *
 204:.\Generated_Source\PSoC4/CyLib.c ****     * Summary:
 205:.\Generated_Source\PSoC4/CyLib.c ****     *  Disables the IMO to WCO lock feature.
 206:.\Generated_Source\PSoC4/CyLib.c ****     *
 207:.\Generated_Source\PSoC4/CyLib.c ****     *  This function is applicable for PSoC 4100M/PSoC 4200M devices only.
ARM GAS  C:\Users\Alan\AppData\Local\Temp\cc47LVCU.s 			page 6


 208:.\Generated_Source\PSoC4/CyLib.c ****     *
 209:.\Generated_Source\PSoC4/CyLib.c ****     * Parameters:
 210:.\Generated_Source\PSoC4/CyLib.c ****     *  None
 211:.\Generated_Source\PSoC4/CyLib.c ****     *
 212:.\Generated_Source\PSoC4/CyLib.c ****     * Return:
 213:.\Generated_Source\PSoC4/CyLib.c ****     *  None
 214:.\Generated_Source\PSoC4/CyLib.c ****     *
 215:.\Generated_Source\PSoC4/CyLib.c ****     *******************************************************************************/
 216:.\Generated_Source\PSoC4/CyLib.c ****     void CySysClkImoDisableWcoLock(void)
 217:.\Generated_Source\PSoC4/CyLib.c ****     {
 218:.\Generated_Source\PSoC4/CyLib.c ****         CY_SYS_CLK_WCO_CONFIG_REG &= (uint32) ~CY_SYS_CLK_WCO_CONFIG_DPLL_ENABLE;
 219:.\Generated_Source\PSoC4/CyLib.c ****     }
 220:.\Generated_Source\PSoC4/CyLib.c **** 
 221:.\Generated_Source\PSoC4/CyLib.c **** 
 222:.\Generated_Source\PSoC4/CyLib.c ****     /*******************************************************************************
 223:.\Generated_Source\PSoC4/CyLib.c ****     * Function Name: CySysClkImoGetWcoLock
 224:.\Generated_Source\PSoC4/CyLib.c ****     ********************************************************************************
 225:.\Generated_Source\PSoC4/CyLib.c ****     *
 226:.\Generated_Source\PSoC4/CyLib.c ****     * Summary:
 227:.\Generated_Source\PSoC4/CyLib.c ****     *  Reports the IMO to WCO lock enable state.
 228:.\Generated_Source\PSoC4/CyLib.c ****     *
 229:.\Generated_Source\PSoC4/CyLib.c ****     *  This function is applicable for PSoC 4100M/PSoC 4200M devices only.
 230:.\Generated_Source\PSoC4/CyLib.c ****     *
 231:.\Generated_Source\PSoC4/CyLib.c ****     * Parameters:
 232:.\Generated_Source\PSoC4/CyLib.c ****     *  None
 233:.\Generated_Source\PSoC4/CyLib.c ****     *
 234:.\Generated_Source\PSoC4/CyLib.c ****     * Return:
 235:.\Generated_Source\PSoC4/CyLib.c ****     *  1 if IMO to WCO lock is enabled, and 0 if IMO to WCO lock is disabled.
 236:.\Generated_Source\PSoC4/CyLib.c ****     *
 237:.\Generated_Source\PSoC4/CyLib.c ****     *******************************************************************************/
 238:.\Generated_Source\PSoC4/CyLib.c ****     static uint32 CySysClkImoGetWcoLock(void)
 239:.\Generated_Source\PSoC4/CyLib.c ****     {
 240:.\Generated_Source\PSoC4/CyLib.c ****         return ((0u != (CY_SYS_CLK_WCO_CONFIG_REG & CY_SYS_CLK_WCO_CONFIG_DPLL_ENABLE)) ?
 241:.\Generated_Source\PSoC4/CyLib.c ****                 (uint32) 1u :
 242:.\Generated_Source\PSoC4/CyLib.c ****                 (uint32) 0u);
 243:.\Generated_Source\PSoC4/CyLib.c ****     }
 244:.\Generated_Source\PSoC4/CyLib.c **** 
 245:.\Generated_Source\PSoC4/CyLib.c **** #endif /* (CY_PSOC4_4100M || CY_PSOC4_4200M) */
 246:.\Generated_Source\PSoC4/CyLib.c **** 
 247:.\Generated_Source\PSoC4/CyLib.c **** 
 248:.\Generated_Source\PSoC4/CyLib.c **** /*******************************************************************************
 249:.\Generated_Source\PSoC4/CyLib.c **** * Function Name: CySysClkWriteHfclkDirect
 250:.\Generated_Source\PSoC4/CyLib.c **** ********************************************************************************
 251:.\Generated_Source\PSoC4/CyLib.c **** *
 252:.\Generated_Source\PSoC4/CyLib.c **** * Summary:
 253:.\Generated_Source\PSoC4/CyLib.c **** *  Selects the direct source for the HFCLK.
 254:.\Generated_Source\PSoC4/CyLib.c **** *
 255:.\Generated_Source\PSoC4/CyLib.c **** * Parameters:
 256:.\Generated_Source\PSoC4/CyLib.c **** *  clkSelect: One of the available HFCLK direct sources:
 257:.\Generated_Source\PSoC4/CyLib.c **** *   Define                    Source
 258:.\Generated_Source\PSoC4/CyLib.c **** *    CY_SYS_CLK_HFCLK_IMO     IMO
 259:.\Generated_Source\PSoC4/CyLib.c **** *    CY_SYS_CLK_HFCLK_EXTCLK  External clock pin
 260:.\Generated_Source\PSoC4/CyLib.c **** *    CY_SYS_CLK_HFCLK_ECO     External crystal oscillator
 261:.\Generated_Source\PSoC4/CyLib.c **** *                             (applicable only for PSoC 4100-BL / PSoC 4200-BL)
 262:.\Generated_Source\PSoC4/CyLib.c **** *
 263:.\Generated_Source\PSoC4/CyLib.c **** * Return:
 264:.\Generated_Source\PSoC4/CyLib.c **** *  None
ARM GAS  C:\Users\Alan\AppData\Local\Temp\cc47LVCU.s 			page 7


 265:.\Generated_Source\PSoC4/CyLib.c **** *
 266:.\Generated_Source\PSoC4/CyLib.c **** * Side Effects:
 267:.\Generated_Source\PSoC4/CyLib.c **** *  The new source must be running and stable before calling this function.
 268:.\Generated_Source\PSoC4/CyLib.c **** *
 269:.\Generated_Source\PSoC4/CyLib.c **** *  PSoC 4000:
 270:.\Generated_Source\PSoC4/CyLib.c **** *  The SYSCLK has a maximum speed of 16 MHz, so HFCLK and SYSCLK dividers should
 271:.\Generated_Source\PSoC4/CyLib.c **** *  be selected in a way to not to exceed 16 MHz for the System clock.
 272:.\Generated_Source\PSoC4/CyLib.c **** *
 273:.\Generated_Source\PSoC4/CyLib.c **** *  If the SYSCLK clock frequency increases during device operation, call
 274:.\Generated_Source\PSoC4/CyLib.c **** *  CySysFlashSetWaitCycles() with the appropriate parameter to adjust the number
 275:.\Generated_Source\PSoC4/CyLib.c **** *  of clock cycles the cache will wait before sampling data comes back from
 276:.\Generated_Source\PSoC4/CyLib.c **** *  Flash. If the SYSCLK clock frequency decreases, you can call
 277:.\Generated_Source\PSoC4/CyLib.c **** *  CySysFlashSetWaitCycles() to improve the CPU performance. See
 278:.\Generated_Source\PSoC4/CyLib.c **** *  CySysFlashSetWaitCycles() description for more information.
 279:.\Generated_Source\PSoC4/CyLib.c **** *
 280:.\Generated_Source\PSoC4/CyLib.c **** *******************************************************************************/
 281:.\Generated_Source\PSoC4/CyLib.c **** void CySysClkWriteHfclkDirect(uint32 clkSelect)
 282:.\Generated_Source\PSoC4/CyLib.c **** {
  79              		.loc 1 282 0
  80              		.cfi_startproc
  81              	.LVL0:
  82 0000 10B5     		push	{r4, lr}
  83              		.cfi_def_cfa_offset 8
  84              		.cfi_offset 4, -8
  85              		.cfi_offset 14, -4
  86 0002 041C     		mov	r4, r0
 283:.\Generated_Source\PSoC4/CyLib.c ****     uint8  interruptState;
 284:.\Generated_Source\PSoC4/CyLib.c **** 
 285:.\Generated_Source\PSoC4/CyLib.c ****     interruptState = CyEnterCriticalSection();
  87              		.loc 1 285 0
  88 0004 FFF7FEFF 		bl	CyEnterCriticalSection
  89              	.LVL1:
 286:.\Generated_Source\PSoC4/CyLib.c **** 
 287:.\Generated_Source\PSoC4/CyLib.c ****     CY_SYS_CLK_SELECT_REG = ((CY_SYS_CLK_SELECT_REG & (( uint32 ) ~(( uint32 )CY_SYS_CLK_SELECT_DIR
  90              		.loc 1 287 0
  91 0008 054A     		ldr	r2, .L8
  92 000a 1368     		ldr	r3, [r2]
  93 000c 0721     		mov	r1, #7
  94 000e 8B43     		bic	r3, r1
 288:.\Generated_Source\PSoC4/CyLib.c ****                         (( uint32 ) (clkSelect & ( uint32 )CY_SYS_CLK_SELECT_DIRECT_SEL_PARAM_MASK)
  95              		.loc 1 288 0
  96 0010 0439     		sub	r1, r1, #4
  97 0012 0C40     		and	r4, r1
  98              	.LVL2:
 287:.\Generated_Source\PSoC4/CyLib.c ****                         (( uint32 ) (clkSelect & ( uint32 )CY_SYS_CLK_SELECT_DIRECT_SEL_PARAM_MASK)
  99              		.loc 1 287 0
 100 0014 1C43     		orr	r4, r3
 101 0016 1460     		str	r4, [r2]
 289:.\Generated_Source\PSoC4/CyLib.c **** 
 290:.\Generated_Source\PSoC4/CyLib.c ****     CyExitCriticalSection(interruptState);
 102              		.loc 1 290 0
 103 0018 FFF7FEFF 		bl	CyExitCriticalSection
 104              	.LVL3:
 291:.\Generated_Source\PSoC4/CyLib.c **** }
 105              		.loc 1 291 0
 106              		@ sp needed
 107 001c 10BD     		pop	{r4, pc}
ARM GAS  C:\Users\Alan\AppData\Local\Temp\cc47LVCU.s 			page 8


 108              	.L9:
 109 001e C046     		.align	2
 110              	.L8:
 111 0020 00010B40 		.word	1074462976
 112              		.cfi_endproc
 113              	.LFE4:
 114              		.size	CySysClkWriteHfclkDirect, .-CySysClkWriteHfclkDirect
 115              		.section	.text.CySysClkWriteSysclkDiv,"ax",%progbits
 116              		.align	2
 117              		.global	CySysClkWriteSysclkDiv
 118              		.code	16
 119              		.thumb_func
 120              		.type	CySysClkWriteSysclkDiv, %function
 121              	CySysClkWriteSysclkDiv:
 122              	.LFB5:
 292:.\Generated_Source\PSoC4/CyLib.c **** 
 293:.\Generated_Source\PSoC4/CyLib.c **** 
 294:.\Generated_Source\PSoC4/CyLib.c **** /*******************************************************************************
 295:.\Generated_Source\PSoC4/CyLib.c **** * Function Name: CySysClkWriteSysclkDiv
 296:.\Generated_Source\PSoC4/CyLib.c **** ********************************************************************************
 297:.\Generated_Source\PSoC4/CyLib.c **** *
 298:.\Generated_Source\PSoC4/CyLib.c **** * Summary:
 299:.\Generated_Source\PSoC4/CyLib.c **** *  Selects the prescaler divide amount for SYSCLK from HFCLK.
 300:.\Generated_Source\PSoC4/CyLib.c **** *
 301:.\Generated_Source\PSoC4/CyLib.c **** * Parameters:
 302:.\Generated_Source\PSoC4/CyLib.c **** *  divider: Power of 2 prescaler selection
 303:.\Generated_Source\PSoC4/CyLib.c **** *
 304:.\Generated_Source\PSoC4/CyLib.c **** *   Define                        Description
 305:.\Generated_Source\PSoC4/CyLib.c **** *   CY_SYS_CLK_SYSCLK_DIV1        SYSCLK = HFCLK / 1
 306:.\Generated_Source\PSoC4/CyLib.c **** *   CY_SYS_CLK_SYSCLK_DIV2        SYSCLK = HFCLK / 2
 307:.\Generated_Source\PSoC4/CyLib.c **** *   CY_SYS_CLK_SYSCLK_DIV4        SYSCLK = HFCLK / 4
 308:.\Generated_Source\PSoC4/CyLib.c **** *   CY_SYS_CLK_SYSCLK_DIV8        SYSCLK = HFCLK / 8
 309:.\Generated_Source\PSoC4/CyLib.c **** *   CY_SYS_CLK_SYSCLK_DIV16       SYSCLK = HFCLK / 16  (N/A for 4000 Family)
 310:.\Generated_Source\PSoC4/CyLib.c **** *   CY_SYS_CLK_SYSCLK_DIV32       SYSCLK = HFCLK / 32  (N/A for 4000 Family)
 311:.\Generated_Source\PSoC4/CyLib.c **** *   CY_SYS_CLK_SYSCLK_DIV64       SYSCLK = HFCLK / 64  (N/A for 4000 Family)
 312:.\Generated_Source\PSoC4/CyLib.c **** *   CY_SYS_CLK_SYSCLK_DIV128      SYSCLK = HFCLK / 128 (N/A for 4000 Family)
 313:.\Generated_Source\PSoC4/CyLib.c **** *
 314:.\Generated_Source\PSoC4/CyLib.c **** * Return:
 315:.\Generated_Source\PSoC4/CyLib.c **** *  None
 316:.\Generated_Source\PSoC4/CyLib.c **** *
 317:.\Generated_Source\PSoC4/CyLib.c **** * Side Effects:
 318:.\Generated_Source\PSoC4/CyLib.c **** *  4000 Family:
 319:.\Generated_Source\PSoC4/CyLib.c **** *  The SYS_CLK has the speed of 16 MHz, so dividers HF_CLK and SYS_CLK
 320:.\Generated_Source\PSoC4/CyLib.c **** *  dividers should be selected in a way, not to exceed 16 MHz for SYS_CLK.
 321:.\Generated_Source\PSoC4/CyLib.c **** *
 322:.\Generated_Source\PSoC4/CyLib.c **** *  If the SYSCLK clock frequency increases during the device operation, call
 323:.\Generated_Source\PSoC4/CyLib.c **** *  CySysFlashSetWaitCycles() with the appropriate parameter to adjust the number
 324:.\Generated_Source\PSoC4/CyLib.c **** *  of clock cycles the cache will wait before sampling data comes back from
 325:.\Generated_Source\PSoC4/CyLib.c **** *  Flash. If the SYSCLK clock frequency decreases, you can call
 326:.\Generated_Source\PSoC4/CyLib.c **** *  CySysFlashSetWaitCycles() to improve the CPU performance. See
 327:.\Generated_Source\PSoC4/CyLib.c **** *  CySysFlashSetWaitCycles() description for more information.
 328:.\Generated_Source\PSoC4/CyLib.c **** *
 329:.\Generated_Source\PSoC4/CyLib.c **** *******************************************************************************/
 330:.\Generated_Source\PSoC4/CyLib.c **** void CySysClkWriteSysclkDiv(uint32 divider)
 331:.\Generated_Source\PSoC4/CyLib.c **** {
 123              		.loc 1 331 0
 124              		.cfi_startproc
ARM GAS  C:\Users\Alan\AppData\Local\Temp\cc47LVCU.s 			page 9


 125              	.LVL4:
 126 0000 10B5     		push	{r4, lr}
 127              		.cfi_def_cfa_offset 8
 128              		.cfi_offset 4, -8
 129              		.cfi_offset 14, -4
 130 0002 041C     		mov	r4, r0
 332:.\Generated_Source\PSoC4/CyLib.c ****     uint8  interruptState;
 333:.\Generated_Source\PSoC4/CyLib.c **** 
 334:.\Generated_Source\PSoC4/CyLib.c ****     interruptState = CyEnterCriticalSection();
 131              		.loc 1 334 0
 132 0004 FFF7FEFF 		bl	CyEnterCriticalSection
 133              	.LVL5:
 335:.\Generated_Source\PSoC4/CyLib.c **** 
 336:.\Generated_Source\PSoC4/CyLib.c ****     CY_SYS_CLK_SELECT_REG = ((uint32)(((uint32)divider & CY_SYS_CLK_SELECT_SYSCLK_DIV_MASK) <<
 134              		.loc 1 336 0
 135 0008 0723     		mov	r3, #7
 136 000a 1C40     		and	r4, r3
 137              	.LVL6:
 138 000c E404     		lsl	r4, r4, #19
 337:.\Generated_Source\PSoC4/CyLib.c ****                                     CY_SYS_CLK_SELECT_SYSCLK_DIV_SHIFT)) |
 338:.\Generated_Source\PSoC4/CyLib.c ****                             (CY_SYS_CLK_SELECT_REG & ((uint32)(~(uint32)(CY_SYS_CLK_SELECT_SYSCLK_D
 139              		.loc 1 338 0
 140 000e 0449     		ldr	r1, .L11
 141 0010 0B68     		ldr	r3, [r1]
 142 0012 044A     		ldr	r2, .L11+4
 143 0014 1340     		and	r3, r2
 337:.\Generated_Source\PSoC4/CyLib.c ****                                     CY_SYS_CLK_SELECT_SYSCLK_DIV_SHIFT)) |
 144              		.loc 1 337 0
 145 0016 2343     		orr	r3, r4
 336:.\Generated_Source\PSoC4/CyLib.c ****                                     CY_SYS_CLK_SELECT_SYSCLK_DIV_SHIFT)) |
 146              		.loc 1 336 0
 147 0018 0B60     		str	r3, [r1]
 339:.\Generated_Source\PSoC4/CyLib.c ****                                     CY_SYS_CLK_SELECT_SYSCLK_DIV_SHIFT))));
 340:.\Generated_Source\PSoC4/CyLib.c **** 
 341:.\Generated_Source\PSoC4/CyLib.c ****     CyExitCriticalSection(interruptState);
 148              		.loc 1 341 0
 149 001a FFF7FEFF 		bl	CyExitCriticalSection
 150              	.LVL7:
 342:.\Generated_Source\PSoC4/CyLib.c **** }
 151              		.loc 1 342 0
 152              		@ sp needed
 153 001e 10BD     		pop	{r4, pc}
 154              	.L12:
 155              		.align	2
 156              	.L11:
 157 0020 00010B40 		.word	1074462976
 158 0024 FFFFC7FF 		.word	-3670017
 159              		.cfi_endproc
 160              	.LFE5:
 161              		.size	CySysClkWriteSysclkDiv, .-CySysClkWriteSysclkDiv
 162              		.section	.text.CySysClkWriteImoFreq,"ax",%progbits
 163              		.align	2
 164              		.global	CySysClkWriteImoFreq
 165              		.code	16
 166              		.thumb_func
 167              		.type	CySysClkWriteImoFreq, %function
 168              	CySysClkWriteImoFreq:
ARM GAS  C:\Users\Alan\AppData\Local\Temp\cc47LVCU.s 			page 10


 169              	.LFB6:
 343:.\Generated_Source\PSoC4/CyLib.c **** 
 344:.\Generated_Source\PSoC4/CyLib.c **** 
 345:.\Generated_Source\PSoC4/CyLib.c **** /*******************************************************************************
 346:.\Generated_Source\PSoC4/CyLib.c **** * Function Name: CySysClkWriteImoFreq
 347:.\Generated_Source\PSoC4/CyLib.c **** ********************************************************************************
 348:.\Generated_Source\PSoC4/CyLib.c **** *
 349:.\Generated_Source\PSoC4/CyLib.c **** * Summary:
 350:.\Generated_Source\PSoC4/CyLib.c **** *  Sets the frequency of the IMO.
 351:.\Generated_Source\PSoC4/CyLib.c **** *
 352:.\Generated_Source\PSoC4/CyLib.c **** *  If IMO is currently driving the HFCLK, and if the HFCLK frequency decreases,
 353:.\Generated_Source\PSoC4/CyLib.c **** *  you can call CySysFlashSetWaitCycles () to improve CPU performance. See
 354:.\Generated_Source\PSoC4/CyLib.c **** *  CySysFlashSetWaitCycles () for more information.
 355:.\Generated_Source\PSoC4/CyLib.c **** *
 356:.\Generated_Source\PSoC4/CyLib.c **** *  For PSoC 4000 family of devices, maximum HFCLK frequency is 16 MHz. If IMO is
 357:.\Generated_Source\PSoC4/CyLib.c **** *  configured to frequencies above 16 MHz, ensure to set the appropriate HFCLK
 358:.\Generated_Source\PSoC4/CyLib.c **** *  predivider value first.
 359:.\Generated_Source\PSoC4/CyLib.c **** *
 360:.\Generated_Source\PSoC4/CyLib.c **** *  For PSoC 4100M/PSoC 4200M devices, if WCO lock feature is enabled then this
 361:.\Generated_Source\PSoC4/CyLib.c **** *  API will disable the lock, write the new IMO frequency and then re-enable the
 362:.\Generated_Source\PSoC4/CyLib.c **** *  lock.
 363:.\Generated_Source\PSoC4/CyLib.c **** *
 364:.\Generated_Source\PSoC4/CyLib.c **** * Parameters:
 365:.\Generated_Source\PSoC4/CyLib.c **** *  All PSoC 4 families excluding PSoC 4000: Valid range [3-48] with step size
 366:.\Generated_Source\PSoC4/CyLib.c **** *  equals 1.
 367:.\Generated_Source\PSoC4/CyLib.c **** *
 368:.\Generated_Source\PSoC4/CyLib.c **** *  PSoC 4000: Valid range [24-48] with step size equals 4.
 369:.\Generated_Source\PSoC4/CyLib.c **** *
 370:.\Generated_Source\PSoC4/CyLib.c **** *  Note: The CPU is halted if new frequency is invalid and project is
 371:.\Generated_Source\PSoC4/CyLib.c **** *  compiled in debug mode.
 372:.\Generated_Source\PSoC4/CyLib.c **** *
 373:.\Generated_Source\PSoC4/CyLib.c **** * Return:
 374:.\Generated_Source\PSoC4/CyLib.c **** *  None
 375:.\Generated_Source\PSoC4/CyLib.c **** *
 376:.\Generated_Source\PSoC4/CyLib.c **** * Side Effects:
 377:.\Generated_Source\PSoC4/CyLib.c **** *  If the SYSCLK clock frequency increases during the device operation, call
 378:.\Generated_Source\PSoC4/CyLib.c **** *  CySysFlashSetWaitCycles() with the appropriate parameter to adjust the number
 379:.\Generated_Source\PSoC4/CyLib.c **** *  of clock cycles the cache will wait before sampling data comes back from
 380:.\Generated_Source\PSoC4/CyLib.c **** *  Flash. If the SYSCLK clock frequency decreases, you can call
 381:.\Generated_Source\PSoC4/CyLib.c **** *  CySysFlashSetWaitCycles() to improve the CPU performance. See
 382:.\Generated_Source\PSoC4/CyLib.c **** *  CySysFlashSetWaitCycles() description for more information.
 383:.\Generated_Source\PSoC4/CyLib.c **** *
 384:.\Generated_Source\PSoC4/CyLib.c **** *  PSoC 4000: The System Clock (SYSCLK) has maximum speed of 16 MHz, so HFCLK
 385:.\Generated_Source\PSoC4/CyLib.c **** *  and SYSCLK dividers should be selected in a way, to not to exceed 16 MHz for
 386:.\Generated_Source\PSoC4/CyLib.c **** *  the System clock.
 387:.\Generated_Source\PSoC4/CyLib.c **** *
 388:.\Generated_Source\PSoC4/CyLib.c **** *******************************************************************************/
 389:.\Generated_Source\PSoC4/CyLib.c **** #if(CY_IP_SRSSV2)
 390:.\Generated_Source\PSoC4/CyLib.c ****     void CySysClkWriteImoFreq(uint32 freq)
 391:.\Generated_Source\PSoC4/CyLib.c ****     {
 170              		.loc 1 391 0
 171              		.cfi_startproc
 172              	.LVL8:
 173 0000 10B5     		push	{r4, lr}
 174              		.cfi_def_cfa_offset 8
 175              		.cfi_offset 4, -8
 176              		.cfi_offset 14, -4
ARM GAS  C:\Users\Alan\AppData\Local\Temp\cc47LVCU.s 			page 11


 177 0002 86B0     		sub	sp, sp, #24
 178              		.cfi_def_cfa_offset 32
 179 0004 041C     		mov	r4, r0
 392:.\Generated_Source\PSoC4/CyLib.c ****         #if (CY_IP_FMLT)
 393:.\Generated_Source\PSoC4/CyLib.c ****             volatile uint32   parameters[2u];
 394:.\Generated_Source\PSoC4/CyLib.c ****             volatile uint32   regValues[4u];
 395:.\Generated_Source\PSoC4/CyLib.c ****         #else
 396:.\Generated_Source\PSoC4/CyLib.c ****             uint8  bgTrim4;
 397:.\Generated_Source\PSoC4/CyLib.c ****             uint8  bgTrim5;
 398:.\Generated_Source\PSoC4/CyLib.c ****             uint8  newImoTrim2Value;
 399:.\Generated_Source\PSoC4/CyLib.c ****             uint8  currentImoTrim2Value;
 400:.\Generated_Source\PSoC4/CyLib.c ****         #endif /* (CY_IP_FM) */
 401:.\Generated_Source\PSoC4/CyLib.c **** 
 402:.\Generated_Source\PSoC4/CyLib.c ****         #if (CY_PSOC4_4100M || CY_PSOC4_4200M)
 403:.\Generated_Source\PSoC4/CyLib.c ****             uint32 wcoLock = 0u;
 404:.\Generated_Source\PSoC4/CyLib.c ****         #endif  /* #if (CY_PSOC4_4100M || CY_PSOC4_4200M) */
 405:.\Generated_Source\PSoC4/CyLib.c **** 
 406:.\Generated_Source\PSoC4/CyLib.c ****         uint8  interruptState;
 407:.\Generated_Source\PSoC4/CyLib.c **** 
 408:.\Generated_Source\PSoC4/CyLib.c **** 
 409:.\Generated_Source\PSoC4/CyLib.c ****         interruptState = CyEnterCriticalSection();
 180              		.loc 1 409 0
 181 0006 FFF7FEFF 		bl	CyEnterCriticalSection
 182              	.LVL9:
 410:.\Generated_Source\PSoC4/CyLib.c **** 
 411:.\Generated_Source\PSoC4/CyLib.c ****         #if (CY_PSOC4_4100M || CY_PSOC4_4200M)
 412:.\Generated_Source\PSoC4/CyLib.c ****             if(0u != CySysClkImoGetWcoLock())
 413:.\Generated_Source\PSoC4/CyLib.c ****             {
 414:.\Generated_Source\PSoC4/CyLib.c ****                 wcoLock = 1u;
 415:.\Generated_Source\PSoC4/CyLib.c ****                 CySysClkImoDisableWcoLock();
 416:.\Generated_Source\PSoC4/CyLib.c ****             }
 417:.\Generated_Source\PSoC4/CyLib.c ****         #endif  /* #if (CY_PSOC4_4100M || CY_PSOC4_4200M) */
 418:.\Generated_Source\PSoC4/CyLib.c **** 
 419:.\Generated_Source\PSoC4/CyLib.c ****         #if (CY_IP_FMLT)
 420:.\Generated_Source\PSoC4/CyLib.c **** 
 421:.\Generated_Source\PSoC4/CyLib.c ****             /* FM-Lite Clock Restore */
 422:.\Generated_Source\PSoC4/CyLib.c ****             regValues[0u] = CY_SYS_CLK_IMO_CONFIG_REG;
 183              		.loc 1 422 0
 184 000a 0E4B     		ldr	r3, .L14
 185 000c 1B68     		ldr	r3, [r3]
 186 000e 0093     		str	r3, [sp]
 423:.\Generated_Source\PSoC4/CyLib.c ****             regValues[1u] = CY_SYS_CLK_SELECT_REG;
 187              		.loc 1 423 0
 188 0010 0D4B     		ldr	r3, .L14+4
 189 0012 1B68     		ldr	r3, [r3]
 190 0014 0193     		str	r3, [sp, #4]
 424:.\Generated_Source\PSoC4/CyLib.c ****             regValues[2u] = cyImoFreqMhz2Reg[freq - CY_SYS_CLK_IMO_FREQ_TABLE_OFFSET];
 191              		.loc 1 424 0
 192 0016 033C     		sub	r4, r4, #3
 193              	.LVL10:
 194 0018 0C4B     		ldr	r3, .L14+8
 195 001a 1B5D     		ldrb	r3, [r3, r4]
 196 001c 0293     		str	r3, [sp, #8]
 425:.\Generated_Source\PSoC4/CyLib.c ****             regValues[3u] = CY_FLASH_CTL_REG;
 197              		.loc 1 425 0
 198 001e 0C4B     		ldr	r3, .L14+12
 199 0020 1B68     		ldr	r3, [r3]
ARM GAS  C:\Users\Alan\AppData\Local\Temp\cc47LVCU.s 			page 12


 200 0022 0393     		str	r3, [sp, #12]
 426:.\Generated_Source\PSoC4/CyLib.c **** 
 427:.\Generated_Source\PSoC4/CyLib.c ****             parameters[0u] =
 201              		.loc 1 427 0
 202 0024 04AA     		add	r2, sp, #16
 203 0026 0B4B     		ldr	r3, .L14+16
 204 0028 0493     		str	r3, [sp, #16]
 428:.\Generated_Source\PSoC4/CyLib.c ****                 (uint32) ((CY_FLASH_KEY_TWO(CY_FLASH_API_OPCODE_CLK_RESTORE) <<  CY_FLASH_PARAM_KEY
 429:.\Generated_Source\PSoC4/CyLib.c ****                             CY_FLASH_KEY_ONE);
 430:.\Generated_Source\PSoC4/CyLib.c ****             parameters[1u] = (uint32) &regValues[0u];
 205              		.loc 1 430 0
 206 002a 6B46     		mov	r3, sp
 207 002c 0593     		str	r3, [sp, #20]
 431:.\Generated_Source\PSoC4/CyLib.c **** 
 432:.\Generated_Source\PSoC4/CyLib.c ****             CY_FLASH_CPUSS_SYSARG_REG = (uint32) &parameters[0u];
 208              		.loc 1 432 0
 209 002e 0A4B     		ldr	r3, .L14+20
 210 0030 1A60     		str	r2, [r3]
 433:.\Generated_Source\PSoC4/CyLib.c ****             CY_FLASH_CPUSS_SYSREQ_REG = CY_FLASH_CPUSS_REQ_START | CY_FLASH_API_OPCODE_CLK_RESTORE;
 211              		.loc 1 433 0
 212 0032 0A49     		ldr	r1, .L14+24
 213 0034 0A4A     		ldr	r2, .L14+28
 214 0036 1160     		str	r1, [r2]
 434:.\Generated_Source\PSoC4/CyLib.c ****             (void) CY_FLASH_CPUSS_SYSARG_REG;
 215              		.loc 1 434 0
 216 0038 1B68     		ldr	r3, [r3]
 435:.\Generated_Source\PSoC4/CyLib.c **** 
 436:.\Generated_Source\PSoC4/CyLib.c ****         #else /* (CY_IP_FM) */
 437:.\Generated_Source\PSoC4/CyLib.c **** 
 438:.\Generated_Source\PSoC4/CyLib.c ****         if ((freq >= CY_SYS_CLK_IMO_MIN_FREQ_MHZ) && (freq <= CY_SYS_CLK_IMO_MAX_FREQ_MHZ))
 439:.\Generated_Source\PSoC4/CyLib.c ****         {
 440:.\Generated_Source\PSoC4/CyLib.c ****             if(freq <= CY_SFLASH_IMO_MAXF0_REG)
 441:.\Generated_Source\PSoC4/CyLib.c ****             {
 442:.\Generated_Source\PSoC4/CyLib.c ****                 bgTrim4 = CY_SFLASH_IMO_ABS0_REG;
 443:.\Generated_Source\PSoC4/CyLib.c ****                 bgTrim5 = CY_SFLASH_IMO_TMPCO0_REG;
 444:.\Generated_Source\PSoC4/CyLib.c ****             }
 445:.\Generated_Source\PSoC4/CyLib.c ****             else if(freq <= CY_SFLASH_IMO_MAXF1_REG)
 446:.\Generated_Source\PSoC4/CyLib.c ****             {
 447:.\Generated_Source\PSoC4/CyLib.c ****                 bgTrim4 = CY_SFLASH_IMO_ABS1_REG;
 448:.\Generated_Source\PSoC4/CyLib.c ****                 bgTrim5 = CY_SFLASH_IMO_TMPCO1_REG;
 449:.\Generated_Source\PSoC4/CyLib.c ****             }
 450:.\Generated_Source\PSoC4/CyLib.c ****             else if(freq <= CY_SFLASH_IMO_MAXF2_REG)
 451:.\Generated_Source\PSoC4/CyLib.c ****             {
 452:.\Generated_Source\PSoC4/CyLib.c ****                 bgTrim4 = CY_SFLASH_IMO_ABS2_REG;
 453:.\Generated_Source\PSoC4/CyLib.c ****                 bgTrim5 = CY_SFLASH_IMO_TMPCO2_REG;
 454:.\Generated_Source\PSoC4/CyLib.c ****             }
 455:.\Generated_Source\PSoC4/CyLib.c ****             else if(freq <= CY_SFLASH_IMO_MAXF3_REG)
 456:.\Generated_Source\PSoC4/CyLib.c ****             {
 457:.\Generated_Source\PSoC4/CyLib.c ****                 bgTrim4 = CY_SFLASH_IMO_ABS3_REG;
 458:.\Generated_Source\PSoC4/CyLib.c ****                 bgTrim5 = CY_SFLASH_IMO_TMPCO3_REG;
 459:.\Generated_Source\PSoC4/CyLib.c ****             }
 460:.\Generated_Source\PSoC4/CyLib.c ****             else
 461:.\Generated_Source\PSoC4/CyLib.c ****             {
 462:.\Generated_Source\PSoC4/CyLib.c ****                 bgTrim4 = CY_SFLASH_IMO_ABS4_REG;
 463:.\Generated_Source\PSoC4/CyLib.c ****                 bgTrim5 = CY_SFLASH_IMO_TMPCO4_REG;
 464:.\Generated_Source\PSoC4/CyLib.c ****             }
 465:.\Generated_Source\PSoC4/CyLib.c **** 
ARM GAS  C:\Users\Alan\AppData\Local\Temp\cc47LVCU.s 			page 13


 466:.\Generated_Source\PSoC4/CyLib.c ****             /* Get IMO_TRIM2 value for the new frequency */
 467:.\Generated_Source\PSoC4/CyLib.c ****             newImoTrim2Value = cyImoFreqMhz2Reg[freq - CY_SYS_CLK_IMO_FREQ_TABLE_OFFSET];
 468:.\Generated_Source\PSoC4/CyLib.c **** 
 469:.\Generated_Source\PSoC4/CyLib.c **** 
 470:.\Generated_Source\PSoC4/CyLib.c ****             /**********************************************`*****************************
 471:.\Generated_Source\PSoC4/CyLib.c ****             * The IMO can have a different trim per frequency. To avoid possible corner
 472:.\Generated_Source\PSoC4/CyLib.c ****             * cases where a trim change can exceed the maximum frequency, the trim must
 473:.\Generated_Source\PSoC4/CyLib.c ****             * be applied at a frequency that is low enough.
 474:.\Generated_Source\PSoC4/CyLib.c ****             *
 475:.\Generated_Source\PSoC4/CyLib.c ****             * Comparing IMO_TRIM2 values for the current and new frequencies, since
 476:.\Generated_Source\PSoC4/CyLib.c ****             * IMO_TRIM2 value as a function of IMO frequency is a strictly increasing
 477:.\Generated_Source\PSoC4/CyLib.c ****             * function and is time-invariant.
 478:.\Generated_Source\PSoC4/CyLib.c ****             ***************************************************************************/
 479:.\Generated_Source\PSoC4/CyLib.c ****             if ((newImoTrim2Value >= CY_SYS_CLK_IMO_BOUNDARY_FREQ_TRIM2) && (freq >= CY_SYS_CLK_IMO
 480:.\Generated_Source\PSoC4/CyLib.c ****             {
 481:.\Generated_Source\PSoC4/CyLib.c ****                 /* Set boundary IMO frequency: safe for IMO above 48 MHZ trimming */
 482:.\Generated_Source\PSoC4/CyLib.c ****                 CY_SYS_CLK_IMO_TRIM2_REG = (uint32) cyImoFreqMhz2Reg[CY_SYS_CLK_IMO_TEMP_FREQ_MHZ -
 483:.\Generated_Source\PSoC4/CyLib.c ****                                                                      CY_SYS_CLK_IMO_FREQ_TABLE_OFFS
 484:.\Generated_Source\PSoC4/CyLib.c **** 
 485:.\Generated_Source\PSoC4/CyLib.c ****                 CyDelayCycles(CY_SYS_CLK_IMO_FREQ_TIMEOUT_CYCLES);
 486:.\Generated_Source\PSoC4/CyLib.c **** 
 487:.\Generated_Source\PSoC4/CyLib.c ****                 currentImoTrim2Value = CY_SYS_CLK_IMO_TEMP_FREQ_TRIM2;
 488:.\Generated_Source\PSoC4/CyLib.c ****             }
 489:.\Generated_Source\PSoC4/CyLib.c ****             else
 490:.\Generated_Source\PSoC4/CyLib.c ****             {
 491:.\Generated_Source\PSoC4/CyLib.c ****                 currentImoTrim2Value = (uint8) (CY_SYS_CLK_IMO_TRIM2_REG & CY_SYS_CLK_IMO_FREQ_BITS
 492:.\Generated_Source\PSoC4/CyLib.c ****             }
 493:.\Generated_Source\PSoC4/CyLib.c **** 
 494:.\Generated_Source\PSoC4/CyLib.c **** 
 495:.\Generated_Source\PSoC4/CyLib.c ****             /***************************************************************************
 496:.\Generated_Source\PSoC4/CyLib.c ****             * A trim change needs to be allowed to settle (within 5us) before the Freq
 497:.\Generated_Source\PSoC4/CyLib.c ****             * can be changed to a new frequency.
 498:.\Generated_Source\PSoC4/CyLib.c ****             *
 499:.\Generated_Source\PSoC4/CyLib.c ****             * Comparing IMO_TRIM2 values for the current and new frequencies, since
 500:.\Generated_Source\PSoC4/CyLib.c ****             * IMO_TRIM2 value as a function of IMO frequency is a strictly increasing
 501:.\Generated_Source\PSoC4/CyLib.c ****             * function and is time-invariant.
 502:.\Generated_Source\PSoC4/CyLib.c ****             ***************************************************************************/
 503:.\Generated_Source\PSoC4/CyLib.c ****             if (newImoTrim2Value < currentImoTrim2Value)
 504:.\Generated_Source\PSoC4/CyLib.c ****             {
 505:.\Generated_Source\PSoC4/CyLib.c ****                 /* Set new IMO frequency */
 506:.\Generated_Source\PSoC4/CyLib.c ****                 CY_SYS_CLK_IMO_TRIM2_REG = cyImoFreqMhz2Reg[freq - CY_SYS_CLK_IMO_FREQ_TABLE_OFFSET
 507:.\Generated_Source\PSoC4/CyLib.c ****                 CyDelayCycles(CY_SYS_CLK_IMO_FREQ_TIMEOUT_CYCLES);
 508:.\Generated_Source\PSoC4/CyLib.c ****             }
 509:.\Generated_Source\PSoC4/CyLib.c **** 
 510:.\Generated_Source\PSoC4/CyLib.c ****             /* Set trims for the new IMO frequency */
 511:.\Generated_Source\PSoC4/CyLib.c ****             CY_SYS_CLK_IMO_TRIM1_REG = (uint32) CY_SFLASH_IMO_TRIM_REG(freq - CY_SYS_CLK_IMO_FREQ_T
 512:.\Generated_Source\PSoC4/CyLib.c ****             CY_PWR_BG_TRIM4_REG  = bgTrim4;
 513:.\Generated_Source\PSoC4/CyLib.c ****             CY_PWR_BG_TRIM5_REG  = bgTrim5;
 514:.\Generated_Source\PSoC4/CyLib.c ****             CyDelayUs(CY_SYS_CLK_IMO_TRIM_TIMEOUT_US);
 515:.\Generated_Source\PSoC4/CyLib.c **** 
 516:.\Generated_Source\PSoC4/CyLib.c ****             if (newImoTrim2Value > currentImoTrim2Value)
 517:.\Generated_Source\PSoC4/CyLib.c ****             {
 518:.\Generated_Source\PSoC4/CyLib.c ****                 /* Set new IMO frequency */
 519:.\Generated_Source\PSoC4/CyLib.c ****                 CY_SYS_CLK_IMO_TRIM2_REG = cyImoFreqMhz2Reg[freq - CY_SYS_CLK_IMO_FREQ_TABLE_OFFSET
 520:.\Generated_Source\PSoC4/CyLib.c ****                 CyDelayCycles(CY_SYS_CLK_IMO_FREQ_TIMEOUT_CYCLES);
 521:.\Generated_Source\PSoC4/CyLib.c ****             }
 522:.\Generated_Source\PSoC4/CyLib.c ****         }
ARM GAS  C:\Users\Alan\AppData\Local\Temp\cc47LVCU.s 			page 14


 523:.\Generated_Source\PSoC4/CyLib.c ****         else
 524:.\Generated_Source\PSoC4/CyLib.c ****         {
 525:.\Generated_Source\PSoC4/CyLib.c ****             /* Halt CPU in debug mode if new frequency is invalid */
 526:.\Generated_Source\PSoC4/CyLib.c ****             CYASSERT(0u != 0u);
 527:.\Generated_Source\PSoC4/CyLib.c ****         }
 528:.\Generated_Source\PSoC4/CyLib.c **** 
 529:.\Generated_Source\PSoC4/CyLib.c ****         #endif /* (CY_IP_FMLT) */
 530:.\Generated_Source\PSoC4/CyLib.c **** 
 531:.\Generated_Source\PSoC4/CyLib.c ****         #if (CY_PSOC4_4100M || CY_PSOC4_4200M)
 532:.\Generated_Source\PSoC4/CyLib.c ****             if (1u == wcoLock)
 533:.\Generated_Source\PSoC4/CyLib.c ****             {
 534:.\Generated_Source\PSoC4/CyLib.c ****                 CySysClkImoEnableWcoLock();
 535:.\Generated_Source\PSoC4/CyLib.c ****             }
 536:.\Generated_Source\PSoC4/CyLib.c ****         #endif  /* #if (CY_PSOC4_4100M || CY_PSOC4_4200M) */
 537:.\Generated_Source\PSoC4/CyLib.c **** 
 538:.\Generated_Source\PSoC4/CyLib.c ****         CyExitCriticalSection(interruptState);
 217              		.loc 1 538 0
 218 003a FFF7FEFF 		bl	CyExitCriticalSection
 219              	.LVL11:
 539:.\Generated_Source\PSoC4/CyLib.c ****     }
 220              		.loc 1 539 0
 221 003e 06B0     		add	sp, sp, #24
 222              		@ sp needed
 223              	.LVL12:
 224 0040 10BD     		pop	{r4, pc}
 225              	.L15:
 226 0042 C046     		.align	2
 227              	.L14:
 228 0044 08010B40 		.word	1074462984
 229 0048 00010B40 		.word	1074462976
 230 004c 00000000 		.word	.LANCHOR0
 231 0050 30001040 		.word	1074790448
 232 0054 B6EA0000 		.word	60086
 233 0058 08001040 		.word	1074790408
 234 005c 17000080 		.word	-2147483625
 235 0060 04001040 		.word	1074790404
 236              		.cfi_endproc
 237              	.LFE6:
 238              		.size	CySysClkWriteImoFreq, .-CySysClkWriteImoFreq
 239              		.section	.text.CySysClkEcoStop,"ax",%progbits
 240              		.align	2
 241              		.global	CySysClkEcoStop
 242              		.code	16
 243              		.thumb_func
 244              		.type	CySysClkEcoStop, %function
 245              	CySysClkEcoStop:
 246              	.LFB8:
 540:.\Generated_Source\PSoC4/CyLib.c **** 
 541:.\Generated_Source\PSoC4/CyLib.c **** #else
 542:.\Generated_Source\PSoC4/CyLib.c **** 
 543:.\Generated_Source\PSoC4/CyLib.c ****     void CySysClkWriteImoFreq(uint32 freq)
 544:.\Generated_Source\PSoC4/CyLib.c ****     {
 545:.\Generated_Source\PSoC4/CyLib.c ****         uint8  interruptState;
 546:.\Generated_Source\PSoC4/CyLib.c **** 
 547:.\Generated_Source\PSoC4/CyLib.c ****         if ((freq == 24u) || (freq == 32u) || (freq == 48u))
 548:.\Generated_Source\PSoC4/CyLib.c ****         {
 549:.\Generated_Source\PSoC4/CyLib.c ****             interruptState = CyEnterCriticalSection();
ARM GAS  C:\Users\Alan\AppData\Local\Temp\cc47LVCU.s 			page 15


 550:.\Generated_Source\PSoC4/CyLib.c **** 
 551:.\Generated_Source\PSoC4/CyLib.c ****             /* Set IMO to 24 MHz - CLK_IMO_SELECT.FREQ = 0 */
 552:.\Generated_Source\PSoC4/CyLib.c ****             CY_SYS_CLK_IMO_SELECT_REG &= ((uint32) ~CY_SYS_CLK_IMO_SELECT_FREQ_MASK);
 553:.\Generated_Source\PSoC4/CyLib.c **** 
 554:.\Generated_Source\PSoC4/CyLib.c ****             /* Apply coarse trim */
 555:.\Generated_Source\PSoC4/CyLib.c ****             CY_SYS_CLK_IMO_TRIM1_REG = (CY_SYS_CLK_IMO_TRIM1_REG & ((uint32) ~CY_SYS_CLK_IMO_TRIM1_
 556:.\Generated_Source\PSoC4/CyLib.c ****                 (CY_SFLASH_IMO_TRIM_REG(freq - CY_SYS_CLK_IMO_MIN_FREQ_MHZ) & CY_SYS_CLK_IMO_TRIM1_
 557:.\Generated_Source\PSoC4/CyLib.c **** 
 558:.\Generated_Source\PSoC4/CyLib.c ****             /* Zero out fine trim */
 559:.\Generated_Source\PSoC4/CyLib.c ****             CY_SYS_CLK_IMO_TRIM2_REG = CY_SYS_CLK_IMO_TRIM2_REG & ((uint32) ~CY_SYS_CLK_IMO_TRIM2_F
 560:.\Generated_Source\PSoC4/CyLib.c **** 
 561:.\Generated_Source\PSoC4/CyLib.c ****             /* Apply TC trim */
 562:.\Generated_Source\PSoC4/CyLib.c ****             CY_SYS_CLK_IMO_TRIM3_REG = (CY_SYS_CLK_IMO_TRIM3_REG & ((uint32) ~CY_SYS_CLK_IMO_TRIM3_
 563:.\Generated_Source\PSoC4/CyLib.c ****                 (CY_SFLASH_IMO_TCTRIM_REG(freq - CY_SYS_CLK_IMO_MIN_FREQ_MHZ) & CY_SYS_CLK_IMO_TRIM
 564:.\Generated_Source\PSoC4/CyLib.c **** 
 565:.\Generated_Source\PSoC4/CyLib.c ****             CyDelayCycles(CY_SYS_CLK_IMO_TRIM_DELAY_US);
 566:.\Generated_Source\PSoC4/CyLib.c **** 
 567:.\Generated_Source\PSoC4/CyLib.c ****             if (freq > CY_SYS_CLK_IMO_MIN_FREQ_MHZ)
 568:.\Generated_Source\PSoC4/CyLib.c ****             {
 569:.\Generated_Source\PSoC4/CyLib.c ****                 /* Select nearby intermediate frequency */
 570:.\Generated_Source\PSoC4/CyLib.c ****                 CY_SYS_CLK_IMO_SELECT_REG = (CY_SYS_CLK_IMO_SELECT_REG & ((uint32) ~CY_SYS_CLK_IMO_
 571:.\Generated_Source\PSoC4/CyLib.c ****                     (((freq - 4u - CY_SYS_CLK_IMO_MIN_FREQ_MHZ) >> 2u) & CY_SYS_CLK_IMO_SELECT_FREQ
 572:.\Generated_Source\PSoC4/CyLib.c **** 
 573:.\Generated_Source\PSoC4/CyLib.c ****                 CyDelayCycles(CY_SYS_CLK_IMO_TRIM_DELAY_US);
 574:.\Generated_Source\PSoC4/CyLib.c **** 
 575:.\Generated_Source\PSoC4/CyLib.c ****                 /* Make small step to final frequency */
 576:.\Generated_Source\PSoC4/CyLib.c ****                 /* Select nearby intermediate frequency */
 577:.\Generated_Source\PSoC4/CyLib.c ****                 CY_SYS_CLK_IMO_SELECT_REG = (CY_SYS_CLK_IMO_SELECT_REG & ((uint32) ~CY_SYS_CLK_IMO_
 578:.\Generated_Source\PSoC4/CyLib.c ****                     (((freq - CY_SYS_CLK_IMO_MIN_FREQ_MHZ) >> 2u) & CY_SYS_CLK_IMO_SELECT_FREQ_MASK
 579:.\Generated_Source\PSoC4/CyLib.c ****             }
 580:.\Generated_Source\PSoC4/CyLib.c **** 
 581:.\Generated_Source\PSoC4/CyLib.c ****             CyExitCriticalSection(interruptState);
 582:.\Generated_Source\PSoC4/CyLib.c ****         }
 583:.\Generated_Source\PSoC4/CyLib.c ****         else
 584:.\Generated_Source\PSoC4/CyLib.c ****         {
 585:.\Generated_Source\PSoC4/CyLib.c ****             /* Halt CPU in debug mode if new frequency is invalid */
 586:.\Generated_Source\PSoC4/CyLib.c ****             CYASSERT(0u != 0u);
 587:.\Generated_Source\PSoC4/CyLib.c ****         }
 588:.\Generated_Source\PSoC4/CyLib.c ****     }
 589:.\Generated_Source\PSoC4/CyLib.c **** 
 590:.\Generated_Source\PSoC4/CyLib.c **** #endif /* (CY_IP_SRSSV2) */
 591:.\Generated_Source\PSoC4/CyLib.c **** 
 592:.\Generated_Source\PSoC4/CyLib.c **** 
 593:.\Generated_Source\PSoC4/CyLib.c **** #if(CY_IP_SRSSLT)
 594:.\Generated_Source\PSoC4/CyLib.c ****     /*******************************************************************************
 595:.\Generated_Source\PSoC4/CyLib.c ****     * Function Name: CySysClkWriteHfclkDiv
 596:.\Generated_Source\PSoC4/CyLib.c ****     ********************************************************************************
 597:.\Generated_Source\PSoC4/CyLib.c ****     *
 598:.\Generated_Source\PSoC4/CyLib.c ****     * Summary:
 599:.\Generated_Source\PSoC4/CyLib.c ****     *  Selects the pre-scaler divider value for HFCLK from IMO.
 600:.\Generated_Source\PSoC4/CyLib.c ****     *
 601:.\Generated_Source\PSoC4/CyLib.c ****     *  The HFCLK predivider allows the device to divide the HFCLK selection mux
 602:.\Generated_Source\PSoC4/CyLib.c ****     *  input before use as HFCLK. The predivider is capable of dividing the HFCLK by
 603:.\Generated_Source\PSoC4/CyLib.c ****     *  powers of 2 between 1 and 8.
 604:.\Generated_Source\PSoC4/CyLib.c ****     *
 605:.\Generated_Source\PSoC4/CyLib.c ****     *  Note HFCLK's frequency cannot exceed 16 MHz. This API is applicable for
 606:.\Generated_Source\PSoC4/CyLib.c ****     *  PSoC 4000 family of devices only.
ARM GAS  C:\Users\Alan\AppData\Local\Temp\cc47LVCU.s 			page 16


 607:.\Generated_Source\PSoC4/CyLib.c ****     *
 608:.\Generated_Source\PSoC4/CyLib.c ****     *
 609:.\Generated_Source\PSoC4/CyLib.c ****     * Parameters:
 610:.\Generated_Source\PSoC4/CyLib.c ****     *  divider: HF clock divider value
 611:.\Generated_Source\PSoC4/CyLib.c ****     *   Define                        Description
 612:.\Generated_Source\PSoC4/CyLib.c ****     *   CY_SYS_CLK_HFCLK_DIV_NODIV    Transparent mode (w/o dividing)
 613:.\Generated_Source\PSoC4/CyLib.c ****     *   CY_SYS_CLK_HFCLK_DIV_2        Divide selected clock source by 2
 614:.\Generated_Source\PSoC4/CyLib.c ****     *   CY_SYS_CLK_HFCLK_DIV_4        Divide selected clock source by 4
 615:.\Generated_Source\PSoC4/CyLib.c ****     *   CY_SYS_CLK_HFCLK_DIV_8        Divide selected clock source by 8
 616:.\Generated_Source\PSoC4/CyLib.c ****     *
 617:.\Generated_Source\PSoC4/CyLib.c ****     * Return:
 618:.\Generated_Source\PSoC4/CyLib.c ****     *  None
 619:.\Generated_Source\PSoC4/CyLib.c ****     *
 620:.\Generated_Source\PSoC4/CyLib.c ****     * Side Effects:
 621:.\Generated_Source\PSoC4/CyLib.c ****     *  If the SYSCLK clock frequency increases during the device operation, call
 622:.\Generated_Source\PSoC4/CyLib.c ****     *  CySysFlashSetWaitCycles() with the appropriate parameter to adjust the number
 623:.\Generated_Source\PSoC4/CyLib.c ****     *  of clock cycles the cache will wait before sampling data comes back from
 624:.\Generated_Source\PSoC4/CyLib.c ****     *  Flash. If the SYSCLK clock frequency decreases, you can call
 625:.\Generated_Source\PSoC4/CyLib.c ****     *  CySysFlashSetWaitCycles() to improve the CPU performance. See
 626:.\Generated_Source\PSoC4/CyLib.c ****     *  CySysFlashSetWaitCycles() description for more information.
 627:.\Generated_Source\PSoC4/CyLib.c ****     *
 628:.\Generated_Source\PSoC4/CyLib.c ****     *******************************************************************************/
 629:.\Generated_Source\PSoC4/CyLib.c ****     void CySysClkWriteHfclkDiv(uint32 divider)
 630:.\Generated_Source\PSoC4/CyLib.c ****     {
 631:.\Generated_Source\PSoC4/CyLib.c ****         uint8  interruptState;
 632:.\Generated_Source\PSoC4/CyLib.c **** 
 633:.\Generated_Source\PSoC4/CyLib.c ****         interruptState = CyEnterCriticalSection();
 634:.\Generated_Source\PSoC4/CyLib.c **** 
 635:.\Generated_Source\PSoC4/CyLib.c ****         CY_SYS_CLK_SELECT_REG = ((CY_SYS_CLK_SELECT_REG & ((uint32) (~(CY_SYS_CLK_SELECT_HFCLK_DIV_
 636:.\Generated_Source\PSoC4/CyLib.c ****                                         CY_SYS_CLK_SELECT_HFCLK_DIV_SHIFT)))) |
 637:.\Generated_Source\PSoC4/CyLib.c ****                     ((uint32)((divider & CY_SYS_CLK_SELECT_HFCLK_DIV_MASK) << CY_SYS_CLK_SELECT_HFC
 638:.\Generated_Source\PSoC4/CyLib.c **** 
 639:.\Generated_Source\PSoC4/CyLib.c ****         CyExitCriticalSection(interruptState);
 640:.\Generated_Source\PSoC4/CyLib.c ****     }
 641:.\Generated_Source\PSoC4/CyLib.c **** #endif /* (CY_IP_SRSSLT) */
 642:.\Generated_Source\PSoC4/CyLib.c **** 
 643:.\Generated_Source\PSoC4/CyLib.c **** 
 644:.\Generated_Source\PSoC4/CyLib.c **** #if (CY_PSOC4_4100BL || CY_PSOC4_4200BL)
 645:.\Generated_Source\PSoC4/CyLib.c **** 
 646:.\Generated_Source\PSoC4/CyLib.c ****     /*******************************************************************************
 647:.\Generated_Source\PSoC4/CyLib.c ****     * Function Name: CySysClkEcoStart
 648:.\Generated_Source\PSoC4/CyLib.c ****     ********************************************************************************
 649:.\Generated_Source\PSoC4/CyLib.c ****     *
 650:.\Generated_Source\PSoC4/CyLib.c ****     * Summary:
 651:.\Generated_Source\PSoC4/CyLib.c ****     *  Starts the External Crystal Oscillator (ECO). Refer to the device datasheet
 652:.\Generated_Source\PSoC4/CyLib.c ****     *  for the ECO startup time.
 653:.\Generated_Source\PSoC4/CyLib.c ****     *
 654:.\Generated_Source\PSoC4/CyLib.c ****     *  The timeout interval is measured based on the system frequency defined by
 655:.\Generated_Source\PSoC4/CyLib.c ****     *  PSoC Creator at build time. If System clock frequency is changed in
 656:.\Generated_Source\PSoC4/CyLib.c ****     *  runtime, the CyDelayFreq() with the appropriate parameter should be called.
 657:.\Generated_Source\PSoC4/CyLib.c ****     *
 658:.\Generated_Source\PSoC4/CyLib.c ****     * Parameters:
 659:.\Generated_Source\PSoC4/CyLib.c ****     *  timeoutUs: Timeout in microseconds. If zero is specified, the function
 660:.\Generated_Source\PSoC4/CyLib.c ****     *             starts the crystal and returns CYRET_SUCCESS. If non-zero
 661:.\Generated_Source\PSoC4/CyLib.c ****     *             value is passed, the CYRET_SUCCESS is returned once crystal
 662:.\Generated_Source\PSoC4/CyLib.c ****     *             is oscillating and amplitude reached 60% and it does not mean
 663:.\Generated_Source\PSoC4/CyLib.c ****     *             24 MHz crystal is within 50 ppm. If it is not oscillating or
ARM GAS  C:\Users\Alan\AppData\Local\Temp\cc47LVCU.s 			page 17


 664:.\Generated_Source\PSoC4/CyLib.c ****     *             amplitude didn't reach 60% after specified amount of time, the
 665:.\Generated_Source\PSoC4/CyLib.c ****     *             CYRET_TIMEOUT is returned.
 666:.\Generated_Source\PSoC4/CyLib.c ****     *
 667:.\Generated_Source\PSoC4/CyLib.c ****     * Return:
 668:.\Generated_Source\PSoC4/CyLib.c ****     *   CYRET_SUCCESS - Completed successfully. The ECO is oscillating and amplitude
 669:.\Generated_Source\PSoC4/CyLib.c ****     *                   reached 60% and it does not mean 24 MHz crystal is within
 670:.\Generated_Source\PSoC4/CyLib.c ****     *                   50 ppm.
 671:.\Generated_Source\PSoC4/CyLib.c ****     *   CYRET_TIMEOUT - Timeout occurred.
 672:.\Generated_Source\PSoC4/CyLib.c ****     *
 673:.\Generated_Source\PSoC4/CyLib.c ****     *******************************************************************************/
 674:.\Generated_Source\PSoC4/CyLib.c ****     cystatus CySysClkEcoStart(uint32 timeoutUs)
 675:.\Generated_Source\PSoC4/CyLib.c ****     {
 676:.\Generated_Source\PSoC4/CyLib.c ****         cystatus status = CYRET_SUCCESS;
 677:.\Generated_Source\PSoC4/CyLib.c **** 
 678:.\Generated_Source\PSoC4/CyLib.c ****         /* Enable the RF oscillator band gap */
 679:.\Generated_Source\PSoC4/CyLib.c ****         CY_SYS_XTAL_BLESS_RF_CONFIG_REG |= CY_SYS_XTAL_BLESS_RF_CONFIG_RF_ENABLE;
 680:.\Generated_Source\PSoC4/CyLib.c **** 
 681:.\Generated_Source\PSoC4/CyLib.c ****         /* Update trimming register */
 682:.\Generated_Source\PSoC4/CyLib.c ****         CY_SYS_XTAL_BLERD_BB_XO_REG = CY_SYS_XTAL_BLERD_BB_XO_TRIM;
 683:.\Generated_Source\PSoC4/CyLib.c **** 
 684:.\Generated_Source\PSoC4/CyLib.c ****         /* Enable the Crystal */
 685:.\Generated_Source\PSoC4/CyLib.c ****         CY_SYS_XTAL_BLERD_DBUS_REG |= CY_SYS_XTAL_BLERD_DBUS_XTAL_ENABLE;
 686:.\Generated_Source\PSoC4/CyLib.c **** 
 687:.\Generated_Source\PSoC4/CyLib.c ****         if(timeoutUs > 0u)
 688:.\Generated_Source\PSoC4/CyLib.c ****         {
 689:.\Generated_Source\PSoC4/CyLib.c ****             status = CYRET_TIMEOUT;
 690:.\Generated_Source\PSoC4/CyLib.c **** 
 691:.\Generated_Source\PSoC4/CyLib.c ****             for( ; timeoutUs > 0u; timeoutUs--)
 692:.\Generated_Source\PSoC4/CyLib.c ****             {
 693:.\Generated_Source\PSoC4/CyLib.c ****                 CyDelayUs(1u);
 694:.\Generated_Source\PSoC4/CyLib.c **** 
 695:.\Generated_Source\PSoC4/CyLib.c ****                 if(0u != CySysClkEcoReadStatus())
 696:.\Generated_Source\PSoC4/CyLib.c ****                 {
 697:.\Generated_Source\PSoC4/CyLib.c ****                     status = CYRET_SUCCESS;
 698:.\Generated_Source\PSoC4/CyLib.c ****                     break;
 699:.\Generated_Source\PSoC4/CyLib.c ****                 }
 700:.\Generated_Source\PSoC4/CyLib.c ****             }
 701:.\Generated_Source\PSoC4/CyLib.c **** 
 702:.\Generated_Source\PSoC4/CyLib.c ****         }
 703:.\Generated_Source\PSoC4/CyLib.c **** 
 704:.\Generated_Source\PSoC4/CyLib.c ****         return(status);
 705:.\Generated_Source\PSoC4/CyLib.c ****     }
 706:.\Generated_Source\PSoC4/CyLib.c **** 
 707:.\Generated_Source\PSoC4/CyLib.c **** 
 708:.\Generated_Source\PSoC4/CyLib.c ****     /*******************************************************************************
 709:.\Generated_Source\PSoC4/CyLib.c ****     * Function Name: CySysClkEcoStop
 710:.\Generated_Source\PSoC4/CyLib.c ****     ********************************************************************************
 711:.\Generated_Source\PSoC4/CyLib.c ****     *
 712:.\Generated_Source\PSoC4/CyLib.c ****     * Summary:
 713:.\Generated_Source\PSoC4/CyLib.c ****     *  Stops the megahertz crystal.
 714:.\Generated_Source\PSoC4/CyLib.c ****     *
 715:.\Generated_Source\PSoC4/CyLib.c ****     * Parameters:
 716:.\Generated_Source\PSoC4/CyLib.c ****     *  None
 717:.\Generated_Source\PSoC4/CyLib.c ****     *
 718:.\Generated_Source\PSoC4/CyLib.c ****     * Return:
 719:.\Generated_Source\PSoC4/CyLib.c ****     *  None
 720:.\Generated_Source\PSoC4/CyLib.c ****     *
ARM GAS  C:\Users\Alan\AppData\Local\Temp\cc47LVCU.s 			page 18


 721:.\Generated_Source\PSoC4/CyLib.c ****     *******************************************************************************/
 722:.\Generated_Source\PSoC4/CyLib.c ****     void CySysClkEcoStop(void)
 723:.\Generated_Source\PSoC4/CyLib.c ****     {
 247              		.loc 1 723 0
 248              		.cfi_startproc
 724:.\Generated_Source\PSoC4/CyLib.c ****         /* Disable the RF oscillator band gap */
 725:.\Generated_Source\PSoC4/CyLib.c ****         CY_SYS_XTAL_BLESS_RF_CONFIG_REG &= (uint32) ~CY_SYS_XTAL_BLESS_RF_CONFIG_RF_ENABLE;
 249              		.loc 1 725 0
 250 0000 054A     		ldr	r2, .L17
 251 0002 1368     		ldr	r3, [r2]
 252 0004 0121     		mov	r1, #1
 253 0006 8B43     		bic	r3, r1
 254 0008 1360     		str	r3, [r2]
 726:.\Generated_Source\PSoC4/CyLib.c **** 
 727:.\Generated_Source\PSoC4/CyLib.c ****         /* Disable the Crystal */
 728:.\Generated_Source\PSoC4/CyLib.c ****         CY_SYS_XTAL_BLERD_DBUS_REG &= (uint32) ~CY_SYS_XTAL_BLERD_DBUS_XTAL_ENABLE;
 255              		.loc 1 728 0
 256 000a 044A     		ldr	r2, .L17+4
 257 000c 1168     		ldr	r1, [r2]
 258 000e 044B     		ldr	r3, .L17+8
 259 0010 0B40     		and	r3, r1
 260 0012 1360     		str	r3, [r2]
 729:.\Generated_Source\PSoC4/CyLib.c ****     }
 261              		.loc 1 729 0
 262              		@ sp needed
 263 0014 7047     		bx	lr
 264              	.L18:
 265 0016 C046     		.align	2
 266              	.L17:
 267 0018 60F02E40 		.word	1076818016
 268 001c 10002E40 		.word	1076756496
 269 0020 FF7FFFFF 		.word	-32769
 270              		.cfi_endproc
 271              	.LFE8:
 272              		.size	CySysClkEcoStop, .-CySysClkEcoStop
 273              		.section	.text.CySysClkEcoReadStatus,"ax",%progbits
 274              		.align	2
 275              		.global	CySysClkEcoReadStatus
 276              		.code	16
 277              		.thumb_func
 278              		.type	CySysClkEcoReadStatus, %function
 279              	CySysClkEcoReadStatus:
 280              	.LFB9:
 730:.\Generated_Source\PSoC4/CyLib.c **** 
 731:.\Generated_Source\PSoC4/CyLib.c **** 
 732:.\Generated_Source\PSoC4/CyLib.c ****     /*******************************************************************************
 733:.\Generated_Source\PSoC4/CyLib.c ****     * Function Name: CySysClkEcoReadStatus
 734:.\Generated_Source\PSoC4/CyLib.c ****     ********************************************************************************
 735:.\Generated_Source\PSoC4/CyLib.c ****     *
 736:.\Generated_Source\PSoC4/CyLib.c ****     * Summary:
 737:.\Generated_Source\PSoC4/CyLib.c ****     *  Read status bit (50 ppm reached) for the megahertz crystal.
 738:.\Generated_Source\PSoC4/CyLib.c ****     *
 739:.\Generated_Source\PSoC4/CyLib.c ****     * Parameters:
 740:.\Generated_Source\PSoC4/CyLib.c ****     *  None
 741:.\Generated_Source\PSoC4/CyLib.c ****     *
 742:.\Generated_Source\PSoC4/CyLib.c ****     * Return:
 743:.\Generated_Source\PSoC4/CyLib.c ****     *  Non-zero indicates that XTAL output reached 50 ppm.
ARM GAS  C:\Users\Alan\AppData\Local\Temp\cc47LVCU.s 			page 19


 744:.\Generated_Source\PSoC4/CyLib.c ****     *
 745:.\Generated_Source\PSoC4/CyLib.c ****     *******************************************************************************/
 746:.\Generated_Source\PSoC4/CyLib.c ****     uint32 CySysClkEcoReadStatus(void)
 747:.\Generated_Source\PSoC4/CyLib.c ****     {
 281              		.loc 1 747 0
 282              		.cfi_startproc
 748:.\Generated_Source\PSoC4/CyLib.c ****         return (CY_SYS_XTAL_BLERD_FSM_REG & CY_SYS_XTAL_BLERD_FSM_XO_AMP_DETECT);
 283              		.loc 1 748 0
 284 0000 024B     		ldr	r3, .L20
 285 0002 1B68     		ldr	r3, [r3]
 286 0004 0120     		mov	r0, #1
 287 0006 1840     		and	r0, r3
 749:.\Generated_Source\PSoC4/CyLib.c ****     }
 288              		.loc 1 749 0
 289              		@ sp needed
 290 0008 7047     		bx	lr
 291              	.L21:
 292 000a C046     		.align	2
 293              	.L20:
 294 000c 0C002E40 		.word	1076756492
 295              		.cfi_endproc
 296              	.LFE9:
 297              		.size	CySysClkEcoReadStatus, .-CySysClkEcoReadStatus
 298              		.section	.text.CySysLvdDisable,"ax",%progbits
 299              		.align	2
 300              		.global	CySysLvdDisable
 301              		.code	16
 302              		.thumb_func
 303              		.type	CySysLvdDisable, %function
 304              	CySysLvdDisable:
 305              	.LFB12:
 750:.\Generated_Source\PSoC4/CyLib.c **** 
 751:.\Generated_Source\PSoC4/CyLib.c **** 
 752:.\Generated_Source\PSoC4/CyLib.c ****     /*******************************************************************************
 753:.\Generated_Source\PSoC4/CyLib.c ****     * Function Name: CySysClkWriteEcoDiv
 754:.\Generated_Source\PSoC4/CyLib.c ****     ********************************************************************************
 755:.\Generated_Source\PSoC4/CyLib.c ****     *
 756:.\Generated_Source\PSoC4/CyLib.c ****     * Summary:
 757:.\Generated_Source\PSoC4/CyLib.c ****     *  Selects value for the ECO divider.
 758:.\Generated_Source\PSoC4/CyLib.c ****     *
 759:.\Generated_Source\PSoC4/CyLib.c ****     *  The ECO must not be the HFCLK clock source when this function is called.
 760:.\Generated_Source\PSoC4/CyLib.c ****     *  The HFCLK source can be changed to the other clock source by call to the
 761:.\Generated_Source\PSoC4/CyLib.c ****     *  CySysClkWriteHfclkDirect() function. If the ECO sources the HFCLK this
 762:.\Generated_Source\PSoC4/CyLib.c ****     *  function will not have any effect if compiler in release mode, and halt the
 763:.\Generated_Source\PSoC4/CyLib.c ****     *  CPU when compiler in debug mode.
 764:.\Generated_Source\PSoC4/CyLib.c ****     *
 765:.\Generated_Source\PSoC4/CyLib.c ****     * Parameters:
 766:.\Generated_Source\PSoC4/CyLib.c ****     *  divider: Power of 2 divider selection.
 767:.\Generated_Source\PSoC4/CyLib.c ****     *
 768:.\Generated_Source\PSoC4/CyLib.c ****     *   Define                        Description
 769:.\Generated_Source\PSoC4/CyLib.c ****     *   CY_SYS_CLK_ECO_DIV1             HFCLK = ECO / 1
 770:.\Generated_Source\PSoC4/CyLib.c ****     *   CY_SYS_CLK_ECO_DIV2             HFCLK = ECO / 2
 771:.\Generated_Source\PSoC4/CyLib.c ****     *   CY_SYS_CLK_ECO_DIV4             HFCLK = ECO / 4
 772:.\Generated_Source\PSoC4/CyLib.c ****     *   CY_SYS_CLK_ECO_DIV8             HFCLK = ECO / 8
 773:.\Generated_Source\PSoC4/CyLib.c ****     *
 774:.\Generated_Source\PSoC4/CyLib.c ****     * Return:
 775:.\Generated_Source\PSoC4/CyLib.c ****     *  None
ARM GAS  C:\Users\Alan\AppData\Local\Temp\cc47LVCU.s 			page 20


 776:.\Generated_Source\PSoC4/CyLib.c ****     *
 777:.\Generated_Source\PSoC4/CyLib.c ****     * Side Effects:
 778:.\Generated_Source\PSoC4/CyLib.c ****     *  If the SYSCLK clock frequency increases during the device operation, call
 779:.\Generated_Source\PSoC4/CyLib.c ****     *  CySysFlashSetWaitCycles() with the appropriate parameter to adjust the number
 780:.\Generated_Source\PSoC4/CyLib.c ****     *  of clock cycles the cache will wait before sampling data comes back from
 781:.\Generated_Source\PSoC4/CyLib.c ****     *  Flash. If the SYSCLK clock frequency decreases, you can call
 782:.\Generated_Source\PSoC4/CyLib.c ****     *  CySysFlashSetWaitCycles() to improve the CPU performance. See
 783:.\Generated_Source\PSoC4/CyLib.c ****     *  CySysFlashSetWaitCycles() description for more information.
 784:.\Generated_Source\PSoC4/CyLib.c ****     *
 785:.\Generated_Source\PSoC4/CyLib.c ****     *******************************************************************************/
 786:.\Generated_Source\PSoC4/CyLib.c ****     void CySysClkWriteEcoDiv(uint32 divider)
 787:.\Generated_Source\PSoC4/CyLib.c ****     {
 788:.\Generated_Source\PSoC4/CyLib.c ****         uint8  interruptState;
 789:.\Generated_Source\PSoC4/CyLib.c **** 
 790:.\Generated_Source\PSoC4/CyLib.c ****         if (CY_SYS_CLK_HFCLK_ECO != (CY_SYS_CLK_SELECT_REG & CY_SYS_CLK_SELECT_DIRECT_SEL_MASK))
 791:.\Generated_Source\PSoC4/CyLib.c ****         {
 792:.\Generated_Source\PSoC4/CyLib.c ****             interruptState = CyEnterCriticalSection();
 793:.\Generated_Source\PSoC4/CyLib.c **** 
 794:.\Generated_Source\PSoC4/CyLib.c ****             CY_SYS_CLK_XTAL_CLK_DIV_CONFIG_REG =  (divider & CY_SYS_CLK_XTAL_CLK_DIV_MASK) |
 795:.\Generated_Source\PSoC4/CyLib.c ****                                                   (CY_SYS_CLK_XTAL_CLK_DIV_CONFIG_REG & ((uint32) ~
 796:.\Generated_Source\PSoC4/CyLib.c **** 
 797:.\Generated_Source\PSoC4/CyLib.c ****             CyExitCriticalSection(interruptState);
 798:.\Generated_Source\PSoC4/CyLib.c ****         }
 799:.\Generated_Source\PSoC4/CyLib.c ****         else
 800:.\Generated_Source\PSoC4/CyLib.c ****         {
 801:.\Generated_Source\PSoC4/CyLib.c ****             /* Halt CPU in debug mode if ECO sources HFCLK */
 802:.\Generated_Source\PSoC4/CyLib.c ****             CYASSERT(0u != 0u);
 803:.\Generated_Source\PSoC4/CyLib.c ****         }
 804:.\Generated_Source\PSoC4/CyLib.c ****     }
 805:.\Generated_Source\PSoC4/CyLib.c **** #endif /* (CY_PSOC4_4100BL || CY_PSOC4_4200BL) */
 806:.\Generated_Source\PSoC4/CyLib.c **** 
 807:.\Generated_Source\PSoC4/CyLib.c **** 
 808:.\Generated_Source\PSoC4/CyLib.c **** 
 809:.\Generated_Source\PSoC4/CyLib.c **** 
 810:.\Generated_Source\PSoC4/CyLib.c **** 
 811:.\Generated_Source\PSoC4/CyLib.c **** 
 812:.\Generated_Source\PSoC4/CyLib.c **** #if(CY_IP_SRSSV2)
 813:.\Generated_Source\PSoC4/CyLib.c **** 
 814:.\Generated_Source\PSoC4/CyLib.c ****     /*******************************************************************************
 815:.\Generated_Source\PSoC4/CyLib.c ****     * Function Name: CySysLvdEnable
 816:.\Generated_Source\PSoC4/CyLib.c ****     ********************************************************************************
 817:.\Generated_Source\PSoC4/CyLib.c ****     *
 818:.\Generated_Source\PSoC4/CyLib.c ****     * Summary:
 819:.\Generated_Source\PSoC4/CyLib.c ****     *  Enables the output of the low-voltage monitor when Vddd is at or below the
 820:.\Generated_Source\PSoC4/CyLib.c ****     *  trip point, configures the device to generate an interrupt, and sets the
 821:.\Generated_Source\PSoC4/CyLib.c ****     *  voltage trip level.
 822:.\Generated_Source\PSoC4/CyLib.c ****     *
 823:.\Generated_Source\PSoC4/CyLib.c ****     * Parameters:
 824:.\Generated_Source\PSoC4/CyLib.c ****     *  threshold: Threshold selection for Low Voltage Detect circuit.
 825:.\Generated_Source\PSoC4/CyLib.c ****     *  Threshold variation is +/- 2.5% from these typical voltage choices.
 826:.\Generated_Source\PSoC4/CyLib.c ****     *         Define                     Voltage threshold
 827:.\Generated_Source\PSoC4/CyLib.c ****     *    CY_LVD_THRESHOLD_1_75_V       1.7500 V
 828:.\Generated_Source\PSoC4/CyLib.c ****     *    CY_LVD_THRESHOLD_1_80_V       1.8000 V
 829:.\Generated_Source\PSoC4/CyLib.c ****     *    CY_LVD_THRESHOLD_1_90_V       1.9000 V
 830:.\Generated_Source\PSoC4/CyLib.c ****     *    CY_LVD_THRESHOLD_2_00_V       2.0000 V
 831:.\Generated_Source\PSoC4/CyLib.c ****     *    CY_LVD_THRESHOLD_2_10_V       2.1000 V
 832:.\Generated_Source\PSoC4/CyLib.c ****     *    CY_LVD_THRESHOLD_2_20_V       2.2000 V
ARM GAS  C:\Users\Alan\AppData\Local\Temp\cc47LVCU.s 			page 21


 833:.\Generated_Source\PSoC4/CyLib.c ****     *    CY_LVD_THRESHOLD_2_30_V       2.3000 V
 834:.\Generated_Source\PSoC4/CyLib.c ****     *    CY_LVD_THRESHOLD_2_40_V       2.4000 V
 835:.\Generated_Source\PSoC4/CyLib.c ****     *    CY_LVD_THRESHOLD_2_50_V       2.5000 V
 836:.\Generated_Source\PSoC4/CyLib.c ****     *    CY_LVD_THRESHOLD_2_60_V       2.6000 V
 837:.\Generated_Source\PSoC4/CyLib.c ****     *    CY_LVD_THRESHOLD_2_70_V       2.7000 V
 838:.\Generated_Source\PSoC4/CyLib.c ****     *    CY_LVD_THRESHOLD_2_80_V       2.8000 V
 839:.\Generated_Source\PSoC4/CyLib.c ****     *    CY_LVD_THRESHOLD_2_90_V       2.9000 V
 840:.\Generated_Source\PSoC4/CyLib.c ****     *    CY_LVD_THRESHOLD_3_00_V       3.0000 V
 841:.\Generated_Source\PSoC4/CyLib.c ****     *    CY_LVD_THRESHOLD_3_20_V       3.2000 V
 842:.\Generated_Source\PSoC4/CyLib.c ****     *    CY_LVD_THRESHOLD_4_50_V       4.5000 V
 843:.\Generated_Source\PSoC4/CyLib.c ****     *
 844:.\Generated_Source\PSoC4/CyLib.c ****     * Return:
 845:.\Generated_Source\PSoC4/CyLib.c ****     *  None
 846:.\Generated_Source\PSoC4/CyLib.c ****     *
 847:.\Generated_Source\PSoC4/CyLib.c ****     *******************************************************************************/
 848:.\Generated_Source\PSoC4/CyLib.c ****     void CySysLvdEnable(uint32 threshold)
 849:.\Generated_Source\PSoC4/CyLib.c ****     {
 850:.\Generated_Source\PSoC4/CyLib.c ****         /* Prevent propagating a false interrupt */
 851:.\Generated_Source\PSoC4/CyLib.c ****         CY_LVD_PWR_INTR_MASK_REG   &= (uint32) ~CY_LVD_PROPAGATE_INT_TO_CPU;
 852:.\Generated_Source\PSoC4/CyLib.c **** 
 853:.\Generated_Source\PSoC4/CyLib.c ****         /* Set specified threshold */
 854:.\Generated_Source\PSoC4/CyLib.c ****         CY_LVD_PWR_VMON_CONFIG_REG = (CY_LVD_PWR_VMON_CONFIG_REG & ~CY_LVD_PWR_VMON_CONFIG_LVD_SEL_
 855:.\Generated_Source\PSoC4/CyLib.c ****                 ((threshold << CY_LVD_PWR_VMON_CONFIG_LVD_SEL_SHIFT) & CY_LVD_PWR_VMON_CONFIG_LVD_S
 856:.\Generated_Source\PSoC4/CyLib.c **** 
 857:.\Generated_Source\PSoC4/CyLib.c ****         /* Enable the LVD. This may cause a false LVD event. */
 858:.\Generated_Source\PSoC4/CyLib.c ****         CY_LVD_PWR_VMON_CONFIG_REG |= CY_LVD_PWR_VMON_CONFIG_LVD_EN;
 859:.\Generated_Source\PSoC4/CyLib.c **** 
 860:.\Generated_Source\PSoC4/CyLib.c ****         /* Wait for the circuit to stabilize */
 861:.\Generated_Source\PSoC4/CyLib.c ****         CyDelayUs(CY_LVD_STABILIZE_TIMEOUT_US);
 862:.\Generated_Source\PSoC4/CyLib.c **** 
 863:.\Generated_Source\PSoC4/CyLib.c ****         /* Clear the false event */
 864:.\Generated_Source\PSoC4/CyLib.c ****         CySysLvdClearInterrupt();
 865:.\Generated_Source\PSoC4/CyLib.c **** 
 866:.\Generated_Source\PSoC4/CyLib.c ****         /* Unmask the interrupt */
 867:.\Generated_Source\PSoC4/CyLib.c ****         CY_LVD_PWR_INTR_MASK_REG   |= CY_LVD_PROPAGATE_INT_TO_CPU;
 868:.\Generated_Source\PSoC4/CyLib.c ****     }
 869:.\Generated_Source\PSoC4/CyLib.c **** 
 870:.\Generated_Source\PSoC4/CyLib.c **** 
 871:.\Generated_Source\PSoC4/CyLib.c ****     /*******************************************************************************
 872:.\Generated_Source\PSoC4/CyLib.c ****     * Function Name: CySysLvdDisable
 873:.\Generated_Source\PSoC4/CyLib.c ****     ********************************************************************************
 874:.\Generated_Source\PSoC4/CyLib.c ****     *
 875:.\Generated_Source\PSoC4/CyLib.c ****     * Summary:
 876:.\Generated_Source\PSoC4/CyLib.c ****     *  Disables the low voltage detection. A low voltage interrupt is disabled.
 877:.\Generated_Source\PSoC4/CyLib.c ****     *
 878:.\Generated_Source\PSoC4/CyLib.c ****     * Parameters:
 879:.\Generated_Source\PSoC4/CyLib.c ****     *  None
 880:.\Generated_Source\PSoC4/CyLib.c ****     *
 881:.\Generated_Source\PSoC4/CyLib.c ****     * Return:
 882:.\Generated_Source\PSoC4/CyLib.c ****     *  None
 883:.\Generated_Source\PSoC4/CyLib.c ****     *
 884:.\Generated_Source\PSoC4/CyLib.c ****     *******************************************************************************/
 885:.\Generated_Source\PSoC4/CyLib.c ****     void CySysLvdDisable(void)
 886:.\Generated_Source\PSoC4/CyLib.c ****     {
 306              		.loc 1 886 0
 307              		.cfi_startproc
 887:.\Generated_Source\PSoC4/CyLib.c ****         CY_LVD_PWR_INTR_MASK_REG   &= ~CY_LVD_PROPAGATE_INT_TO_CPU;
ARM GAS  C:\Users\Alan\AppData\Local\Temp\cc47LVCU.s 			page 22


 308              		.loc 1 887 0
 309 0000 054A     		ldr	r2, .L23
 310 0002 1368     		ldr	r3, [r2]
 311 0004 0221     		mov	r1, #2
 312 0006 8B43     		bic	r3, r1
 313 0008 1360     		str	r3, [r2]
 888:.\Generated_Source\PSoC4/CyLib.c ****         CY_LVD_PWR_VMON_CONFIG_REG &= ~CY_LVD_PWR_VMON_CONFIG_LVD_EN;
 314              		.loc 1 888 0
 315 000a 044A     		ldr	r2, .L23+4
 316 000c 1368     		ldr	r3, [r2]
 317 000e 0139     		sub	r1, r1, #1
 318 0010 8B43     		bic	r3, r1
 319 0012 1360     		str	r3, [r2]
 889:.\Generated_Source\PSoC4/CyLib.c ****     }
 320              		.loc 1 889 0
 321              		@ sp needed
 322 0014 7047     		bx	lr
 323              	.L24:
 324 0016 C046     		.align	2
 325              	.L23:
 326 0018 08000B40 		.word	1074462728
 327 001c 18000B40 		.word	1074462744
 328              		.cfi_endproc
 329              	.LFE12:
 330              		.size	CySysLvdDisable, .-CySysLvdDisable
 331              		.section	.text.CySysLvdGetInterruptSource,"ax",%progbits
 332              		.align	2
 333              		.global	CySysLvdGetInterruptSource
 334              		.code	16
 335              		.thumb_func
 336              		.type	CySysLvdGetInterruptSource, %function
 337              	CySysLvdGetInterruptSource:
 338              	.LFB13:
 890:.\Generated_Source\PSoC4/CyLib.c **** 
 891:.\Generated_Source\PSoC4/CyLib.c **** 
 892:.\Generated_Source\PSoC4/CyLib.c ****     /*******************************************************************************
 893:.\Generated_Source\PSoC4/CyLib.c ****     * Function Name: CySysLvdGetInterruptSource
 894:.\Generated_Source\PSoC4/CyLib.c ****     ********************************************************************************
 895:.\Generated_Source\PSoC4/CyLib.c ****     *
 896:.\Generated_Source\PSoC4/CyLib.c ****     * Summary:
 897:.\Generated_Source\PSoC4/CyLib.c ****     *  Gets the low voltage detection interrupt status (without clearing).
 898:.\Generated_Source\PSoC4/CyLib.c ****     *
 899:.\Generated_Source\PSoC4/CyLib.c ****     * Parameters:
 900:.\Generated_Source\PSoC4/CyLib.c ****     *  None
 901:.\Generated_Source\PSoC4/CyLib.c ****     *
 902:.\Generated_Source\PSoC4/CyLib.c ****     * Return:
 903:.\Generated_Source\PSoC4/CyLib.c ****     *  Interrupt request value:
 904:.\Generated_Source\PSoC4/CyLib.c ****     *    CY_SYS_LVD_INT - Indicates an Low Voltage Detect interrupt
 905:.\Generated_Source\PSoC4/CyLib.c ****     *
 906:.\Generated_Source\PSoC4/CyLib.c ****     *******************************************************************************/
 907:.\Generated_Source\PSoC4/CyLib.c ****     uint32 CySysLvdGetInterruptSource(void)
 908:.\Generated_Source\PSoC4/CyLib.c ****     {
 339              		.loc 1 908 0
 340              		.cfi_startproc
 909:.\Generated_Source\PSoC4/CyLib.c ****         return (CY_LVD_PWR_INTR_REG & CY_SYS_LVD_INT);
 341              		.loc 1 909 0
 342 0000 024B     		ldr	r3, .L26
ARM GAS  C:\Users\Alan\AppData\Local\Temp\cc47LVCU.s 			page 23


 343 0002 1B68     		ldr	r3, [r3]
 344 0004 0220     		mov	r0, #2
 345 0006 1840     		and	r0, r3
 910:.\Generated_Source\PSoC4/CyLib.c ****     }
 346              		.loc 1 910 0
 347              		@ sp needed
 348 0008 7047     		bx	lr
 349              	.L27:
 350 000a C046     		.align	2
 351              	.L26:
 352 000c 04000B40 		.word	1074462724
 353              		.cfi_endproc
 354              	.LFE13:
 355              		.size	CySysLvdGetInterruptSource, .-CySysLvdGetInterruptSource
 356              		.section	.text.CySysLvdClearInterrupt,"ax",%progbits
 357              		.align	2
 358              		.global	CySysLvdClearInterrupt
 359              		.code	16
 360              		.thumb_func
 361              		.type	CySysLvdClearInterrupt, %function
 362              	CySysLvdClearInterrupt:
 363              	.LFB14:
 911:.\Generated_Source\PSoC4/CyLib.c **** 
 912:.\Generated_Source\PSoC4/CyLib.c **** 
 913:.\Generated_Source\PSoC4/CyLib.c ****     /*******************************************************************************
 914:.\Generated_Source\PSoC4/CyLib.c ****     * Function Name: CySysLvdClearInterrupt
 915:.\Generated_Source\PSoC4/CyLib.c ****     ********************************************************************************
 916:.\Generated_Source\PSoC4/CyLib.c ****     *
 917:.\Generated_Source\PSoC4/CyLib.c ****     * Summary:
 918:.\Generated_Source\PSoC4/CyLib.c ****     *  Clears the low voltage detection interrupt status.
 919:.\Generated_Source\PSoC4/CyLib.c ****     *
 920:.\Generated_Source\PSoC4/CyLib.c ****     * Parameters:
 921:.\Generated_Source\PSoC4/CyLib.c ****     *  None
 922:.\Generated_Source\PSoC4/CyLib.c ****     *
 923:.\Generated_Source\PSoC4/CyLib.c ****     * Return:
 924:.\Generated_Source\PSoC4/CyLib.c ****     *  None
 925:.\Generated_Source\PSoC4/CyLib.c ****     *
 926:.\Generated_Source\PSoC4/CyLib.c ****     *******************************************************************************/
 927:.\Generated_Source\PSoC4/CyLib.c ****     void CySysLvdClearInterrupt(void)
 928:.\Generated_Source\PSoC4/CyLib.c ****     {
 364              		.loc 1 928 0
 365              		.cfi_startproc
 929:.\Generated_Source\PSoC4/CyLib.c ****         CY_LVD_PWR_INTR_REG = CY_SYS_LVD_INT;
 366              		.loc 1 929 0
 367 0000 0222     		mov	r2, #2
 368 0002 014B     		ldr	r3, .L29
 369 0004 1A60     		str	r2, [r3]
 930:.\Generated_Source\PSoC4/CyLib.c ****     }
 370              		.loc 1 930 0
 371              		@ sp needed
 372 0006 7047     		bx	lr
 373              	.L30:
 374              		.align	2
 375              	.L29:
 376 0008 04000B40 		.word	1074462724
 377              		.cfi_endproc
 378              	.LFE14:
ARM GAS  C:\Users\Alan\AppData\Local\Temp\cc47LVCU.s 			page 24


 379              		.size	CySysLvdClearInterrupt, .-CySysLvdClearInterrupt
 380              		.section	.text.CySysGetResetReason,"ax",%progbits
 381              		.align	2
 382              		.global	CySysGetResetReason
 383              		.code	16
 384              		.thumb_func
 385              		.type	CySysGetResetReason, %function
 386              	CySysGetResetReason:
 387              	.LFB15:
 931:.\Generated_Source\PSoC4/CyLib.c **** 
 932:.\Generated_Source\PSoC4/CyLib.c **** #endif /* (CY_IP_SRSSV2) */
 933:.\Generated_Source\PSoC4/CyLib.c **** 
 934:.\Generated_Source\PSoC4/CyLib.c **** 
 935:.\Generated_Source\PSoC4/CyLib.c **** /*******************************************************************************
 936:.\Generated_Source\PSoC4/CyLib.c **** * Function Name: CySysGetResetReason
 937:.\Generated_Source\PSoC4/CyLib.c **** ********************************************************************************
 938:.\Generated_Source\PSoC4/CyLib.c **** *
 939:.\Generated_Source\PSoC4/CyLib.c **** * Summary:
 940:.\Generated_Source\PSoC4/CyLib.c **** *  Reports the cause for the latest reset(s) that occurred in the system. All
 941:.\Generated_Source\PSoC4/CyLib.c **** *  the bits in the RES_CAUSE register assert when the corresponding reset cause
 942:.\Generated_Source\PSoC4/CyLib.c **** *  occurs and must be cleared by the firmware. These bits are cleared by the
 943:.\Generated_Source\PSoC4/CyLib.c **** *  hardware only during XRES, POR, or a detected brown-out.
 944:.\Generated_Source\PSoC4/CyLib.c **** *
 945:.\Generated_Source\PSoC4/CyLib.c **** * Parameters:
 946:.\Generated_Source\PSoC4/CyLib.c **** *  reason: bits in the RES_CAUSE register to clear.
 947:.\Generated_Source\PSoC4/CyLib.c **** *   CY_SYS_RESET_WDT       - WDT caused a reset
 948:.\Generated_Source\PSoC4/CyLib.c **** *   CY_SYS_RESET_PROTFAULT - Occured protection violation that requires reset
 949:.\Generated_Source\PSoC4/CyLib.c **** *   CY_SYS_RESET_SW        - Cortex-M0 requested a system reset.
 950:.\Generated_Source\PSoC4/CyLib.c **** *
 951:.\Generated_Source\PSoC4/CyLib.c **** * Return:
 952:.\Generated_Source\PSoC4/CyLib.c **** *  Status. Same enumerated bit values as used for the reason parameter.
 953:.\Generated_Source\PSoC4/CyLib.c **** *
 954:.\Generated_Source\PSoC4/CyLib.c **** *******************************************************************************/
 955:.\Generated_Source\PSoC4/CyLib.c **** uint32 CySysGetResetReason(uint32 reason)
 956:.\Generated_Source\PSoC4/CyLib.c **** {
 388              		.loc 1 956 0
 389              		.cfi_startproc
 390              	.LVL13:
 391 0000 021C     		mov	r2, r0
 957:.\Generated_Source\PSoC4/CyLib.c ****     uint32 status;
 958:.\Generated_Source\PSoC4/CyLib.c **** 
 959:.\Generated_Source\PSoC4/CyLib.c ****     reason &= (CY_SYS_RESET_WDT | CY_SYS_RESET_PROTFAULT | CY_SYS_RESET_SW);
 392              		.loc 1 959 0
 393 0002 1920     		mov	r0, #25
 394              	.LVL14:
 395 0004 0240     		and	r2, r0
 396              	.LVL15:
 960:.\Generated_Source\PSoC4/CyLib.c ****     status = CY_SYS_RES_CAUSE_REG &
 397              		.loc 1 960 0
 398 0006 0249     		ldr	r1, .L32
 399 0008 0B68     		ldr	r3, [r1]
 400 000a 1840     		and	r0, r3
 401              	.LVL16:
 961:.\Generated_Source\PSoC4/CyLib.c ****              (CY_SYS_RESET_WDT | CY_SYS_RESET_PROTFAULT | CY_SYS_RESET_SW);
 962:.\Generated_Source\PSoC4/CyLib.c ****     CY_SYS_RES_CAUSE_REG = reason;
 402              		.loc 1 962 0
 403 000c 0A60     		str	r2, [r1]
ARM GAS  C:\Users\Alan\AppData\Local\Temp\cc47LVCU.s 			page 25


 963:.\Generated_Source\PSoC4/CyLib.c **** 
 964:.\Generated_Source\PSoC4/CyLib.c ****     return (status);
 965:.\Generated_Source\PSoC4/CyLib.c **** }
 404              		.loc 1 965 0
 405              		@ sp needed
 406 000e 7047     		bx	lr
 407              	.L33:
 408              		.align	2
 409              	.L32:
 410 0010 00030B40 		.word	1074463488
 411              		.cfi_endproc
 412              	.LFE15:
 413              		.size	CySysGetResetReason, .-CySysGetResetReason
 414              		.section	.text.CyDisableInts,"ax",%progbits
 415              		.align	2
 416              		.global	CyDisableInts
 417              		.code	16
 418              		.thumb_func
 419              		.type	CyDisableInts, %function
 420              	CyDisableInts:
 421              	.LFB16:
 966:.\Generated_Source\PSoC4/CyLib.c **** 
 967:.\Generated_Source\PSoC4/CyLib.c **** 
 968:.\Generated_Source\PSoC4/CyLib.c **** /*******************************************************************************
 969:.\Generated_Source\PSoC4/CyLib.c **** * Function Name: CyDisableInts
 970:.\Generated_Source\PSoC4/CyLib.c **** ********************************************************************************
 971:.\Generated_Source\PSoC4/CyLib.c **** *
 972:.\Generated_Source\PSoC4/CyLib.c **** * Summary:
 973:.\Generated_Source\PSoC4/CyLib.c **** *  Disables all interrupts.
 974:.\Generated_Source\PSoC4/CyLib.c **** *
 975:.\Generated_Source\PSoC4/CyLib.c **** * Parameters:
 976:.\Generated_Source\PSoC4/CyLib.c **** *  None
 977:.\Generated_Source\PSoC4/CyLib.c **** *
 978:.\Generated_Source\PSoC4/CyLib.c **** * Return:
 979:.\Generated_Source\PSoC4/CyLib.c **** *  32 bit mask of previously enabled interrupts.
 980:.\Generated_Source\PSoC4/CyLib.c **** *
 981:.\Generated_Source\PSoC4/CyLib.c **** *******************************************************************************/
 982:.\Generated_Source\PSoC4/CyLib.c **** uint32 CyDisableInts(void)
 983:.\Generated_Source\PSoC4/CyLib.c **** {
 422              		.loc 1 983 0
 423              		.cfi_startproc
 984:.\Generated_Source\PSoC4/CyLib.c ****     uint32 intState;
 985:.\Generated_Source\PSoC4/CyLib.c **** 
 986:.\Generated_Source\PSoC4/CyLib.c ****     /* Get current interrupt state. */
 987:.\Generated_Source\PSoC4/CyLib.c ****     intState = CY_INT_CLEAR_REG;
 424              		.loc 1 987 0
 425 0000 024B     		ldr	r3, .L35
 426 0002 1868     		ldr	r0, [r3]
 427              	.LVL17:
 988:.\Generated_Source\PSoC4/CyLib.c **** 
 989:.\Generated_Source\PSoC4/CyLib.c ****     /* Disable all interrupts. */
 990:.\Generated_Source\PSoC4/CyLib.c ****     CY_INT_CLEAR_REG = CY_INT_CLEAR_DISABLE_ALL;
 428              		.loc 1 990 0
 429 0004 0122     		mov	r2, #1
 430 0006 5242     		neg	r2, r2
 431 0008 1A60     		str	r2, [r3]
 991:.\Generated_Source\PSoC4/CyLib.c **** 
ARM GAS  C:\Users\Alan\AppData\Local\Temp\cc47LVCU.s 			page 26


 992:.\Generated_Source\PSoC4/CyLib.c ****     return (intState);
 993:.\Generated_Source\PSoC4/CyLib.c **** }
 432              		.loc 1 993 0
 433              		@ sp needed
 434 000a 7047     		bx	lr
 435              	.L36:
 436              		.align	2
 437              	.L35:
 438 000c 80E100E0 		.word	-536813184
 439              		.cfi_endproc
 440              	.LFE16:
 441              		.size	CyDisableInts, .-CyDisableInts
 442              		.section	.text.CyEnableInts,"ax",%progbits
 443              		.align	2
 444              		.global	CyEnableInts
 445              		.code	16
 446              		.thumb_func
 447              		.type	CyEnableInts, %function
 448              	CyEnableInts:
 449              	.LFB17:
 994:.\Generated_Source\PSoC4/CyLib.c **** 
 995:.\Generated_Source\PSoC4/CyLib.c **** 
 996:.\Generated_Source\PSoC4/CyLib.c **** /*******************************************************************************
 997:.\Generated_Source\PSoC4/CyLib.c **** * Function Name: CyEnableInts
 998:.\Generated_Source\PSoC4/CyLib.c **** ********************************************************************************
 999:.\Generated_Source\PSoC4/CyLib.c **** *
1000:.\Generated_Source\PSoC4/CyLib.c **** * Summary:
1001:.\Generated_Source\PSoC4/CyLib.c **** *  Enables interrupts to a given state.
1002:.\Generated_Source\PSoC4/CyLib.c **** *
1003:.\Generated_Source\PSoC4/CyLib.c **** * Parameters:
1004:.\Generated_Source\PSoC4/CyLib.c **** *   mask, 32 bit mask of interrupts to enable.
1005:.\Generated_Source\PSoC4/CyLib.c **** *
1006:.\Generated_Source\PSoC4/CyLib.c **** * Return:
1007:.\Generated_Source\PSoC4/CyLib.c **** *  None
1008:.\Generated_Source\PSoC4/CyLib.c **** *
1009:.\Generated_Source\PSoC4/CyLib.c **** *******************************************************************************/
1010:.\Generated_Source\PSoC4/CyLib.c **** void CyEnableInts(uint32 mask)
1011:.\Generated_Source\PSoC4/CyLib.c **** {
 450              		.loc 1 1011 0
 451              		.cfi_startproc
 452              	.LVL18:
1012:.\Generated_Source\PSoC4/CyLib.c ****     CY_INT_ENABLE_REG = mask;
 453              		.loc 1 1012 0
 454 0000 014B     		ldr	r3, .L38
 455 0002 1860     		str	r0, [r3]
1013:.\Generated_Source\PSoC4/CyLib.c **** }
 456              		.loc 1 1013 0
 457              		@ sp needed
 458 0004 7047     		bx	lr
 459              	.L39:
 460 0006 C046     		.align	2
 461              	.L38:
 462 0008 00E100E0 		.word	-536813312
 463              		.cfi_endproc
 464              	.LFE17:
 465              		.size	CyEnableInts, .-CyEnableInts
 466              		.section	.text.CyIntEnable,"ax",%progbits
ARM GAS  C:\Users\Alan\AppData\Local\Temp\cc47LVCU.s 			page 27


 467              		.align	2
 468              		.global	CyIntEnable
 469              		.code	16
 470              		.thumb_func
 471              		.type	CyIntEnable, %function
 472              	CyIntEnable:
 473              	.LFB24:
1014:.\Generated_Source\PSoC4/CyLib.c **** 
1015:.\Generated_Source\PSoC4/CyLib.c **** 
1016:.\Generated_Source\PSoC4/CyLib.c **** /*******************************************************************************
1017:.\Generated_Source\PSoC4/CyLib.c **** * Function Name: CyIntSetSysVector
1018:.\Generated_Source\PSoC4/CyLib.c **** ********************************************************************************
1019:.\Generated_Source\PSoC4/CyLib.c **** *
1020:.\Generated_Source\PSoC4/CyLib.c **** * Summary:
1021:.\Generated_Source\PSoC4/CyLib.c **** *  Sets the interrupt vector of the specified system interrupt number. These
1022:.\Generated_Source\PSoC4/CyLib.c **** *  interrupts are for SysTick, PendSV and others.
1023:.\Generated_Source\PSoC4/CyLib.c **** *
1024:.\Generated_Source\PSoC4/CyLib.c **** * Parameters:
1025:.\Generated_Source\PSoC4/CyLib.c **** *  number: System interrupt number:
1026:.\Generated_Source\PSoC4/CyLib.c **** *    CY_INT_NMI_IRQN        - Non Maskable Interrupt
1027:.\Generated_Source\PSoC4/CyLib.c **** *    CY_INT_HARD_FAULT_IRQN - Hard Fault Interrupt
1028:.\Generated_Source\PSoC4/CyLib.c **** *    CY_INT_SVCALL_IRQN     - SV Call Interrupt
1029:.\Generated_Source\PSoC4/CyLib.c **** *    CY_INT_PEND_SV_IRQN    - Pend SV Interrupt
1030:.\Generated_Source\PSoC4/CyLib.c **** *    CY_INT_SYSTICK_IRQN    - System Tick Interrupt
1031:.\Generated_Source\PSoC4/CyLib.c **** *
1032:.\Generated_Source\PSoC4/CyLib.c **** *  address: Pointer to an interrupt service routine.
1033:.\Generated_Source\PSoC4/CyLib.c **** *
1034:.\Generated_Source\PSoC4/CyLib.c **** * Return:
1035:.\Generated_Source\PSoC4/CyLib.c **** *  The old ISR vector at this location.
1036:.\Generated_Source\PSoC4/CyLib.c **** *
1037:.\Generated_Source\PSoC4/CyLib.c **** *******************************************************************************/
1038:.\Generated_Source\PSoC4/CyLib.c **** cyisraddress CyIntSetSysVector(uint8 number, cyisraddress address)
1039:.\Generated_Source\PSoC4/CyLib.c **** {
1040:.\Generated_Source\PSoC4/CyLib.c ****     cyisraddress oldIsr;
1041:.\Generated_Source\PSoC4/CyLib.c ****     cyisraddress *ramVectorTable = (cyisraddress *) CY_INT_VECT_TABLE;
1042:.\Generated_Source\PSoC4/CyLib.c **** 
1043:.\Generated_Source\PSoC4/CyLib.c ****     CYASSERT(number < CY_INT_IRQ_BASE);
1044:.\Generated_Source\PSoC4/CyLib.c **** 
1045:.\Generated_Source\PSoC4/CyLib.c ****     /* Save old Interrupt service routine. */
1046:.\Generated_Source\PSoC4/CyLib.c ****     oldIsr = ramVectorTable[number];
1047:.\Generated_Source\PSoC4/CyLib.c **** 
1048:.\Generated_Source\PSoC4/CyLib.c ****     /* Set new Interrupt service routine. */
1049:.\Generated_Source\PSoC4/CyLib.c ****     ramVectorTable[number] = address;
1050:.\Generated_Source\PSoC4/CyLib.c **** 
1051:.\Generated_Source\PSoC4/CyLib.c ****     return(oldIsr);
1052:.\Generated_Source\PSoC4/CyLib.c **** }
1053:.\Generated_Source\PSoC4/CyLib.c **** 
1054:.\Generated_Source\PSoC4/CyLib.c **** 
1055:.\Generated_Source\PSoC4/CyLib.c **** /*******************************************************************************
1056:.\Generated_Source\PSoC4/CyLib.c **** * Function Name: CyIntGetSysVector
1057:.\Generated_Source\PSoC4/CyLib.c **** ********************************************************************************
1058:.\Generated_Source\PSoC4/CyLib.c **** *
1059:.\Generated_Source\PSoC4/CyLib.c **** * Summary:
1060:.\Generated_Source\PSoC4/CyLib.c **** *   Gets the interrupt vector of the specified system interrupt number. These
1061:.\Generated_Source\PSoC4/CyLib.c **** *   interrupts are for SysTick, PendSV and others.
1062:.\Generated_Source\PSoC4/CyLib.c **** *
1063:.\Generated_Source\PSoC4/CyLib.c **** * Parameters:
ARM GAS  C:\Users\Alan\AppData\Local\Temp\cc47LVCU.s 			page 28


1064:.\Generated_Source\PSoC4/CyLib.c **** *  number: System interrupt number:
1065:.\Generated_Source\PSoC4/CyLib.c **** *    CY_INT_NMI_IRQN        - Non Maskable Interrupt
1066:.\Generated_Source\PSoC4/CyLib.c **** *    CY_INT_HARD_FAULT_IRQN - Hard Fault Interrupt
1067:.\Generated_Source\PSoC4/CyLib.c **** *    CY_INT_SVCALL_IRQN     - SV Call Interrupt
1068:.\Generated_Source\PSoC4/CyLib.c **** *    CY_INT_PEND_SV_IRQN    - Pend SV Interrupt
1069:.\Generated_Source\PSoC4/CyLib.c **** *    CY_INT_SYSTICK_IRQN    - System Tick Interrupt
1070:.\Generated_Source\PSoC4/CyLib.c **** *
1071:.\Generated_Source\PSoC4/CyLib.c **** * Return:
1072:.\Generated_Source\PSoC4/CyLib.c **** *   Address of the ISR in the interrupt vector table.
1073:.\Generated_Source\PSoC4/CyLib.c **** *
1074:.\Generated_Source\PSoC4/CyLib.c **** *******************************************************************************/
1075:.\Generated_Source\PSoC4/CyLib.c **** cyisraddress CyIntGetSysVector(uint8 number)
1076:.\Generated_Source\PSoC4/CyLib.c **** {
1077:.\Generated_Source\PSoC4/CyLib.c ****     cyisraddress *ramVectorTable = (cyisraddress *) CY_INT_VECT_TABLE;
1078:.\Generated_Source\PSoC4/CyLib.c **** 
1079:.\Generated_Source\PSoC4/CyLib.c ****     CYASSERT(number < CY_INT_IRQ_BASE);
1080:.\Generated_Source\PSoC4/CyLib.c **** 
1081:.\Generated_Source\PSoC4/CyLib.c ****     return(ramVectorTable[number]);
1082:.\Generated_Source\PSoC4/CyLib.c **** }
1083:.\Generated_Source\PSoC4/CyLib.c **** 
1084:.\Generated_Source\PSoC4/CyLib.c **** 
1085:.\Generated_Source\PSoC4/CyLib.c **** /*******************************************************************************
1086:.\Generated_Source\PSoC4/CyLib.c **** * Function Name: CyIntSetVector
1087:.\Generated_Source\PSoC4/CyLib.c **** ********************************************************************************
1088:.\Generated_Source\PSoC4/CyLib.c **** *
1089:.\Generated_Source\PSoC4/CyLib.c **** * Summary:
1090:.\Generated_Source\PSoC4/CyLib.c **** *  Sets the interrupt vector of the specified interrupt number.
1091:.\Generated_Source\PSoC4/CyLib.c **** *
1092:.\Generated_Source\PSoC4/CyLib.c **** * Parameters:
1093:.\Generated_Source\PSoC4/CyLib.c **** *  number: Valid range [0-31].  Interrupt number
1094:.\Generated_Source\PSoC4/CyLib.c **** *  address: Pointer to an interrupt service routine
1095:.\Generated_Source\PSoC4/CyLib.c **** *
1096:.\Generated_Source\PSoC4/CyLib.c **** * Return:
1097:.\Generated_Source\PSoC4/CyLib.c **** *   Previous interrupt vector value.
1098:.\Generated_Source\PSoC4/CyLib.c **** *
1099:.\Generated_Source\PSoC4/CyLib.c **** *******************************************************************************/
1100:.\Generated_Source\PSoC4/CyLib.c **** cyisraddress CyIntSetVector(uint8 number, cyisraddress address)
1101:.\Generated_Source\PSoC4/CyLib.c **** {
1102:.\Generated_Source\PSoC4/CyLib.c ****     cyisraddress oldIsr;
1103:.\Generated_Source\PSoC4/CyLib.c ****     cyisraddress *ramVectorTable = (cyisraddress *) CY_INT_VECT_TABLE;
1104:.\Generated_Source\PSoC4/CyLib.c **** 
1105:.\Generated_Source\PSoC4/CyLib.c ****     CYASSERT(number < CY_NUM_INTERRUPTS);
1106:.\Generated_Source\PSoC4/CyLib.c **** 
1107:.\Generated_Source\PSoC4/CyLib.c ****     /* Save old Interrupt service routine. */
1108:.\Generated_Source\PSoC4/CyLib.c ****     oldIsr = ramVectorTable[CY_INT_IRQ_BASE + number];
1109:.\Generated_Source\PSoC4/CyLib.c **** 
1110:.\Generated_Source\PSoC4/CyLib.c ****     /* Set new Interrupt service routine. */
1111:.\Generated_Source\PSoC4/CyLib.c ****     ramVectorTable[CY_INT_IRQ_BASE + number] = address;
1112:.\Generated_Source\PSoC4/CyLib.c **** 
1113:.\Generated_Source\PSoC4/CyLib.c ****     return(oldIsr);
1114:.\Generated_Source\PSoC4/CyLib.c **** }
1115:.\Generated_Source\PSoC4/CyLib.c **** 
1116:.\Generated_Source\PSoC4/CyLib.c **** 
1117:.\Generated_Source\PSoC4/CyLib.c **** /*******************************************************************************
1118:.\Generated_Source\PSoC4/CyLib.c **** * Function Name: CyIntGetVector
1119:.\Generated_Source\PSoC4/CyLib.c **** ********************************************************************************
1120:.\Generated_Source\PSoC4/CyLib.c **** *
ARM GAS  C:\Users\Alan\AppData\Local\Temp\cc47LVCU.s 			page 29


1121:.\Generated_Source\PSoC4/CyLib.c **** * Summary:
1122:.\Generated_Source\PSoC4/CyLib.c **** *  Gets the interrupt vector of the specified interrupt number.
1123:.\Generated_Source\PSoC4/CyLib.c **** *
1124:.\Generated_Source\PSoC4/CyLib.c **** * Parameters:
1125:.\Generated_Source\PSoC4/CyLib.c **** *  number: Valid range [0-31].  Interrupt number
1126:.\Generated_Source\PSoC4/CyLib.c **** *
1127:.\Generated_Source\PSoC4/CyLib.c **** * Return:
1128:.\Generated_Source\PSoC4/CyLib.c **** *  Address of the ISR in the interrupt vector table.
1129:.\Generated_Source\PSoC4/CyLib.c **** *
1130:.\Generated_Source\PSoC4/CyLib.c **** *******************************************************************************/
1131:.\Generated_Source\PSoC4/CyLib.c **** cyisraddress CyIntGetVector(uint8 number)
1132:.\Generated_Source\PSoC4/CyLib.c **** {
1133:.\Generated_Source\PSoC4/CyLib.c ****     cyisraddress *ramVectorTable = (cyisraddress *) CY_INT_VECT_TABLE;
1134:.\Generated_Source\PSoC4/CyLib.c **** 
1135:.\Generated_Source\PSoC4/CyLib.c ****     CYASSERT(number < CY_NUM_INTERRUPTS);
1136:.\Generated_Source\PSoC4/CyLib.c **** 
1137:.\Generated_Source\PSoC4/CyLib.c ****     return (ramVectorTable[CY_INT_IRQ_BASE + number]);
1138:.\Generated_Source\PSoC4/CyLib.c **** }
1139:.\Generated_Source\PSoC4/CyLib.c **** 
1140:.\Generated_Source\PSoC4/CyLib.c **** /*******************************************************************************
1141:.\Generated_Source\PSoC4/CyLib.c **** * Function Name: CyIntSetPriority
1142:.\Generated_Source\PSoC4/CyLib.c **** ********************************************************************************
1143:.\Generated_Source\PSoC4/CyLib.c **** *
1144:.\Generated_Source\PSoC4/CyLib.c **** * Summary:
1145:.\Generated_Source\PSoC4/CyLib.c **** *  Sets the priority of the interrupt.
1146:.\Generated_Source\PSoC4/CyLib.c **** *
1147:.\Generated_Source\PSoC4/CyLib.c **** * Parameters:
1148:.\Generated_Source\PSoC4/CyLib.c **** *  priority: Priority of the interrupt. 0 - 3, 0 being the highest.
1149:.\Generated_Source\PSoC4/CyLib.c **** *  number: The number of the interrupt, 0 - 31.
1150:.\Generated_Source\PSoC4/CyLib.c **** *
1151:.\Generated_Source\PSoC4/CyLib.c **** * Return:
1152:.\Generated_Source\PSoC4/CyLib.c **** *  None
1153:.\Generated_Source\PSoC4/CyLib.c **** *
1154:.\Generated_Source\PSoC4/CyLib.c **** *******************************************************************************/
1155:.\Generated_Source\PSoC4/CyLib.c **** void CyIntSetPriority(uint8 number, uint8 priority)
1156:.\Generated_Source\PSoC4/CyLib.c **** {
1157:.\Generated_Source\PSoC4/CyLib.c ****     uint8 interruptState;
1158:.\Generated_Source\PSoC4/CyLib.c ****     uint32 shift;
1159:.\Generated_Source\PSoC4/CyLib.c ****     uint32 value;
1160:.\Generated_Source\PSoC4/CyLib.c **** 
1161:.\Generated_Source\PSoC4/CyLib.c ****     CYASSERT(priority <= CY_MIN_PRIORITY);
1162:.\Generated_Source\PSoC4/CyLib.c ****     CYASSERT(number < CY_NUM_INTERRUPTS);
1163:.\Generated_Source\PSoC4/CyLib.c **** 
1164:.\Generated_Source\PSoC4/CyLib.c ****     shift = CY_INT_PRIORITY_SHIFT(number);
1165:.\Generated_Source\PSoC4/CyLib.c **** 
1166:.\Generated_Source\PSoC4/CyLib.c ****     interruptState = CyEnterCriticalSection();
1167:.\Generated_Source\PSoC4/CyLib.c **** 
1168:.\Generated_Source\PSoC4/CyLib.c ****     value = CY_INT_PRIORITY_REG(number);
1169:.\Generated_Source\PSoC4/CyLib.c ****     value &= (uint32)(~((uint32)(CY_INT_PRIORITY_MASK << shift)));
1170:.\Generated_Source\PSoC4/CyLib.c ****     value |= ((uint32)priority << shift);
1171:.\Generated_Source\PSoC4/CyLib.c ****     CY_INT_PRIORITY_REG(number) = value;
1172:.\Generated_Source\PSoC4/CyLib.c **** 
1173:.\Generated_Source\PSoC4/CyLib.c ****     CyExitCriticalSection(interruptState);
1174:.\Generated_Source\PSoC4/CyLib.c **** }
1175:.\Generated_Source\PSoC4/CyLib.c **** 
1176:.\Generated_Source\PSoC4/CyLib.c **** 
1177:.\Generated_Source\PSoC4/CyLib.c **** /*******************************************************************************
ARM GAS  C:\Users\Alan\AppData\Local\Temp\cc47LVCU.s 			page 30


1178:.\Generated_Source\PSoC4/CyLib.c **** * Function Name: CyIntGetPriority
1179:.\Generated_Source\PSoC4/CyLib.c **** ********************************************************************************
1180:.\Generated_Source\PSoC4/CyLib.c **** *
1181:.\Generated_Source\PSoC4/CyLib.c **** * Summary:
1182:.\Generated_Source\PSoC4/CyLib.c **** *  Gets the priority of the interrupt.
1183:.\Generated_Source\PSoC4/CyLib.c **** *
1184:.\Generated_Source\PSoC4/CyLib.c **** * Parameters:
1185:.\Generated_Source\PSoC4/CyLib.c **** *  number: The number of the interrupt, 0 - 31.
1186:.\Generated_Source\PSoC4/CyLib.c **** *
1187:.\Generated_Source\PSoC4/CyLib.c **** * Return:
1188:.\Generated_Source\PSoC4/CyLib.c **** *  Priority of the interrupt. 0 - 3, 0 being the highest.
1189:.\Generated_Source\PSoC4/CyLib.c **** *
1190:.\Generated_Source\PSoC4/CyLib.c **** *******************************************************************************/
1191:.\Generated_Source\PSoC4/CyLib.c **** uint8 CyIntGetPriority(uint8 number)
1192:.\Generated_Source\PSoC4/CyLib.c **** {
1193:.\Generated_Source\PSoC4/CyLib.c ****     uint8 priority;
1194:.\Generated_Source\PSoC4/CyLib.c **** 
1195:.\Generated_Source\PSoC4/CyLib.c ****     CYASSERT(number < CY_NUM_INTERRUPTS);
1196:.\Generated_Source\PSoC4/CyLib.c **** 
1197:.\Generated_Source\PSoC4/CyLib.c ****     priority = (uint8) (CY_INT_PRIORITY_REG(number) >> CY_INT_PRIORITY_SHIFT(number));
1198:.\Generated_Source\PSoC4/CyLib.c **** 
1199:.\Generated_Source\PSoC4/CyLib.c ****     return (priority & (uint8) CY_INT_PRIORITY_MASK);
1200:.\Generated_Source\PSoC4/CyLib.c **** }
1201:.\Generated_Source\PSoC4/CyLib.c **** 
1202:.\Generated_Source\PSoC4/CyLib.c **** 
1203:.\Generated_Source\PSoC4/CyLib.c **** /*******************************************************************************
1204:.\Generated_Source\PSoC4/CyLib.c **** * Function Name: CyIntEnable
1205:.\Generated_Source\PSoC4/CyLib.c **** ********************************************************************************
1206:.\Generated_Source\PSoC4/CyLib.c **** *
1207:.\Generated_Source\PSoC4/CyLib.c **** * Summary:
1208:.\Generated_Source\PSoC4/CyLib.c **** *  Enables the specified interrupt number.
1209:.\Generated_Source\PSoC4/CyLib.c **** *
1210:.\Generated_Source\PSoC4/CyLib.c **** * Parameters:
1211:.\Generated_Source\PSoC4/CyLib.c **** *  number: Valid range [0-31].  Interrupt number
1212:.\Generated_Source\PSoC4/CyLib.c **** *
1213:.\Generated_Source\PSoC4/CyLib.c **** * Return:
1214:.\Generated_Source\PSoC4/CyLib.c **** *  None
1215:.\Generated_Source\PSoC4/CyLib.c **** *
1216:.\Generated_Source\PSoC4/CyLib.c **** *******************************************************************************/
1217:.\Generated_Source\PSoC4/CyLib.c **** void CyIntEnable(uint8 number)
1218:.\Generated_Source\PSoC4/CyLib.c **** {
 474              		.loc 1 1218 0
 475              		.cfi_startproc
 476              	.LVL19:
1219:.\Generated_Source\PSoC4/CyLib.c ****     CY_INT_ENABLE_REG = ((uint32) 0x01u << (CY_INT_ENABLE_RANGE_MASK & number));
 477              		.loc 1 1219 0
 478 0000 1F23     		mov	r3, #31
 479 0002 1840     		and	r0, r3
 480              	.LVL20:
 481 0004 1E3B     		sub	r3, r3, #30
 482 0006 8340     		lsl	r3, r3, r0
 483 0008 181C     		mov	r0, r3
 484 000a 014B     		ldr	r3, .L41
 485 000c 1860     		str	r0, [r3]
1220:.\Generated_Source\PSoC4/CyLib.c **** }
 486              		.loc 1 1220 0
 487              		@ sp needed
ARM GAS  C:\Users\Alan\AppData\Local\Temp\cc47LVCU.s 			page 31


 488 000e 7047     		bx	lr
 489              	.L42:
 490              		.align	2
 491              	.L41:
 492 0010 00E100E0 		.word	-536813312
 493              		.cfi_endproc
 494              	.LFE24:
 495              		.size	CyIntEnable, .-CyIntEnable
 496              		.section	.text.CyIntGetState,"ax",%progbits
 497              		.align	2
 498              		.global	CyIntGetState
 499              		.code	16
 500              		.thumb_func
 501              		.type	CyIntGetState, %function
 502              	CyIntGetState:
 503              	.LFB25:
1221:.\Generated_Source\PSoC4/CyLib.c **** 
1222:.\Generated_Source\PSoC4/CyLib.c **** 
1223:.\Generated_Source\PSoC4/CyLib.c **** /*******************************************************************************
1224:.\Generated_Source\PSoC4/CyLib.c **** * Function Name: CyIntGetState
1225:.\Generated_Source\PSoC4/CyLib.c **** ********************************************************************************
1226:.\Generated_Source\PSoC4/CyLib.c **** *
1227:.\Generated_Source\PSoC4/CyLib.c **** * Summary:
1228:.\Generated_Source\PSoC4/CyLib.c **** *  Gets the enable state of the specified interrupt number.
1229:.\Generated_Source\PSoC4/CyLib.c **** *
1230:.\Generated_Source\PSoC4/CyLib.c **** * Parameters:
1231:.\Generated_Source\PSoC4/CyLib.c **** *  number: Valid range [0-31].  Interrupt number.
1232:.\Generated_Source\PSoC4/CyLib.c **** *
1233:.\Generated_Source\PSoC4/CyLib.c **** * Return:
1234:.\Generated_Source\PSoC4/CyLib.c **** *  Enable status: 1 if enabled, 0 if disabled
1235:.\Generated_Source\PSoC4/CyLib.c **** *
1236:.\Generated_Source\PSoC4/CyLib.c **** *******************************************************************************/
1237:.\Generated_Source\PSoC4/CyLib.c **** uint8 CyIntGetState(uint8 number)
1238:.\Generated_Source\PSoC4/CyLib.c **** {
 504              		.loc 1 1238 0
 505              		.cfi_startproc
 506              	.LVL21:
1239:.\Generated_Source\PSoC4/CyLib.c ****     /* Get state of interrupt. */
1240:.\Generated_Source\PSoC4/CyLib.c ****     return ((0u != (CY_INT_ENABLE_REG & ((uint32) 0x01u << (CY_INT_ENABLE_RANGE_MASK & number)))) ?
 507              		.loc 1 1240 0
 508 0000 044B     		ldr	r3, .L44
 509 0002 1B68     		ldr	r3, [r3]
 510 0004 1F22     		mov	r2, #31
 511 0006 1040     		and	r0, r2
 512              	.LVL22:
 513 0008 C340     		lsr	r3, r3, r0
 514 000a 181C     		mov	r0, r3
 515 000c 0123     		mov	r3, #1
 516 000e 1840     		and	r0, r3
1241:.\Generated_Source\PSoC4/CyLib.c **** }
 517              		.loc 1 1241 0
 518              		@ sp needed
 519 0010 7047     		bx	lr
 520              	.L45:
 521 0012 C046     		.align	2
 522              	.L44:
 523 0014 00E100E0 		.word	-536813312
ARM GAS  C:\Users\Alan\AppData\Local\Temp\cc47LVCU.s 			page 32


 524              		.cfi_endproc
 525              	.LFE25:
 526              		.size	CyIntGetState, .-CyIntGetState
 527              		.section	.text.CyIntDisable,"ax",%progbits
 528              		.align	2
 529              		.global	CyIntDisable
 530              		.code	16
 531              		.thumb_func
 532              		.type	CyIntDisable, %function
 533              	CyIntDisable:
 534              	.LFB26:
1242:.\Generated_Source\PSoC4/CyLib.c **** 
1243:.\Generated_Source\PSoC4/CyLib.c **** 
1244:.\Generated_Source\PSoC4/CyLib.c **** /*******************************************************************************
1245:.\Generated_Source\PSoC4/CyLib.c **** * Function Name: CyIntDisable
1246:.\Generated_Source\PSoC4/CyLib.c **** ********************************************************************************
1247:.\Generated_Source\PSoC4/CyLib.c **** *
1248:.\Generated_Source\PSoC4/CyLib.c **** * Summary:
1249:.\Generated_Source\PSoC4/CyLib.c **** *   Disables the specified interrupt number.
1250:.\Generated_Source\PSoC4/CyLib.c **** *
1251:.\Generated_Source\PSoC4/CyLib.c **** * Parameters:
1252:.\Generated_Source\PSoC4/CyLib.c **** *   number: Valid range [0-31].  Interrupt number.
1253:.\Generated_Source\PSoC4/CyLib.c **** *
1254:.\Generated_Source\PSoC4/CyLib.c **** * Return:
1255:.\Generated_Source\PSoC4/CyLib.c **** *  None
1256:.\Generated_Source\PSoC4/CyLib.c **** *
1257:.\Generated_Source\PSoC4/CyLib.c **** *******************************************************************************/
1258:.\Generated_Source\PSoC4/CyLib.c **** void CyIntDisable(uint8 number)
1259:.\Generated_Source\PSoC4/CyLib.c **** {
 535              		.loc 1 1259 0
 536              		.cfi_startproc
 537              	.LVL23:
1260:.\Generated_Source\PSoC4/CyLib.c ****     CY_INT_CLEAR_REG = ((uint32) 0x01u << (CY_INT_ENABLE_RANGE_MASK & number));
 538              		.loc 1 1260 0
 539 0000 1F23     		mov	r3, #31
 540 0002 1840     		and	r0, r3
 541              	.LVL24:
 542 0004 1E3B     		sub	r3, r3, #30
 543 0006 8340     		lsl	r3, r3, r0
 544 0008 181C     		mov	r0, r3
 545 000a 014B     		ldr	r3, .L47
 546 000c 1860     		str	r0, [r3]
1261:.\Generated_Source\PSoC4/CyLib.c **** }
 547              		.loc 1 1261 0
 548              		@ sp needed
 549 000e 7047     		bx	lr
 550              	.L48:
 551              		.align	2
 552              	.L47:
 553 0010 80E100E0 		.word	-536813184
 554              		.cfi_endproc
 555              	.LFE26:
 556              		.size	CyIntDisable, .-CyIntDisable
 557              		.section	.text.CyIntSetPending,"ax",%progbits
 558              		.align	2
 559              		.global	CyIntSetPending
 560              		.code	16
ARM GAS  C:\Users\Alan\AppData\Local\Temp\cc47LVCU.s 			page 33


 561              		.thumb_func
 562              		.type	CyIntSetPending, %function
 563              	CyIntSetPending:
 564              	.LFB27:
1262:.\Generated_Source\PSoC4/CyLib.c **** 
1263:.\Generated_Source\PSoC4/CyLib.c **** /*******************************************************************************
1264:.\Generated_Source\PSoC4/CyLib.c **** * Function Name: CyIntSetPending
1265:.\Generated_Source\PSoC4/CyLib.c **** ********************************************************************************
1266:.\Generated_Source\PSoC4/CyLib.c **** *
1267:.\Generated_Source\PSoC4/CyLib.c **** * Summary:
1268:.\Generated_Source\PSoC4/CyLib.c **** *  Forces the specified interrupt number to be pending.
1269:.\Generated_Source\PSoC4/CyLib.c **** *
1270:.\Generated_Source\PSoC4/CyLib.c **** * Parameters:
1271:.\Generated_Source\PSoC4/CyLib.c **** *  number: Valid range [0-31].  Interrupt number.
1272:.\Generated_Source\PSoC4/CyLib.c **** *
1273:.\Generated_Source\PSoC4/CyLib.c **** * Return:
1274:.\Generated_Source\PSoC4/CyLib.c **** *  None
1275:.\Generated_Source\PSoC4/CyLib.c **** *
1276:.\Generated_Source\PSoC4/CyLib.c **** *******************************************************************************/
1277:.\Generated_Source\PSoC4/CyLib.c **** void CyIntSetPending(uint8 number)
1278:.\Generated_Source\PSoC4/CyLib.c **** {
 565              		.loc 1 1278 0
 566              		.cfi_startproc
 567              	.LVL25:
1279:.\Generated_Source\PSoC4/CyLib.c ****     CY_INT_SET_PEND_REG = ((uint32) 0x01u << (CY_INT_ENABLE_RANGE_MASK & number));
 568              		.loc 1 1279 0
 569 0000 1F23     		mov	r3, #31
 570 0002 1840     		and	r0, r3
 571              	.LVL26:
 572 0004 1E3B     		sub	r3, r3, #30
 573 0006 8340     		lsl	r3, r3, r0
 574 0008 181C     		mov	r0, r3
 575 000a 014B     		ldr	r3, .L50
 576 000c 1860     		str	r0, [r3]
1280:.\Generated_Source\PSoC4/CyLib.c **** }
 577              		.loc 1 1280 0
 578              		@ sp needed
 579 000e 7047     		bx	lr
 580              	.L51:
 581              		.align	2
 582              	.L50:
 583 0010 00E200E0 		.word	-536813056
 584              		.cfi_endproc
 585              	.LFE27:
 586              		.size	CyIntSetPending, .-CyIntSetPending
 587              		.section	.text.CyIntClearPending,"ax",%progbits
 588              		.align	2
 589              		.global	CyIntClearPending
 590              		.code	16
 591              		.thumb_func
 592              		.type	CyIntClearPending, %function
 593              	CyIntClearPending:
 594              	.LFB28:
1281:.\Generated_Source\PSoC4/CyLib.c **** 
1282:.\Generated_Source\PSoC4/CyLib.c **** 
1283:.\Generated_Source\PSoC4/CyLib.c **** /*******************************************************************************
1284:.\Generated_Source\PSoC4/CyLib.c **** * Function Name: CyIntClearPending
ARM GAS  C:\Users\Alan\AppData\Local\Temp\cc47LVCU.s 			page 34


1285:.\Generated_Source\PSoC4/CyLib.c **** ********************************************************************************
1286:.\Generated_Source\PSoC4/CyLib.c **** *
1287:.\Generated_Source\PSoC4/CyLib.c **** * Summary:
1288:.\Generated_Source\PSoC4/CyLib.c **** *  Clears any pending interrupt for the specified interrupt number.
1289:.\Generated_Source\PSoC4/CyLib.c **** *
1290:.\Generated_Source\PSoC4/CyLib.c **** * Parameters:
1291:.\Generated_Source\PSoC4/CyLib.c **** *  number: Valid range [0-31].  Interrupt number.
1292:.\Generated_Source\PSoC4/CyLib.c **** *
1293:.\Generated_Source\PSoC4/CyLib.c **** * Return:
1294:.\Generated_Source\PSoC4/CyLib.c **** *  None
1295:.\Generated_Source\PSoC4/CyLib.c **** *
1296:.\Generated_Source\PSoC4/CyLib.c **** *******************************************************************************/
1297:.\Generated_Source\PSoC4/CyLib.c **** void CyIntClearPending(uint8 number)
1298:.\Generated_Source\PSoC4/CyLib.c **** {
 595              		.loc 1 1298 0
 596              		.cfi_startproc
 597              	.LVL27:
1299:.\Generated_Source\PSoC4/CyLib.c ****     CY_INT_CLR_PEND_REG = ((uint32) 0x01u << (CY_INT_ENABLE_RANGE_MASK & number));
 598              		.loc 1 1299 0
 599 0000 1F23     		mov	r3, #31
 600 0002 1840     		and	r0, r3
 601              	.LVL28:
 602 0004 1E3B     		sub	r3, r3, #30
 603 0006 8340     		lsl	r3, r3, r0
 604 0008 181C     		mov	r0, r3
 605 000a 014B     		ldr	r3, .L53
 606 000c 1860     		str	r0, [r3]
1300:.\Generated_Source\PSoC4/CyLib.c **** }
 607              		.loc 1 1300 0
 608              		@ sp needed
 609 000e 7047     		bx	lr
 610              	.L54:
 611              		.align	2
 612              	.L53:
 613 0010 80E200E0 		.word	-536812928
 614              		.cfi_endproc
 615              	.LFE28:
 616              		.size	CyIntClearPending, .-CyIntClearPending
 617              		.section	.text.CyHalt,"ax",%progbits
 618              		.align	2
 619              		.global	CyHalt
 620              		.code	16
 621              		.thumb_func
 622              		.type	CyHalt, %function
 623              	CyHalt:
 624              	.LFB29:
1301:.\Generated_Source\PSoC4/CyLib.c **** 
1302:.\Generated_Source\PSoC4/CyLib.c **** 
1303:.\Generated_Source\PSoC4/CyLib.c **** /*******************************************************************************
1304:.\Generated_Source\PSoC4/CyLib.c **** * Function Name: CyHalt
1305:.\Generated_Source\PSoC4/CyLib.c **** ********************************************************************************
1306:.\Generated_Source\PSoC4/CyLib.c **** *
1307:.\Generated_Source\PSoC4/CyLib.c **** * Summary:
1308:.\Generated_Source\PSoC4/CyLib.c **** *  Halts the CPU.
1309:.\Generated_Source\PSoC4/CyLib.c **** *
1310:.\Generated_Source\PSoC4/CyLib.c **** * Parameters:
1311:.\Generated_Source\PSoC4/CyLib.c **** *  reason: Value to be used during debugging.
ARM GAS  C:\Users\Alan\AppData\Local\Temp\cc47LVCU.s 			page 35


1312:.\Generated_Source\PSoC4/CyLib.c **** *
1313:.\Generated_Source\PSoC4/CyLib.c **** * Return:
1314:.\Generated_Source\PSoC4/CyLib.c **** *  None
1315:.\Generated_Source\PSoC4/CyLib.c **** *
1316:.\Generated_Source\PSoC4/CyLib.c **** *******************************************************************************/
1317:.\Generated_Source\PSoC4/CyLib.c **** void CyHalt(uint8 reason)
1318:.\Generated_Source\PSoC4/CyLib.c **** {
 625              		.loc 1 1318 0
 626              		.cfi_startproc
 627              	.LVL29:
1319:.\Generated_Source\PSoC4/CyLib.c ****     if(0u != reason)
1320:.\Generated_Source\PSoC4/CyLib.c ****     {
1321:.\Generated_Source\PSoC4/CyLib.c ****         /* To remove unreferenced local variable warning */
1322:.\Generated_Source\PSoC4/CyLib.c ****     }
1323:.\Generated_Source\PSoC4/CyLib.c **** 
1324:.\Generated_Source\PSoC4/CyLib.c ****     #if defined (__ARMCC_VERSION)
1325:.\Generated_Source\PSoC4/CyLib.c ****         __breakpoint(0x0);
1326:.\Generated_Source\PSoC4/CyLib.c ****     #elif defined(__GNUC__) || defined (__ICCARM__)
1327:.\Generated_Source\PSoC4/CyLib.c ****         __asm("    bkpt    1");
 628              		.loc 1 1327 0
 629              	@ 1327 ".\Generated_Source\PSoC4\CyLib.c" 1
 630 0000 01BE     		    bkpt    1
 631              	@ 0 "" 2
1328:.\Generated_Source\PSoC4/CyLib.c ****     #elif defined(__C51__)
1329:.\Generated_Source\PSoC4/CyLib.c ****         CYDEV_HALT_CPU;
1330:.\Generated_Source\PSoC4/CyLib.c ****     #endif  /* (__ARMCC_VERSION) */
1331:.\Generated_Source\PSoC4/CyLib.c **** }
 632              		.loc 1 1331 0
 633              		.code	16
 634              		@ sp needed
 635 0002 7047     		bx	lr
 636              		.cfi_endproc
 637              	.LFE29:
 638              		.size	CyHalt, .-CyHalt
 639              		.section	.text.CySysClkWriteEcoDiv,"ax",%progbits
 640              		.align	2
 641              		.global	CySysClkWriteEcoDiv
 642              		.code	16
 643              		.thumb_func
 644              		.type	CySysClkWriteEcoDiv, %function
 645              	CySysClkWriteEcoDiv:
 646              	.LFB10:
 787:.\Generated_Source\PSoC4/CyLib.c ****         uint8  interruptState;
 647              		.loc 1 787 0
 648              		.cfi_startproc
 649              	.LVL30:
 650 0000 10B5     		push	{r4, lr}
 651              		.cfi_def_cfa_offset 8
 652              		.cfi_offset 4, -8
 653              		.cfi_offset 14, -4
 654 0002 041C     		mov	r4, r0
 790:.\Generated_Source\PSoC4/CyLib.c ****         {
 655              		.loc 1 790 0
 656 0004 0A4B     		ldr	r3, .L59
 657 0006 1B68     		ldr	r3, [r3]
 658 0008 0722     		mov	r2, #7
 659 000a 1340     		and	r3, r2
ARM GAS  C:\Users\Alan\AppData\Local\Temp\cc47LVCU.s 			page 36


 660 000c 022B     		cmp	r3, #2
 661 000e 0BD0     		beq	.L57
 792:.\Generated_Source\PSoC4/CyLib.c **** 
 662              		.loc 1 792 0
 663 0010 FFF7FEFF 		bl	CyEnterCriticalSection
 664              	.LVL31:
 794:.\Generated_Source\PSoC4/CyLib.c ****                                                   (CY_SYS_CLK_XTAL_CLK_DIV_CONFIG_REG & ((uint32) ~
 665              		.loc 1 794 0
 666 0014 0321     		mov	r1, #3
 667 0016 0C40     		and	r4, r1
 668              	.LVL32:
 795:.\Generated_Source\PSoC4/CyLib.c **** 
 669              		.loc 1 795 0
 670 0018 064A     		ldr	r2, .L59+4
 671 001a 1368     		ldr	r3, [r2]
 672 001c 8B43     		bic	r3, r1
 794:.\Generated_Source\PSoC4/CyLib.c ****                                                   (CY_SYS_CLK_XTAL_CLK_DIV_CONFIG_REG & ((uint32) ~
 673              		.loc 1 794 0
 674 001e 2343     		orr	r3, r4
 675 0020 1360     		str	r3, [r2]
 797:.\Generated_Source\PSoC4/CyLib.c ****         }
 676              		.loc 1 797 0
 677 0022 FFF7FEFF 		bl	CyExitCriticalSection
 678              	.LVL33:
 679 0026 02E0     		b	.L56
 680              	.LVL34:
 681              	.L57:
 802:.\Generated_Source\PSoC4/CyLib.c ****         }
 682              		.loc 1 802 0 discriminator 1
 683 0028 0020     		mov	r0, #0
 684              	.LVL35:
 685 002a FFF7FEFF 		bl	CyHalt
 686              	.LVL36:
 687              	.L56:
 804:.\Generated_Source\PSoC4/CyLib.c **** #endif /* (CY_PSOC4_4100BL || CY_PSOC4_4200BL) */
 688              		.loc 1 804 0
 689              		@ sp needed
 690 002e 10BD     		pop	{r4, pc}
 691              	.L60:
 692              		.align	2
 693              	.L59:
 694 0030 00010B40 		.word	1074462976
 695 0034 64F02E40 		.word	1076818020
 696              		.cfi_endproc
 697              	.LFE10:
 698              		.size	CySysClkWriteEcoDiv, .-CySysClkWriteEcoDiv
 699              		.section	.text.CyIntSetSysVector,"ax",%progbits
 700              		.align	2
 701              		.global	CyIntSetSysVector
 702              		.code	16
 703              		.thumb_func
 704              		.type	CyIntSetSysVector, %function
 705              	CyIntSetSysVector:
 706              	.LFB18:
1039:.\Generated_Source\PSoC4/CyLib.c ****     cyisraddress oldIsr;
 707              		.loc 1 1039 0
 708              		.cfi_startproc
ARM GAS  C:\Users\Alan\AppData\Local\Temp\cc47LVCU.s 			page 37


 709              	.LVL37:
 710 0000 38B5     		push	{r3, r4, r5, lr}
 711              		.cfi_def_cfa_offset 16
 712              		.cfi_offset 3, -16
 713              		.cfi_offset 4, -12
 714              		.cfi_offset 5, -8
 715              		.cfi_offset 14, -4
 716 0002 041C     		mov	r4, r0
 717 0004 0D1C     		mov	r5, r1
 718              	.LVL38:
1043:.\Generated_Source\PSoC4/CyLib.c **** 
 719              		.loc 1 1043 0
 720 0006 0F28     		cmp	r0, #15
 721 0008 02D9     		bls	.L62
1043:.\Generated_Source\PSoC4/CyLib.c **** 
 722              		.loc 1 1043 0 is_stmt 0 discriminator 1
 723 000a 0020     		mov	r0, #0
 724              	.LVL39:
 725 000c FFF7FEFF 		bl	CyHalt
 726              	.LVL40:
 727              	.L62:
1046:.\Generated_Source\PSoC4/CyLib.c **** 
 728              		.loc 1 1046 0 is_stmt 1
 729 0010 A400     		lsl	r4, r4, #2
 730 0012 8023     		mov	r3, #128
 731 0014 9B05     		lsl	r3, r3, #22
 732 0016 9C46     		mov	ip, r3
 733 0018 6444     		add	r4, r4, ip
 734 001a 2068     		ldr	r0, [r4]
 735              	.LVL41:
1049:.\Generated_Source\PSoC4/CyLib.c **** 
 736              		.loc 1 1049 0
 737 001c 2560     		str	r5, [r4]
1052:.\Generated_Source\PSoC4/CyLib.c **** 
 738              		.loc 1 1052 0
 739              		@ sp needed
 740              	.LVL42:
 741 001e 38BD     		pop	{r3, r4, r5, pc}
 742              		.cfi_endproc
 743              	.LFE18:
 744              		.size	CyIntSetSysVector, .-CyIntSetSysVector
 745              		.section	.text.CyIntGetSysVector,"ax",%progbits
 746              		.align	2
 747              		.global	CyIntGetSysVector
 748              		.code	16
 749              		.thumb_func
 750              		.type	CyIntGetSysVector, %function
 751              	CyIntGetSysVector:
 752              	.LFB19:
1076:.\Generated_Source\PSoC4/CyLib.c ****     cyisraddress *ramVectorTable = (cyisraddress *) CY_INT_VECT_TABLE;
 753              		.loc 1 1076 0
 754              		.cfi_startproc
 755              	.LVL43:
 756 0000 10B5     		push	{r4, lr}
 757              		.cfi_def_cfa_offset 8
 758              		.cfi_offset 4, -8
 759              		.cfi_offset 14, -4
ARM GAS  C:\Users\Alan\AppData\Local\Temp\cc47LVCU.s 			page 38


 760 0002 041E     		sub	r4, r0, #0
 761              	.LVL44:
1079:.\Generated_Source\PSoC4/CyLib.c **** 
 762              		.loc 1 1079 0
 763 0004 0F2C     		cmp	r4, #15
 764 0006 02D9     		bls	.L64
1079:.\Generated_Source\PSoC4/CyLib.c **** 
 765              		.loc 1 1079 0 is_stmt 0 discriminator 1
 766 0008 0020     		mov	r0, #0
 767              	.LVL45:
 768 000a FFF7FEFF 		bl	CyHalt
 769              	.LVL46:
 770              	.L64:
1081:.\Generated_Source\PSoC4/CyLib.c **** }
 771              		.loc 1 1081 0 is_stmt 1
 772 000e A400     		lsl	r4, r4, #2
 773 0010 8023     		mov	r3, #128
 774 0012 9B05     		lsl	r3, r3, #22
 775 0014 9C46     		mov	ip, r3
 776 0016 6444     		add	r4, r4, ip
 777 0018 2068     		ldr	r0, [r4]
1082:.\Generated_Source\PSoC4/CyLib.c **** 
 778              		.loc 1 1082 0
 779              		@ sp needed
 780 001a 10BD     		pop	{r4, pc}
 781              		.cfi_endproc
 782              	.LFE19:
 783              		.size	CyIntGetSysVector, .-CyIntGetSysVector
 784              		.section	.text.CyIntSetVector,"ax",%progbits
 785              		.align	2
 786              		.global	CyIntSetVector
 787              		.code	16
 788              		.thumb_func
 789              		.type	CyIntSetVector, %function
 790              	CyIntSetVector:
 791              	.LFB20:
1101:.\Generated_Source\PSoC4/CyLib.c ****     cyisraddress oldIsr;
 792              		.loc 1 1101 0
 793              		.cfi_startproc
 794              	.LVL47:
 795 0000 38B5     		push	{r3, r4, r5, lr}
 796              		.cfi_def_cfa_offset 16
 797              		.cfi_offset 3, -16
 798              		.cfi_offset 4, -12
 799              		.cfi_offset 5, -8
 800              		.cfi_offset 14, -4
 801 0002 041C     		mov	r4, r0
 802 0004 0D1C     		mov	r5, r1
 803              	.LVL48:
1105:.\Generated_Source\PSoC4/CyLib.c **** 
 804              		.loc 1 1105 0
 805 0006 1F28     		cmp	r0, #31
 806 0008 02D9     		bls	.L66
1105:.\Generated_Source\PSoC4/CyLib.c **** 
 807              		.loc 1 1105 0 is_stmt 0 discriminator 1
 808 000a 0020     		mov	r0, #0
 809              	.LVL49:
ARM GAS  C:\Users\Alan\AppData\Local\Temp\cc47LVCU.s 			page 39


 810 000c FFF7FEFF 		bl	CyHalt
 811              	.LVL50:
 812              	.L66:
1108:.\Generated_Source\PSoC4/CyLib.c **** 
 813              		.loc 1 1108 0 is_stmt 1
 814 0010 A400     		lsl	r4, r4, #2
 815 0012 034B     		ldr	r3, .L67
 816 0014 9C46     		mov	ip, r3
 817 0016 6444     		add	r4, r4, ip
 818 0018 2068     		ldr	r0, [r4]
 819              	.LVL51:
1111:.\Generated_Source\PSoC4/CyLib.c **** 
 820              		.loc 1 1111 0
 821 001a 2560     		str	r5, [r4]
1114:.\Generated_Source\PSoC4/CyLib.c **** 
 822              		.loc 1 1114 0
 823              		@ sp needed
 824              	.LVL52:
 825 001c 38BD     		pop	{r3, r4, r5, pc}
 826              	.L68:
 827 001e C046     		.align	2
 828              	.L67:
 829 0020 40000020 		.word	536870976
 830              		.cfi_endproc
 831              	.LFE20:
 832              		.size	CyIntSetVector, .-CyIntSetVector
 833              		.section	.text.CyIntGetVector,"ax",%progbits
 834              		.align	2
 835              		.global	CyIntGetVector
 836              		.code	16
 837              		.thumb_func
 838              		.type	CyIntGetVector, %function
 839              	CyIntGetVector:
 840              	.LFB21:
1132:.\Generated_Source\PSoC4/CyLib.c ****     cyisraddress *ramVectorTable = (cyisraddress *) CY_INT_VECT_TABLE;
 841              		.loc 1 1132 0
 842              		.cfi_startproc
 843              	.LVL53:
 844 0000 10B5     		push	{r4, lr}
 845              		.cfi_def_cfa_offset 8
 846              		.cfi_offset 4, -8
 847              		.cfi_offset 14, -4
 848 0002 041E     		sub	r4, r0, #0
 849              	.LVL54:
1135:.\Generated_Source\PSoC4/CyLib.c **** 
 850              		.loc 1 1135 0
 851 0004 1F2C     		cmp	r4, #31
 852 0006 02D9     		bls	.L70
1135:.\Generated_Source\PSoC4/CyLib.c **** 
 853              		.loc 1 1135 0 is_stmt 0 discriminator 1
 854 0008 0020     		mov	r0, #0
 855              	.LVL55:
 856 000a FFF7FEFF 		bl	CyHalt
 857              	.LVL56:
 858              	.L70:
1137:.\Generated_Source\PSoC4/CyLib.c **** }
 859              		.loc 1 1137 0 is_stmt 1
ARM GAS  C:\Users\Alan\AppData\Local\Temp\cc47LVCU.s 			page 40


 860 000e A400     		lsl	r4, r4, #2
 861 0010 024B     		ldr	r3, .L71
 862 0012 9C46     		mov	ip, r3
 863 0014 6444     		add	r4, r4, ip
 864 0016 2068     		ldr	r0, [r4]
1138:.\Generated_Source\PSoC4/CyLib.c **** 
 865              		.loc 1 1138 0
 866              		@ sp needed
 867 0018 10BD     		pop	{r4, pc}
 868              	.L72:
 869 001a C046     		.align	2
 870              	.L71:
 871 001c 40000020 		.word	536870976
 872              		.cfi_endproc
 873              	.LFE21:
 874              		.size	CyIntGetVector, .-CyIntGetVector
 875              		.section	.text.CyIntSetPriority,"ax",%progbits
 876              		.align	2
 877              		.global	CyIntSetPriority
 878              		.code	16
 879              		.thumb_func
 880              		.type	CyIntSetPriority, %function
 881              	CyIntSetPriority:
 882              	.LFB22:
1156:.\Generated_Source\PSoC4/CyLib.c ****     uint8 interruptState;
 883              		.loc 1 1156 0
 884              		.cfi_startproc
 885              	.LVL57:
 886 0000 70B5     		push	{r4, r5, r6, lr}
 887              		.cfi_def_cfa_offset 16
 888              		.cfi_offset 4, -16
 889              		.cfi_offset 5, -12
 890              		.cfi_offset 6, -8
 891              		.cfi_offset 14, -4
 892 0002 041C     		mov	r4, r0
 893 0004 0E1E     		sub	r6, r1, #0
1161:.\Generated_Source\PSoC4/CyLib.c ****     CYASSERT(number < CY_NUM_INTERRUPTS);
 894              		.loc 1 1161 0
 895 0006 032E     		cmp	r6, #3
 896 0008 02D9     		bls	.L74
1161:.\Generated_Source\PSoC4/CyLib.c ****     CYASSERT(number < CY_NUM_INTERRUPTS);
 897              		.loc 1 1161 0 is_stmt 0 discriminator 1
 898 000a 0020     		mov	r0, #0
 899              	.LVL58:
 900 000c FFF7FEFF 		bl	CyHalt
 901              	.LVL59:
 902              	.L74:
1162:.\Generated_Source\PSoC4/CyLib.c **** 
 903              		.loc 1 1162 0 is_stmt 1
 904 0010 1F2C     		cmp	r4, #31
 905 0012 02D9     		bls	.L75
1162:.\Generated_Source\PSoC4/CyLib.c **** 
 906              		.loc 1 1162 0 is_stmt 0 discriminator 1
 907 0014 0020     		mov	r0, #0
 908 0016 FFF7FEFF 		bl	CyHalt
 909              	.LVL60:
 910              	.L75:
ARM GAS  C:\Users\Alan\AppData\Local\Temp\cc47LVCU.s 			page 41


1164:.\Generated_Source\PSoC4/CyLib.c **** 
 911              		.loc 1 1164 0 is_stmt 1
 912 001a 0325     		mov	r5, #3
 913 001c 2540     		and	r5, r4
 914 001e ED00     		lsl	r5, r5, #3
 915 0020 0635     		add	r5, r5, #6
 916              	.LVL61:
1166:.\Generated_Source\PSoC4/CyLib.c **** 
 917              		.loc 1 1166 0
 918 0022 FFF7FEFF 		bl	CyEnterCriticalSection
 919              	.LVL62:
1168:.\Generated_Source\PSoC4/CyLib.c ****     value &= (uint32)(~((uint32)(CY_INT_PRIORITY_MASK << shift)));
 920              		.loc 1 1168 0
 921 0026 A408     		lsr	r4, r4, #2
 922 0028 A400     		lsl	r4, r4, #2
 923 002a 074B     		ldr	r3, .L76
 924 002c 9C46     		mov	ip, r3
 925 002e 6444     		add	r4, r4, ip
 926 0030 2368     		ldr	r3, [r4]
 927              	.LVL63:
1169:.\Generated_Source\PSoC4/CyLib.c ****     value |= ((uint32)priority << shift);
 928              		.loc 1 1169 0
 929 0032 0322     		mov	r2, #3
 930 0034 AA40     		lsl	r2, r2, r5
 931 0036 9343     		bic	r3, r2
 932              	.LVL64:
1170:.\Generated_Source\PSoC4/CyLib.c ****     CY_INT_PRIORITY_REG(number) = value;
 933              		.loc 1 1170 0
 934 0038 AE40     		lsl	r6, r6, r5
 935 003a 351C     		mov	r5, r6
 936              	.LVL65:
 937 003c 1D43     		orr	r5, r3
 938              	.LVL66:
1171:.\Generated_Source\PSoC4/CyLib.c **** 
 939              		.loc 1 1171 0
 940 003e 2560     		str	r5, [r4]
1173:.\Generated_Source\PSoC4/CyLib.c **** }
 941              		.loc 1 1173 0
 942 0040 FFF7FEFF 		bl	CyExitCriticalSection
 943              	.LVL67:
1174:.\Generated_Source\PSoC4/CyLib.c **** 
 944              		.loc 1 1174 0
 945              		@ sp needed
 946              	.LVL68:
 947 0044 70BD     		pop	{r4, r5, r6, pc}
 948              	.L77:
 949 0046 C046     		.align	2
 950              	.L76:
 951 0048 00E400E0 		.word	-536812544
 952              		.cfi_endproc
 953              	.LFE22:
 954              		.size	CyIntSetPriority, .-CyIntSetPriority
 955              		.section	.text.CyIntGetPriority,"ax",%progbits
 956              		.align	2
 957              		.global	CyIntGetPriority
 958              		.code	16
 959              		.thumb_func
ARM GAS  C:\Users\Alan\AppData\Local\Temp\cc47LVCU.s 			page 42


 960              		.type	CyIntGetPriority, %function
 961              	CyIntGetPriority:
 962              	.LFB23:
1192:.\Generated_Source\PSoC4/CyLib.c ****     uint8 priority;
 963              		.loc 1 1192 0
 964              		.cfi_startproc
 965              	.LVL69:
 966 0000 10B5     		push	{r4, lr}
 967              		.cfi_def_cfa_offset 8
 968              		.cfi_offset 4, -8
 969              		.cfi_offset 14, -4
 970 0002 041E     		sub	r4, r0, #0
1195:.\Generated_Source\PSoC4/CyLib.c **** 
 971              		.loc 1 1195 0
 972 0004 1F2C     		cmp	r4, #31
 973 0006 02D9     		bls	.L79
1195:.\Generated_Source\PSoC4/CyLib.c **** 
 974              		.loc 1 1195 0 is_stmt 0 discriminator 1
 975 0008 0020     		mov	r0, #0
 976              	.LVL70:
 977 000a FFF7FEFF 		bl	CyHalt
 978              	.LVL71:
 979              	.L79:
1197:.\Generated_Source\PSoC4/CyLib.c **** 
 980              		.loc 1 1197 0 is_stmt 1
 981 000e A308     		lsr	r3, r4, #2
 982 0010 9B00     		lsl	r3, r3, #2
 983 0012 054A     		ldr	r2, .L80
 984 0014 9446     		mov	ip, r2
 985 0016 6344     		add	r3, r3, ip
 986 0018 1868     		ldr	r0, [r3]
 987 001a 0323     		mov	r3, #3
 988 001c 1C40     		and	r4, r3
 989 001e E400     		lsl	r4, r4, #3
 990 0020 0634     		add	r4, r4, #6
 991 0022 E040     		lsr	r0, r0, r4
 992              	.LVL72:
1199:.\Generated_Source\PSoC4/CyLib.c **** }
 993              		.loc 1 1199 0
 994 0024 1840     		and	r0, r3
 995              	.LVL73:
1200:.\Generated_Source\PSoC4/CyLib.c **** 
 996              		.loc 1 1200 0
 997              		@ sp needed
 998 0026 10BD     		pop	{r4, pc}
 999              	.L81:
 1000              		.align	2
 1001              	.L80:
 1002 0028 00E400E0 		.word	-536812544
 1003              		.cfi_endproc
 1004              	.LFE23:
 1005              		.size	CyIntGetPriority, .-CyIntGetPriority
 1006              		.section	.text.CySoftwareReset,"ax",%progbits
 1007              		.align	2
 1008              		.global	CySoftwareReset
 1009              		.code	16
 1010              		.thumb_func
ARM GAS  C:\Users\Alan\AppData\Local\Temp\cc47LVCU.s 			page 43


 1011              		.type	CySoftwareReset, %function
 1012              	CySoftwareReset:
 1013              	.LFB30:
1332:.\Generated_Source\PSoC4/CyLib.c **** 
1333:.\Generated_Source\PSoC4/CyLib.c **** 
1334:.\Generated_Source\PSoC4/CyLib.c **** /*******************************************************************************
1335:.\Generated_Source\PSoC4/CyLib.c **** * Function Name: CySoftwareReset
1336:.\Generated_Source\PSoC4/CyLib.c **** ********************************************************************************
1337:.\Generated_Source\PSoC4/CyLib.c **** *
1338:.\Generated_Source\PSoC4/CyLib.c **** * Summary:
1339:.\Generated_Source\PSoC4/CyLib.c **** *  Forces a software reset of the device.
1340:.\Generated_Source\PSoC4/CyLib.c **** *
1341:.\Generated_Source\PSoC4/CyLib.c **** * Parameters:
1342:.\Generated_Source\PSoC4/CyLib.c **** *  None
1343:.\Generated_Source\PSoC4/CyLib.c **** *
1344:.\Generated_Source\PSoC4/CyLib.c **** * Return:
1345:.\Generated_Source\PSoC4/CyLib.c **** *  None
1346:.\Generated_Source\PSoC4/CyLib.c **** *
1347:.\Generated_Source\PSoC4/CyLib.c **** *******************************************************************************/
1348:.\Generated_Source\PSoC4/CyLib.c **** void CySoftwareReset(void)
1349:.\Generated_Source\PSoC4/CyLib.c **** {
 1014              		.loc 1 1349 0
 1015              		.cfi_startproc
1350:.\Generated_Source\PSoC4/CyLib.c ****     /***************************************************************************
1351:.\Generated_Source\PSoC4/CyLib.c ****     * Setting the system reset request bit. The vector key value must be written
1352:.\Generated_Source\PSoC4/CyLib.c ****     * to the register, otherwise the register write is unpredictable.
1353:.\Generated_Source\PSoC4/CyLib.c ****     ***************************************************************************/
1354:.\Generated_Source\PSoC4/CyLib.c ****     CY_SYS_CM0_AIRCR_REG = (CY_SYS_CM0_AIRCR_REG & (uint32)(~CY_SYS_CM0_AIRCR_VECTKEY_MASK)) |
 1016              		.loc 1 1354 0
 1017 0000 034A     		ldr	r2, .L83
 1018 0002 1368     		ldr	r3, [r2]
 1019 0004 1B04     		lsl	r3, r3, #16
 1020 0006 1B0C     		lsr	r3, r3, #16
1355:.\Generated_Source\PSoC4/CyLib.c ****                             CY_SYS_CM0_AIRCR_VECTKEY | CY_SYS_CM0_AIRCR_SYSRESETREQ;
 1021              		.loc 1 1355 0
 1022 0008 0249     		ldr	r1, .L83+4
 1023 000a 0B43     		orr	r3, r1
1354:.\Generated_Source\PSoC4/CyLib.c ****                             CY_SYS_CM0_AIRCR_VECTKEY | CY_SYS_CM0_AIRCR_SYSRESETREQ;
 1024              		.loc 1 1354 0
 1025 000c 1360     		str	r3, [r2]
1356:.\Generated_Source\PSoC4/CyLib.c **** }
 1026              		.loc 1 1356 0
 1027              		@ sp needed
 1028 000e 7047     		bx	lr
 1029              	.L84:
 1030              		.align	2
 1031              	.L83:
 1032 0010 0CED00E0 		.word	-536810228
 1033 0014 0400FA05 		.word	100270084
 1034              		.cfi_endproc
 1035              	.LFE30:
 1036              		.size	CySoftwareReset, .-CySoftwareReset
 1037              		.section	.text.CyDelay,"ax",%progbits
 1038              		.align	2
 1039              		.global	CyDelay
 1040              		.code	16
 1041              		.thumb_func
ARM GAS  C:\Users\Alan\AppData\Local\Temp\cc47LVCU.s 			page 44


 1042              		.type	CyDelay, %function
 1043              	CyDelay:
 1044              	.LFB31:
1357:.\Generated_Source\PSoC4/CyLib.c **** 
1358:.\Generated_Source\PSoC4/CyLib.c **** 
1359:.\Generated_Source\PSoC4/CyLib.c **** /*******************************************************************************
1360:.\Generated_Source\PSoC4/CyLib.c **** * Function Name: CyDelay
1361:.\Generated_Source\PSoC4/CyLib.c **** ********************************************************************************
1362:.\Generated_Source\PSoC4/CyLib.c **** *
1363:.\Generated_Source\PSoC4/CyLib.c **** * Summary:
1364:.\Generated_Source\PSoC4/CyLib.c **** *  Blocks for milliseconds.
1365:.\Generated_Source\PSoC4/CyLib.c **** *
1366:.\Generated_Source\PSoC4/CyLib.c **** * Parameters:
1367:.\Generated_Source\PSoC4/CyLib.c **** *  milliseconds: number of milliseconds to delay.
1368:.\Generated_Source\PSoC4/CyLib.c **** *
1369:.\Generated_Source\PSoC4/CyLib.c **** * Return:
1370:.\Generated_Source\PSoC4/CyLib.c **** *  None
1371:.\Generated_Source\PSoC4/CyLib.c **** *
1372:.\Generated_Source\PSoC4/CyLib.c **** *******************************************************************************/
1373:.\Generated_Source\PSoC4/CyLib.c **** void CyDelay(uint32 milliseconds)
1374:.\Generated_Source\PSoC4/CyLib.c **** {
 1045              		.loc 1 1374 0
 1046              		.cfi_startproc
 1047              	.LVL74:
 1048 0000 10B5     		push	{r4, lr}
 1049              		.cfi_def_cfa_offset 8
 1050              		.cfi_offset 4, -8
 1051              		.cfi_offset 14, -4
 1052 0002 041C     		mov	r4, r0
1375:.\Generated_Source\PSoC4/CyLib.c ****     while (milliseconds > CY_DELAY_MS_OVERFLOW)
 1053              		.loc 1 1375 0
 1054 0004 06E0     		b	.L86
 1055              	.LVL75:
 1056              	.L87:
1376:.\Generated_Source\PSoC4/CyLib.c ****     {
1377:.\Generated_Source\PSoC4/CyLib.c ****         /* This loop prevents overflow.
1378:.\Generated_Source\PSoC4/CyLib.c ****          * At 100MHz, milliseconds * cydelayFreqKhz overflows at about 42 seconds
1379:.\Generated_Source\PSoC4/CyLib.c ****          */
1380:.\Generated_Source\PSoC4/CyLib.c ****         CyDelayCycles(cydelay32kMs);
 1057              		.loc 1 1380 0
 1058 0006 084B     		ldr	r3, .L88
 1059 0008 1868     		ldr	r0, [r3]
 1060 000a FFF7FEFF 		bl	CyDelayCycles
 1061              	.LVL76:
1381:.\Generated_Source\PSoC4/CyLib.c ****         milliseconds -= CY_DELAY_MS_OVERFLOW;
 1062              		.loc 1 1381 0
 1063 000e 074B     		ldr	r3, .L88+4
 1064 0010 9C46     		mov	ip, r3
 1065 0012 6444     		add	r4, r4, ip
 1066              	.LVL77:
 1067              	.L86:
1375:.\Generated_Source\PSoC4/CyLib.c ****     while (milliseconds > CY_DELAY_MS_OVERFLOW)
 1068              		.loc 1 1375 0
 1069 0014 8023     		mov	r3, #128
 1070 0016 1B02     		lsl	r3, r3, #8
 1071 0018 9C42     		cmp	r4, r3
 1072 001a F4D8     		bhi	.L87
ARM GAS  C:\Users\Alan\AppData\Local\Temp\cc47LVCU.s 			page 45


1382:.\Generated_Source\PSoC4/CyLib.c ****     }
1383:.\Generated_Source\PSoC4/CyLib.c **** 
1384:.\Generated_Source\PSoC4/CyLib.c ****     CyDelayCycles(milliseconds * cydelayFreqKhz);
 1073              		.loc 1 1384 0
 1074 001c 024B     		ldr	r3, .L88
 1075 001e 5868     		ldr	r0, [r3, #4]
 1076 0020 6043     		mul	r0, r4
 1077 0022 FFF7FEFF 		bl	CyDelayCycles
 1078              	.LVL78:
1385:.\Generated_Source\PSoC4/CyLib.c **** }
 1079              		.loc 1 1385 0
 1080              		@ sp needed
 1081              	.LVL79:
 1082 0026 10BD     		pop	{r4, pc}
 1083              	.L89:
 1084              		.align	2
 1085              	.L88:
 1086 0028 00000000 		.word	.LANCHOR1
 1087 002c 0080FFFF 		.word	-32768
 1088              		.cfi_endproc
 1089              	.LFE31:
 1090              		.size	CyDelay, .-CyDelay
 1091              		.section	.text.CyDelayUs,"ax",%progbits
 1092              		.align	2
 1093              		.global	CyDelayUs
 1094              		.code	16
 1095              		.thumb_func
 1096              		.type	CyDelayUs, %function
 1097              	CyDelayUs:
 1098              	.LFB32:
1386:.\Generated_Source\PSoC4/CyLib.c **** 
1387:.\Generated_Source\PSoC4/CyLib.c **** 
1388:.\Generated_Source\PSoC4/CyLib.c **** /*******************************************************************************
1389:.\Generated_Source\PSoC4/CyLib.c **** * Function Name: CyDelayUs
1390:.\Generated_Source\PSoC4/CyLib.c **** ********************************************************************************
1391:.\Generated_Source\PSoC4/CyLib.c **** * Summary:
1392:.\Generated_Source\PSoC4/CyLib.c **** *  Blocks for microseconds.
1393:.\Generated_Source\PSoC4/CyLib.c **** *
1394:.\Generated_Source\PSoC4/CyLib.c **** * Parameters:
1395:.\Generated_Source\PSoC4/CyLib.c **** *  microseconds: number of microseconds to delay.
1396:.\Generated_Source\PSoC4/CyLib.c **** *
1397:.\Generated_Source\PSoC4/CyLib.c **** * Return:
1398:.\Generated_Source\PSoC4/CyLib.c **** *  None
1399:.\Generated_Source\PSoC4/CyLib.c **** *
1400:.\Generated_Source\PSoC4/CyLib.c **** *******************************************************************************/
1401:.\Generated_Source\PSoC4/CyLib.c **** void CyDelayUs(uint16 microseconds)
1402:.\Generated_Source\PSoC4/CyLib.c **** {
 1099              		.loc 1 1402 0
 1100              		.cfi_startproc
 1101              	.LVL80:
 1102 0000 08B5     		push	{r3, lr}
 1103              		.cfi_def_cfa_offset 8
 1104              		.cfi_offset 3, -8
 1105              		.cfi_offset 14, -4
1403:.\Generated_Source\PSoC4/CyLib.c ****     CyDelayCycles((uint32)microseconds * cydelayFreqMhz);
 1106              		.loc 1 1403 0
 1107 0002 034B     		ldr	r3, .L91
ARM GAS  C:\Users\Alan\AppData\Local\Temp\cc47LVCU.s 			page 46


 1108 0004 1B7A     		ldrb	r3, [r3, #8]
 1109 0006 5843     		mul	r0, r3
 1110              	.LVL81:
 1111 0008 FFF7FEFF 		bl	CyDelayCycles
 1112              	.LVL82:
1404:.\Generated_Source\PSoC4/CyLib.c **** }
 1113              		.loc 1 1404 0
 1114              		@ sp needed
 1115 000c 08BD     		pop	{r3, pc}
 1116              	.L92:
 1117 000e C046     		.align	2
 1118              	.L91:
 1119 0010 00000000 		.word	.LANCHOR1
 1120              		.cfi_endproc
 1121              	.LFE32:
 1122              		.size	CyDelayUs, .-CyDelayUs
 1123              		.section	.text.CySysClkEcoStart,"ax",%progbits
 1124              		.align	2
 1125              		.global	CySysClkEcoStart
 1126              		.code	16
 1127              		.thumb_func
 1128              		.type	CySysClkEcoStart, %function
 1129              	CySysClkEcoStart:
 1130              	.LFB7:
 675:.\Generated_Source\PSoC4/CyLib.c ****         cystatus status = CYRET_SUCCESS;
 1131              		.loc 1 675 0
 1132              		.cfi_startproc
 1133              	.LVL83:
 1134 0000 10B5     		push	{r4, lr}
 1135              		.cfi_def_cfa_offset 8
 1136              		.cfi_offset 4, -8
 1137              		.cfi_offset 14, -4
 1138 0002 041C     		mov	r4, r0
 1139              	.LVL84:
 679:.\Generated_Source\PSoC4/CyLib.c **** 
 1140              		.loc 1 679 0
 1141 0004 0F4A     		ldr	r2, .L98
 1142 0006 1168     		ldr	r1, [r2]
 1143 0008 0123     		mov	r3, #1
 1144 000a 0B43     		orr	r3, r1
 1145 000c 1360     		str	r3, [r2]
 682:.\Generated_Source\PSoC4/CyLib.c **** 
 1146              		.loc 1 682 0
 1147 000e 0E4A     		ldr	r2, .L98+4
 1148 0010 0E4B     		ldr	r3, .L98+8
 1149 0012 1A60     		str	r2, [r3]
 685:.\Generated_Source\PSoC4/CyLib.c **** 
 1150              		.loc 1 685 0
 1151 0014 0E4A     		ldr	r2, .L98+12
 1152 0016 1368     		ldr	r3, [r2]
 1153 0018 8021     		mov	r1, #128
 1154 001a 0902     		lsl	r1, r1, #8
 1155 001c 0B43     		orr	r3, r1
 1156 001e 1360     		str	r3, [r2]
 687:.\Generated_Source\PSoC4/CyLib.c ****         {
 1157              		.loc 1 687 0
 1158 0020 0028     		cmp	r0, #0
ARM GAS  C:\Users\Alan\AppData\Local\Temp\cc47LVCU.s 			page 47


 1159 0022 09D1     		bne	.L94
 676:.\Generated_Source\PSoC4/CyLib.c **** 
 1160              		.loc 1 676 0
 1161 0024 0020     		mov	r0, #0
 1162              	.LVL85:
 1163 0026 0CE0     		b	.L95
 1164              	.L96:
 693:.\Generated_Source\PSoC4/CyLib.c **** 
 1165              		.loc 1 693 0
 1166 0028 0120     		mov	r0, #1
 1167 002a FFF7FEFF 		bl	CyDelayUs
 1168              	.LVL86:
 695:.\Generated_Source\PSoC4/CyLib.c ****                 {
 1169              		.loc 1 695 0
 1170 002e FFF7FEFF 		bl	CySysClkEcoReadStatus
 1171              	.LVL87:
 1172 0032 0028     		cmp	r0, #0
 1173 0034 04D1     		bne	.L97
 691:.\Generated_Source\PSoC4/CyLib.c ****             {
 1174              		.loc 1 691 0
 1175 0036 013C     		sub	r4, r4, #1
 1176              	.LVL88:
 1177              	.L94:
 691:.\Generated_Source\PSoC4/CyLib.c ****             {
 1178              		.loc 1 691 0 is_stmt 0 discriminator 1
 1179 0038 002C     		cmp	r4, #0
 1180 003a F5D1     		bne	.L96
 689:.\Generated_Source\PSoC4/CyLib.c **** 
 1181              		.loc 1 689 0 is_stmt 1
 1182 003c 1020     		mov	r0, #16
 1183 003e 00E0     		b	.L95
 1184              	.L97:
 697:.\Generated_Source\PSoC4/CyLib.c ****                     break;
 1185              		.loc 1 697 0
 1186 0040 0020     		mov	r0, #0
 1187              	.L95:
 1188              	.LVL89:
 705:.\Generated_Source\PSoC4/CyLib.c **** 
 1189              		.loc 1 705 0
 1190              		@ sp needed
 1191              	.LVL90:
 1192 0042 10BD     		pop	{r4, pc}
 1193              	.L99:
 1194              		.align	2
 1195              	.L98:
 1196 0044 60F02E40 		.word	1076818016
 1197 0048 02200000 		.word	8194
 1198 004c 78002E40 		.word	1076756600
 1199 0050 10002E40 		.word	1076756496
 1200              		.cfi_endproc
 1201              	.LFE7:
 1202              		.size	CySysClkEcoStart, .-CySysClkEcoStart
 1203              		.section	.text.CySysLvdEnable,"ax",%progbits
 1204              		.align	2
 1205              		.global	CySysLvdEnable
 1206              		.code	16
 1207              		.thumb_func
ARM GAS  C:\Users\Alan\AppData\Local\Temp\cc47LVCU.s 			page 48


 1208              		.type	CySysLvdEnable, %function
 1209              	CySysLvdEnable:
 1210              	.LFB11:
 849:.\Generated_Source\PSoC4/CyLib.c ****         /* Prevent propagating a false interrupt */
 1211              		.loc 1 849 0
 1212              		.cfi_startproc
 1213              	.LVL91:
 1214 0000 38B5     		push	{r3, r4, r5, lr}
 1215              		.cfi_def_cfa_offset 16
 1216              		.cfi_offset 3, -16
 1217              		.cfi_offset 4, -12
 1218              		.cfi_offset 5, -8
 1219              		.cfi_offset 14, -4
 1220 0002 031C     		mov	r3, r0
 851:.\Generated_Source\PSoC4/CyLib.c **** 
 1221              		.loc 1 851 0
 1222 0004 0D4C     		ldr	r4, .L101
 1223 0006 2268     		ldr	r2, [r4]
 1224 0008 0225     		mov	r5, #2
 1225 000a AA43     		bic	r2, r5
 1226 000c 2260     		str	r2, [r4]
 854:.\Generated_Source\PSoC4/CyLib.c ****                 ((threshold << CY_LVD_PWR_VMON_CONFIG_LVD_SEL_SHIFT) & CY_LVD_PWR_VMON_CONFIG_LVD_S
 1227              		.loc 1 854 0
 1228 000e 0C4A     		ldr	r2, .L101+4
 1229 0010 1168     		ldr	r1, [r2]
 1230 0012 1E20     		mov	r0, #30
 1231              	.LVL92:
 1232 0014 8143     		bic	r1, r0
 855:.\Generated_Source\PSoC4/CyLib.c **** 
 1233              		.loc 1 855 0
 1234 0016 5B00     		lsl	r3, r3, #1
 1235              	.LVL93:
 1236 0018 1840     		and	r0, r3
 854:.\Generated_Source\PSoC4/CyLib.c ****                 ((threshold << CY_LVD_PWR_VMON_CONFIG_LVD_SEL_SHIFT) & CY_LVD_PWR_VMON_CONFIG_LVD_S
 1237              		.loc 1 854 0
 1238 001a 0843     		orr	r0, r1
 1239 001c 1060     		str	r0, [r2]
 858:.\Generated_Source\PSoC4/CyLib.c **** 
 1240              		.loc 1 858 0
 1241 001e 1168     		ldr	r1, [r2]
 1242 0020 0123     		mov	r3, #1
 1243 0022 0B43     		orr	r3, r1
 1244 0024 1360     		str	r3, [r2]
 861:.\Generated_Source\PSoC4/CyLib.c **** 
 1245              		.loc 1 861 0
 1246 0026 FA20     		mov	r0, #250
 1247 0028 8000     		lsl	r0, r0, #2
 1248 002a FFF7FEFF 		bl	CyDelayUs
 1249              	.LVL94:
 864:.\Generated_Source\PSoC4/CyLib.c **** 
 1250              		.loc 1 864 0
 1251 002e FFF7FEFF 		bl	CySysLvdClearInterrupt
 1252              	.LVL95:
 867:.\Generated_Source\PSoC4/CyLib.c ****     }
 1253              		.loc 1 867 0
 1254 0032 2368     		ldr	r3, [r4]
 1255 0034 1D43     		orr	r5, r3
ARM GAS  C:\Users\Alan\AppData\Local\Temp\cc47LVCU.s 			page 49


 1256 0036 2560     		str	r5, [r4]
 868:.\Generated_Source\PSoC4/CyLib.c **** 
 1257              		.loc 1 868 0
 1258              		@ sp needed
 1259 0038 38BD     		pop	{r3, r4, r5, pc}
 1260              	.L102:
 1261 003a C046     		.align	2
 1262              	.L101:
 1263 003c 08000B40 		.word	1074462728
 1264 0040 18000B40 		.word	1074462744
 1265              		.cfi_endproc
 1266              	.LFE11:
 1267              		.size	CySysLvdEnable, .-CySysLvdEnable
 1268              		.global	__aeabi_uidiv
 1269              		.section	.text.CyDelayFreq,"ax",%progbits
 1270              		.align	2
 1271              		.global	CyDelayFreq
 1272              		.code	16
 1273              		.thumb_func
 1274              		.type	CyDelayFreq, %function
 1275              	CyDelayFreq:
 1276              	.LFB33:
1405:.\Generated_Source\PSoC4/CyLib.c **** 
1406:.\Generated_Source\PSoC4/CyLib.c **** 
1407:.\Generated_Source\PSoC4/CyLib.c **** /*******************************************************************************
1408:.\Generated_Source\PSoC4/CyLib.c **** * Function Name: CyDelayFreq
1409:.\Generated_Source\PSoC4/CyLib.c **** ********************************************************************************
1410:.\Generated_Source\PSoC4/CyLib.c **** * Summary:
1411:.\Generated_Source\PSoC4/CyLib.c **** *  Sets clock frequency for CyDelay.
1412:.\Generated_Source\PSoC4/CyLib.c **** *
1413:.\Generated_Source\PSoC4/CyLib.c **** * Parameters:
1414:.\Generated_Source\PSoC4/CyLib.c **** *  freq: Frequency of bus clock in Hertz.
1415:.\Generated_Source\PSoC4/CyLib.c **** *
1416:.\Generated_Source\PSoC4/CyLib.c **** * Return:
1417:.\Generated_Source\PSoC4/CyLib.c **** *  None
1418:.\Generated_Source\PSoC4/CyLib.c **** *
1419:.\Generated_Source\PSoC4/CyLib.c **** *******************************************************************************/
1420:.\Generated_Source\PSoC4/CyLib.c **** void CyDelayFreq(uint32 freq)
1421:.\Generated_Source\PSoC4/CyLib.c **** {
 1277              		.loc 1 1421 0
 1278              		.cfi_startproc
 1279              	.LVL96:
 1280 0000 38B5     		push	{r3, r4, r5, lr}
 1281              		.cfi_def_cfa_offset 16
 1282              		.cfi_offset 3, -16
 1283              		.cfi_offset 4, -12
 1284              		.cfi_offset 5, -8
 1285              		.cfi_offset 14, -4
1422:.\Generated_Source\PSoC4/CyLib.c ****     if (freq != 0u)
 1286              		.loc 1 1422 0
 1287 0002 0028     		cmp	r0, #0
 1288 0004 02D0     		beq	.L104
1423:.\Generated_Source\PSoC4/CyLib.c ****     {
1424:.\Generated_Source\PSoC4/CyLib.c ****         cydelayFreqHz = freq;
 1289              		.loc 1 1424 0
 1290 0006 0C4B     		ldr	r3, .L106
 1291 0008 D860     		str	r0, [r3, #12]
ARM GAS  C:\Users\Alan\AppData\Local\Temp\cc47LVCU.s 			page 50


 1292 000a 02E0     		b	.L105
 1293              	.L104:
1425:.\Generated_Source\PSoC4/CyLib.c ****     }
1426:.\Generated_Source\PSoC4/CyLib.c ****     else
1427:.\Generated_Source\PSoC4/CyLib.c ****     {
1428:.\Generated_Source\PSoC4/CyLib.c ****         cydelayFreqHz = CYDEV_BCLK__SYSCLK__HZ;
 1294              		.loc 1 1428 0
 1295 000c 0B4A     		ldr	r2, .L106+4
 1296 000e 0A4B     		ldr	r3, .L106
 1297 0010 DA60     		str	r2, [r3, #12]
 1298              	.L105:
1429:.\Generated_Source\PSoC4/CyLib.c ****     }
1430:.\Generated_Source\PSoC4/CyLib.c **** 
1431:.\Generated_Source\PSoC4/CyLib.c ****     cydelayFreqMhz = (uint8)((cydelayFreqHz + CY_DELAY_1M_MINUS_1_THRESHOLD) / CY_DELAY_1M_THRESHOL
 1299              		.loc 1 1431 0
 1300 0012 094C     		ldr	r4, .L106
 1301 0014 E568     		ldr	r5, [r4, #12]
 1302 0016 0A4B     		ldr	r3, .L106+8
 1303 0018 E818     		add	r0, r5, r3
 1304              	.LVL97:
 1305 001a 0A49     		ldr	r1, .L106+12
 1306 001c FFF7FEFF 		bl	__aeabi_uidiv
 1307              	.LVL98:
 1308 0020 2072     		strb	r0, [r4, #8]
1432:.\Generated_Source\PSoC4/CyLib.c ****     cydelayFreqKhz = (cydelayFreqHz + CY_DELAY_1K_MINUS_1_THRESHOLD) / CY_DELAY_1K_THRESHOLD;
 1309              		.loc 1 1432 0
 1310 0022 094B     		ldr	r3, .L106+16
 1311 0024 E818     		add	r0, r5, r3
 1312 0026 FA21     		mov	r1, #250
 1313 0028 8900     		lsl	r1, r1, #2
 1314 002a FFF7FEFF 		bl	__aeabi_uidiv
 1315              	.LVL99:
 1316 002e 6060     		str	r0, [r4, #4]
1433:.\Generated_Source\PSoC4/CyLib.c ****     cydelay32kMs   = CY_DELAY_MS_OVERFLOW * cydelayFreqKhz;
 1317              		.loc 1 1433 0
 1318 0030 C003     		lsl	r0, r0, #15
 1319 0032 2060     		str	r0, [r4]
1434:.\Generated_Source\PSoC4/CyLib.c **** }
 1320              		.loc 1 1434 0
 1321              		@ sp needed
 1322 0034 38BD     		pop	{r3, r4, r5, pc}
 1323              	.L107:
 1324 0036 C046     		.align	2
 1325              	.L106:
 1326 0038 00000000 		.word	.LANCHOR1
 1327 003c 006CDC02 		.word	48000000
 1328 0040 3F420F00 		.word	999999
 1329 0044 40420F00 		.word	1000000
 1330 0048 E7030000 		.word	999
 1331              		.cfi_endproc
 1332              	.LFE33:
 1333              		.size	CyDelayFreq, .-CyDelayFreq
 1334              		.section	.text.CySysTickStop,"ax",%progbits
 1335              		.align	2
 1336              		.global	CySysTickStop
 1337              		.code	16
 1338              		.thumb_func
ARM GAS  C:\Users\Alan\AppData\Local\Temp\cc47LVCU.s 			page 51


 1339              		.type	CySysTickStop, %function
 1340              	CySysTickStop:
 1341              	.LFB37:
1435:.\Generated_Source\PSoC4/CyLib.c **** 
1436:.\Generated_Source\PSoC4/CyLib.c **** 
1437:.\Generated_Source\PSoC4/CyLib.c **** /*******************************************************************************
1438:.\Generated_Source\PSoC4/CyLib.c **** * Function Name: CySysTick_Start
1439:.\Generated_Source\PSoC4/CyLib.c **** ********************************************************************************
1440:.\Generated_Source\PSoC4/CyLib.c **** *
1441:.\Generated_Source\PSoC4/CyLib.c **** * Summary:
1442:.\Generated_Source\PSoC4/CyLib.c **** *  Starts the system timer (SysTick): configures SysTick to generate interrupt
1443:.\Generated_Source\PSoC4/CyLib.c **** *  every 1 ms and enables the interrupt.
1444:.\Generated_Source\PSoC4/CyLib.c **** *
1445:.\Generated_Source\PSoC4/CyLib.c **** * Parameters:
1446:.\Generated_Source\PSoC4/CyLib.c **** *  None
1447:.\Generated_Source\PSoC4/CyLib.c **** *
1448:.\Generated_Source\PSoC4/CyLib.c **** * Return:
1449:.\Generated_Source\PSoC4/CyLib.c **** *  None
1450:.\Generated_Source\PSoC4/CyLib.c **** *
1451:.\Generated_Source\PSoC4/CyLib.c **** * Side Effects:
1452:.\Generated_Source\PSoC4/CyLib.c **** *  Clears SysTick count flag if it was set.
1453:.\Generated_Source\PSoC4/CyLib.c **** *
1454:.\Generated_Source\PSoC4/CyLib.c **** *******************************************************************************/
1455:.\Generated_Source\PSoC4/CyLib.c **** void CySysTickStart(void)
1456:.\Generated_Source\PSoC4/CyLib.c **** {
1457:.\Generated_Source\PSoC4/CyLib.c ****     if (0u == CySysTickInitVar)
1458:.\Generated_Source\PSoC4/CyLib.c ****     {
1459:.\Generated_Source\PSoC4/CyLib.c ****         CySysTickInit();
1460:.\Generated_Source\PSoC4/CyLib.c ****         CySysTickInitVar = 1u;
1461:.\Generated_Source\PSoC4/CyLib.c ****     }
1462:.\Generated_Source\PSoC4/CyLib.c **** 
1463:.\Generated_Source\PSoC4/CyLib.c ****     CySysTickEnable();
1464:.\Generated_Source\PSoC4/CyLib.c **** }
1465:.\Generated_Source\PSoC4/CyLib.c **** 
1466:.\Generated_Source\PSoC4/CyLib.c **** 
1467:.\Generated_Source\PSoC4/CyLib.c **** /*******************************************************************************
1468:.\Generated_Source\PSoC4/CyLib.c **** * Function Name: CySysTickInit
1469:.\Generated_Source\PSoC4/CyLib.c **** ********************************************************************************
1470:.\Generated_Source\PSoC4/CyLib.c **** *
1471:.\Generated_Source\PSoC4/CyLib.c **** * Summary:
1472:.\Generated_Source\PSoC4/CyLib.c **** *  Sets CySysTickServiceCallbacks() as an ISR for the SysTick exception.
1473:.\Generated_Source\PSoC4/CyLib.c **** *  The clock source for the SysTick counter is set to the System Clock.
1474:.\Generated_Source\PSoC4/CyLib.c **** *  The SysTick reload value is configured for the timer to generate interrupt
1475:.\Generated_Source\PSoC4/CyLib.c **** *  every 1 ms. The System clock value is on the global variables cydelayFreqHz.
1476:.\Generated_Source\PSoC4/CyLib.c **** *  User is responsible for calling CyDelayFreq() function.
1477:.\Generated_Source\PSoC4/CyLib.c **** *  Initializes CySysTickCallbacks array.
1478:.\Generated_Source\PSoC4/CyLib.c **** *
1479:.\Generated_Source\PSoC4/CyLib.c **** * Parameters:
1480:.\Generated_Source\PSoC4/CyLib.c **** *  None
1481:.\Generated_Source\PSoC4/CyLib.c **** *
1482:.\Generated_Source\PSoC4/CyLib.c **** * Return:
1483:.\Generated_Source\PSoC4/CyLib.c **** *  None
1484:.\Generated_Source\PSoC4/CyLib.c **** *
1485:.\Generated_Source\PSoC4/CyLib.c **** * Side Effects:
1486:.\Generated_Source\PSoC4/CyLib.c **** *  Clears SysTick count flag if it was set
1487:.\Generated_Source\PSoC4/CyLib.c **** *
1488:.\Generated_Source\PSoC4/CyLib.c **** *******************************************************************************/
ARM GAS  C:\Users\Alan\AppData\Local\Temp\cc47LVCU.s 			page 52


1489:.\Generated_Source\PSoC4/CyLib.c **** void CySysTickInit(void)
1490:.\Generated_Source\PSoC4/CyLib.c **** {
1491:.\Generated_Source\PSoC4/CyLib.c ****     uint32 i;
1492:.\Generated_Source\PSoC4/CyLib.c **** 
1493:.\Generated_Source\PSoC4/CyLib.c ****     for (i = 0u; i<CY_SYS_SYST_NUM_OF_CALLBACKS; i++)
1494:.\Generated_Source\PSoC4/CyLib.c ****     {
1495:.\Generated_Source\PSoC4/CyLib.c ****         CySysTickCallbacks[i] = (void *) 0;
1496:.\Generated_Source\PSoC4/CyLib.c ****     }
1497:.\Generated_Source\PSoC4/CyLib.c **** 
1498:.\Generated_Source\PSoC4/CyLib.c ****     (void) CyIntSetSysVector(CY_INT_SYSTICK_IRQN, &CySysTickServiceCallbacks);
1499:.\Generated_Source\PSoC4/CyLib.c **** 
1500:.\Generated_Source\PSoC4/CyLib.c ****     #if(!CY_PSOC3 && !CY_PSOC4_4000 && !CY_PSOC4_4100 && !CY_PSOC4_4200)
1501:.\Generated_Source\PSoC4/CyLib.c ****         CySysTickSetClockSource(CY_SYS_SYST_CSR_CLK_SRC_SYSCLK);
1502:.\Generated_Source\PSoC4/CyLib.c ****     #endif /* (!CY_PSOC3 && !CY_PSOC4_4000 && !CY_PSOC4_4100 && !CY_PSOC4_4200) */
1503:.\Generated_Source\PSoC4/CyLib.c **** 
1504:.\Generated_Source\PSoC4/CyLib.c ****     CySysTickSetReload(cydelayFreqHz/1000u);
1505:.\Generated_Source\PSoC4/CyLib.c ****     CySysTickClear();
1506:.\Generated_Source\PSoC4/CyLib.c ****     CyIntEnable(CY_INT_SYSTICK_IRQN);
1507:.\Generated_Source\PSoC4/CyLib.c **** }
1508:.\Generated_Source\PSoC4/CyLib.c **** 
1509:.\Generated_Source\PSoC4/CyLib.c **** 
1510:.\Generated_Source\PSoC4/CyLib.c **** /*******************************************************************************
1511:.\Generated_Source\PSoC4/CyLib.c **** * Function Name: CySysTickEnable
1512:.\Generated_Source\PSoC4/CyLib.c **** ********************************************************************************
1513:.\Generated_Source\PSoC4/CyLib.c **** *
1514:.\Generated_Source\PSoC4/CyLib.c **** * Summary:
1515:.\Generated_Source\PSoC4/CyLib.c **** *  Enables the SysTick timer and its interrupt.
1516:.\Generated_Source\PSoC4/CyLib.c **** *
1517:.\Generated_Source\PSoC4/CyLib.c **** * Parameters:
1518:.\Generated_Source\PSoC4/CyLib.c **** *  None
1519:.\Generated_Source\PSoC4/CyLib.c **** *
1520:.\Generated_Source\PSoC4/CyLib.c **** * Return:
1521:.\Generated_Source\PSoC4/CyLib.c **** *  None
1522:.\Generated_Source\PSoC4/CyLib.c **** *
1523:.\Generated_Source\PSoC4/CyLib.c **** * Side Effects:
1524:.\Generated_Source\PSoC4/CyLib.c **** *  Clears SysTick count flag if it was set
1525:.\Generated_Source\PSoC4/CyLib.c **** *
1526:.\Generated_Source\PSoC4/CyLib.c **** *******************************************************************************/
1527:.\Generated_Source\PSoC4/CyLib.c **** void CySysTickEnable(void)
1528:.\Generated_Source\PSoC4/CyLib.c **** {
1529:.\Generated_Source\PSoC4/CyLib.c ****     CySysTickEnableInterrupt();
1530:.\Generated_Source\PSoC4/CyLib.c ****     CY_SYS_SYST_CSR_REG |= CY_SYS_SYST_CSR_ENABLE;
1531:.\Generated_Source\PSoC4/CyLib.c **** }
1532:.\Generated_Source\PSoC4/CyLib.c **** 
1533:.\Generated_Source\PSoC4/CyLib.c **** 
1534:.\Generated_Source\PSoC4/CyLib.c **** /*******************************************************************************
1535:.\Generated_Source\PSoC4/CyLib.c **** * Function Name: CySysTickStop
1536:.\Generated_Source\PSoC4/CyLib.c **** ********************************************************************************
1537:.\Generated_Source\PSoC4/CyLib.c **** *
1538:.\Generated_Source\PSoC4/CyLib.c **** * Summary:
1539:.\Generated_Source\PSoC4/CyLib.c **** *  Stops the system timer (SysTick).
1540:.\Generated_Source\PSoC4/CyLib.c **** *
1541:.\Generated_Source\PSoC4/CyLib.c **** * Parameters:
1542:.\Generated_Source\PSoC4/CyLib.c **** *  None
1543:.\Generated_Source\PSoC4/CyLib.c **** *
1544:.\Generated_Source\PSoC4/CyLib.c **** * Return:
1545:.\Generated_Source\PSoC4/CyLib.c **** *  None
ARM GAS  C:\Users\Alan\AppData\Local\Temp\cc47LVCU.s 			page 53


1546:.\Generated_Source\PSoC4/CyLib.c **** *
1547:.\Generated_Source\PSoC4/CyLib.c **** * Side Effects:
1548:.\Generated_Source\PSoC4/CyLib.c **** *  Clears SysTick count flag if it was set
1549:.\Generated_Source\PSoC4/CyLib.c **** *
1550:.\Generated_Source\PSoC4/CyLib.c **** *******************************************************************************/
1551:.\Generated_Source\PSoC4/CyLib.c **** void CySysTickStop(void)
1552:.\Generated_Source\PSoC4/CyLib.c **** {
 1342              		.loc 1 1552 0
 1343              		.cfi_startproc
1553:.\Generated_Source\PSoC4/CyLib.c ****     CY_SYS_SYST_CSR_REG &= ((uint32) ~(CY_SYS_SYST_CSR_ENABLE));
 1344              		.loc 1 1553 0
 1345 0000 024A     		ldr	r2, .L109
 1346 0002 1368     		ldr	r3, [r2]
 1347 0004 0121     		mov	r1, #1
 1348 0006 8B43     		bic	r3, r1
 1349 0008 1360     		str	r3, [r2]
1554:.\Generated_Source\PSoC4/CyLib.c **** }
 1350              		.loc 1 1554 0
 1351              		@ sp needed
 1352 000a 7047     		bx	lr
 1353              	.L110:
 1354              		.align	2
 1355              	.L109:
 1356 000c 10E000E0 		.word	-536813552
 1357              		.cfi_endproc
 1358              	.LFE37:
 1359              		.size	CySysTickStop, .-CySysTickStop
 1360              		.section	.text.CySysTickEnableInterrupt,"ax",%progbits
 1361              		.align	2
 1362              		.global	CySysTickEnableInterrupt
 1363              		.code	16
 1364              		.thumb_func
 1365              		.type	CySysTickEnableInterrupt, %function
 1366              	CySysTickEnableInterrupt:
 1367              	.LFB38:
1555:.\Generated_Source\PSoC4/CyLib.c **** 
1556:.\Generated_Source\PSoC4/CyLib.c **** 
1557:.\Generated_Source\PSoC4/CyLib.c **** /*******************************************************************************
1558:.\Generated_Source\PSoC4/CyLib.c **** * Function Name: CySysTickEnableInterrupt
1559:.\Generated_Source\PSoC4/CyLib.c **** ********************************************************************************
1560:.\Generated_Source\PSoC4/CyLib.c **** *
1561:.\Generated_Source\PSoC4/CyLib.c **** * Summary:
1562:.\Generated_Source\PSoC4/CyLib.c **** *  Enables the SysTick interrupt.
1563:.\Generated_Source\PSoC4/CyLib.c **** *
1564:.\Generated_Source\PSoC4/CyLib.c **** * Parameters:
1565:.\Generated_Source\PSoC4/CyLib.c **** *  None
1566:.\Generated_Source\PSoC4/CyLib.c **** *
1567:.\Generated_Source\PSoC4/CyLib.c **** * Return:
1568:.\Generated_Source\PSoC4/CyLib.c **** *  None
1569:.\Generated_Source\PSoC4/CyLib.c **** *
1570:.\Generated_Source\PSoC4/CyLib.c **** * Side Effects:
1571:.\Generated_Source\PSoC4/CyLib.c **** *  Clears SysTick count flag if it was set
1572:.\Generated_Source\PSoC4/CyLib.c **** *
1573:.\Generated_Source\PSoC4/CyLib.c **** *******************************************************************************/
1574:.\Generated_Source\PSoC4/CyLib.c **** void CySysTickEnableInterrupt(void)
1575:.\Generated_Source\PSoC4/CyLib.c **** {
 1368              		.loc 1 1575 0
ARM GAS  C:\Users\Alan\AppData\Local\Temp\cc47LVCU.s 			page 54


 1369              		.cfi_startproc
1576:.\Generated_Source\PSoC4/CyLib.c ****     CY_SYS_SYST_CSR_REG |= CY_SYS_SYST_CSR_ENABLE_INT;
 1370              		.loc 1 1576 0
 1371 0000 024A     		ldr	r2, .L112
 1372 0002 1168     		ldr	r1, [r2]
 1373 0004 0223     		mov	r3, #2
 1374 0006 0B43     		orr	r3, r1
 1375 0008 1360     		str	r3, [r2]
1577:.\Generated_Source\PSoC4/CyLib.c **** }
 1376              		.loc 1 1577 0
 1377              		@ sp needed
 1378 000a 7047     		bx	lr
 1379              	.L113:
 1380              		.align	2
 1381              	.L112:
 1382 000c 10E000E0 		.word	-536813552
 1383              		.cfi_endproc
 1384              	.LFE38:
 1385              		.size	CySysTickEnableInterrupt, .-CySysTickEnableInterrupt
 1386              		.section	.text.CySysTickEnable,"ax",%progbits
 1387              		.align	2
 1388              		.global	CySysTickEnable
 1389              		.code	16
 1390              		.thumb_func
 1391              		.type	CySysTickEnable, %function
 1392              	CySysTickEnable:
 1393              	.LFB36:
1528:.\Generated_Source\PSoC4/CyLib.c ****     CySysTickEnableInterrupt();
 1394              		.loc 1 1528 0
 1395              		.cfi_startproc
 1396 0000 08B5     		push	{r3, lr}
 1397              		.cfi_def_cfa_offset 8
 1398              		.cfi_offset 3, -8
 1399              		.cfi_offset 14, -4
1529:.\Generated_Source\PSoC4/CyLib.c ****     CY_SYS_SYST_CSR_REG |= CY_SYS_SYST_CSR_ENABLE;
 1400              		.loc 1 1529 0
 1401 0002 FFF7FEFF 		bl	CySysTickEnableInterrupt
 1402              	.LVL100:
1530:.\Generated_Source\PSoC4/CyLib.c **** }
 1403              		.loc 1 1530 0
 1404 0006 034A     		ldr	r2, .L115
 1405 0008 1168     		ldr	r1, [r2]
 1406 000a 0123     		mov	r3, #1
 1407 000c 0B43     		orr	r3, r1
 1408 000e 1360     		str	r3, [r2]
1531:.\Generated_Source\PSoC4/CyLib.c **** 
 1409              		.loc 1 1531 0
 1410              		@ sp needed
 1411 0010 08BD     		pop	{r3, pc}
 1412              	.L116:
 1413 0012 C046     		.align	2
 1414              	.L115:
 1415 0014 10E000E0 		.word	-536813552
 1416              		.cfi_endproc
 1417              	.LFE36:
 1418              		.size	CySysTickEnable, .-CySysTickEnable
 1419              		.section	.text.CySysTickDisableInterrupt,"ax",%progbits
ARM GAS  C:\Users\Alan\AppData\Local\Temp\cc47LVCU.s 			page 55


 1420              		.align	2
 1421              		.global	CySysTickDisableInterrupt
 1422              		.code	16
 1423              		.thumb_func
 1424              		.type	CySysTickDisableInterrupt, %function
 1425              	CySysTickDisableInterrupt:
 1426              	.LFB39:
1578:.\Generated_Source\PSoC4/CyLib.c **** 
1579:.\Generated_Source\PSoC4/CyLib.c **** 
1580:.\Generated_Source\PSoC4/CyLib.c **** /*******************************************************************************
1581:.\Generated_Source\PSoC4/CyLib.c **** * Function Name: CySysTickDisableInterrupt
1582:.\Generated_Source\PSoC4/CyLib.c **** ********************************************************************************
1583:.\Generated_Source\PSoC4/CyLib.c **** *
1584:.\Generated_Source\PSoC4/CyLib.c **** * Summary:
1585:.\Generated_Source\PSoC4/CyLib.c **** *  Disables the SysTick interrupt.
1586:.\Generated_Source\PSoC4/CyLib.c **** *
1587:.\Generated_Source\PSoC4/CyLib.c **** * Parameters:
1588:.\Generated_Source\PSoC4/CyLib.c **** *  None
1589:.\Generated_Source\PSoC4/CyLib.c **** *
1590:.\Generated_Source\PSoC4/CyLib.c **** * Return:
1591:.\Generated_Source\PSoC4/CyLib.c **** *  None
1592:.\Generated_Source\PSoC4/CyLib.c **** *
1593:.\Generated_Source\PSoC4/CyLib.c **** * Side Effects:
1594:.\Generated_Source\PSoC4/CyLib.c **** *  Clears SysTick count flag if it was set
1595:.\Generated_Source\PSoC4/CyLib.c **** *
1596:.\Generated_Source\PSoC4/CyLib.c **** *******************************************************************************/
1597:.\Generated_Source\PSoC4/CyLib.c **** void CySysTickDisableInterrupt(void)
1598:.\Generated_Source\PSoC4/CyLib.c **** {
 1427              		.loc 1 1598 0
 1428              		.cfi_startproc
1599:.\Generated_Source\PSoC4/CyLib.c ****     CY_SYS_SYST_CSR_REG &= ((uint32) ~(CY_SYS_SYST_CSR_ENABLE_INT));
 1429              		.loc 1 1599 0
 1430 0000 024A     		ldr	r2, .L118
 1431 0002 1368     		ldr	r3, [r2]
 1432 0004 0221     		mov	r1, #2
 1433 0006 8B43     		bic	r3, r1
 1434 0008 1360     		str	r3, [r2]
1600:.\Generated_Source\PSoC4/CyLib.c **** }
 1435              		.loc 1 1600 0
 1436              		@ sp needed
 1437 000a 7047     		bx	lr
 1438              	.L119:
 1439              		.align	2
 1440              	.L118:
 1441 000c 10E000E0 		.word	-536813552
 1442              		.cfi_endproc
 1443              	.LFE39:
 1444              		.size	CySysTickDisableInterrupt, .-CySysTickDisableInterrupt
 1445              		.section	.text.CySysTickSetReload,"ax",%progbits
 1446              		.align	2
 1447              		.global	CySysTickSetReload
 1448              		.code	16
 1449              		.thumb_func
 1450              		.type	CySysTickSetReload, %function
 1451              	CySysTickSetReload:
 1452              	.LFB40:
1601:.\Generated_Source\PSoC4/CyLib.c **** 
ARM GAS  C:\Users\Alan\AppData\Local\Temp\cc47LVCU.s 			page 56


1602:.\Generated_Source\PSoC4/CyLib.c **** 
1603:.\Generated_Source\PSoC4/CyLib.c **** /*******************************************************************************
1604:.\Generated_Source\PSoC4/CyLib.c **** * Function Name: CySysTickSetReload
1605:.\Generated_Source\PSoC4/CyLib.c **** ********************************************************************************
1606:.\Generated_Source\PSoC4/CyLib.c **** *
1607:.\Generated_Source\PSoC4/CyLib.c **** * Summary:
1608:.\Generated_Source\PSoC4/CyLib.c **** *  Sets value the counter is set to on startup and after it reaches zero. This
1609:.\Generated_Source\PSoC4/CyLib.c **** *  function do not change or reset current sysTick counter value, so it should
1610:.\Generated_Source\PSoC4/CyLib.c **** *  be cleared using CySysTickClear() API.
1611:.\Generated_Source\PSoC4/CyLib.c **** *
1612:.\Generated_Source\PSoC4/CyLib.c **** * Parameters:
1613:.\Generated_Source\PSoC4/CyLib.c **** *  value: Valid range [0x0-0x00FFFFFF]. Counter reset value
1614:.\Generated_Source\PSoC4/CyLib.c **** *
1615:.\Generated_Source\PSoC4/CyLib.c **** * Return:
1616:.\Generated_Source\PSoC4/CyLib.c **** *  None
1617:.\Generated_Source\PSoC4/CyLib.c **** *
1618:.\Generated_Source\PSoC4/CyLib.c **** *******************************************************************************/
1619:.\Generated_Source\PSoC4/CyLib.c **** void CySysTickSetReload(uint32 value)
1620:.\Generated_Source\PSoC4/CyLib.c **** {
 1453              		.loc 1 1620 0
 1454              		.cfi_startproc
 1455              	.LVL101:
1621:.\Generated_Source\PSoC4/CyLib.c ****     CY_SYS_SYST_RVR_REG = (value & CY_SYS_SYST_RVR_CNT_MASK);
 1456              		.loc 1 1621 0
 1457 0000 0002     		lsl	r0, r0, #8
 1458              	.LVL102:
 1459 0002 000A     		lsr	r0, r0, #8
 1460 0004 014B     		ldr	r3, .L121
 1461 0006 1860     		str	r0, [r3]
1622:.\Generated_Source\PSoC4/CyLib.c **** }
 1462              		.loc 1 1622 0
 1463              		@ sp needed
 1464 0008 7047     		bx	lr
 1465              	.L122:
 1466 000a C046     		.align	2
 1467              	.L121:
 1468 000c 14E000E0 		.word	-536813548
 1469              		.cfi_endproc
 1470              	.LFE40:
 1471              		.size	CySysTickSetReload, .-CySysTickSetReload
 1472              		.section	.text.CySysTickGetReload,"ax",%progbits
 1473              		.align	2
 1474              		.global	CySysTickGetReload
 1475              		.code	16
 1476              		.thumb_func
 1477              		.type	CySysTickGetReload, %function
 1478              	CySysTickGetReload:
 1479              	.LFB41:
1623:.\Generated_Source\PSoC4/CyLib.c **** 
1624:.\Generated_Source\PSoC4/CyLib.c **** 
1625:.\Generated_Source\PSoC4/CyLib.c **** /*******************************************************************************
1626:.\Generated_Source\PSoC4/CyLib.c **** * Function Name: CySysTickGetReload
1627:.\Generated_Source\PSoC4/CyLib.c **** ********************************************************************************
1628:.\Generated_Source\PSoC4/CyLib.c **** *
1629:.\Generated_Source\PSoC4/CyLib.c **** * Summary:
1630:.\Generated_Source\PSoC4/CyLib.c **** *  Sets value the counter is set to on startup and after it reaches zero.
1631:.\Generated_Source\PSoC4/CyLib.c **** *
ARM GAS  C:\Users\Alan\AppData\Local\Temp\cc47LVCU.s 			page 57


1632:.\Generated_Source\PSoC4/CyLib.c **** * Parameters:
1633:.\Generated_Source\PSoC4/CyLib.c **** *  None
1634:.\Generated_Source\PSoC4/CyLib.c **** *
1635:.\Generated_Source\PSoC4/CyLib.c **** * Return:
1636:.\Generated_Source\PSoC4/CyLib.c **** *  Counter reset value.
1637:.\Generated_Source\PSoC4/CyLib.c **** *
1638:.\Generated_Source\PSoC4/CyLib.c **** *******************************************************************************/
1639:.\Generated_Source\PSoC4/CyLib.c **** uint32 CySysTickGetReload(void)
1640:.\Generated_Source\PSoC4/CyLib.c **** {
 1480              		.loc 1 1640 0
 1481              		.cfi_startproc
1641:.\Generated_Source\PSoC4/CyLib.c ****     return(CY_SYS_SYST_RVR_REG & CY_SYS_SYST_RVR_CNT_MASK);
 1482              		.loc 1 1641 0
 1483 0000 024B     		ldr	r3, .L124
 1484 0002 1868     		ldr	r0, [r3]
 1485 0004 0002     		lsl	r0, r0, #8
 1486 0006 000A     		lsr	r0, r0, #8
1642:.\Generated_Source\PSoC4/CyLib.c **** }
 1487              		.loc 1 1642 0
 1488              		@ sp needed
 1489 0008 7047     		bx	lr
 1490              	.L125:
 1491 000a C046     		.align	2
 1492              	.L124:
 1493 000c 14E000E0 		.word	-536813548
 1494              		.cfi_endproc
 1495              	.LFE41:
 1496              		.size	CySysTickGetReload, .-CySysTickGetReload
 1497              		.section	.text.CySysTickGetValue,"ax",%progbits
 1498              		.align	2
 1499              		.global	CySysTickGetValue
 1500              		.code	16
 1501              		.thumb_func
 1502              		.type	CySysTickGetValue, %function
 1503              	CySysTickGetValue:
 1504              	.LFB42:
1643:.\Generated_Source\PSoC4/CyLib.c **** 
1644:.\Generated_Source\PSoC4/CyLib.c **** 
1645:.\Generated_Source\PSoC4/CyLib.c **** /*******************************************************************************
1646:.\Generated_Source\PSoC4/CyLib.c **** * Function Name: CySysTickGetValue
1647:.\Generated_Source\PSoC4/CyLib.c **** ********************************************************************************
1648:.\Generated_Source\PSoC4/CyLib.c **** *
1649:.\Generated_Source\PSoC4/CyLib.c **** * Summary:
1650:.\Generated_Source\PSoC4/CyLib.c **** *  Gets current SysTick counter value.
1651:.\Generated_Source\PSoC4/CyLib.c **** *
1652:.\Generated_Source\PSoC4/CyLib.c **** * Parameters:
1653:.\Generated_Source\PSoC4/CyLib.c **** *  None
1654:.\Generated_Source\PSoC4/CyLib.c **** *
1655:.\Generated_Source\PSoC4/CyLib.c **** * Return:
1656:.\Generated_Source\PSoC4/CyLib.c **** *  Current SysTick counter value
1657:.\Generated_Source\PSoC4/CyLib.c **** *
1658:.\Generated_Source\PSoC4/CyLib.c **** *******************************************************************************/
1659:.\Generated_Source\PSoC4/CyLib.c **** uint32 CySysTickGetValue(void)
1660:.\Generated_Source\PSoC4/CyLib.c **** {
 1505              		.loc 1 1660 0
 1506              		.cfi_startproc
1661:.\Generated_Source\PSoC4/CyLib.c ****     return(CY_SYS_SYST_CVR_REG & CY_SYS_SYST_CVR_CNT_MASK);
ARM GAS  C:\Users\Alan\AppData\Local\Temp\cc47LVCU.s 			page 58


 1507              		.loc 1 1661 0
 1508 0000 024B     		ldr	r3, .L127
 1509 0002 1868     		ldr	r0, [r3]
 1510 0004 0002     		lsl	r0, r0, #8
 1511 0006 000A     		lsr	r0, r0, #8
1662:.\Generated_Source\PSoC4/CyLib.c **** }
 1512              		.loc 1 1662 0
 1513              		@ sp needed
 1514 0008 7047     		bx	lr
 1515              	.L128:
 1516 000a C046     		.align	2
 1517              	.L127:
 1518 000c 18E000E0 		.word	-536813544
 1519              		.cfi_endproc
 1520              	.LFE42:
 1521              		.size	CySysTickGetValue, .-CySysTickGetValue
 1522              		.section	.text.CySysTickSetClockSource,"ax",%progbits
 1523              		.align	2
 1524              		.global	CySysTickSetClockSource
 1525              		.code	16
 1526              		.thumb_func
 1527              		.type	CySysTickSetClockSource, %function
 1528              	CySysTickSetClockSource:
 1529              	.LFB43:
1663:.\Generated_Source\PSoC4/CyLib.c **** 
1664:.\Generated_Source\PSoC4/CyLib.c **** 
1665:.\Generated_Source\PSoC4/CyLib.c **** #if(!CY_PSOC3 && !CY_PSOC4_4000 && !CY_PSOC4_4100 && !CY_PSOC4_4200)
1666:.\Generated_Source\PSoC4/CyLib.c ****     /*******************************************************************************
1667:.\Generated_Source\PSoC4/CyLib.c ****     * Function Name: CySysTickSetClockSource
1668:.\Generated_Source\PSoC4/CyLib.c ****     ********************************************************************************
1669:.\Generated_Source\PSoC4/CyLib.c ****     *
1670:.\Generated_Source\PSoC4/CyLib.c ****     * Summary:
1671:.\Generated_Source\PSoC4/CyLib.c ****     *  Sets the clock source for the SysTick counter.
1672:.\Generated_Source\PSoC4/CyLib.c ****     *
1673:.\Generated_Source\PSoC4/CyLib.c ****     * Parameters:
1674:.\Generated_Source\PSoC4/CyLib.c ****     *  clockSource: Clock source for SysTick counter
1675:.\Generated_Source\PSoC4/CyLib.c ****     *         Define                     Clock Source
1676:.\Generated_Source\PSoC4/CyLib.c ****     *   CY_SYS_SYST_CSR_CLK_SRC_SYSCLK     SysTick is clocked by CPU clock.
1677:.\Generated_Source\PSoC4/CyLib.c ****     *   CY_SYS_SYST_CSR_CLK_SRC_LFCLK      SysTick is clocked by the low frequency
1678:.\Generated_Source\PSoC4/CyLib.c ****     *                                      clock. (ILO 100 KHz for PSoC 5LP, and
1679:.\Generated_Source\PSoC4/CyLib.c ****     *                                      LFCLK for PSoC 4).
1680:.\Generated_Source\PSoC4/CyLib.c ****     *
1681:.\Generated_Source\PSoC4/CyLib.c ****     * Return:
1682:.\Generated_Source\PSoC4/CyLib.c ****     *  None
1683:.\Generated_Source\PSoC4/CyLib.c ****     *
1684:.\Generated_Source\PSoC4/CyLib.c ****     * Side Effects:
1685:.\Generated_Source\PSoC4/CyLib.c ****     *  Clears SysTick count flag if it was set. If clock source is not ready this
1686:.\Generated_Source\PSoC4/CyLib.c ****     *  function call will have no effect. After changing clock source to the low
1687:.\Generated_Source\PSoC4/CyLib.c ****     *  frequency clock the counter and reload register values will remain unchanged
1688:.\Generated_Source\PSoC4/CyLib.c ****     *  so time to the interrupt will be significantly bigger and vice versa.
1689:.\Generated_Source\PSoC4/CyLib.c ****     *
1690:.\Generated_Source\PSoC4/CyLib.c ****     *******************************************************************************/
1691:.\Generated_Source\PSoC4/CyLib.c ****     void CySysTickSetClockSource(uint32 clockSource)
1692:.\Generated_Source\PSoC4/CyLib.c ****     {
 1530              		.loc 1 1692 0
 1531              		.cfi_startproc
 1532              	.LVL103:
ARM GAS  C:\Users\Alan\AppData\Local\Temp\cc47LVCU.s 			page 59


1693:.\Generated_Source\PSoC4/CyLib.c ****         if (clockSource == CY_SYS_SYST_CSR_CLK_SRC_SYSCLK)
 1533              		.loc 1 1693 0
 1534 0000 0128     		cmp	r0, #1
 1535 0002 05D1     		bne	.L130
1694:.\Generated_Source\PSoC4/CyLib.c ****         {
1695:.\Generated_Source\PSoC4/CyLib.c ****             CY_SYS_SYST_CSR_REG |= (uint32)(CY_SYS_SYST_CSR_CLK_SRC_SYSCLK << CY_SYS_SYST_CSR_CLK_S
 1536              		.loc 1 1695 0
 1537 0004 054A     		ldr	r2, .L132
 1538 0006 1168     		ldr	r1, [r2]
 1539 0008 0423     		mov	r3, #4
 1540 000a 0B43     		orr	r3, r1
 1541 000c 1360     		str	r3, [r2]
 1542 000e 04E0     		b	.L129
 1543              	.L130:
1696:.\Generated_Source\PSoC4/CyLib.c ****         }
1697:.\Generated_Source\PSoC4/CyLib.c ****         else
1698:.\Generated_Source\PSoC4/CyLib.c ****         {
1699:.\Generated_Source\PSoC4/CyLib.c ****             CY_SYS_SYST_CSR_REG &= ((uint32) ~((uint32)(CY_SYS_SYST_CSR_CLK_SRC_SYSCLK << CY_SYS_SY
 1544              		.loc 1 1699 0
 1545 0010 024A     		ldr	r2, .L132
 1546 0012 1368     		ldr	r3, [r2]
 1547 0014 0421     		mov	r1, #4
 1548 0016 8B43     		bic	r3, r1
 1549 0018 1360     		str	r3, [r2]
 1550              	.L129:
1700:.\Generated_Source\PSoC4/CyLib.c ****         }
1701:.\Generated_Source\PSoC4/CyLib.c ****     }
 1551              		.loc 1 1701 0
 1552              		@ sp needed
 1553 001a 7047     		bx	lr
 1554              	.L133:
 1555              		.align	2
 1556              	.L132:
 1557 001c 10E000E0 		.word	-536813552
 1558              		.cfi_endproc
 1559              	.LFE43:
 1560              		.size	CySysTickSetClockSource, .-CySysTickSetClockSource
 1561              		.section	.text.CySysTickGetCountFlag,"ax",%progbits
 1562              		.align	2
 1563              		.global	CySysTickGetCountFlag
 1564              		.code	16
 1565              		.thumb_func
 1566              		.type	CySysTickGetCountFlag, %function
 1567              	CySysTickGetCountFlag:
 1568              	.LFB44:
1702:.\Generated_Source\PSoC4/CyLib.c **** #endif /* (!CY_PSOC3 && !CY_PSOC4_4000 && !CY_PSOC4_4100 && !CY_PSOC4_4200) */
1703:.\Generated_Source\PSoC4/CyLib.c **** 
1704:.\Generated_Source\PSoC4/CyLib.c **** 
1705:.\Generated_Source\PSoC4/CyLib.c **** /*******************************************************************************
1706:.\Generated_Source\PSoC4/CyLib.c **** * Function Name: CySysTickGetCountFlag
1707:.\Generated_Source\PSoC4/CyLib.c **** ********************************************************************************
1708:.\Generated_Source\PSoC4/CyLib.c **** *
1709:.\Generated_Source\PSoC4/CyLib.c **** * Summary:
1710:.\Generated_Source\PSoC4/CyLib.c **** *  The count flag is set once SysTick counter reaches zero.
1711:.\Generated_Source\PSoC4/CyLib.c **** *   The flag cleared on read.
1712:.\Generated_Source\PSoC4/CyLib.c **** *
1713:.\Generated_Source\PSoC4/CyLib.c **** * Parameters:
ARM GAS  C:\Users\Alan\AppData\Local\Temp\cc47LVCU.s 			page 60


1714:.\Generated_Source\PSoC4/CyLib.c **** *  None
1715:.\Generated_Source\PSoC4/CyLib.c **** *
1716:.\Generated_Source\PSoC4/CyLib.c **** * Return:
1717:.\Generated_Source\PSoC4/CyLib.c ****     *  Returns non-zero value if flag is set, otherwise zero is returned.
1718:.\Generated_Source\PSoC4/CyLib.c **** *
1719:.\Generated_Source\PSoC4/CyLib.c **** *
1720:.\Generated_Source\PSoC4/CyLib.c **** * Side Effects:
1721:.\Generated_Source\PSoC4/CyLib.c **** *  Clears SysTick count flag if it was set.
1722:.\Generated_Source\PSoC4/CyLib.c **** *
1723:.\Generated_Source\PSoC4/CyLib.c **** *******************************************************************************/
1724:.\Generated_Source\PSoC4/CyLib.c **** uint32 CySysTickGetCountFlag(void)
1725:.\Generated_Source\PSoC4/CyLib.c **** {
 1569              		.loc 1 1725 0
 1570              		.cfi_startproc
1726:.\Generated_Source\PSoC4/CyLib.c ****     return ((CY_SYS_SYST_CSR_REG>>CY_SYS_SYST_CSR_COUNTFLAG_SHIFT) & 0x01u);
 1571              		.loc 1 1726 0
 1572 0000 024B     		ldr	r3, .L135
 1573 0002 1868     		ldr	r0, [r3]
 1574 0004 C003     		lsl	r0, r0, #15
 1575 0006 C00F     		lsr	r0, r0, #31
1727:.\Generated_Source\PSoC4/CyLib.c **** }
 1576              		.loc 1 1727 0
 1577              		@ sp needed
 1578 0008 7047     		bx	lr
 1579              	.L136:
 1580 000a C046     		.align	2
 1581              	.L135:
 1582 000c 10E000E0 		.word	-536813552
 1583              		.cfi_endproc
 1584              	.LFE44:
 1585              		.size	CySysTickGetCountFlag, .-CySysTickGetCountFlag
 1586              		.section	.text.CySysTickServiceCallbacks,"ax",%progbits
 1587              		.align	2
 1588              		.code	16
 1589              		.thumb_func
 1590              		.type	CySysTickServiceCallbacks, %function
 1591              	CySysTickServiceCallbacks:
 1592              	.LFB48:
1728:.\Generated_Source\PSoC4/CyLib.c **** 
1729:.\Generated_Source\PSoC4/CyLib.c **** 
1730:.\Generated_Source\PSoC4/CyLib.c **** /*******************************************************************************
1731:.\Generated_Source\PSoC4/CyLib.c **** * Function Name: CySysTickClear
1732:.\Generated_Source\PSoC4/CyLib.c **** ********************************************************************************
1733:.\Generated_Source\PSoC4/CyLib.c **** *
1734:.\Generated_Source\PSoC4/CyLib.c **** * Summary:
1735:.\Generated_Source\PSoC4/CyLib.c **** *  Clears the SysTick counter for well-defined startup.
1736:.\Generated_Source\PSoC4/CyLib.c **** *
1737:.\Generated_Source\PSoC4/CyLib.c **** * Parameters:
1738:.\Generated_Source\PSoC4/CyLib.c **** *  None
1739:.\Generated_Source\PSoC4/CyLib.c **** *
1740:.\Generated_Source\PSoC4/CyLib.c **** * Return:
1741:.\Generated_Source\PSoC4/CyLib.c **** *  None
1742:.\Generated_Source\PSoC4/CyLib.c **** *
1743:.\Generated_Source\PSoC4/CyLib.c **** *******************************************************************************/
1744:.\Generated_Source\PSoC4/CyLib.c **** void CySysTickClear(void)
1745:.\Generated_Source\PSoC4/CyLib.c **** {
1746:.\Generated_Source\PSoC4/CyLib.c ****     CY_SYS_SYST_CVR_REG = 0u;
ARM GAS  C:\Users\Alan\AppData\Local\Temp\cc47LVCU.s 			page 61


1747:.\Generated_Source\PSoC4/CyLib.c **** }
1748:.\Generated_Source\PSoC4/CyLib.c **** 
1749:.\Generated_Source\PSoC4/CyLib.c **** 
1750:.\Generated_Source\PSoC4/CyLib.c **** /*******************************************************************************
1751:.\Generated_Source\PSoC4/CyLib.c **** * Function Name: CySysTickSetCallback
1752:.\Generated_Source\PSoC4/CyLib.c **** ********************************************************************************
1753:.\Generated_Source\PSoC4/CyLib.c **** *
1754:.\Generated_Source\PSoC4/CyLib.c **** * Summary:
1755:.\Generated_Source\PSoC4/CyLib.c **** *  This function allows up to five user-defined interrupt service routine
1756:.\Generated_Source\PSoC4/CyLib.c **** *  functions to be associated with the SysTick interrupt. These are specified
1757:.\Generated_Source\PSoC4/CyLib.c **** *  through the use of pointers to the function.
1758:.\Generated_Source\PSoC4/CyLib.c **** *
1759:.\Generated_Source\PSoC4/CyLib.c **** *  To set a custom callback function without the overhead of the system provided
1760:.\Generated_Source\PSoC4/CyLib.c **** *  one, use CyIntSetSysVector(CY_INT_SYSTICK_IRQN, cyisraddress <address>),
1761:.\Generated_Source\PSoC4/CyLib.c **** *  where <address> is address of the custom defined interrupt service routine.
1762:.\Generated_Source\PSoC4/CyLib.c **** *  Note: a custom callback function overrides the system defined callback
1763:.\Generated_Source\PSoC4/CyLib.c **** *  functions.
1764:.\Generated_Source\PSoC4/CyLib.c **** *
1765:.\Generated_Source\PSoC4/CyLib.c **** * Parameters:
1766:.\Generated_Source\PSoC4/CyLib.c **** *  number: The number of the callback function addresses to be set. The valid
1767:.\Generated_Source\PSoC4/CyLib.c **** *          range is from 0 to 4.
1768:.\Generated_Source\PSoC4/CyLib.c **** *
1769:.\Generated_Source\PSoC4/CyLib.c **** *  void(*CallbackFunction(void): A pointer to the function that will be
1770:.\Generated_Source\PSoC4/CyLib.c **** *                                associated with the SysTick ISR for the
1771:.\Generated_Source\PSoC4/CyLib.c **** *                                specified number.
1772:.\Generated_Source\PSoC4/CyLib.c **** *
1773:.\Generated_Source\PSoC4/CyLib.c **** * Return:
1774:.\Generated_Source\PSoC4/CyLib.c **** *  Returns the address of the previous callback function.
1775:.\Generated_Source\PSoC4/CyLib.c **** *  The NULL is returned if the specified address in not set.
1776:.\Generated_Source\PSoC4/CyLib.c **** *
1777:.\Generated_Source\PSoC4/CyLib.c **** * Side Effects:
1778:.\Generated_Source\PSoC4/CyLib.c **** *  The registered callback functions will be executed in the interrupt.
1779:.\Generated_Source\PSoC4/CyLib.c **** *
1780:.\Generated_Source\PSoC4/CyLib.c **** *******************************************************************************/
1781:.\Generated_Source\PSoC4/CyLib.c **** cySysTickCallback CySysTickSetCallback(uint32 number, cySysTickCallback function)
1782:.\Generated_Source\PSoC4/CyLib.c **** {
1783:.\Generated_Source\PSoC4/CyLib.c ****     cySysTickCallback retVal;
1784:.\Generated_Source\PSoC4/CyLib.c **** 
1785:.\Generated_Source\PSoC4/CyLib.c ****     retVal = CySysTickCallbacks[number];
1786:.\Generated_Source\PSoC4/CyLib.c ****     CySysTickCallbacks[number] = function;
1787:.\Generated_Source\PSoC4/CyLib.c ****     return (retVal);
1788:.\Generated_Source\PSoC4/CyLib.c **** }
1789:.\Generated_Source\PSoC4/CyLib.c **** 
1790:.\Generated_Source\PSoC4/CyLib.c **** 
1791:.\Generated_Source\PSoC4/CyLib.c **** /*******************************************************************************
1792:.\Generated_Source\PSoC4/CyLib.c **** * Function Name: CySysTickGetCallback
1793:.\Generated_Source\PSoC4/CyLib.c **** ********************************************************************************
1794:.\Generated_Source\PSoC4/CyLib.c **** *
1795:.\Generated_Source\PSoC4/CyLib.c **** * Summary:
1796:.\Generated_Source\PSoC4/CyLib.c **** *  The function get the specified callback pointer.
1797:.\Generated_Source\PSoC4/CyLib.c **** *
1798:.\Generated_Source\PSoC4/CyLib.c **** * Parameters:
1799:.\Generated_Source\PSoC4/CyLib.c **** *  number: The number of callback function address to get. The valid
1800:.\Generated_Source\PSoC4/CyLib.c **** *          range is from 0 to 4.
1801:.\Generated_Source\PSoC4/CyLib.c **** *
1802:.\Generated_Source\PSoC4/CyLib.c **** * Return:
1803:.\Generated_Source\PSoC4/CyLib.c **** *  Returns the address of the specified callback function.
ARM GAS  C:\Users\Alan\AppData\Local\Temp\cc47LVCU.s 			page 62


1804:.\Generated_Source\PSoC4/CyLib.c **** *  The NULL is returned if the specified address in not initialized.
1805:.\Generated_Source\PSoC4/CyLib.c **** *
1806:.\Generated_Source\PSoC4/CyLib.c **** *******************************************************************************/
1807:.\Generated_Source\PSoC4/CyLib.c **** cySysTickCallback CySysTickGetCallback(uint32 number)
1808:.\Generated_Source\PSoC4/CyLib.c **** {
1809:.\Generated_Source\PSoC4/CyLib.c ****     return ((cySysTickCallback) CySysTickCallbacks[number]);
1810:.\Generated_Source\PSoC4/CyLib.c **** }
1811:.\Generated_Source\PSoC4/CyLib.c **** 
1812:.\Generated_Source\PSoC4/CyLib.c **** 
1813:.\Generated_Source\PSoC4/CyLib.c **** /*******************************************************************************
1814:.\Generated_Source\PSoC4/CyLib.c **** * Function Name: CySysTickServiceCallbacks
1815:.\Generated_Source\PSoC4/CyLib.c **** ********************************************************************************
1816:.\Generated_Source\PSoC4/CyLib.c **** *
1817:.\Generated_Source\PSoC4/CyLib.c **** * Summary:
1818:.\Generated_Source\PSoC4/CyLib.c **** *  System Tick timer interrupt routine
1819:.\Generated_Source\PSoC4/CyLib.c **** *
1820:.\Generated_Source\PSoC4/CyLib.c **** * Parameters:
1821:.\Generated_Source\PSoC4/CyLib.c **** *  None
1822:.\Generated_Source\PSoC4/CyLib.c **** *
1823:.\Generated_Source\PSoC4/CyLib.c **** * Return:
1824:.\Generated_Source\PSoC4/CyLib.c **** *  None
1825:.\Generated_Source\PSoC4/CyLib.c **** *
1826:.\Generated_Source\PSoC4/CyLib.c **** *******************************************************************************/
1827:.\Generated_Source\PSoC4/CyLib.c **** static void CySysTickServiceCallbacks(void)
1828:.\Generated_Source\PSoC4/CyLib.c **** {
 1593              		.loc 1 1828 0
 1594              		.cfi_startproc
 1595 0000 10B5     		push	{r4, lr}
 1596              		.cfi_def_cfa_offset 8
 1597              		.cfi_offset 4, -8
 1598              		.cfi_offset 14, -4
1829:.\Generated_Source\PSoC4/CyLib.c ****     uint32 i;
1830:.\Generated_Source\PSoC4/CyLib.c **** 
1831:.\Generated_Source\PSoC4/CyLib.c ****     /* Verify that tick timer flag was set */
1832:.\Generated_Source\PSoC4/CyLib.c ****     if (1u == CySysTickGetCountFlag())
 1599              		.loc 1 1832 0
 1600 0002 FFF7FEFF 		bl	CySysTickGetCountFlag
 1601              	.LVL104:
 1602 0006 0128     		cmp	r0, #1
 1603 0008 0BD1     		bne	.L137
 1604 000a 07E0     		b	.L142
 1605              	.LVL105:
 1606              	.L141:
1833:.\Generated_Source\PSoC4/CyLib.c ****     {
1834:.\Generated_Source\PSoC4/CyLib.c ****         for (i=0u; i < CY_SYS_SYST_NUM_OF_CALLBACKS; i++)
1835:.\Generated_Source\PSoC4/CyLib.c ****         {
1836:.\Generated_Source\PSoC4/CyLib.c ****             if (CySysTickCallbacks[i] != (void *) 0)
 1607              		.loc 1 1836 0
 1608 000c A300     		lsl	r3, r4, #2
 1609 000e 054A     		ldr	r2, .L143
 1610 0010 9B58     		ldr	r3, [r3, r2]
 1611 0012 002B     		cmp	r3, #0
 1612 0014 00D0     		beq	.L140
1837:.\Generated_Source\PSoC4/CyLib.c ****             {
1838:.\Generated_Source\PSoC4/CyLib.c ****                 (void)(CySysTickCallbacks[i])();
 1613              		.loc 1 1838 0
 1614 0016 9847     		blx	r3
ARM GAS  C:\Users\Alan\AppData\Local\Temp\cc47LVCU.s 			page 63


 1615              	.LVL106:
 1616              	.L140:
1834:.\Generated_Source\PSoC4/CyLib.c ****         {
 1617              		.loc 1 1834 0 discriminator 2
 1618 0018 0134     		add	r4, r4, #1
 1619              	.LVL107:
 1620 001a 00E0     		b	.L138
 1621              	.LVL108:
 1622              	.L142:
 1623 001c 0024     		mov	r4, #0
 1624              	.L138:
 1625              	.LVL109:
1834:.\Generated_Source\PSoC4/CyLib.c ****         {
 1626              		.loc 1 1834 0 is_stmt 0 discriminator 1
 1627 001e 042C     		cmp	r4, #4
 1628 0020 F4D9     		bls	.L141
 1629              	.LVL110:
 1630              	.L137:
1839:.\Generated_Source\PSoC4/CyLib.c ****             }
1840:.\Generated_Source\PSoC4/CyLib.c ****         }
1841:.\Generated_Source\PSoC4/CyLib.c ****     }
1842:.\Generated_Source\PSoC4/CyLib.c **** }
 1631              		.loc 1 1842 0 is_stmt 1
 1632              		@ sp needed
 1633 0022 10BD     		pop	{r4, pc}
 1634              	.L144:
 1635              		.align	2
 1636              	.L143:
 1637 0024 00000000 		.word	.LANCHOR2
 1638              		.cfi_endproc
 1639              	.LFE48:
 1640              		.size	CySysTickServiceCallbacks, .-CySysTickServiceCallbacks
 1641              		.section	.text.CySysTickClear,"ax",%progbits
 1642              		.align	2
 1643              		.global	CySysTickClear
 1644              		.code	16
 1645              		.thumb_func
 1646              		.type	CySysTickClear, %function
 1647              	CySysTickClear:
 1648              	.LFB45:
1745:.\Generated_Source\PSoC4/CyLib.c ****     CY_SYS_SYST_CVR_REG = 0u;
 1649              		.loc 1 1745 0
 1650              		.cfi_startproc
1746:.\Generated_Source\PSoC4/CyLib.c **** }
 1651              		.loc 1 1746 0
 1652 0000 0022     		mov	r2, #0
 1653 0002 014B     		ldr	r3, .L146
 1654 0004 1A60     		str	r2, [r3]
1747:.\Generated_Source\PSoC4/CyLib.c **** 
 1655              		.loc 1 1747 0
 1656              		@ sp needed
 1657 0006 7047     		bx	lr
 1658              	.L147:
 1659              		.align	2
 1660              	.L146:
 1661 0008 18E000E0 		.word	-536813544
 1662              		.cfi_endproc
ARM GAS  C:\Users\Alan\AppData\Local\Temp\cc47LVCU.s 			page 64


 1663              	.LFE45:
 1664              		.size	CySysTickClear, .-CySysTickClear
 1665              		.section	.text.CySysTickInit,"ax",%progbits
 1666              		.align	2
 1667              		.global	CySysTickInit
 1668              		.code	16
 1669              		.thumb_func
 1670              		.type	CySysTickInit, %function
 1671              	CySysTickInit:
 1672              	.LFB35:
1490:.\Generated_Source\PSoC4/CyLib.c ****     uint32 i;
 1673              		.loc 1 1490 0
 1674              		.cfi_startproc
 1675 0000 08B5     		push	{r3, lr}
 1676              		.cfi_def_cfa_offset 8
 1677              		.cfi_offset 3, -8
 1678              		.cfi_offset 14, -4
 1679              	.LVL111:
1493:.\Generated_Source\PSoC4/CyLib.c ****     {
 1680              		.loc 1 1493 0
 1681 0002 0023     		mov	r3, #0
 1682 0004 04E0     		b	.L149
 1683              	.LVL112:
 1684              	.L150:
1495:.\Generated_Source\PSoC4/CyLib.c ****     }
 1685              		.loc 1 1495 0 discriminator 3
 1686 0006 9900     		lsl	r1, r3, #2
 1687 0008 0020     		mov	r0, #0
 1688 000a 0D4A     		ldr	r2, .L151
 1689 000c 8850     		str	r0, [r1, r2]
1493:.\Generated_Source\PSoC4/CyLib.c ****     {
 1690              		.loc 1 1493 0 discriminator 3
 1691 000e 0133     		add	r3, r3, #1
 1692              	.LVL113:
 1693              	.L149:
1493:.\Generated_Source\PSoC4/CyLib.c ****     {
 1694              		.loc 1 1493 0 is_stmt 0 discriminator 1
 1695 0010 042B     		cmp	r3, #4
 1696 0012 F8D9     		bls	.L150
1498:.\Generated_Source\PSoC4/CyLib.c **** 
 1697              		.loc 1 1498 0 is_stmt 1
 1698 0014 0F20     		mov	r0, #15
 1699 0016 0B49     		ldr	r1, .L151+4
 1700 0018 FFF7FEFF 		bl	CyIntSetSysVector
 1701              	.LVL114:
1501:.\Generated_Source\PSoC4/CyLib.c ****     #endif /* (!CY_PSOC3 && !CY_PSOC4_4000 && !CY_PSOC4_4100 && !CY_PSOC4_4200) */
 1702              		.loc 1 1501 0
 1703 001c 0120     		mov	r0, #1
 1704 001e FFF7FEFF 		bl	CySysTickSetClockSource
 1705              	.LVL115:
1504:.\Generated_Source\PSoC4/CyLib.c ****     CySysTickClear();
 1706              		.loc 1 1504 0
 1707 0022 094B     		ldr	r3, .L151+8
 1708 0024 D868     		ldr	r0, [r3, #12]
 1709 0026 FA21     		mov	r1, #250
 1710 0028 8900     		lsl	r1, r1, #2
 1711 002a FFF7FEFF 		bl	__aeabi_uidiv
ARM GAS  C:\Users\Alan\AppData\Local\Temp\cc47LVCU.s 			page 65


 1712              	.LVL116:
 1713 002e FFF7FEFF 		bl	CySysTickSetReload
 1714              	.LVL117:
1505:.\Generated_Source\PSoC4/CyLib.c ****     CyIntEnable(CY_INT_SYSTICK_IRQN);
 1715              		.loc 1 1505 0
 1716 0032 FFF7FEFF 		bl	CySysTickClear
 1717              	.LVL118:
1506:.\Generated_Source\PSoC4/CyLib.c **** }
 1718              		.loc 1 1506 0
 1719 0036 0F20     		mov	r0, #15
 1720 0038 FFF7FEFF 		bl	CyIntEnable
 1721              	.LVL119:
1507:.\Generated_Source\PSoC4/CyLib.c **** 
 1722              		.loc 1 1507 0
 1723              		@ sp needed
 1724 003c 08BD     		pop	{r3, pc}
 1725              	.L152:
 1726 003e C046     		.align	2
 1727              	.L151:
 1728 0040 00000000 		.word	.LANCHOR2
 1729 0044 00000000 		.word	CySysTickServiceCallbacks
 1730 0048 00000000 		.word	.LANCHOR1
 1731              		.cfi_endproc
 1732              	.LFE35:
 1733              		.size	CySysTickInit, .-CySysTickInit
 1734              		.section	.text.CySysTickStart,"ax",%progbits
 1735              		.align	2
 1736              		.global	CySysTickStart
 1737              		.code	16
 1738              		.thumb_func
 1739              		.type	CySysTickStart, %function
 1740              	CySysTickStart:
 1741              	.LFB34:
1456:.\Generated_Source\PSoC4/CyLib.c ****     if (0u == CySysTickInitVar)
 1742              		.loc 1 1456 0
 1743              		.cfi_startproc
 1744 0000 08B5     		push	{r3, lr}
 1745              		.cfi_def_cfa_offset 8
 1746              		.cfi_offset 3, -8
 1747              		.cfi_offset 14, -4
1457:.\Generated_Source\PSoC4/CyLib.c ****     {
 1748              		.loc 1 1457 0
 1749 0002 064B     		ldr	r3, .L155
 1750 0004 5B69     		ldr	r3, [r3, #20]
 1751 0006 002B     		cmp	r3, #0
 1752 0008 04D1     		bne	.L154
1459:.\Generated_Source\PSoC4/CyLib.c ****         CySysTickInitVar = 1u;
 1753              		.loc 1 1459 0
 1754 000a FFF7FEFF 		bl	CySysTickInit
 1755              	.LVL120:
1460:.\Generated_Source\PSoC4/CyLib.c ****     }
 1756              		.loc 1 1460 0
 1757 000e 0122     		mov	r2, #1
 1758 0010 024B     		ldr	r3, .L155
 1759 0012 5A61     		str	r2, [r3, #20]
 1760              	.L154:
1463:.\Generated_Source\PSoC4/CyLib.c **** }
ARM GAS  C:\Users\Alan\AppData\Local\Temp\cc47LVCU.s 			page 66


 1761              		.loc 1 1463 0
 1762 0014 FFF7FEFF 		bl	CySysTickEnable
 1763              	.LVL121:
1464:.\Generated_Source\PSoC4/CyLib.c **** 
 1764              		.loc 1 1464 0
 1765              		@ sp needed
 1766 0018 08BD     		pop	{r3, pc}
 1767              	.L156:
 1768 001a C046     		.align	2
 1769              	.L155:
 1770 001c 00000000 		.word	.LANCHOR2
 1771              		.cfi_endproc
 1772              	.LFE34:
 1773              		.size	CySysTickStart, .-CySysTickStart
 1774              		.section	.text.CySysTickSetCallback,"ax",%progbits
 1775              		.align	2
 1776              		.global	CySysTickSetCallback
 1777              		.code	16
 1778              		.thumb_func
 1779              		.type	CySysTickSetCallback, %function
 1780              	CySysTickSetCallback:
 1781              	.LFB46:
1782:.\Generated_Source\PSoC4/CyLib.c ****     cySysTickCallback retVal;
 1782              		.loc 1 1782 0
 1783              		.cfi_startproc
 1784              	.LVL122:
1785:.\Generated_Source\PSoC4/CyLib.c ****     CySysTickCallbacks[number] = function;
 1785              		.loc 1 1785 0
 1786 0000 024A     		ldr	r2, .L158
 1787 0002 8300     		lsl	r3, r0, #2
 1788 0004 9858     		ldr	r0, [r3, r2]
 1789              	.LVL123:
1786:.\Generated_Source\PSoC4/CyLib.c ****     return (retVal);
 1790              		.loc 1 1786 0
 1791 0006 9950     		str	r1, [r3, r2]
1788:.\Generated_Source\PSoC4/CyLib.c **** 
 1792              		.loc 1 1788 0
 1793              		@ sp needed
 1794 0008 7047     		bx	lr
 1795              	.L159:
 1796 000a C046     		.align	2
 1797              	.L158:
 1798 000c 00000000 		.word	.LANCHOR2
 1799              		.cfi_endproc
 1800              	.LFE46:
 1801              		.size	CySysTickSetCallback, .-CySysTickSetCallback
 1802              		.section	.text.CySysTickGetCallback,"ax",%progbits
 1803              		.align	2
 1804              		.global	CySysTickGetCallback
 1805              		.code	16
 1806              		.thumb_func
 1807              		.type	CySysTickGetCallback, %function
 1808              	CySysTickGetCallback:
 1809              	.LFB47:
1808:.\Generated_Source\PSoC4/CyLib.c ****     return ((cySysTickCallback) CySysTickCallbacks[number]);
 1810              		.loc 1 1808 0
 1811              		.cfi_startproc
ARM GAS  C:\Users\Alan\AppData\Local\Temp\cc47LVCU.s 			page 67


 1812              	.LVL124:
1809:.\Generated_Source\PSoC4/CyLib.c **** }
 1813              		.loc 1 1809 0
 1814 0000 8000     		lsl	r0, r0, #2
 1815              	.LVL125:
 1816 0002 014B     		ldr	r3, .L161
 1817 0004 C058     		ldr	r0, [r0, r3]
1810:.\Generated_Source\PSoC4/CyLib.c **** 
 1818              		.loc 1 1810 0
 1819              		@ sp needed
 1820 0006 7047     		bx	lr
 1821              	.L162:
 1822              		.align	2
 1823              	.L161:
 1824 0008 00000000 		.word	.LANCHOR2
 1825              		.cfi_endproc
 1826              	.LFE47:
 1827              		.size	CySysTickGetCallback, .-CySysTickGetCallback
 1828              		.section	.text.CyGetUniqueId,"ax",%progbits
 1829              		.align	2
 1830              		.global	CyGetUniqueId
 1831              		.code	16
 1832              		.thumb_func
 1833              		.type	CyGetUniqueId, %function
 1834              	CyGetUniqueId:
 1835              	.LFB49:
1843:.\Generated_Source\PSoC4/CyLib.c **** 
1844:.\Generated_Source\PSoC4/CyLib.c **** 
1845:.\Generated_Source\PSoC4/CyLib.c **** /*******************************************************************************
1846:.\Generated_Source\PSoC4/CyLib.c **** * Function Name: CyGetUniqueId
1847:.\Generated_Source\PSoC4/CyLib.c **** ********************************************************************************
1848:.\Generated_Source\PSoC4/CyLib.c **** *
1849:.\Generated_Source\PSoC4/CyLib.c **** * Summary:
1850:.\Generated_Source\PSoC4/CyLib.c **** *  Returns the 64-bit unique ID of the device. The uniqueness of the number is
1851:.\Generated_Source\PSoC4/CyLib.c **** *  guaranteed for 10 years due to the die lot number having a cycle life of 10
1852:.\Generated_Source\PSoC4/CyLib.c **** *  years and even after 10 years, the probability of getting two identical
1853:.\Generated_Source\PSoC4/CyLib.c **** *  numbers is very small.
1854:.\Generated_Source\PSoC4/CyLib.c **** *
1855:.\Generated_Source\PSoC4/CyLib.c **** * Parameters:
1856:.\Generated_Source\PSoC4/CyLib.c **** *  uniqueId: The pointer to a two element 32-bit unsigned integer array. Returns
1857:.\Generated_Source\PSoC4/CyLib.c **** *  the 64-bit unique ID of the device by loading them into the integer array
1858:.\Generated_Source\PSoC4/CyLib.c **** *  pointed to by uniqueId.
1859:.\Generated_Source\PSoC4/CyLib.c **** *
1860:.\Generated_Source\PSoC4/CyLib.c **** * Return:
1861:.\Generated_Source\PSoC4/CyLib.c **** *  None
1862:.\Generated_Source\PSoC4/CyLib.c **** *
1863:.\Generated_Source\PSoC4/CyLib.c **** *******************************************************************************/
1864:.\Generated_Source\PSoC4/CyLib.c **** void CyGetUniqueId(uint32* uniqueId)
1865:.\Generated_Source\PSoC4/CyLib.c **** {
 1836              		.loc 1 1865 0
 1837              		.cfi_startproc
 1838              	.LVL126:
1866:.\Generated_Source\PSoC4/CyLib.c **** #if(CY_PSOC4)
1867:.\Generated_Source\PSoC4/CyLib.c ****     uniqueId[0u]  =  (uint32)(* (reg8 *) CYREG_SFLASH_DIE_LOT0  );
 1839              		.loc 1 1867 0
 1840 0000 134B     		ldr	r3, .L164
 1841 0002 1B78     		ldrb	r3, [r3]
ARM GAS  C:\Users\Alan\AppData\Local\Temp\cc47LVCU.s 			page 68


 1842 0004 DAB2     		uxtb	r2, r3
 1843 0006 0260     		str	r2, [r0]
1868:.\Generated_Source\PSoC4/CyLib.c ****     uniqueId[0u] |= ((uint32)(* (reg8 *) CYREG_SFLASH_DIE_LOT1  ) <<  8u);
 1844              		.loc 1 1868 0
 1845 0008 124B     		ldr	r3, .L164+4
 1846 000a 1B78     		ldrb	r3, [r3]
 1847 000c 1B02     		lsl	r3, r3, #8
 1848 000e 1343     		orr	r3, r2
 1849 0010 0360     		str	r3, [r0]
1869:.\Generated_Source\PSoC4/CyLib.c ****     uniqueId[0u] |= ((uint32)(* (reg8 *) CYREG_SFLASH_DIE_LOT2  ) << 16u);
 1850              		.loc 1 1869 0
 1851 0012 114A     		ldr	r2, .L164+8
 1852 0014 1278     		ldrb	r2, [r2]
 1853 0016 1204     		lsl	r2, r2, #16
 1854 0018 1343     		orr	r3, r2
 1855 001a 0360     		str	r3, [r0]
1870:.\Generated_Source\PSoC4/CyLib.c ****     uniqueId[0u] |= ((uint32)(* (reg8 *) CYREG_SFLASH_DIE_WAFER ) << 24u);
 1856              		.loc 1 1870 0
 1857 001c 0F4A     		ldr	r2, .L164+12
 1858 001e 1278     		ldrb	r2, [r2]
 1859 0020 1206     		lsl	r2, r2, #24
 1860 0022 1343     		orr	r3, r2
 1861 0024 0360     		str	r3, [r0]
1871:.\Generated_Source\PSoC4/CyLib.c **** 
1872:.\Generated_Source\PSoC4/CyLib.c ****     uniqueId[1u]  =  (uint32)(* (reg8 *) CYREG_SFLASH_DIE_X     );
 1862              		.loc 1 1872 0
 1863 0026 0E4B     		ldr	r3, .L164+16
 1864 0028 1B78     		ldrb	r3, [r3]
 1865 002a DAB2     		uxtb	r2, r3
 1866 002c 4260     		str	r2, [r0, #4]
1873:.\Generated_Source\PSoC4/CyLib.c ****     uniqueId[1u] |= ((uint32)(* (reg8 *) CYREG_SFLASH_DIE_Y     ) <<  8u);
 1867              		.loc 1 1873 0
 1868 002e 0D4B     		ldr	r3, .L164+20
 1869 0030 1B78     		ldrb	r3, [r3]
 1870 0032 1B02     		lsl	r3, r3, #8
 1871 0034 1343     		orr	r3, r2
 1872 0036 4360     		str	r3, [r0, #4]
1874:.\Generated_Source\PSoC4/CyLib.c ****     uniqueId[1u] |= ((uint32)(* (reg8 *) CYREG_SFLASH_DIE_SORT  ) << 16u);
 1873              		.loc 1 1874 0
 1874 0038 0B4A     		ldr	r2, .L164+24
 1875 003a 1278     		ldrb	r2, [r2]
 1876 003c 1204     		lsl	r2, r2, #16
 1877 003e 1343     		orr	r3, r2
 1878 0040 4360     		str	r3, [r0, #4]
1875:.\Generated_Source\PSoC4/CyLib.c ****     uniqueId[1u] |= ((uint32)(* (reg8 *) CYREG_SFLASH_DIE_MINOR ) << 24u);
 1879              		.loc 1 1875 0
 1880 0042 0A4A     		ldr	r2, .L164+28
 1881 0044 1278     		ldrb	r2, [r2]
 1882 0046 1206     		lsl	r2, r2, #24
 1883 0048 1343     		orr	r3, r2
 1884 004a 4360     		str	r3, [r0, #4]
1876:.\Generated_Source\PSoC4/CyLib.c **** #else
1877:.\Generated_Source\PSoC4/CyLib.c ****     uniqueId[0u]  =  (uint32) CY_GET_XTND_REG8((void CYFAR *) (CYREG_FLSHID_CUST_TABLES_LOT_LSB   )
1878:.\Generated_Source\PSoC4/CyLib.c ****     uniqueId[0u] |= ((uint32) CY_GET_XTND_REG8((void CYFAR *) (CYREG_FLSHID_CUST_TABLES_LOT_MSB   )
1879:.\Generated_Source\PSoC4/CyLib.c ****     uniqueId[0u] |= ((uint32) CY_GET_XTND_REG8((void CYFAR *) (CYREG_MLOGIC_REV_ID                )
1880:.\Generated_Source\PSoC4/CyLib.c ****     uniqueId[0u] |= ((uint32) CY_GET_XTND_REG8((void CYFAR *) (CYREG_FLSHID_CUST_TABLES_WAFER_NUM )
1881:.\Generated_Source\PSoC4/CyLib.c **** 
ARM GAS  C:\Users\Alan\AppData\Local\Temp\cc47LVCU.s 			page 69


1882:.\Generated_Source\PSoC4/CyLib.c ****     uniqueId[1u]  =  (uint32) CY_GET_XTND_REG8((void CYFAR *) (CYREG_FLSHID_CUST_TABLES_X_LOC     )
1883:.\Generated_Source\PSoC4/CyLib.c ****     uniqueId[1u] |= ((uint32) CY_GET_XTND_REG8((void CYFAR *) (CYREG_FLSHID_CUST_TABLES_Y_LOC     )
1884:.\Generated_Source\PSoC4/CyLib.c ****     uniqueId[1u] |= ((uint32) CY_GET_XTND_REG8((void CYFAR *) (CYREG_FLSHID_CUST_TABLES_WRK_WK    )
1885:.\Generated_Source\PSoC4/CyLib.c ****     uniqueId[1u] |= ((uint32) CY_GET_XTND_REG8((void CYFAR *) (CYREG_FLSHID_CUST_TABLES_FAB_YR    )
1886:.\Generated_Source\PSoC4/CyLib.c **** #endif  /* (CY_PSOC4) */
1887:.\Generated_Source\PSoC4/CyLib.c **** }
 1885              		.loc 1 1887 0
 1886              		@ sp needed
 1887 004c 7047     		bx	lr
 1888              	.L165:
 1889 004e C046     		.align	2
 1890              	.L164:
 1891 0050 78F1FF0F 		.word	268431736
 1892 0054 79F1FF0F 		.word	268431737
 1893 0058 7AF1FF0F 		.word	268431738
 1894 005c 7BF1FF0F 		.word	268431739
 1895 0060 7CF1FF0F 		.word	268431740
 1896 0064 7DF1FF0F 		.word	268431741
 1897 0068 7EF1FF0F 		.word	268431742
 1898 006c 7FF1FF0F 		.word	268431743
 1899              		.cfi_endproc
 1900              	.LFE49:
 1901              		.size	CyGetUniqueId, .-CyGetUniqueId
 1902              		.global	cyImoFreqMhz2Reg
 1903              		.global	CySysTickInitVar
 1904              		.global	cydelay32kMs
 1905              		.global	cydelayFreqMhz
 1906              		.global	cydelayFreqKhz
 1907              		.global	cydelayFreqHz
 1908              		.section	.rodata
 1909              		.align	2
 1910              		.set	.LANCHOR0,. + 0
 1911              		.type	cyImoFreqMhz2Reg, %object
 1912              		.size	cyImoFreqMhz2Reg, 46
 1913              	cyImoFreqMhz2Reg:
 1914 0000 03       		.byte	3
 1915 0001 04       		.byte	4
 1916 0002 05       		.byte	5
 1917 0003 06       		.byte	6
 1918 0004 07       		.byte	7
 1919 0005 08       		.byte	8
 1920 0006 09       		.byte	9
 1921 0007 0A       		.byte	10
 1922 0008 0B       		.byte	11
 1923 0009 0C       		.byte	12
 1924 000a 0E       		.byte	14
 1925 000b 0F       		.byte	15
 1926 000c 10       		.byte	16
 1927 000d 11       		.byte	17
 1928 000e 12       		.byte	18
 1929 000f 13       		.byte	19
 1930 0010 14       		.byte	20
 1931 0011 15       		.byte	21
 1932 0012 16       		.byte	22
 1933 0013 17       		.byte	23
 1934 0014 18       		.byte	24
 1935 0015 19       		.byte	25
ARM GAS  C:\Users\Alan\AppData\Local\Temp\cc47LVCU.s 			page 70


 1936 0016 1B       		.byte	27
 1937 0017 1C       		.byte	28
 1938 0018 1D       		.byte	29
 1939 0019 1E       		.byte	30
 1940 001a 1F       		.byte	31
 1941 001b 20       		.byte	32
 1942 001c 21       		.byte	33
 1943 001d 22       		.byte	34
 1944 001e 23       		.byte	35
 1945 001f 25       		.byte	37
 1946 0020 26       		.byte	38
 1947 0021 27       		.byte	39
 1948 0022 28       		.byte	40
 1949 0023 29       		.byte	41
 1950 0024 2A       		.byte	42
 1951 0025 2B       		.byte	43
 1952 0026 2E       		.byte	46
 1953 0027 2F       		.byte	47
 1954 0028 30       		.byte	48
 1955 0029 31       		.byte	49
 1956 002a 32       		.byte	50
 1957 002b 33       		.byte	51
 1958 002c 34       		.byte	52
 1959 002d 35       		.byte	53
 1960 002e 0000     		.data
 1961              		.align	2
 1962              		.set	.LANCHOR1,. + 0
 1963              		.type	cydelay32kMs, %object
 1964              		.size	cydelay32kMs, 4
 1965              	cydelay32kMs:
 1966 0000 0000C05D 		.word	1572864000
 1967              		.type	cydelayFreqKhz, %object
 1968              		.size	cydelayFreqKhz, 4
 1969              	cydelayFreqKhz:
 1970 0004 80BB0000 		.word	48000
 1971              		.type	cydelayFreqMhz, %object
 1972              		.size	cydelayFreqMhz, 1
 1973              	cydelayFreqMhz:
 1974 0008 30       		.byte	48
 1975 0009 000000   		.space	3
 1976              		.type	cydelayFreqHz, %object
 1977              		.size	cydelayFreqHz, 4
 1978              	cydelayFreqHz:
 1979 000c 006CDC02 		.word	48000000
 1980              		.bss
 1981              		.align	2
 1982              		.set	.LANCHOR2,. + 0
 1983              		.type	CySysTickCallbacks, %object
 1984              		.size	CySysTickCallbacks, 20
 1985              	CySysTickCallbacks:
 1986 0000 00000000 		.space	20
 1986      00000000 
 1986      00000000 
 1986      00000000 
 1986      00000000 
 1987              		.type	CySysTickInitVar, %object
 1988              		.size	CySysTickInitVar, 4
ARM GAS  C:\Users\Alan\AppData\Local\Temp\cc47LVCU.s 			page 71


 1989              	CySysTickInitVar:
 1990 0014 00000000 		.space	4
 1991              		.text
 1992              	.Letext0:
 1993              		.file 2 ".\\Generated_Source\\PSoC4\\cytypes.h"
 1994              		.file 3 ".\\Generated_Source\\PSoC4\\CyLib.h"