ARM GAS  C:\Users\Alan\AppData\Local\Temp\ccAaDz9h.s 			page 1


   1              		.cpu cortex-m0
   2              		.fpu softvfp
   3              		.eabi_attribute 20, 1
   4              		.eabi_attribute 21, 1
   5              		.eabi_attribute 23, 3
   6              		.eabi_attribute 24, 1
   7              		.eabi_attribute 25, 1
   8              		.eabi_attribute 26, 1
   9              		.eabi_attribute 30, 1
  10              		.eabi_attribute 34, 0
  11              		.eabi_attribute 18, 4
  12              		.code	16
  13              		.file	"PWMLEFT_PM.c"
  14              		.text
  15              	.Ltext0:
  16              		.cfi_sections	.debug_frame
  17              		.section	.text.PWMLEFT_SaveConfig,"ax",%progbits
  18              		.align	2
  19              		.global	PWMLEFT_SaveConfig
  20              		.code	16
  21              		.thumb_func
  22              		.type	PWMLEFT_SaveConfig, %function
  23              	PWMLEFT_SaveConfig:
  24              	.LFB2:
  25              		.file 1 ".\\Generated_Source\\PSoC4\\PWMLEFT_PM.c"
   1:.\Generated_Source\PSoC4/PWMLEFT_PM.c **** /*******************************************************************************
   2:.\Generated_Source\PSoC4/PWMLEFT_PM.c **** * File Name: PWMLEFT_PM.c
   3:.\Generated_Source\PSoC4/PWMLEFT_PM.c **** * Version 2.0
   4:.\Generated_Source\PSoC4/PWMLEFT_PM.c **** *
   5:.\Generated_Source\PSoC4/PWMLEFT_PM.c **** * Description:
   6:.\Generated_Source\PSoC4/PWMLEFT_PM.c **** *  This file contains the setup, control, and status commands to support
   7:.\Generated_Source\PSoC4/PWMLEFT_PM.c **** *  the component operations in the low power mode.
   8:.\Generated_Source\PSoC4/PWMLEFT_PM.c **** *
   9:.\Generated_Source\PSoC4/PWMLEFT_PM.c **** * Note:
  10:.\Generated_Source\PSoC4/PWMLEFT_PM.c **** *  None
  11:.\Generated_Source\PSoC4/PWMLEFT_PM.c **** *
  12:.\Generated_Source\PSoC4/PWMLEFT_PM.c **** ********************************************************************************
  13:.\Generated_Source\PSoC4/PWMLEFT_PM.c **** * Copyright 2013-2014, Cypress Semiconductor Corporation.  All rights reserved.
  14:.\Generated_Source\PSoC4/PWMLEFT_PM.c **** * You may use this file only in accordance with the license, terms, conditions,
  15:.\Generated_Source\PSoC4/PWMLEFT_PM.c **** * disclaimers, and limitations in the end user license agreement accompanying
  16:.\Generated_Source\PSoC4/PWMLEFT_PM.c **** * the software package with which this file was provided.
  17:.\Generated_Source\PSoC4/PWMLEFT_PM.c **** *******************************************************************************/
  18:.\Generated_Source\PSoC4/PWMLEFT_PM.c **** 
  19:.\Generated_Source\PSoC4/PWMLEFT_PM.c **** #include "PWMLEFT.h"
  20:.\Generated_Source\PSoC4/PWMLEFT_PM.c **** 
  21:.\Generated_Source\PSoC4/PWMLEFT_PM.c **** static PWMLEFT_BACKUP_STRUCT PWMLEFT_backup;
  22:.\Generated_Source\PSoC4/PWMLEFT_PM.c **** 
  23:.\Generated_Source\PSoC4/PWMLEFT_PM.c **** 
  24:.\Generated_Source\PSoC4/PWMLEFT_PM.c **** /*******************************************************************************
  25:.\Generated_Source\PSoC4/PWMLEFT_PM.c **** * Function Name: PWMLEFT_SaveConfig
  26:.\Generated_Source\PSoC4/PWMLEFT_PM.c **** ********************************************************************************
  27:.\Generated_Source\PSoC4/PWMLEFT_PM.c **** *
  28:.\Generated_Source\PSoC4/PWMLEFT_PM.c **** * Summary:
  29:.\Generated_Source\PSoC4/PWMLEFT_PM.c **** *  All configuration registers are retention. Nothing to save here.
  30:.\Generated_Source\PSoC4/PWMLEFT_PM.c **** *
  31:.\Generated_Source\PSoC4/PWMLEFT_PM.c **** * Parameters:
  32:.\Generated_Source\PSoC4/PWMLEFT_PM.c **** *  None
ARM GAS  C:\Users\Alan\AppData\Local\Temp\ccAaDz9h.s 			page 2


  33:.\Generated_Source\PSoC4/PWMLEFT_PM.c **** *
  34:.\Generated_Source\PSoC4/PWMLEFT_PM.c **** * Return:
  35:.\Generated_Source\PSoC4/PWMLEFT_PM.c **** *  None
  36:.\Generated_Source\PSoC4/PWMLEFT_PM.c **** *
  37:.\Generated_Source\PSoC4/PWMLEFT_PM.c **** *******************************************************************************/
  38:.\Generated_Source\PSoC4/PWMLEFT_PM.c **** void PWMLEFT_SaveConfig(void)
  39:.\Generated_Source\PSoC4/PWMLEFT_PM.c **** {
  26              		.loc 1 39 0
  27              		.cfi_startproc
  40:.\Generated_Source\PSoC4/PWMLEFT_PM.c **** 
  41:.\Generated_Source\PSoC4/PWMLEFT_PM.c **** }
  28              		.loc 1 41 0
  29              		@ sp needed
  30 0000 7047     		bx	lr
  31              		.cfi_endproc
  32              	.LFE2:
  33              		.size	PWMLEFT_SaveConfig, .-PWMLEFT_SaveConfig
  34 0002 C046     		.section	.text.PWMLEFT_Sleep,"ax",%progbits
  35              		.align	2
  36              		.global	PWMLEFT_Sleep
  37              		.code	16
  38              		.thumb_func
  39              		.type	PWMLEFT_Sleep, %function
  40              	PWMLEFT_Sleep:
  41              	.LFB3:
  42:.\Generated_Source\PSoC4/PWMLEFT_PM.c **** 
  43:.\Generated_Source\PSoC4/PWMLEFT_PM.c **** 
  44:.\Generated_Source\PSoC4/PWMLEFT_PM.c **** /*******************************************************************************
  45:.\Generated_Source\PSoC4/PWMLEFT_PM.c **** * Function Name: PWMLEFT_Sleep
  46:.\Generated_Source\PSoC4/PWMLEFT_PM.c **** ********************************************************************************
  47:.\Generated_Source\PSoC4/PWMLEFT_PM.c **** *
  48:.\Generated_Source\PSoC4/PWMLEFT_PM.c **** * Summary:
  49:.\Generated_Source\PSoC4/PWMLEFT_PM.c **** *  Stops the component operation and saves the user configuration.
  50:.\Generated_Source\PSoC4/PWMLEFT_PM.c **** *
  51:.\Generated_Source\PSoC4/PWMLEFT_PM.c **** * Parameters:
  52:.\Generated_Source\PSoC4/PWMLEFT_PM.c **** *  None
  53:.\Generated_Source\PSoC4/PWMLEFT_PM.c **** *
  54:.\Generated_Source\PSoC4/PWMLEFT_PM.c **** * Return:
  55:.\Generated_Source\PSoC4/PWMLEFT_PM.c **** *  None
  56:.\Generated_Source\PSoC4/PWMLEFT_PM.c **** *
  57:.\Generated_Source\PSoC4/PWMLEFT_PM.c **** *******************************************************************************/
  58:.\Generated_Source\PSoC4/PWMLEFT_PM.c **** void PWMLEFT_Sleep(void)
  59:.\Generated_Source\PSoC4/PWMLEFT_PM.c **** {
  42              		.loc 1 59 0
  43              		.cfi_startproc
  44 0000 08B5     		push	{r3, lr}
  45              		.cfi_def_cfa_offset 8
  46              		.cfi_offset 3, -8
  47              		.cfi_offset 14, -4
  60:.\Generated_Source\PSoC4/PWMLEFT_PM.c ****     if(0u != (PWMLEFT_BLOCK_CONTROL_REG & PWMLEFT_MASK))
  48              		.loc 1 60 0
  49 0002 074B     		ldr	r3, .L5
  50 0004 1B68     		ldr	r3, [r3]
  51 0006 1B07     		lsl	r3, r3, #28
  52 0008 03D5     		bpl	.L3
  61:.\Generated_Source\PSoC4/PWMLEFT_PM.c ****     {
  62:.\Generated_Source\PSoC4/PWMLEFT_PM.c ****         PWMLEFT_backup.enableState = 1u;
ARM GAS  C:\Users\Alan\AppData\Local\Temp\ccAaDz9h.s 			page 3


  53              		.loc 1 62 0
  54 000a 0122     		mov	r2, #1
  55 000c 054B     		ldr	r3, .L5+4
  56 000e 1A70     		strb	r2, [r3]
  57 0010 02E0     		b	.L4
  58              	.L3:
  63:.\Generated_Source\PSoC4/PWMLEFT_PM.c ****     }
  64:.\Generated_Source\PSoC4/PWMLEFT_PM.c ****     else
  65:.\Generated_Source\PSoC4/PWMLEFT_PM.c ****     {
  66:.\Generated_Source\PSoC4/PWMLEFT_PM.c ****         PWMLEFT_backup.enableState = 0u;
  59              		.loc 1 66 0
  60 0012 0022     		mov	r2, #0
  61 0014 034B     		ldr	r3, .L5+4
  62 0016 1A70     		strb	r2, [r3]
  63              	.L4:
  67:.\Generated_Source\PSoC4/PWMLEFT_PM.c ****     }
  68:.\Generated_Source\PSoC4/PWMLEFT_PM.c **** 
  69:.\Generated_Source\PSoC4/PWMLEFT_PM.c ****     PWMLEFT_Stop();
  64              		.loc 1 69 0
  65 0018 FFF7FEFF 		bl	PWMLEFT_Stop
  66              	.LVL0:
  70:.\Generated_Source\PSoC4/PWMLEFT_PM.c ****     PWMLEFT_SaveConfig();
  71:.\Generated_Source\PSoC4/PWMLEFT_PM.c **** }
  67              		.loc 1 71 0
  68              		@ sp needed
  69 001c 08BD     		pop	{r3, pc}
  70              	.L6:
  71 001e C046     		.align	2
  72              	.L5:
  73 0020 00002040 		.word	1075838976
  74 0024 00000000 		.word	.LANCHOR0
  75              		.cfi_endproc
  76              	.LFE3:
  77              		.size	PWMLEFT_Sleep, .-PWMLEFT_Sleep
  78              		.section	.text.PWMLEFT_RestoreConfig,"ax",%progbits
  79              		.align	2
  80              		.global	PWMLEFT_RestoreConfig
  81              		.code	16
  82              		.thumb_func
  83              		.type	PWMLEFT_RestoreConfig, %function
  84              	PWMLEFT_RestoreConfig:
  85              	.LFB4:
  72:.\Generated_Source\PSoC4/PWMLEFT_PM.c **** 
  73:.\Generated_Source\PSoC4/PWMLEFT_PM.c **** 
  74:.\Generated_Source\PSoC4/PWMLEFT_PM.c **** /*******************************************************************************
  75:.\Generated_Source\PSoC4/PWMLEFT_PM.c **** * Function Name: PWMLEFT_RestoreConfig
  76:.\Generated_Source\PSoC4/PWMLEFT_PM.c **** ********************************************************************************
  77:.\Generated_Source\PSoC4/PWMLEFT_PM.c **** *
  78:.\Generated_Source\PSoC4/PWMLEFT_PM.c **** * Summary:
  79:.\Generated_Source\PSoC4/PWMLEFT_PM.c **** *  All configuration registers are retention. Nothing to restore here.
  80:.\Generated_Source\PSoC4/PWMLEFT_PM.c **** *
  81:.\Generated_Source\PSoC4/PWMLEFT_PM.c **** * Parameters:
  82:.\Generated_Source\PSoC4/PWMLEFT_PM.c **** *  None
  83:.\Generated_Source\PSoC4/PWMLEFT_PM.c **** *
  84:.\Generated_Source\PSoC4/PWMLEFT_PM.c **** * Return:
  85:.\Generated_Source\PSoC4/PWMLEFT_PM.c **** *  None
  86:.\Generated_Source\PSoC4/PWMLEFT_PM.c **** *
ARM GAS  C:\Users\Alan\AppData\Local\Temp\ccAaDz9h.s 			page 4


  87:.\Generated_Source\PSoC4/PWMLEFT_PM.c **** *******************************************************************************/
  88:.\Generated_Source\PSoC4/PWMLEFT_PM.c **** void PWMLEFT_RestoreConfig(void)
  89:.\Generated_Source\PSoC4/PWMLEFT_PM.c **** {
  86              		.loc 1 89 0
  87              		.cfi_startproc
  90:.\Generated_Source\PSoC4/PWMLEFT_PM.c **** 
  91:.\Generated_Source\PSoC4/PWMLEFT_PM.c **** }
  88              		.loc 1 91 0
  89              		@ sp needed
  90 0000 7047     		bx	lr
  91              		.cfi_endproc
  92              	.LFE4:
  93              		.size	PWMLEFT_RestoreConfig, .-PWMLEFT_RestoreConfig
  94 0002 C046     		.section	.text.PWMLEFT_Wakeup,"ax",%progbits
  95              		.align	2
  96              		.global	PWMLEFT_Wakeup
  97              		.code	16
  98              		.thumb_func
  99              		.type	PWMLEFT_Wakeup, %function
 100              	PWMLEFT_Wakeup:
 101              	.LFB5:
  92:.\Generated_Source\PSoC4/PWMLEFT_PM.c **** 
  93:.\Generated_Source\PSoC4/PWMLEFT_PM.c **** 
  94:.\Generated_Source\PSoC4/PWMLEFT_PM.c **** /*******************************************************************************
  95:.\Generated_Source\PSoC4/PWMLEFT_PM.c **** * Function Name: PWMLEFT_Wakeup
  96:.\Generated_Source\PSoC4/PWMLEFT_PM.c **** ********************************************************************************
  97:.\Generated_Source\PSoC4/PWMLEFT_PM.c **** *
  98:.\Generated_Source\PSoC4/PWMLEFT_PM.c **** * Summary:
  99:.\Generated_Source\PSoC4/PWMLEFT_PM.c **** *  Restores the user configuration and restores the enable state.
 100:.\Generated_Source\PSoC4/PWMLEFT_PM.c **** *
 101:.\Generated_Source\PSoC4/PWMLEFT_PM.c **** * Parameters:
 102:.\Generated_Source\PSoC4/PWMLEFT_PM.c **** *  None
 103:.\Generated_Source\PSoC4/PWMLEFT_PM.c **** *
 104:.\Generated_Source\PSoC4/PWMLEFT_PM.c **** * Return:
 105:.\Generated_Source\PSoC4/PWMLEFT_PM.c **** *  None
 106:.\Generated_Source\PSoC4/PWMLEFT_PM.c **** *
 107:.\Generated_Source\PSoC4/PWMLEFT_PM.c **** *******************************************************************************/
 108:.\Generated_Source\PSoC4/PWMLEFT_PM.c **** void PWMLEFT_Wakeup(void)
 109:.\Generated_Source\PSoC4/PWMLEFT_PM.c **** {
 102              		.loc 1 109 0
 103              		.cfi_startproc
 104 0000 08B5     		push	{r3, lr}
 105              		.cfi_def_cfa_offset 8
 106              		.cfi_offset 3, -8
 107              		.cfi_offset 14, -4
 110:.\Generated_Source\PSoC4/PWMLEFT_PM.c ****     PWMLEFT_RestoreConfig();
 111:.\Generated_Source\PSoC4/PWMLEFT_PM.c **** 
 112:.\Generated_Source\PSoC4/PWMLEFT_PM.c ****     if(0u != PWMLEFT_backup.enableState)
 108              		.loc 1 112 0
 109 0002 034B     		ldr	r3, .L10
 110 0004 1B78     		ldrb	r3, [r3]
 111 0006 002B     		cmp	r3, #0
 112 0008 01D0     		beq	.L8
 113:.\Generated_Source\PSoC4/PWMLEFT_PM.c ****     {
 114:.\Generated_Source\PSoC4/PWMLEFT_PM.c ****         PWMLEFT_Enable();
 113              		.loc 1 114 0
 114 000a FFF7FEFF 		bl	PWMLEFT_Enable
ARM GAS  C:\Users\Alan\AppData\Local\Temp\ccAaDz9h.s 			page 5


 115              	.LVL1:
 116              	.L8:
 115:.\Generated_Source\PSoC4/PWMLEFT_PM.c ****     }
 116:.\Generated_Source\PSoC4/PWMLEFT_PM.c **** }
 117              		.loc 1 116 0
 118              		@ sp needed
 119 000e 08BD     		pop	{r3, pc}
 120              	.L11:
 121              		.align	2
 122              	.L10:
 123 0010 00000000 		.word	.LANCHOR0
 124              		.cfi_endproc
 125              	.LFE5:
 126              		.size	PWMLEFT_Wakeup, .-PWMLEFT_Wakeup
 127              		.bss
 128              		.align	2
 129              		.set	.LANCHOR0,. + 0
 130              		.type	PWMLEFT_backup, %object
 131              		.size	PWMLEFT_backup, 1
 132              	PWMLEFT_backup:
 133 0000 00       		.space	1
 134 0001 000000   		.text
 135              	.Letext0:
 136              		.file 2 ".\\Generated_Source\\PSoC4\\cytypes.h"
 137              		.file 3 ".\\Generated_Source\\PSoC4\\PWMLEFT.h"