ARM GAS  C:\Users\Alan\AppData\Local\Temp\ccSwCrkV.s 			page 1


   1              		.cpu cortex-m0
   2              		.fpu softvfp
   3              		.eabi_attribute 20, 1
   4              		.eabi_attribute 21, 1
   5              		.eabi_attribute 23, 3
   6              		.eabi_attribute 24, 1
   7              		.eabi_attribute 25, 1
   8              		.eabi_attribute 26, 1
   9              		.eabi_attribute 30, 1
  10              		.eabi_attribute 34, 0
  11              		.eabi_attribute 18, 4
  12              		.code	16
  13              		.file	"capsense_CSHL.c"
  14              		.text
  15              	.Ltext0:
  16              		.cfi_sections	.debug_frame
  17              		.section	.text.capsense_BaseInit,"ax",%progbits
  18              		.align	2
  19              		.global	capsense_BaseInit
  20              		.code	16
  21              		.thumb_func
  22              		.type	capsense_BaseInit, %function
  23              	capsense_BaseInit:
  24              	.LFB35:
  25              		.file 1 ".\\Generated_Source\\PSoC4\\capsense_CSHL.c"
   1:.\Generated_Source\PSoC4/capsense_CSHL.c **** /*******************************************************************************
   2:.\Generated_Source\PSoC4/capsense_CSHL.c **** * File Name: capsense_CSHL.c
   3:.\Generated_Source\PSoC4/capsense_CSHL.c **** * Version 2.30
   4:.\Generated_Source\PSoC4/capsense_CSHL.c **** *
   5:.\Generated_Source\PSoC4/capsense_CSHL.c **** * Description:
   6:.\Generated_Source\PSoC4/capsense_CSHL.c **** *  This file provides the source code to the High Level APIs for the CapSesne
   7:.\Generated_Source\PSoC4/capsense_CSHL.c **** *  CSD component.
   8:.\Generated_Source\PSoC4/capsense_CSHL.c **** *
   9:.\Generated_Source\PSoC4/capsense_CSHL.c **** * Note:
  10:.\Generated_Source\PSoC4/capsense_CSHL.c **** *
  11:.\Generated_Source\PSoC4/capsense_CSHL.c **** ********************************************************************************
  12:.\Generated_Source\PSoC4/capsense_CSHL.c **** * Copyright 2013-2015, Cypress Semiconductor Corporation.  All rights reserved.
  13:.\Generated_Source\PSoC4/capsense_CSHL.c **** * You may use this file only in accordance with the license, terms, conditions,
  14:.\Generated_Source\PSoC4/capsense_CSHL.c **** * disclaimers, and limitations in the end user license agreement accompanying
  15:.\Generated_Source\PSoC4/capsense_CSHL.c **** * the software package with which this file was provided.
  16:.\Generated_Source\PSoC4/capsense_CSHL.c **** *******************************************************************************/
  17:.\Generated_Source\PSoC4/capsense_CSHL.c **** 
  18:.\Generated_Source\PSoC4/capsense_CSHL.c **** #include "capsense_CSHL.h"
  19:.\Generated_Source\PSoC4/capsense_CSHL.c **** #include "capsense_PVT.h"
  20:.\Generated_Source\PSoC4/capsense_CSHL.c **** 
  21:.\Generated_Source\PSoC4/capsense_CSHL.c **** /* SmartSense functions */
  22:.\Generated_Source\PSoC4/capsense_CSHL.c **** #if (capsense_TUNING_METHOD == capsense__TUNING_AUTO)
  23:.\Generated_Source\PSoC4/capsense_CSHL.c ****     extern void capsense_UpdateThresholds(uint32 sensor);
  24:.\Generated_Source\PSoC4/capsense_CSHL.c **** #endif /* (capsense_TUNING_METHOD == capsense__TUNING_AUTO) */
  25:.\Generated_Source\PSoC4/capsense_CSHL.c **** 
  26:.\Generated_Source\PSoC4/capsense_CSHL.c **** /* Storage of filters data */
  27:.\Generated_Source\PSoC4/capsense_CSHL.c **** #if ( (0u != (capsense_RAW_FILTER_MASK & capsense_MEDIAN_FILTER)) || \
  28:.\Generated_Source\PSoC4/capsense_CSHL.c ****       (0u != (capsense_RAW_FILTER_MASK & capsense_AVERAGING_FILTER)) )
  29:.\Generated_Source\PSoC4/capsense_CSHL.c **** 
  30:.\Generated_Source\PSoC4/capsense_CSHL.c ****     uint16 capsense_rawFilterData1[capsense_TOTAL_SENSOR_COUNT];
  31:.\Generated_Source\PSoC4/capsense_CSHL.c ****     uint16 capsense_rawFilterData2[capsense_TOTAL_SENSOR_COUNT];
  32:.\Generated_Source\PSoC4/capsense_CSHL.c **** 
ARM GAS  C:\Users\Alan\AppData\Local\Temp\ccSwCrkV.s 			page 2


  33:.\Generated_Source\PSoC4/capsense_CSHL.c **** #elif ( (0u != (capsense_RAW_FILTER_MASK & capsense_IIR2_FILTER))   || \
  34:.\Generated_Source\PSoC4/capsense_CSHL.c ****         (0u != (capsense_RAW_FILTER_MASK & capsense_IIR4_FILTER))   || \
  35:.\Generated_Source\PSoC4/capsense_CSHL.c ****         (0u != (capsense_RAW_FILTER_MASK & capsense_JITTER_FILTER)) || \
  36:.\Generated_Source\PSoC4/capsense_CSHL.c ****         (0u != (capsense_RAW_FILTER_MASK & capsense_IIR8_FILTER))   || \
  37:.\Generated_Source\PSoC4/capsense_CSHL.c ****         (0u != (capsense_RAW_FILTER_MASK & capsense_IIR16_FILTER)) )
  38:.\Generated_Source\PSoC4/capsense_CSHL.c **** 
  39:.\Generated_Source\PSoC4/capsense_CSHL.c ****     uint16 capsense_rawFilterData1[capsense_TOTAL_SENSOR_COUNT];
  40:.\Generated_Source\PSoC4/capsense_CSHL.c **** #endif  /* ( (capsense_RAW_FILTER_MASK & capsense_MEDIAN_FILTER) || \
  41:.\Generated_Source\PSoC4/capsense_CSHL.c ****         *    (capsense_RAW_FILTER_MASK & capsense_AVERAGING_FILTER) )
  42:.\Generated_Source\PSoC4/capsense_CSHL.c ****         */
  43:.\Generated_Source\PSoC4/capsense_CSHL.c **** 
  44:.\Generated_Source\PSoC4/capsense_CSHL.c **** extern uint16 capsense_sensorRaw[capsense_TOTAL_SENSOR_COUNT];
  45:.\Generated_Source\PSoC4/capsense_CSHL.c **** extern uint8 capsense_sensorEnableMask[capsense_TOTAL_SENSOR_MASK];
  46:.\Generated_Source\PSoC4/capsense_CSHL.c **** extern const uint8 capsense_widgetNumber[capsense_TOTAL_SENSOR_COUNT];
  47:.\Generated_Source\PSoC4/capsense_CSHL.c **** 
  48:.\Generated_Source\PSoC4/capsense_CSHL.c **** #if (capsense_TUNING_METHOD != capsense__TUNING_NONE)
  49:.\Generated_Source\PSoC4/capsense_CSHL.c ****     extern uint32 capsense_widgetResolution[capsense_RESOLUTIONS_TBL_SIZE];
  50:.\Generated_Source\PSoC4/capsense_CSHL.c **** #endif /* (capsense_TUNING_METHOD != capsense__TUNING_NONE) */
  51:.\Generated_Source\PSoC4/capsense_CSHL.c **** 
  52:.\Generated_Source\PSoC4/capsense_CSHL.c **** uint16 capsense_sensorBaseline[capsense_TOTAL_SENSOR_COUNT] = {0u};
  53:.\Generated_Source\PSoC4/capsense_CSHL.c **** uint8 capsense_sensorBaselineLow[capsense_TOTAL_SENSOR_COUNT] = {0u};
  54:.\Generated_Source\PSoC4/capsense_CSHL.c **** uint8 capsense_sensorSignal[capsense_TOTAL_SENSOR_COUNT] = {0u};
  55:.\Generated_Source\PSoC4/capsense_CSHL.c **** uint8 capsense_sensorOnMask[capsense_TOTAL_SENSOR_MASK] = {0u};
  56:.\Generated_Source\PSoC4/capsense_CSHL.c **** 
  57:.\Generated_Source\PSoC4/capsense_CSHL.c **** uint8 capsense_lowBaselineResetCnt[capsense_TOTAL_SENSOR_COUNT];
  58:.\Generated_Source\PSoC4/capsense_CSHL.c **** uint8 capsense_lowBaselineReset[capsense_TOTAL_SENSOR_COUNT] = {
  59:.\Generated_Source\PSoC4/capsense_CSHL.c ****     30u, 30u, 30u, 30u, 30u, 
  60:.\Generated_Source\PSoC4/capsense_CSHL.c **** };
  61:.\Generated_Source\PSoC4/capsense_CSHL.c **** 
  62:.\Generated_Source\PSoC4/capsense_CSHL.c **** 
  63:.\Generated_Source\PSoC4/capsense_CSHL.c **** 
  64:.\Generated_Source\PSoC4/capsense_CSHL.c **** #if (capsense_TUNING_METHOD == capsense__TUNING_AUTO)
  65:.\Generated_Source\PSoC4/capsense_CSHL.c ****     extern capsense_CONFIG_TYPE_P4_v2_30 capsense_config;
  66:.\Generated_Source\PSoC4/capsense_CSHL.c **** #endif  /* (capsense_TUNING_METHOD == capsense__TUNING_AUTO) */
  67:.\Generated_Source\PSoC4/capsense_CSHL.c **** 
  68:.\Generated_Source\PSoC4/capsense_CSHL.c **** #if (capsense_RAW_FILTER_MASK != 0u)
  69:.\Generated_Source\PSoC4/capsense_CSHL.c **** uint8 capsense_enableRawFilters = capsense_RAW_FILTERS_ENABLED;
  70:.\Generated_Source\PSoC4/capsense_CSHL.c **** #endif  /* (capsense_RAW_FILTER_MASK != 0u) */
  71:.\Generated_Source\PSoC4/capsense_CSHL.c **** 
  72:.\Generated_Source\PSoC4/capsense_CSHL.c **** /* Generated by Customizer */
  73:.\Generated_Source\PSoC4/capsense_CSHL.c **** uint8 capsense_fingerThreshold[capsense_THRESHOLD_TBL_SIZE];
  74:.\Generated_Source\PSoC4/capsense_CSHL.c **** 
  75:.\Generated_Source\PSoC4/capsense_CSHL.c **** uint8 capsense_noiseThreshold[capsense_THRESHOLD_TBL_SIZE];
  76:.\Generated_Source\PSoC4/capsense_CSHL.c **** 
  77:.\Generated_Source\PSoC4/capsense_CSHL.c **** uint8 capsense_negativeNoiseThreshold[capsense_THRESHOLD_TBL_SIZE];
  78:.\Generated_Source\PSoC4/capsense_CSHL.c **** 
  79:.\Generated_Source\PSoC4/capsense_CSHL.c **** uint8 capsense_hysteresis[capsense_WIDGET_PARAM_TBL_SIZE];
  80:.\Generated_Source\PSoC4/capsense_CSHL.c **** 
  81:.\Generated_Source\PSoC4/capsense_CSHL.c **** uint8 capsense_debounce[] = {
  82:.\Generated_Source\PSoC4/capsense_CSHL.c ****     1u, 
  83:.\Generated_Source\PSoC4/capsense_CSHL.c **** };
  84:.\Generated_Source\PSoC4/capsense_CSHL.c **** 
  85:.\Generated_Source\PSoC4/capsense_CSHL.c **** const uint8 capsense_rawDataIndex[] = {
  86:.\Generated_Source\PSoC4/capsense_CSHL.c ****     0u, /* LinearSlider0__LS */
  87:.\Generated_Source\PSoC4/capsense_CSHL.c **** };
  88:.\Generated_Source\PSoC4/capsense_CSHL.c **** 
  89:.\Generated_Source\PSoC4/capsense_CSHL.c **** const uint8 capsense_numberOfSensors[] = {
ARM GAS  C:\Users\Alan\AppData\Local\Temp\ccSwCrkV.s 			page 3


  90:.\Generated_Source\PSoC4/capsense_CSHL.c ****     5u, /* LinearSlider0__LS */
  91:.\Generated_Source\PSoC4/capsense_CSHL.c **** };
  92:.\Generated_Source\PSoC4/capsense_CSHL.c **** 
  93:.\Generated_Source\PSoC4/capsense_CSHL.c **** static const uint16 capsense_centroidMult[] = {
  94:.\Generated_Source\PSoC4/capsense_CSHL.c ****     6400u, 
  95:.\Generated_Source\PSoC4/capsense_CSHL.c **** };
  96:.\Generated_Source\PSoC4/capsense_CSHL.c **** 
  97:.\Generated_Source\PSoC4/capsense_CSHL.c **** static uint8 capsense_posFiltersMask[] = {
  98:.\Generated_Source\PSoC4/capsense_CSHL.c ****     0x8u, 
  99:.\Generated_Source\PSoC4/capsense_CSHL.c **** };
 100:.\Generated_Source\PSoC4/capsense_CSHL.c **** 
 101:.\Generated_Source\PSoC4/capsense_CSHL.c **** static uint8 capsense_posFiltersData[] = {
 102:.\Generated_Source\PSoC4/capsense_CSHL.c ****     1u, 0u, 0u, 
 103:.\Generated_Source\PSoC4/capsense_CSHL.c **** };
 104:.\Generated_Source\PSoC4/capsense_CSHL.c **** 
 105:.\Generated_Source\PSoC4/capsense_CSHL.c **** 
 106:.\Generated_Source\PSoC4/capsense_CSHL.c **** 
 107:.\Generated_Source\PSoC4/capsense_CSHL.c **** 
 108:.\Generated_Source\PSoC4/capsense_CSHL.c **** /*******************************************************************************
 109:.\Generated_Source\PSoC4/capsense_CSHL.c **** * Function Name: capsense_BaseInit
 110:.\Generated_Source\PSoC4/capsense_CSHL.c **** ********************************************************************************
 111:.\Generated_Source\PSoC4/capsense_CSHL.c **** *
 112:.\Generated_Source\PSoC4/capsense_CSHL.c **** * Summary:
 113:.\Generated_Source\PSoC4/capsense_CSHL.c **** *  Loads the capsense_sensorBaseline[sensor] array element with an
 114:.\Generated_Source\PSoC4/capsense_CSHL.c **** *  initial value which is equal to the raw count value.
 115:.\Generated_Source\PSoC4/capsense_CSHL.c **** *  Resets to zero capsense_sensorBaselineLow[sensor] and
 116:.\Generated_Source\PSoC4/capsense_CSHL.c **** *  capsense_sensorSignal[sensor] array element.
 117:.\Generated_Source\PSoC4/capsense_CSHL.c **** *  Loads the capsense_rawFilterData2[sensor] and
 118:.\Generated_Source\PSoC4/capsense_CSHL.c **** *  capsense_rawFilterData2[sensor] array element with an
 119:.\Generated_Source\PSoC4/capsense_CSHL.c **** *  initial value which is equal to the raw count value if the raw data filter is enabled.
 120:.\Generated_Source\PSoC4/capsense_CSHL.c **** *
 121:.\Generated_Source\PSoC4/capsense_CSHL.c **** * Parameters:
 122:.\Generated_Source\PSoC4/capsense_CSHL.c **** *  sensor:  Sensor number.
 123:.\Generated_Source\PSoC4/capsense_CSHL.c **** *
 124:.\Generated_Source\PSoC4/capsense_CSHL.c **** * Return:
 125:.\Generated_Source\PSoC4/capsense_CSHL.c **** *  None
 126:.\Generated_Source\PSoC4/capsense_CSHL.c **** *
 127:.\Generated_Source\PSoC4/capsense_CSHL.c **** * Global Variables:
 128:.\Generated_Source\PSoC4/capsense_CSHL.c **** *  capsense_sensorBaseline[]    - used to store the baseline value.
 129:.\Generated_Source\PSoC4/capsense_CSHL.c **** *  capsense_sensorBaselineLow[] - used to store the fraction byte of
 130:.\Generated_Source\PSoC4/capsense_CSHL.c **** *  the baseline value.
 131:.\Generated_Source\PSoC4/capsense_CSHL.c **** *  capsense_sensorSignal[]      - used to store a difference between
 132:.\Generated_Source\PSoC4/capsense_CSHL.c **** *  the current value of raw data and the previous value of the baseline.
 133:.\Generated_Source\PSoC4/capsense_CSHL.c **** *  capsense_rawFilterData1[]    - used to store a previous sample of
 134:.\Generated_Source\PSoC4/capsense_CSHL.c **** *  any enabled raw data filter.
 135:.\Generated_Source\PSoC4/capsense_CSHL.c **** *  capsense_rawFilterData2[]    - used to store before a previous sample
 136:.\Generated_Source\PSoC4/capsense_CSHL.c **** *  of the enabled raw data filter. Required only for median or average filters.
 137:.\Generated_Source\PSoC4/capsense_CSHL.c **** *
 138:.\Generated_Source\PSoC4/capsense_CSHL.c **** * Side Effects:
 139:.\Generated_Source\PSoC4/capsense_CSHL.c **** *  None
 140:.\Generated_Source\PSoC4/capsense_CSHL.c **** *
 141:.\Generated_Source\PSoC4/capsense_CSHL.c **** *******************************************************************************/
 142:.\Generated_Source\PSoC4/capsense_CSHL.c **** void capsense_BaseInit(uint32 sensor)
 143:.\Generated_Source\PSoC4/capsense_CSHL.c **** {
  26              		.loc 1 143 0
  27              		.cfi_startproc
  28              	.LVL0:
ARM GAS  C:\Users\Alan\AppData\Local\Temp\ccSwCrkV.s 			page 4


 144:.\Generated_Source\PSoC4/capsense_CSHL.c ****     #if ((capsense_TOTAL_BUTTONS_COUNT) || (capsense_TOTAL_MATRIX_BUTTONS_COUNT) || \
 145:.\Generated_Source\PSoC4/capsense_CSHL.c ****          (capsense_TOTAL_GENERICS_COUNT))
 146:.\Generated_Source\PSoC4/capsense_CSHL.c ****         uint8 widget = capsense_widgetNumber[sensor];
 147:.\Generated_Source\PSoC4/capsense_CSHL.c ****     #endif /* ((capsense_TOTAL_MATRIX_BUTTONS_COUNT) || (capsense_TOTAL_MATRIX_BUTTONS_COUNT)) */
 148:.\Generated_Source\PSoC4/capsense_CSHL.c **** 
 149:.\Generated_Source\PSoC4/capsense_CSHL.c ****     #if (capsense_TOTAL_MATRIX_BUTTONS_COUNT)
 150:.\Generated_Source\PSoC4/capsense_CSHL.c ****         uint8 debounceIndex;
 151:.\Generated_Source\PSoC4/capsense_CSHL.c ****     #endif  /* (capsense_TOTAL_MATRIX_BUTTONS_COUNT) */
 152:.\Generated_Source\PSoC4/capsense_CSHL.c **** 
 153:.\Generated_Source\PSoC4/capsense_CSHL.c ****     #if (capsense_TOTAL_GENERICS_COUNT)
 154:.\Generated_Source\PSoC4/capsense_CSHL.c ****         /* Exclude generic widget */
 155:.\Generated_Source\PSoC4/capsense_CSHL.c ****         if(widget < capsense_END_OF_WIDGETS_INDEX)
 156:.\Generated_Source\PSoC4/capsense_CSHL.c ****         {
 157:.\Generated_Source\PSoC4/capsense_CSHL.c ****     #endif  /* capsense_TOTAL_GENERICS_COUNT */
 158:.\Generated_Source\PSoC4/capsense_CSHL.c **** 
 159:.\Generated_Source\PSoC4/capsense_CSHL.c ****     /* Initialize Baseline */
 160:.\Generated_Source\PSoC4/capsense_CSHL.c ****     capsense_sensorBaseline[sensor] = capsense_sensorRaw[sensor];
  29              		.loc 1 160 0
  30 0000 4300     		lsl	r3, r0, #1
  31 0002 054A     		ldr	r2, .L2
  32 0004 9A5A     		ldrh	r2, [r3, r2]
  33 0006 0549     		ldr	r1, .L2+4
  34 0008 5A52     		strh	r2, [r3, r1]
 161:.\Generated_Source\PSoC4/capsense_CSHL.c ****     capsense_sensorBaselineLow[sensor] = 0u;
  35              		.loc 1 161 0
  36 000a 0818     		add	r0, r1, r0
  37              	.LVL1:
  38 000c 0021     		mov	r1, #0
  39 000e 0173     		strb	r1, [r0, #12]
 162:.\Generated_Source\PSoC4/capsense_CSHL.c ****     capsense_sensorSignal[sensor] = 0u;
  40              		.loc 1 162 0
  41 0010 0175     		strb	r1, [r0, #20]
 163:.\Generated_Source\PSoC4/capsense_CSHL.c **** 
 164:.\Generated_Source\PSoC4/capsense_CSHL.c **** 
 165:.\Generated_Source\PSoC4/capsense_CSHL.c **** 
 166:.\Generated_Source\PSoC4/capsense_CSHL.c ****     #if ((0u != (capsense_RAW_FILTER_MASK & capsense_MEDIAN_FILTER)) ||\
 167:.\Generated_Source\PSoC4/capsense_CSHL.c ****          (0u != (capsense_RAW_FILTER_MASK & capsense_AVERAGING_FILTER)))
 168:.\Generated_Source\PSoC4/capsense_CSHL.c **** 
 169:.\Generated_Source\PSoC4/capsense_CSHL.c ****         capsense_rawFilterData1[sensor] = capsense_sensorRaw[sensor];
 170:.\Generated_Source\PSoC4/capsense_CSHL.c ****         capsense_rawFilterData2[sensor] = capsense_sensorRaw[sensor];
 171:.\Generated_Source\PSoC4/capsense_CSHL.c **** 
 172:.\Generated_Source\PSoC4/capsense_CSHL.c ****     #elif ((capsense_RAW_FILTER_MASK & capsense_IIR2_FILTER) ||\
 173:.\Generated_Source\PSoC4/capsense_CSHL.c ****            (capsense_RAW_FILTER_MASK & capsense_IIR4_FILTER) ||\
 174:.\Generated_Source\PSoC4/capsense_CSHL.c ****            (capsense_RAW_FILTER_MASK & capsense_JITTER_FILTER) ||\
 175:.\Generated_Source\PSoC4/capsense_CSHL.c ****            (capsense_RAW_FILTER_MASK & capsense_IIR8_FILTER) ||\
 176:.\Generated_Source\PSoC4/capsense_CSHL.c ****            (capsense_RAW_FILTER_MASK & capsense_IIR16_FILTER))
 177:.\Generated_Source\PSoC4/capsense_CSHL.c **** 
 178:.\Generated_Source\PSoC4/capsense_CSHL.c ****         capsense_rawFilterData1[sensor] = capsense_sensorRaw[sensor];
  42              		.loc 1 178 0
  43 0012 0349     		ldr	r1, .L2+8
  44 0014 5A52     		strh	r2, [r3, r1]
 179:.\Generated_Source\PSoC4/capsense_CSHL.c **** 
 180:.\Generated_Source\PSoC4/capsense_CSHL.c ****     #else
 181:.\Generated_Source\PSoC4/capsense_CSHL.c ****         /* No Raw filters */
 182:.\Generated_Source\PSoC4/capsense_CSHL.c ****     #endif  /* ((capsense_RAW_FILTER_MASK & capsense_MEDIAN_FILTER) || \
 183:.\Generated_Source\PSoC4/capsense_CSHL.c ****             *   (capsense_RAW_FILTER_MASK & capsense_AVERAGING_FILTER))
 184:.\Generated_Source\PSoC4/capsense_CSHL.c ****             */
ARM GAS  C:\Users\Alan\AppData\Local\Temp\ccSwCrkV.s 			page 5


 185:.\Generated_Source\PSoC4/capsense_CSHL.c **** 
 186:.\Generated_Source\PSoC4/capsense_CSHL.c ****     #if (capsense_TOTAL_GENERICS_COUNT)
 187:.\Generated_Source\PSoC4/capsense_CSHL.c ****         /* Exclude generic widget */
 188:.\Generated_Source\PSoC4/capsense_CSHL.c ****         }
 189:.\Generated_Source\PSoC4/capsense_CSHL.c ****     #endif  /* capsense_TOTAL_GENERICS_COUNT */
 190:.\Generated_Source\PSoC4/capsense_CSHL.c **** }
  45              		.loc 1 190 0
  46              		@ sp needed
  47 0016 7047     		bx	lr
  48              	.L3:
  49              		.align	2
  50              	.L2:
  51 0018 00000000 		.word	capsense_sensorRaw
  52 001c 00000000 		.word	.LANCHOR0
  53 0020 00000000 		.word	capsense_rawFilterData1
  54              		.cfi_endproc
  55              	.LFE35:
  56              		.size	capsense_BaseInit, .-capsense_BaseInit
  57              		.section	.text.capsense_InitializeSensorBaseline,"ax",%progbits
  58              		.align	2
  59              		.global	capsense_InitializeSensorBaseline
  60              		.code	16
  61              		.thumb_func
  62              		.type	capsense_InitializeSensorBaseline, %function
  63              	capsense_InitializeSensorBaseline:
  64              	.LFB36:
 191:.\Generated_Source\PSoC4/capsense_CSHL.c **** 
 192:.\Generated_Source\PSoC4/capsense_CSHL.c **** 
 193:.\Generated_Source\PSoC4/capsense_CSHL.c **** /*******************************************************************************
 194:.\Generated_Source\PSoC4/capsense_CSHL.c **** * Function Name: capsense_InitializeSensorBaseline
 195:.\Generated_Source\PSoC4/capsense_CSHL.c **** ********************************************************************************
 196:.\Generated_Source\PSoC4/capsense_CSHL.c **** *
 197:.\Generated_Source\PSoC4/capsense_CSHL.c **** * Summary:
 198:.\Generated_Source\PSoC4/capsense_CSHL.c **** *  Loads the capsense_sensorBaseline[sensor] array element with an
 199:.\Generated_Source\PSoC4/capsense_CSHL.c **** *  initial value by scanning the selected sensor (one channel design) or a pair
 200:.\Generated_Source\PSoC4/capsense_CSHL.c **** *  of sensors (two channels designs). The raw count value is copied into the
 201:.\Generated_Source\PSoC4/capsense_CSHL.c **** *  baseline array for each sensor. The raw data filters are initialized if
 202:.\Generated_Source\PSoC4/capsense_CSHL.c **** *  enabled.
 203:.\Generated_Source\PSoC4/capsense_CSHL.c **** *
 204:.\Generated_Source\PSoC4/capsense_CSHL.c **** * Parameters:
 205:.\Generated_Source\PSoC4/capsense_CSHL.c **** *  sensor:  Sensor number.
 206:.\Generated_Source\PSoC4/capsense_CSHL.c **** *
 207:.\Generated_Source\PSoC4/capsense_CSHL.c **** * Return:
 208:.\Generated_Source\PSoC4/capsense_CSHL.c **** *  None
 209:.\Generated_Source\PSoC4/capsense_CSHL.c **** *
 210:.\Generated_Source\PSoC4/capsense_CSHL.c **** * Global Variables:
 211:.\Generated_Source\PSoC4/capsense_CSHL.c **** *  None
 212:.\Generated_Source\PSoC4/capsense_CSHL.c **** *
 213:.\Generated_Source\PSoC4/capsense_CSHL.c **** * Side Effects:
 214:.\Generated_Source\PSoC4/capsense_CSHL.c **** *  None
 215:.\Generated_Source\PSoC4/capsense_CSHL.c **** *
 216:.\Generated_Source\PSoC4/capsense_CSHL.c **** *******************************************************************************/
 217:.\Generated_Source\PSoC4/capsense_CSHL.c **** void capsense_InitializeSensorBaseline(uint32 sensor)
 218:.\Generated_Source\PSoC4/capsense_CSHL.c **** {
  65              		.loc 1 218 0
  66              		.cfi_startproc
  67              	.LVL2:
ARM GAS  C:\Users\Alan\AppData\Local\Temp\ccSwCrkV.s 			page 6


  68 0000 10B5     		push	{r4, lr}
  69              		.cfi_def_cfa_offset 8
  70              		.cfi_offset 4, -8
  71              		.cfi_offset 14, -4
  72 0002 041C     		mov	r4, r0
 219:.\Generated_Source\PSoC4/capsense_CSHL.c ****     /* Scan sensor */
 220:.\Generated_Source\PSoC4/capsense_CSHL.c ****     capsense_ScanSensor(sensor);
  73              		.loc 1 220 0
  74 0004 FFF7FEFF 		bl	capsense_ScanSensor
  75              	.LVL3:
  76              	.L5:
 221:.\Generated_Source\PSoC4/capsense_CSHL.c ****     while(capsense_IsBusy() != 0u)
  77              		.loc 1 221 0 discriminator 1
  78 0008 FFF7FEFF 		bl	capsense_IsBusy
  79              	.LVL4:
  80 000c 0028     		cmp	r0, #0
  81 000e FBD1     		bne	.L5
 222:.\Generated_Source\PSoC4/capsense_CSHL.c ****     {
 223:.\Generated_Source\PSoC4/capsense_CSHL.c ****         /* Wait while sensor is busy */
 224:.\Generated_Source\PSoC4/capsense_CSHL.c ****     }
 225:.\Generated_Source\PSoC4/capsense_CSHL.c **** 
 226:.\Generated_Source\PSoC4/capsense_CSHL.c ****     /* Initialize Baseline, Signal and debounce counters */
 227:.\Generated_Source\PSoC4/capsense_CSHL.c ****     capsense_BaseInit(sensor);
  82              		.loc 1 227 0
  83 0010 201C     		mov	r0, r4
  84 0012 FFF7FEFF 		bl	capsense_BaseInit
  85              	.LVL5:
 228:.\Generated_Source\PSoC4/capsense_CSHL.c **** }
  86              		.loc 1 228 0
  87              		@ sp needed
  88              	.LVL6:
  89 0016 10BD     		pop	{r4, pc}
  90              		.cfi_endproc
  91              	.LFE36:
  92              		.size	capsense_InitializeSensorBaseline, .-capsense_InitializeSensorBaseline
  93              		.section	.text.capsense_InitializeAllBaselines,"ax",%progbits
  94              		.align	2
  95              		.global	capsense_InitializeAllBaselines
  96              		.code	16
  97              		.thumb_func
  98              		.type	capsense_InitializeAllBaselines, %function
  99              	capsense_InitializeAllBaselines:
 100              	.LFB37:
 229:.\Generated_Source\PSoC4/capsense_CSHL.c **** 
 230:.\Generated_Source\PSoC4/capsense_CSHL.c **** 
 231:.\Generated_Source\PSoC4/capsense_CSHL.c **** /*******************************************************************************
 232:.\Generated_Source\PSoC4/capsense_CSHL.c **** * Function Name: capsense_InitializeAllBaselines
 233:.\Generated_Source\PSoC4/capsense_CSHL.c **** ********************************************************************************
 234:.\Generated_Source\PSoC4/capsense_CSHL.c **** *
 235:.\Generated_Source\PSoC4/capsense_CSHL.c **** * Summary:
 236:.\Generated_Source\PSoC4/capsense_CSHL.c **** *  Uses the capsense_InitializeSensorBaseline function to load the
 237:.\Generated_Source\PSoC4/capsense_CSHL.c **** *  capsense_sensorBaseline[] array with an initial values by scanning
 238:.\Generated_Source\PSoC4/capsense_CSHL.c **** *  all the sensors. The raw count values are copied into the baseline array for
 239:.\Generated_Source\PSoC4/capsense_CSHL.c **** *  all the sensors. The raw data filters are initialized if enabled.
 240:.\Generated_Source\PSoC4/capsense_CSHL.c **** *
 241:.\Generated_Source\PSoC4/capsense_CSHL.c **** * Parameters:
 242:.\Generated_Source\PSoC4/capsense_CSHL.c **** *  None
ARM GAS  C:\Users\Alan\AppData\Local\Temp\ccSwCrkV.s 			page 7


 243:.\Generated_Source\PSoC4/capsense_CSHL.c **** *
 244:.\Generated_Source\PSoC4/capsense_CSHL.c **** * Return:
 245:.\Generated_Source\PSoC4/capsense_CSHL.c **** *  None
 246:.\Generated_Source\PSoC4/capsense_CSHL.c **** *
 247:.\Generated_Source\PSoC4/capsense_CSHL.c **** * Global Variables:
 248:.\Generated_Source\PSoC4/capsense_CSHL.c **** *  None
 249:.\Generated_Source\PSoC4/capsense_CSHL.c **** *
 250:.\Generated_Source\PSoC4/capsense_CSHL.c **** * Side Effects:
 251:.\Generated_Source\PSoC4/capsense_CSHL.c **** *  None
 252:.\Generated_Source\PSoC4/capsense_CSHL.c **** *
 253:.\Generated_Source\PSoC4/capsense_CSHL.c **** *******************************************************************************/
 254:.\Generated_Source\PSoC4/capsense_CSHL.c **** void capsense_InitializeAllBaselines(void)
 255:.\Generated_Source\PSoC4/capsense_CSHL.c **** {
 101              		.loc 1 255 0
 102              		.cfi_startproc
 103 0000 10B5     		push	{r4, lr}
 104              		.cfi_def_cfa_offset 8
 105              		.cfi_offset 4, -8
 106              		.cfi_offset 14, -4
 107              	.LVL7:
 256:.\Generated_Source\PSoC4/capsense_CSHL.c ****     uint32 i;
 257:.\Generated_Source\PSoC4/capsense_CSHL.c **** 
 258:.\Generated_Source\PSoC4/capsense_CSHL.c ****     for(i = 0u; i < capsense_TOTAL_SCANSLOT_COUNT; i++)
 108              		.loc 1 258 0
 109 0002 0024     		mov	r4, #0
 110 0004 03E0     		b	.L7
 111              	.LVL8:
 112              	.L8:
 259:.\Generated_Source\PSoC4/capsense_CSHL.c ****     {
 260:.\Generated_Source\PSoC4/capsense_CSHL.c ****         capsense_InitializeSensorBaseline(i);
 113              		.loc 1 260 0 discriminator 3
 114 0006 201C     		mov	r0, r4
 115 0008 FFF7FEFF 		bl	capsense_InitializeSensorBaseline
 116              	.LVL9:
 258:.\Generated_Source\PSoC4/capsense_CSHL.c ****     {
 117              		.loc 1 258 0 discriminator 3
 118 000c 0134     		add	r4, r4, #1
 119              	.LVL10:
 120              	.L7:
 258:.\Generated_Source\PSoC4/capsense_CSHL.c ****     {
 121              		.loc 1 258 0 is_stmt 0 discriminator 1
 122 000e 042C     		cmp	r4, #4
 123 0010 F9D9     		bls	.L8
 261:.\Generated_Source\PSoC4/capsense_CSHL.c ****     }
 262:.\Generated_Source\PSoC4/capsense_CSHL.c **** }
 124              		.loc 1 262 0 is_stmt 1
 125              		@ sp needed
 126              	.LVL11:
 127 0012 10BD     		pop	{r4, pc}
 128              		.cfi_endproc
 129              	.LFE37:
 130              		.size	capsense_InitializeAllBaselines, .-capsense_InitializeAllBaselines
 131              		.section	.text.capsense_InitializeEnabledBaselines,"ax",%progbits
 132              		.align	2
 133              		.global	capsense_InitializeEnabledBaselines
 134              		.code	16
 135              		.thumb_func
ARM GAS  C:\Users\Alan\AppData\Local\Temp\ccSwCrkV.s 			page 8


 136              		.type	capsense_InitializeEnabledBaselines, %function
 137              	capsense_InitializeEnabledBaselines:
 138              	.LFB38:
 263:.\Generated_Source\PSoC4/capsense_CSHL.c **** 
 264:.\Generated_Source\PSoC4/capsense_CSHL.c **** 
 265:.\Generated_Source\PSoC4/capsense_CSHL.c **** /*******************************************************************************
 266:.\Generated_Source\PSoC4/capsense_CSHL.c **** * Function Name: capsense_InitializeEnabledBaselines
 267:.\Generated_Source\PSoC4/capsense_CSHL.c **** ********************************************************************************
 268:.\Generated_Source\PSoC4/capsense_CSHL.c **** *
 269:.\Generated_Source\PSoC4/capsense_CSHL.c **** * Summary:
 270:.\Generated_Source\PSoC4/capsense_CSHL.c **** *  Scans all the enabled widgets and the raw count values are copied into the
 271:.\Generated_Source\PSoC4/capsense_CSHL.c **** *  baseline array for all the sensors enabled in the scanning process. The baselines
 272:.\Generated_Source\PSoC4/capsense_CSHL.c **** *  are initialized with zero values for sensors disabled from the scanning process.
 273:.\Generated_Source\PSoC4/capsense_CSHL.c **** *  The raw data filters are initialized if enabled.
 274:.\Generated_Source\PSoC4/capsense_CSHL.c **** *
 275:.\Generated_Source\PSoC4/capsense_CSHL.c **** * Parameters:
 276:.\Generated_Source\PSoC4/capsense_CSHL.c **** *  None
 277:.\Generated_Source\PSoC4/capsense_CSHL.c **** *
 278:.\Generated_Source\PSoC4/capsense_CSHL.c **** * Return:
 279:.\Generated_Source\PSoC4/capsense_CSHL.c **** *  None
 280:.\Generated_Source\PSoC4/capsense_CSHL.c **** *
 281:.\Generated_Source\PSoC4/capsense_CSHL.c **** * Global Variables:
 282:.\Generated_Source\PSoC4/capsense_CSHL.c **** *  capsense_sensorRaw[] - used to store the sensors raw data.
 283:.\Generated_Source\PSoC4/capsense_CSHL.c **** *  capsense_sensorEnableMask[ ] - used to store bit masks of the enabled sensors.
 284:.\Generated_Source\PSoC4/capsense_CSHL.c **** *
 285:.\Generated_Source\PSoC4/capsense_CSHL.c **** * Side Effects:
 286:.\Generated_Source\PSoC4/capsense_CSHL.c **** *  None
 287:.\Generated_Source\PSoC4/capsense_CSHL.c **** *
 288:.\Generated_Source\PSoC4/capsense_CSHL.c **** *******************************************************************************/
 289:.\Generated_Source\PSoC4/capsense_CSHL.c **** void capsense_InitializeEnabledBaselines(void)
 290:.\Generated_Source\PSoC4/capsense_CSHL.c **** {
 139              		.loc 1 290 0
 140              		.cfi_startproc
 141 0000 10B5     		push	{r4, lr}
 142              		.cfi_def_cfa_offset 8
 143              		.cfi_offset 4, -8
 144              		.cfi_offset 14, -4
 291:.\Generated_Source\PSoC4/capsense_CSHL.c ****     uint32 i;
 292:.\Generated_Source\PSoC4/capsense_CSHL.c ****     uint32 isSensorEnabled;
 293:.\Generated_Source\PSoC4/capsense_CSHL.c **** 
 294:.\Generated_Source\PSoC4/capsense_CSHL.c ****     capsense_ScanEnabledWidgets();
 145              		.loc 1 294 0
 146 0002 FFF7FEFF 		bl	capsense_ScanEnabledWidgets
 147              	.LVL12:
 148              	.L10:
 295:.\Generated_Source\PSoC4/capsense_CSHL.c ****     while(capsense_IsBusy() != 0u)
 149              		.loc 1 295 0 discriminator 1
 150 0006 FFF7FEFF 		bl	capsense_IsBusy
 151              	.LVL13:
 152 000a 0028     		cmp	r0, #0
 153 000c FBD1     		bne	.L10
 154 000e 0024     		mov	r4, #0
 155 0010 09E0     		b	.L11
 156              	.LVL14:
 157              	.L13:
 296:.\Generated_Source\PSoC4/capsense_CSHL.c ****     {
 297:.\Generated_Source\PSoC4/capsense_CSHL.c ****         /* Wait while sensor is busy */
ARM GAS  C:\Users\Alan\AppData\Local\Temp\ccSwCrkV.s 			page 9


 298:.\Generated_Source\PSoC4/capsense_CSHL.c ****     }
 299:.\Generated_Source\PSoC4/capsense_CSHL.c **** 
 300:.\Generated_Source\PSoC4/capsense_CSHL.c ****     for(i = 0u; i < capsense_TOTAL_SENSOR_COUNT; i++)
 301:.\Generated_Source\PSoC4/capsense_CSHL.c ****     {
 302:.\Generated_Source\PSoC4/capsense_CSHL.c ****         isSensorEnabled = capsense_GetBitValue(capsense_sensorEnableMask, i);
 158              		.loc 1 302 0
 159 0012 0648     		ldr	r0, .L14
 160 0014 211C     		mov	r1, r4
 161 0016 FFF7FEFF 		bl	capsense_GetBitValue
 162              	.LVL15:
 303:.\Generated_Source\PSoC4/capsense_CSHL.c **** 
 304:.\Generated_Source\PSoC4/capsense_CSHL.c ****         /* Clear raw data if sensor is disabled from scanning process */
 305:.\Generated_Source\PSoC4/capsense_CSHL.c ****         if(isSensorEnabled != 0u)
 163              		.loc 1 305 0
 164 001a 0028     		cmp	r0, #0
 165 001c 02D0     		beq	.L12
 306:.\Generated_Source\PSoC4/capsense_CSHL.c ****         {
 307:.\Generated_Source\PSoC4/capsense_CSHL.c ****             /* Initialize baselines */
 308:.\Generated_Source\PSoC4/capsense_CSHL.c ****             capsense_BaseInit(i);
 166              		.loc 1 308 0
 167 001e 201C     		mov	r0, r4
 168              	.LVL16:
 169 0020 FFF7FEFF 		bl	capsense_BaseInit
 170              	.LVL17:
 171              	.L12:
 300:.\Generated_Source\PSoC4/capsense_CSHL.c ****     {
 172              		.loc 1 300 0 discriminator 2
 173 0024 0134     		add	r4, r4, #1
 174              	.LVL18:
 175              	.L11:
 300:.\Generated_Source\PSoC4/capsense_CSHL.c ****     {
 176              		.loc 1 300 0 is_stmt 0 discriminator 1
 177 0026 042C     		cmp	r4, #4
 178 0028 F3D9     		bls	.L13
 309:.\Generated_Source\PSoC4/capsense_CSHL.c ****         }
 310:.\Generated_Source\PSoC4/capsense_CSHL.c ****     }
 311:.\Generated_Source\PSoC4/capsense_CSHL.c **** }
 179              		.loc 1 311 0 is_stmt 1
 180              		@ sp needed
 181              	.LVL19:
 182 002a 10BD     		pop	{r4, pc}
 183              	.L15:
 184              		.align	2
 185              	.L14:
 186 002c 00000000 		.word	capsense_sensorEnableMask
 187              		.cfi_endproc
 188              	.LFE38:
 189              		.size	capsense_InitializeEnabledBaselines, .-capsense_InitializeEnabledBaselines
 190              		.section	.text.capsense_GetBaselineData,"ax",%progbits
 191              		.align	2
 192              		.global	capsense_GetBaselineData
 193              		.code	16
 194              		.thumb_func
 195              		.type	capsense_GetBaselineData, %function
 196              	capsense_GetBaselineData:
 197              	.LFB43:
 312:.\Generated_Source\PSoC4/capsense_CSHL.c **** 
ARM GAS  C:\Users\Alan\AppData\Local\Temp\ccSwCrkV.s 			page 10


 313:.\Generated_Source\PSoC4/capsense_CSHL.c **** 
 314:.\Generated_Source\PSoC4/capsense_CSHL.c **** /*******************************************************************************
 315:.\Generated_Source\PSoC4/capsense_CSHL.c **** * Function Name: capsense_UpdateBaselineNoThreshold
 316:.\Generated_Source\PSoC4/capsense_CSHL.c **** ********************************************************************************
 317:.\Generated_Source\PSoC4/capsense_CSHL.c **** *
 318:.\Generated_Source\PSoC4/capsense_CSHL.c **** * Summary:
 319:.\Generated_Source\PSoC4/capsense_CSHL.c **** *  Updates the capsense_sensorBaseline[sensor] array element using the
 320:.\Generated_Source\PSoC4/capsense_CSHL.c **** *  LP filter with k = 256. The signal calculates the difference of count by
 321:.\Generated_Source\PSoC4/capsense_CSHL.c **** *  subtracting the previous baseline from the current raw count value and stores
 322:.\Generated_Source\PSoC4/capsense_CSHL.c **** *  it in capsense_sensorSignal[sensor].
 323:.\Generated_Source\PSoC4/capsense_CSHL.c **** *  If the auto reset option is enabled, the baseline updated regards the noise threshold.
 324:.\Generated_Source\PSoC4/capsense_CSHL.c **** *  If the auto reset option is disabled, the baseline stops updating; baseline is loaded
 325:.\Generated_Source\PSoC4/capsense_CSHL.c **** *  with a raw count value if a signal is greater than zero and if signal is less
 326:.\Generated_Source\PSoC4/capsense_CSHL.c **** *  than noise threshold.
 327:.\Generated_Source\PSoC4/capsense_CSHL.c **** *  Raw data filters are applied to the values if enabled before baseline
 328:.\Generated_Source\PSoC4/capsense_CSHL.c **** *  calculation.
 329:.\Generated_Source\PSoC4/capsense_CSHL.c **** *
 330:.\Generated_Source\PSoC4/capsense_CSHL.c **** *  This API does not update the thresholds in the Smartsense Mode.
 331:.\Generated_Source\PSoC4/capsense_CSHL.c **** *
 332:.\Generated_Source\PSoC4/capsense_CSHL.c **** * Parameters:
 333:.\Generated_Source\PSoC4/capsense_CSHL.c **** *  sensor:  Sensor number.
 334:.\Generated_Source\PSoC4/capsense_CSHL.c **** *
 335:.\Generated_Source\PSoC4/capsense_CSHL.c **** * Return:
 336:.\Generated_Source\PSoC4/capsense_CSHL.c **** *  None
 337:.\Generated_Source\PSoC4/capsense_CSHL.c **** *
 338:.\Generated_Source\PSoC4/capsense_CSHL.c **** * Global Variables:
 339:.\Generated_Source\PSoC4/capsense_CSHL.c **** *  capsense_widgetNumber[]  - stores widget numbers.
 340:.\Generated_Source\PSoC4/capsense_CSHL.c **** *  capsense_sensorBaseline[]    - used to store baseline value.
 341:.\Generated_Source\PSoC4/capsense_CSHL.c **** *  capsense_sensorBaselineLow[] - used to store fraction byte of
 342:.\Generated_Source\PSoC4/capsense_CSHL.c **** *  baseline value.
 343:.\Generated_Source\PSoC4/capsense_CSHL.c **** *  capsense_sensorSignal[]      - used to store difference between
 344:.\Generated_Source\PSoC4/capsense_CSHL.c **** *  current value of raw data and previous value of baseline.
 345:.\Generated_Source\PSoC4/capsense_CSHL.c **** *  capsense_rawFilterData1[]    - used to store previous sample of
 346:.\Generated_Source\PSoC4/capsense_CSHL.c **** *  any enabled raw data filter.
 347:.\Generated_Source\PSoC4/capsense_CSHL.c **** *  capsense_rawFilterData2[]    - used to store before previous sample
 348:.\Generated_Source\PSoC4/capsense_CSHL.c **** *  of enabled raw data filter. Only required for median or average filters.
 349:.\Generated_Source\PSoC4/capsense_CSHL.c **** *
 350:.\Generated_Source\PSoC4/capsense_CSHL.c **** * Side Effects:
 351:.\Generated_Source\PSoC4/capsense_CSHL.c **** *  None
 352:.\Generated_Source\PSoC4/capsense_CSHL.c **** *
 353:.\Generated_Source\PSoC4/capsense_CSHL.c **** *******************************************************************************/
 354:.\Generated_Source\PSoC4/capsense_CSHL.c **** void capsense_UpdateBaselineNoThreshold(uint32 sensor)
 355:.\Generated_Source\PSoC4/capsense_CSHL.c **** {
 356:.\Generated_Source\PSoC4/capsense_CSHL.c ****     uint32 calc;
 357:.\Generated_Source\PSoC4/capsense_CSHL.c ****     uint32 sign;
 358:.\Generated_Source\PSoC4/capsense_CSHL.c ****     uint16 tempRaw;
 359:.\Generated_Source\PSoC4/capsense_CSHL.c ****     uint16 filteredRawData;
 360:.\Generated_Source\PSoC4/capsense_CSHL.c ****     uint8 widget = capsense_widgetNumber[sensor];
 361:.\Generated_Source\PSoC4/capsense_CSHL.c ****     uint8 noiseThreshold;
 362:.\Generated_Source\PSoC4/capsense_CSHL.c **** 
 363:.\Generated_Source\PSoC4/capsense_CSHL.c ****     #if (capsense_TOTAL_GENERICS_COUNT)
 364:.\Generated_Source\PSoC4/capsense_CSHL.c ****         /* Exclude generic widget */
 365:.\Generated_Source\PSoC4/capsense_CSHL.c ****         if(widget < capsense_END_OF_WIDGETS_INDEX)
 366:.\Generated_Source\PSoC4/capsense_CSHL.c ****         {
 367:.\Generated_Source\PSoC4/capsense_CSHL.c ****     #endif  /* capsense_TOTAL_GENERICS_COUNT */
 368:.\Generated_Source\PSoC4/capsense_CSHL.c **** 
 369:.\Generated_Source\PSoC4/capsense_CSHL.c ****     noiseThreshold = capsense_noiseThreshold[widget];
ARM GAS  C:\Users\Alan\AppData\Local\Temp\ccSwCrkV.s 			page 11


 370:.\Generated_Source\PSoC4/capsense_CSHL.c ****     filteredRawData = capsense_sensorRaw[sensor];
 371:.\Generated_Source\PSoC4/capsense_CSHL.c **** 
 372:.\Generated_Source\PSoC4/capsense_CSHL.c ****     #if (capsense_RAW_FILTER_MASK != 0u)
 373:.\Generated_Source\PSoC4/capsense_CSHL.c ****     if(capsense_enableRawFilters != 0u)
 374:.\Generated_Source\PSoC4/capsense_CSHL.c ****     {
 375:.\Generated_Source\PSoC4/capsense_CSHL.c ****         #if (capsense_RAW_FILTER_MASK & capsense_MEDIAN_FILTER)
 376:.\Generated_Source\PSoC4/capsense_CSHL.c ****             tempRaw = filteredRawData;
 377:.\Generated_Source\PSoC4/capsense_CSHL.c ****             filteredRawData = capsense_MedianFilter(filteredRawData, capsense_rawFilterData1[sensor
 378:.\Generated_Source\PSoC4/capsense_CSHL.c ****                                                             capsense_rawFilterData2[sensor]);
 379:.\Generated_Source\PSoC4/capsense_CSHL.c ****             capsense_rawFilterData2[sensor] = capsense_rawFilterData1[sensor];
 380:.\Generated_Source\PSoC4/capsense_CSHL.c ****             capsense_rawFilterData1[sensor] = tempRaw;
 381:.\Generated_Source\PSoC4/capsense_CSHL.c **** 
 382:.\Generated_Source\PSoC4/capsense_CSHL.c ****         #elif (capsense_RAW_FILTER_MASK & capsense_AVERAGING_FILTER)
 383:.\Generated_Source\PSoC4/capsense_CSHL.c ****             tempRaw = filteredRawData;
 384:.\Generated_Source\PSoC4/capsense_CSHL.c ****             filteredRawData = capsense_AveragingFilter(filteredRawData, capsense_rawFilterData1[sen
 385:.\Generated_Source\PSoC4/capsense_CSHL.c ****                                                                capsense_rawFilterData2[sensor]);
 386:.\Generated_Source\PSoC4/capsense_CSHL.c ****             capsense_rawFilterData2[sensor] = capsense_rawFilterData1[sensor];
 387:.\Generated_Source\PSoC4/capsense_CSHL.c ****             capsense_rawFilterData1[sensor] = tempRaw;
 388:.\Generated_Source\PSoC4/capsense_CSHL.c **** 
 389:.\Generated_Source\PSoC4/capsense_CSHL.c ****         #elif (capsense_RAW_FILTER_MASK & capsense_IIR2_FILTER)
 390:.\Generated_Source\PSoC4/capsense_CSHL.c ****             filteredRawData = capsense_IIR2Filter(filteredRawData, capsense_rawFilterData1[sensor])
 391:.\Generated_Source\PSoC4/capsense_CSHL.c ****             capsense_rawFilterData1[sensor] = filteredRawData;
 392:.\Generated_Source\PSoC4/capsense_CSHL.c **** 
 393:.\Generated_Source\PSoC4/capsense_CSHL.c ****         #elif (capsense_RAW_FILTER_MASK & capsense_IIR4_FILTER)
 394:.\Generated_Source\PSoC4/capsense_CSHL.c ****             filteredRawData = capsense_IIR4Filter(filteredRawData, capsense_rawFilterData1[sensor])
 395:.\Generated_Source\PSoC4/capsense_CSHL.c ****             capsense_rawFilterData1[sensor] = filteredRawData;
 396:.\Generated_Source\PSoC4/capsense_CSHL.c **** 
 397:.\Generated_Source\PSoC4/capsense_CSHL.c ****         #elif (capsense_RAW_FILTER_MASK & capsense_JITTER_FILTER)
 398:.\Generated_Source\PSoC4/capsense_CSHL.c ****             filteredRawData = capsense_JitterFilter(filteredRawData, capsense_rawFilterData1[sensor
 399:.\Generated_Source\PSoC4/capsense_CSHL.c ****             capsense_rawFilterData1[sensor] = filteredRawData;
 400:.\Generated_Source\PSoC4/capsense_CSHL.c **** 
 401:.\Generated_Source\PSoC4/capsense_CSHL.c ****         #elif (capsense_RAW_FILTER_MASK & capsense_IIR8_FILTER)
 402:.\Generated_Source\PSoC4/capsense_CSHL.c ****             filteredRawData = capsense_IIR8Filter(filteredRawData, capsense_rawFilterData1[sensor])
 403:.\Generated_Source\PSoC4/capsense_CSHL.c ****             capsense_rawFilterData1[sensor] = filteredRawData;
 404:.\Generated_Source\PSoC4/capsense_CSHL.c **** 
 405:.\Generated_Source\PSoC4/capsense_CSHL.c ****         #elif (capsense_RAW_FILTER_MASK & capsense_IIR16_FILTER)
 406:.\Generated_Source\PSoC4/capsense_CSHL.c ****             filteredRawData = capsense_IIR16Filter(filteredRawData, capsense_rawFilterData1[sensor]
 407:.\Generated_Source\PSoC4/capsense_CSHL.c ****             capsense_rawFilterData1[sensor] = filteredRawData;
 408:.\Generated_Source\PSoC4/capsense_CSHL.c **** 
 409:.\Generated_Source\PSoC4/capsense_CSHL.c ****         #else
 410:.\Generated_Source\PSoC4/capsense_CSHL.c ****             /* No Raw filters */
 411:.\Generated_Source\PSoC4/capsense_CSHL.c ****         #endif  /* (capsense_RAW_FILTER_MASK & capsense_MEDIAN_FILTER) */
 412:.\Generated_Source\PSoC4/capsense_CSHL.c ****     }
 413:.\Generated_Source\PSoC4/capsense_CSHL.c ****     #endif  /* (capsense_RAW_FILTER_MASK != 0u) */
 414:.\Generated_Source\PSoC4/capsense_CSHL.c **** 
 415:.\Generated_Source\PSoC4/capsense_CSHL.c ****     #if (capsense_TUNING_METHOD == capsense__TUNING_AUTO)
 416:.\Generated_Source\PSoC4/capsense_CSHL.c ****         MeasureNoiseEnvelope_P4_v2_30(&capsense_config, (uint8)sensor, capsense_sensorRaw);
 417:.\Generated_Source\PSoC4/capsense_CSHL.c ****     #endif /* (capsense_TUNING_METHOD == capsense__TUNING_AUTO) */
 418:.\Generated_Source\PSoC4/capsense_CSHL.c **** 
 419:.\Generated_Source\PSoC4/capsense_CSHL.c ****     /* Baseline calculation */
 420:.\Generated_Source\PSoC4/capsense_CSHL.c ****     /* Calculate difference RawData[cur] - Baseline[prev] */
 421:.\Generated_Source\PSoC4/capsense_CSHL.c ****     if(filteredRawData >= capsense_sensorBaseline[sensor])
 422:.\Generated_Source\PSoC4/capsense_CSHL.c ****     {
 423:.\Generated_Source\PSoC4/capsense_CSHL.c ****         capsense_lowBaselineResetCnt[sensor] = 0u;
 424:.\Generated_Source\PSoC4/capsense_CSHL.c ****         tempRaw = filteredRawData - capsense_sensorBaseline[sensor];
 425:.\Generated_Source\PSoC4/capsense_CSHL.c ****         sign = 1u;    /* Positive difference - Calculate the Signal */
 426:.\Generated_Source\PSoC4/capsense_CSHL.c ****     }
ARM GAS  C:\Users\Alan\AppData\Local\Temp\ccSwCrkV.s 			page 12


 427:.\Generated_Source\PSoC4/capsense_CSHL.c ****     else
 428:.\Generated_Source\PSoC4/capsense_CSHL.c ****     {
 429:.\Generated_Source\PSoC4/capsense_CSHL.c ****         tempRaw = capsense_sensorBaseline[sensor] - filteredRawData;
 430:.\Generated_Source\PSoC4/capsense_CSHL.c ****         sign = 0u;    /* Negative difference - Do NOT calculate the Signal */
 431:.\Generated_Source\PSoC4/capsense_CSHL.c ****     }
 432:.\Generated_Source\PSoC4/capsense_CSHL.c **** 
 433:.\Generated_Source\PSoC4/capsense_CSHL.c ****     #if (capsense_TUNING_METHOD != capsense__TUNING_NONE)
 434:.\Generated_Source\PSoC4/capsense_CSHL.c ****     if((sign == 0u) && (tempRaw > (uint16) capsense_negativeNoiseThreshold[widget]))
 435:.\Generated_Source\PSoC4/capsense_CSHL.c ****     #else
 436:.\Generated_Source\PSoC4/capsense_CSHL.c ****     if((sign == 0u) && (tempRaw > (uint16) capsense_NEGATIVE_NOISE_THRESHOLD))
 437:.\Generated_Source\PSoC4/capsense_CSHL.c ****     #endif /* (capsense_TUNING_METHOD != capsense__TUNING_NONE) */
 438:.\Generated_Source\PSoC4/capsense_CSHL.c ****     {
 439:.\Generated_Source\PSoC4/capsense_CSHL.c ****         if(capsense_lowBaselineResetCnt[sensor] >= capsense_lowBaselineReset[sensor])
 440:.\Generated_Source\PSoC4/capsense_CSHL.c ****         {
 441:.\Generated_Source\PSoC4/capsense_CSHL.c ****             capsense_BaseInit(sensor);
 442:.\Generated_Source\PSoC4/capsense_CSHL.c ****             capsense_lowBaselineResetCnt[sensor] = 0u;
 443:.\Generated_Source\PSoC4/capsense_CSHL.c ****         }
 444:.\Generated_Source\PSoC4/capsense_CSHL.c ****         else
 445:.\Generated_Source\PSoC4/capsense_CSHL.c ****         {
 446:.\Generated_Source\PSoC4/capsense_CSHL.c ****             capsense_lowBaselineResetCnt[sensor]++;
 447:.\Generated_Source\PSoC4/capsense_CSHL.c ****         }
 448:.\Generated_Source\PSoC4/capsense_CSHL.c ****     }
 449:.\Generated_Source\PSoC4/capsense_CSHL.c ****     else
 450:.\Generated_Source\PSoC4/capsense_CSHL.c ****     {
 451:.\Generated_Source\PSoC4/capsense_CSHL.c ****         #if (capsense_AUTO_RESET == capsense_AUTO_RESET_DISABLE)
 452:.\Generated_Source\PSoC4/capsense_CSHL.c ****         #if (capsense_TUNING_METHOD != capsense__TUNING_NONE)
 453:.\Generated_Source\PSoC4/capsense_CSHL.c ****             /* Update Baseline if lower than noiseThreshold */
 454:.\Generated_Source\PSoC4/capsense_CSHL.c ****             if ( (tempRaw <= noiseThreshold) ||
 455:.\Generated_Source\PSoC4/capsense_CSHL.c ****              ((tempRaw < (uint16) capsense_negativeNoiseThreshold[widget])
 456:.\Generated_Source\PSoC4/capsense_CSHL.c ****                && (sign == 0u)))
 457:.\Generated_Source\PSoC4/capsense_CSHL.c ****             {
 458:.\Generated_Source\PSoC4/capsense_CSHL.c ****         #else
 459:.\Generated_Source\PSoC4/capsense_CSHL.c ****             /* Update Baseline if lower than noiseThreshold */
 460:.\Generated_Source\PSoC4/capsense_CSHL.c ****             if ( (tempRaw <= noiseThreshold) ||
 461:.\Generated_Source\PSoC4/capsense_CSHL.c ****                  ((tempRaw < (uint16) capsense_NEGATIVE_NOISE_THRESHOLD)
 462:.\Generated_Source\PSoC4/capsense_CSHL.c ****                    && (sign == 0u)))
 463:.\Generated_Source\PSoC4/capsense_CSHL.c ****             {
 464:.\Generated_Source\PSoC4/capsense_CSHL.c ****         #endif /* (capsense_TUNING_METHOD != capsense__TUNING_NONE) */
 465:.\Generated_Source\PSoC4/capsense_CSHL.c ****         #endif /* (capsense_AUTO_RESET == capsense_AUTO_RESET_DISABLE) */
 466:.\Generated_Source\PSoC4/capsense_CSHL.c ****                 /* Make full Baseline 23 bits */
 467:.\Generated_Source\PSoC4/capsense_CSHL.c ****                 calc = (uint32) capsense_sensorBaseline[sensor] << 8u;
 468:.\Generated_Source\PSoC4/capsense_CSHL.c ****                 calc |= (uint32) capsense_sensorBaselineLow[sensor];
 469:.\Generated_Source\PSoC4/capsense_CSHL.c **** 
 470:.\Generated_Source\PSoC4/capsense_CSHL.c ****                 /* Add Raw Data to Baseline */
 471:.\Generated_Source\PSoC4/capsense_CSHL.c ****                 calc += filteredRawData;
 472:.\Generated_Source\PSoC4/capsense_CSHL.c **** 
 473:.\Generated_Source\PSoC4/capsense_CSHL.c ****                 /* Sub the high Baseline */
 474:.\Generated_Source\PSoC4/capsense_CSHL.c ****                 calc -= capsense_sensorBaseline[sensor];
 475:.\Generated_Source\PSoC4/capsense_CSHL.c **** 
 476:.\Generated_Source\PSoC4/capsense_CSHL.c ****                 /* Put Baseline and BaselineLow */
 477:.\Generated_Source\PSoC4/capsense_CSHL.c ****                 capsense_sensorBaseline[sensor] = ((uint16) (calc >> 8u));
 478:.\Generated_Source\PSoC4/capsense_CSHL.c ****                 capsense_sensorBaselineLow[sensor] = ((uint8) calc);
 479:.\Generated_Source\PSoC4/capsense_CSHL.c **** 
 480:.\Generated_Source\PSoC4/capsense_CSHL.c ****                 capsense_lowBaselineResetCnt[sensor] = 0u;
 481:.\Generated_Source\PSoC4/capsense_CSHL.c ****         #if (capsense_AUTO_RESET == capsense_AUTO_RESET_DISABLE)
 482:.\Generated_Source\PSoC4/capsense_CSHL.c ****             }
 483:.\Generated_Source\PSoC4/capsense_CSHL.c ****         #endif /* (capsense_AUTO_RESET == capsense_AUTO_RESET_DISABLE) */
ARM GAS  C:\Users\Alan\AppData\Local\Temp\ccSwCrkV.s 			page 13


 484:.\Generated_Source\PSoC4/capsense_CSHL.c ****     }
 485:.\Generated_Source\PSoC4/capsense_CSHL.c **** 
 486:.\Generated_Source\PSoC4/capsense_CSHL.c ****     /* Calculate Signal if positive difference > noiseThreshold */
 487:.\Generated_Source\PSoC4/capsense_CSHL.c ****     if((tempRaw > (uint16) noiseThreshold) && (sign != 0u))
 488:.\Generated_Source\PSoC4/capsense_CSHL.c ****     {
 489:.\Generated_Source\PSoC4/capsense_CSHL.c ****         #if (capsense_SIGNAL_SIZE == capsense_SIGNAL_SIZE_UINT8)
 490:.\Generated_Source\PSoC4/capsense_CSHL.c ****             /* Over flow defence for uint8 */
 491:.\Generated_Source\PSoC4/capsense_CSHL.c ****             if (tempRaw > 0xFFu)
 492:.\Generated_Source\PSoC4/capsense_CSHL.c ****             {
 493:.\Generated_Source\PSoC4/capsense_CSHL.c ****                 capsense_sensorSignal[sensor] = 0xFFu;
 494:.\Generated_Source\PSoC4/capsense_CSHL.c ****             }
 495:.\Generated_Source\PSoC4/capsense_CSHL.c ****             else
 496:.\Generated_Source\PSoC4/capsense_CSHL.c ****             {
 497:.\Generated_Source\PSoC4/capsense_CSHL.c ****                 capsense_sensorSignal[sensor] = ((uint8) tempRaw);
 498:.\Generated_Source\PSoC4/capsense_CSHL.c ****             }
 499:.\Generated_Source\PSoC4/capsense_CSHL.c ****         #else
 500:.\Generated_Source\PSoC4/capsense_CSHL.c ****             capsense_sensorSignal[sensor] = ((uint16) tempRaw);
 501:.\Generated_Source\PSoC4/capsense_CSHL.c ****         #endif  /* (capsense_SIGNAL_SIZE == capsense_SIGNAL_SIZE_UINT8) */
 502:.\Generated_Source\PSoC4/capsense_CSHL.c ****     }
 503:.\Generated_Source\PSoC4/capsense_CSHL.c ****     else
 504:.\Generated_Source\PSoC4/capsense_CSHL.c ****     {
 505:.\Generated_Source\PSoC4/capsense_CSHL.c ****         /* Signal is zero */
 506:.\Generated_Source\PSoC4/capsense_CSHL.c ****         capsense_sensorSignal[sensor] = 0u;
 507:.\Generated_Source\PSoC4/capsense_CSHL.c ****     }
 508:.\Generated_Source\PSoC4/capsense_CSHL.c **** 
 509:.\Generated_Source\PSoC4/capsense_CSHL.c ****     #if (capsense_TOTAL_GENERICS_COUNT)
 510:.\Generated_Source\PSoC4/capsense_CSHL.c ****         /* Exclude generic widget */
 511:.\Generated_Source\PSoC4/capsense_CSHL.c ****         }
 512:.\Generated_Source\PSoC4/capsense_CSHL.c ****     #endif  /* capsense_TOTAL_GENERICS_COUNT */
 513:.\Generated_Source\PSoC4/capsense_CSHL.c **** }
 514:.\Generated_Source\PSoC4/capsense_CSHL.c **** 
 515:.\Generated_Source\PSoC4/capsense_CSHL.c **** 
 516:.\Generated_Source\PSoC4/capsense_CSHL.c **** /*******************************************************************************
 517:.\Generated_Source\PSoC4/capsense_CSHL.c **** * Function Name: capsense_UpdateSensorBaseline
 518:.\Generated_Source\PSoC4/capsense_CSHL.c **** ********************************************************************************
 519:.\Generated_Source\PSoC4/capsense_CSHL.c **** *
 520:.\Generated_Source\PSoC4/capsense_CSHL.c **** * Summary:
 521:.\Generated_Source\PSoC4/capsense_CSHL.c **** *  Updates the capsense_sensorBaseline[sensor] array element using the
 522:.\Generated_Source\PSoC4/capsense_CSHL.c **** *  LP filter with k = 256. The signal calculates the difference of count by
 523:.\Generated_Source\PSoC4/capsense_CSHL.c **** *  subtracting the previous baseline from the current raw count value and stores
 524:.\Generated_Source\PSoC4/capsense_CSHL.c **** *  it in capsense_sensorSignal[sensor].
 525:.\Generated_Source\PSoC4/capsense_CSHL.c **** *  If the auto reset option is enabled, the baseline updated regards the noise threshold.
 526:.\Generated_Source\PSoC4/capsense_CSHL.c **** *  If the auto reset option is disabled, the baseline stops updating.
 527:.\Generated_Source\PSoC4/capsense_CSHL.c **** *  Baseline is loaded with raw count value if a signal is greater than zero and
 528:.\Generated_Source\PSoC4/capsense_CSHL.c **** *  if signal is less than noise threshold.
 529:.\Generated_Source\PSoC4/capsense_CSHL.c **** *  Raw data filters are applied to the values if enabled before baseline
 530:.\Generated_Source\PSoC4/capsense_CSHL.c **** *  calculation.
 531:.\Generated_Source\PSoC4/capsense_CSHL.c **** *  This API updates the thresholds in the Smartsense Mode.
 532:.\Generated_Source\PSoC4/capsense_CSHL.c **** *
 533:.\Generated_Source\PSoC4/capsense_CSHL.c **** * Parameters:
 534:.\Generated_Source\PSoC4/capsense_CSHL.c **** *  sensor:  Sensor number.
 535:.\Generated_Source\PSoC4/capsense_CSHL.c **** *
 536:.\Generated_Source\PSoC4/capsense_CSHL.c **** * Return:
 537:.\Generated_Source\PSoC4/capsense_CSHL.c **** *  None
 538:.\Generated_Source\PSoC4/capsense_CSHL.c **** *
 539:.\Generated_Source\PSoC4/capsense_CSHL.c **** * Global Variables:
 540:.\Generated_Source\PSoC4/capsense_CSHL.c **** *  capsense_widgetNumber[]  - stores widget numbers.
ARM GAS  C:\Users\Alan\AppData\Local\Temp\ccSwCrkV.s 			page 14


 541:.\Generated_Source\PSoC4/capsense_CSHL.c **** *
 542:.\Generated_Source\PSoC4/capsense_CSHL.c **** * Side Effects:
 543:.\Generated_Source\PSoC4/capsense_CSHL.c **** *  None
 544:.\Generated_Source\PSoC4/capsense_CSHL.c **** *
 545:.\Generated_Source\PSoC4/capsense_CSHL.c **** *******************************************************************************/
 546:.\Generated_Source\PSoC4/capsense_CSHL.c ****  void capsense_UpdateSensorBaseline(uint32 sensor)
 547:.\Generated_Source\PSoC4/capsense_CSHL.c **** {
 548:.\Generated_Source\PSoC4/capsense_CSHL.c ****     #if (capsense_TOTAL_GENERICS_COUNT)
 549:.\Generated_Source\PSoC4/capsense_CSHL.c ****         uint32 widget;
 550:.\Generated_Source\PSoC4/capsense_CSHL.c **** 
 551:.\Generated_Source\PSoC4/capsense_CSHL.c ****         widget = capsense_widgetNumber[sensor];
 552:.\Generated_Source\PSoC4/capsense_CSHL.c **** 
 553:.\Generated_Source\PSoC4/capsense_CSHL.c ****         /* Exclude generic widget */
 554:.\Generated_Source\PSoC4/capsense_CSHL.c ****         if(widget < capsense_END_OF_WIDGETS_INDEX)
 555:.\Generated_Source\PSoC4/capsense_CSHL.c ****         {
 556:.\Generated_Source\PSoC4/capsense_CSHL.c ****     #endif  /* capsense_TOTAL_GENERICS_COUNT */
 557:.\Generated_Source\PSoC4/capsense_CSHL.c **** 
 558:.\Generated_Source\PSoC4/capsense_CSHL.c ****     #if (capsense_TUNING_METHOD == capsense__TUNING_AUTO)
 559:.\Generated_Source\PSoC4/capsense_CSHL.c ****         capsense_UpdateThresholds(sensor);
 560:.\Generated_Source\PSoC4/capsense_CSHL.c ****     #endif /* (capsense_TUNING_METHOD == capsense__TUNING_AUTO) */
 561:.\Generated_Source\PSoC4/capsense_CSHL.c **** 
 562:.\Generated_Source\PSoC4/capsense_CSHL.c ****     capsense_UpdateBaselineNoThreshold(sensor);
 563:.\Generated_Source\PSoC4/capsense_CSHL.c **** 
 564:.\Generated_Source\PSoC4/capsense_CSHL.c ****     #if (capsense_TOTAL_GENERICS_COUNT)
 565:.\Generated_Source\PSoC4/capsense_CSHL.c ****         /* Exclude generic widget */
 566:.\Generated_Source\PSoC4/capsense_CSHL.c ****         }
 567:.\Generated_Source\PSoC4/capsense_CSHL.c ****     #endif  /* capsense_TOTAL_GENERICS_COUNT */
 568:.\Generated_Source\PSoC4/capsense_CSHL.c **** }
 569:.\Generated_Source\PSoC4/capsense_CSHL.c **** 
 570:.\Generated_Source\PSoC4/capsense_CSHL.c **** 
 571:.\Generated_Source\PSoC4/capsense_CSHL.c **** /*******************************************************************************
 572:.\Generated_Source\PSoC4/capsense_CSHL.c **** * Function Name: capsense_UpdateEnabledBaselines
 573:.\Generated_Source\PSoC4/capsense_CSHL.c **** ********************************************************************************
 574:.\Generated_Source\PSoC4/capsense_CSHL.c **** *
 575:.\Generated_Source\PSoC4/capsense_CSHL.c **** * Summary:
 576:.\Generated_Source\PSoC4/capsense_CSHL.c **** *  Checks capsense_sensorEnableMask[] array and calls the
 577:.\Generated_Source\PSoC4/capsense_CSHL.c **** *  capsense_UpdateSensorBaseline function to update the baselines
 578:.\Generated_Source\PSoC4/capsense_CSHL.c **** *  for the enabled sensors.
 579:.\Generated_Source\PSoC4/capsense_CSHL.c **** *
 580:.\Generated_Source\PSoC4/capsense_CSHL.c **** * Parameters:
 581:.\Generated_Source\PSoC4/capsense_CSHL.c **** *  None
 582:.\Generated_Source\PSoC4/capsense_CSHL.c **** *
 583:.\Generated_Source\PSoC4/capsense_CSHL.c **** * Return:
 584:.\Generated_Source\PSoC4/capsense_CSHL.c **** *  None
 585:.\Generated_Source\PSoC4/capsense_CSHL.c **** *
 586:.\Generated_Source\PSoC4/capsense_CSHL.c **** * Global Variables:
 587:.\Generated_Source\PSoC4/capsense_CSHL.c **** *  capsense_sensorEnableMask[] - used to store the sensor scanning
 588:.\Generated_Source\PSoC4/capsense_CSHL.c **** *  state.
 589:.\Generated_Source\PSoC4/capsense_CSHL.c **** *  capsense_sensorEnableMask[0] contains the masked bits for sensors
 590:.\Generated_Source\PSoC4/capsense_CSHL.c **** *   0 through 7 (sensor 0 is bit 0, sensor 1 is bit 1).
 591:.\Generated_Source\PSoC4/capsense_CSHL.c **** *  capsense_sensorEnableMask[1] contains the masked bits for
 592:.\Generated_Source\PSoC4/capsense_CSHL.c **** *  sensors 8 through 15 (if needed), and so on.
 593:.\Generated_Source\PSoC4/capsense_CSHL.c **** *  0 - sensor doesn't scan by capsense_ScanEnabledWidgets().
 594:.\Generated_Source\PSoC4/capsense_CSHL.c **** *  1 - sensor scans by capsense_ScanEnabledWidgets().
 595:.\Generated_Source\PSoC4/capsense_CSHL.c **** *
 596:.\Generated_Source\PSoC4/capsense_CSHL.c **** * Side Effects:
 597:.\Generated_Source\PSoC4/capsense_CSHL.c **** *  None
ARM GAS  C:\Users\Alan\AppData\Local\Temp\ccSwCrkV.s 			page 15


 598:.\Generated_Source\PSoC4/capsense_CSHL.c **** *
 599:.\Generated_Source\PSoC4/capsense_CSHL.c **** *******************************************************************************/
 600:.\Generated_Source\PSoC4/capsense_CSHL.c ****  void capsense_UpdateEnabledBaselines(void)
 601:.\Generated_Source\PSoC4/capsense_CSHL.c **** {
 602:.\Generated_Source\PSoC4/capsense_CSHL.c ****     uint32 i;
 603:.\Generated_Source\PSoC4/capsense_CSHL.c ****     uint32 isSensorEnabled;
 604:.\Generated_Source\PSoC4/capsense_CSHL.c **** 
 605:.\Generated_Source\PSoC4/capsense_CSHL.c ****     for(i = 0u; i < capsense_TOTAL_SENSOR_COUNT; i++)
 606:.\Generated_Source\PSoC4/capsense_CSHL.c ****     {
 607:.\Generated_Source\PSoC4/capsense_CSHL.c ****         isSensorEnabled = capsense_GetBitValue(capsense_sensorEnableMask, i);
 608:.\Generated_Source\PSoC4/capsense_CSHL.c **** 
 609:.\Generated_Source\PSoC4/capsense_CSHL.c ****         if(0u != isSensorEnabled)
 610:.\Generated_Source\PSoC4/capsense_CSHL.c ****         {
 611:.\Generated_Source\PSoC4/capsense_CSHL.c ****             capsense_UpdateSensorBaseline(i);
 612:.\Generated_Source\PSoC4/capsense_CSHL.c ****         }
 613:.\Generated_Source\PSoC4/capsense_CSHL.c ****     }
 614:.\Generated_Source\PSoC4/capsense_CSHL.c **** }
 615:.\Generated_Source\PSoC4/capsense_CSHL.c **** 
 616:.\Generated_Source\PSoC4/capsense_CSHL.c **** /*******************************************************************************
 617:.\Generated_Source\PSoC4/capsense_CSHL.c **** * Function Name: capsense_UpdateWidgetBaseline
 618:.\Generated_Source\PSoC4/capsense_CSHL.c **** ********************************************************************************
 619:.\Generated_Source\PSoC4/capsense_CSHL.c **** *
 620:.\Generated_Source\PSoC4/capsense_CSHL.c **** * Summary:
 621:.\Generated_Source\PSoC4/capsense_CSHL.c **** *  Checks capsense_sensorEnableMask[] array and calls the
 622:.\Generated_Source\PSoC4/capsense_CSHL.c **** *  capsense_UpdateSensorBaseline function to update the baselines
 623:.\Generated_Source\PSoC4/capsense_CSHL.c **** *  for the enabled sensors that belong to widget.
 624:.\Generated_Source\PSoC4/capsense_CSHL.c **** *
 625:.\Generated_Source\PSoC4/capsense_CSHL.c **** * Parameters:
 626:.\Generated_Source\PSoC4/capsense_CSHL.c **** *  widget:  Widget number.
 627:.\Generated_Source\PSoC4/capsense_CSHL.c **** *
 628:.\Generated_Source\PSoC4/capsense_CSHL.c **** * Return:
 629:.\Generated_Source\PSoC4/capsense_CSHL.c **** *  None
 630:.\Generated_Source\PSoC4/capsense_CSHL.c **** *
 631:.\Generated_Source\PSoC4/capsense_CSHL.c **** * Global Variables:
 632:.\Generated_Source\PSoC4/capsense_CSHL.c **** *  capsense_sensorEnableMask[] - used to store the sensor scanning
 633:.\Generated_Source\PSoC4/capsense_CSHL.c **** *  state.
 634:.\Generated_Source\PSoC4/capsense_CSHL.c **** *  capsense_sensorEnableMask[0] contains the masked bits for sensors
 635:.\Generated_Source\PSoC4/capsense_CSHL.c **** *   0 through 7 (sensor 0 is bit 0, sensor 1 is bit 1).
 636:.\Generated_Source\PSoC4/capsense_CSHL.c **** *  capsense_sensorEnableMask[1] contains the masked bits for
 637:.\Generated_Source\PSoC4/capsense_CSHL.c **** *  sensors 8 through 15 (if needed), and so on.
 638:.\Generated_Source\PSoC4/capsense_CSHL.c **** *  0 - sensor doesn't scan by capsense_ScanEnabledWidgets().
 639:.\Generated_Source\PSoC4/capsense_CSHL.c **** *  1 - sensor scans by capsense_ScanEnabledWidgets().
 640:.\Generated_Source\PSoC4/capsense_CSHL.c **** *
 641:.\Generated_Source\PSoC4/capsense_CSHL.c **** * Side Effects:
 642:.\Generated_Source\PSoC4/capsense_CSHL.c **** *  None
 643:.\Generated_Source\PSoC4/capsense_CSHL.c **** *
 644:.\Generated_Source\PSoC4/capsense_CSHL.c **** *******************************************************************************/
 645:.\Generated_Source\PSoC4/capsense_CSHL.c **** void capsense_UpdateWidgetBaseline(uint32 widget)
 646:.\Generated_Source\PSoC4/capsense_CSHL.c **** {
 647:.\Generated_Source\PSoC4/capsense_CSHL.c ****     uint32 sensorsPerWidget;
 648:.\Generated_Source\PSoC4/capsense_CSHL.c ****     uint32 firstSensor;
 649:.\Generated_Source\PSoC4/capsense_CSHL.c ****     uint32 lastSensor;
 650:.\Generated_Source\PSoC4/capsense_CSHL.c ****     uint32 i;
 651:.\Generated_Source\PSoC4/capsense_CSHL.c ****     uint32 isSensorEnabled;
 652:.\Generated_Source\PSoC4/capsense_CSHL.c **** 
 653:.\Generated_Source\PSoC4/capsense_CSHL.c ****     /* Get number of sensors in widget */
 654:.\Generated_Source\PSoC4/capsense_CSHL.c ****     sensorsPerWidget = capsense_numberOfSensors[widget];
ARM GAS  C:\Users\Alan\AppData\Local\Temp\ccSwCrkV.s 			page 16


 655:.\Generated_Source\PSoC4/capsense_CSHL.c **** 
 656:.\Generated_Source\PSoC4/capsense_CSHL.c ****     /* Get first sensor in widget */
 657:.\Generated_Source\PSoC4/capsense_CSHL.c ****     firstSensor = capsense_rawDataIndex[widget];
 658:.\Generated_Source\PSoC4/capsense_CSHL.c **** 
 659:.\Generated_Source\PSoC4/capsense_CSHL.c ****     /* Get last sensor in widget */
 660:.\Generated_Source\PSoC4/capsense_CSHL.c ****     lastSensor = (capsense_rawDataIndex[widget] + sensorsPerWidget);
 661:.\Generated_Source\PSoC4/capsense_CSHL.c **** 
 662:.\Generated_Source\PSoC4/capsense_CSHL.c ****     for(i = firstSensor; i < lastSensor; i++)
 663:.\Generated_Source\PSoC4/capsense_CSHL.c ****     {
 664:.\Generated_Source\PSoC4/capsense_CSHL.c ****         isSensorEnabled = capsense_GetBitValue(capsense_sensorEnableMask, i);
 665:.\Generated_Source\PSoC4/capsense_CSHL.c **** 
 666:.\Generated_Source\PSoC4/capsense_CSHL.c ****         if(0u != isSensorEnabled)
 667:.\Generated_Source\PSoC4/capsense_CSHL.c ****         {
 668:.\Generated_Source\PSoC4/capsense_CSHL.c ****             capsense_UpdateSensorBaseline(i);
 669:.\Generated_Source\PSoC4/capsense_CSHL.c ****         }
 670:.\Generated_Source\PSoC4/capsense_CSHL.c ****     }
 671:.\Generated_Source\PSoC4/capsense_CSHL.c **** }
 672:.\Generated_Source\PSoC4/capsense_CSHL.c **** 
 673:.\Generated_Source\PSoC4/capsense_CSHL.c **** 
 674:.\Generated_Source\PSoC4/capsense_CSHL.c **** /*******************************************************************************
 675:.\Generated_Source\PSoC4/capsense_CSHL.c **** * Function Name: capsense_GetBaselineData
 676:.\Generated_Source\PSoC4/capsense_CSHL.c **** ********************************************************************************
 677:.\Generated_Source\PSoC4/capsense_CSHL.c **** *
 678:.\Generated_Source\PSoC4/capsense_CSHL.c **** * Summary:
 679:.\Generated_Source\PSoC4/capsense_CSHL.c **** *  This function reads the sensor baseline from the component.
 680:.\Generated_Source\PSoC4/capsense_CSHL.c **** *
 681:.\Generated_Source\PSoC4/capsense_CSHL.c **** * Parameters:
 682:.\Generated_Source\PSoC4/capsense_CSHL.c **** *  sensor:  Sensor number.
 683:.\Generated_Source\PSoC4/capsense_CSHL.c **** *
 684:.\Generated_Source\PSoC4/capsense_CSHL.c **** * Return:
 685:.\Generated_Source\PSoC4/capsense_CSHL.c **** *  This API returns the baseline value of the sensor indicated by an argument.
 686:.\Generated_Source\PSoC4/capsense_CSHL.c **** *
 687:.\Generated_Source\PSoC4/capsense_CSHL.c **** * Global Variables:
 688:.\Generated_Source\PSoC4/capsense_CSHL.c **** *  capsense_sensorBaseline[] - the array with an initial values by scanning
 689:.\Generated_Source\PSoC4/capsense_CSHL.c **** *
 690:.\Generated_Source\PSoC4/capsense_CSHL.c **** * Side Effects:
 691:.\Generated_Source\PSoC4/capsense_CSHL.c **** *  None
 692:.\Generated_Source\PSoC4/capsense_CSHL.c **** *
 693:.\Generated_Source\PSoC4/capsense_CSHL.c **** *******************************************************************************/
 694:.\Generated_Source\PSoC4/capsense_CSHL.c **** uint16 capsense_GetBaselineData(uint32 sensor)
 695:.\Generated_Source\PSoC4/capsense_CSHL.c **** {
 198              		.loc 1 695 0
 199              		.cfi_startproc
 200              	.LVL20:
 696:.\Generated_Source\PSoC4/capsense_CSHL.c ****     return (capsense_sensorBaseline[sensor]);
 201              		.loc 1 696 0
 202 0000 4000     		lsl	r0, r0, #1
 203              	.LVL21:
 204 0002 014B     		ldr	r3, .L17
 205 0004 185A     		ldrh	r0, [r3, r0]
 697:.\Generated_Source\PSoC4/capsense_CSHL.c **** }
 206              		.loc 1 697 0
 207              		@ sp needed
 208 0006 7047     		bx	lr
 209              	.L18:
 210              		.align	2
 211              	.L17:
ARM GAS  C:\Users\Alan\AppData\Local\Temp\ccSwCrkV.s 			page 17


 212 0008 00000000 		.word	.LANCHOR0
 213              		.cfi_endproc
 214              	.LFE43:
 215              		.size	capsense_GetBaselineData, .-capsense_GetBaselineData
 216              		.section	.text.capsense_SetBaselineData,"ax",%progbits
 217              		.align	2
 218              		.global	capsense_SetBaselineData
 219              		.code	16
 220              		.thumb_func
 221              		.type	capsense_SetBaselineData, %function
 222              	capsense_SetBaselineData:
 223              	.LFB44:
 698:.\Generated_Source\PSoC4/capsense_CSHL.c **** 
 699:.\Generated_Source\PSoC4/capsense_CSHL.c **** 
 700:.\Generated_Source\PSoC4/capsense_CSHL.c **** /*******************************************************************************
 701:.\Generated_Source\PSoC4/capsense_CSHL.c **** * Function Name: capsense_SetBaselineData
 702:.\Generated_Source\PSoC4/capsense_CSHL.c **** ********************************************************************************
 703:.\Generated_Source\PSoC4/capsense_CSHL.c **** *
 704:.\Generated_Source\PSoC4/capsense_CSHL.c **** * Summary:
 705:.\Generated_Source\PSoC4/capsense_CSHL.c **** *  This API writes the data value passed as an argument to the sensor baseline array.
 706:.\Generated_Source\PSoC4/capsense_CSHL.c **** *
 707:.\Generated_Source\PSoC4/capsense_CSHL.c **** * Parameters:
 708:.\Generated_Source\PSoC4/capsense_CSHL.c **** *  sensor:  Sensor number.
 709:.\Generated_Source\PSoC4/capsense_CSHL.c **** *  data:    Sensor baseline.
 710:.\Generated_Source\PSoC4/capsense_CSHL.c **** *
 711:.\Generated_Source\PSoC4/capsense_CSHL.c **** * Return:
 712:.\Generated_Source\PSoC4/capsense_CSHL.c **** *  None.
 713:.\Generated_Source\PSoC4/capsense_CSHL.c **** *
 714:.\Generated_Source\PSoC4/capsense_CSHL.c **** * Global Variables:
 715:.\Generated_Source\PSoC4/capsense_CSHL.c **** *  capsense_sensorBaseline[] - the array with initial values by scanning
 716:.\Generated_Source\PSoC4/capsense_CSHL.c **** *
 717:.\Generated_Source\PSoC4/capsense_CSHL.c **** * Side Effects:
 718:.\Generated_Source\PSoC4/capsense_CSHL.c **** *  None
 719:.\Generated_Source\PSoC4/capsense_CSHL.c **** *
 720:.\Generated_Source\PSoC4/capsense_CSHL.c **** *******************************************************************************/
 721:.\Generated_Source\PSoC4/capsense_CSHL.c **** void capsense_SetBaselineData(uint32 sensor, uint16 data)
 722:.\Generated_Source\PSoC4/capsense_CSHL.c **** {
 224              		.loc 1 722 0
 225              		.cfi_startproc
 226              	.LVL22:
 723:.\Generated_Source\PSoC4/capsense_CSHL.c ****     capsense_sensorBaseline[sensor] = data;
 227              		.loc 1 723 0
 228 0000 4000     		lsl	r0, r0, #1
 229              	.LVL23:
 230 0002 014B     		ldr	r3, .L20
 231 0004 C152     		strh	r1, [r0, r3]
 724:.\Generated_Source\PSoC4/capsense_CSHL.c **** }
 232              		.loc 1 724 0
 233              		@ sp needed
 234 0006 7047     		bx	lr
 235              	.L21:
 236              		.align	2
 237              	.L20:
 238 0008 00000000 		.word	.LANCHOR0
 239              		.cfi_endproc
 240              	.LFE44:
 241              		.size	capsense_SetBaselineData, .-capsense_SetBaselineData
ARM GAS  C:\Users\Alan\AppData\Local\Temp\ccSwCrkV.s 			page 18


 242              		.section	.text.capsense_GetDiffCountData,"ax",%progbits
 243              		.align	2
 244              		.global	capsense_GetDiffCountData
 245              		.code	16
 246              		.thumb_func
 247              		.type	capsense_GetDiffCountData, %function
 248              	capsense_GetDiffCountData:
 249              	.LFB45:
 725:.\Generated_Source\PSoC4/capsense_CSHL.c **** 
 726:.\Generated_Source\PSoC4/capsense_CSHL.c **** 
 727:.\Generated_Source\PSoC4/capsense_CSHL.c **** /*******************************************************************************
 728:.\Generated_Source\PSoC4/capsense_CSHL.c **** * Function Name: capsense_GetDiffCountData
 729:.\Generated_Source\PSoC4/capsense_CSHL.c **** ********************************************************************************
 730:.\Generated_Source\PSoC4/capsense_CSHL.c **** *
 731:.\Generated_Source\PSoC4/capsense_CSHL.c **** * Summary:
 732:.\Generated_Source\PSoC4/capsense_CSHL.c **** *  This function returns the Sensor Signal from the component.
 733:.\Generated_Source\PSoC4/capsense_CSHL.c **** *
 734:.\Generated_Source\PSoC4/capsense_CSHL.c **** * Parameters:
 735:.\Generated_Source\PSoC4/capsense_CSHL.c **** *  sensor:  Sensor number.
 736:.\Generated_Source\PSoC4/capsense_CSHL.c **** *
 737:.\Generated_Source\PSoC4/capsense_CSHL.c **** * Return:
 738:.\Generated_Source\PSoC4/capsense_CSHL.c **** *  This API returns the difference count value of the sensor indicated by the
 739:.\Generated_Source\PSoC4/capsense_CSHL.c **** *  argument.
 740:.\Generated_Source\PSoC4/capsense_CSHL.c **** *
 741:.\Generated_Source\PSoC4/capsense_CSHL.c **** * Global Variables:
 742:.\Generated_Source\PSoC4/capsense_CSHL.c **** *  capsense_sensorSignal[] - the array with difference counts for sensors
 743:.\Generated_Source\PSoC4/capsense_CSHL.c **** *
 744:.\Generated_Source\PSoC4/capsense_CSHL.c **** * Side Effects:
 745:.\Generated_Source\PSoC4/capsense_CSHL.c **** *  None
 746:.\Generated_Source\PSoC4/capsense_CSHL.c **** *
 747:.\Generated_Source\PSoC4/capsense_CSHL.c **** *******************************************************************************/
 748:.\Generated_Source\PSoC4/capsense_CSHL.c **** uint8 capsense_GetDiffCountData(uint32 sensor)
 749:.\Generated_Source\PSoC4/capsense_CSHL.c **** {
 250              		.loc 1 749 0
 251              		.cfi_startproc
 252              	.LVL24:
 750:.\Generated_Source\PSoC4/capsense_CSHL.c ****     return (capsense_sensorSignal[sensor]);
 253              		.loc 1 750 0
 254 0000 014B     		ldr	r3, .L23
 255 0002 1818     		add	r0, r3, r0
 256              	.LVL25:
 257 0004 007D     		ldrb	r0, [r0, #20]
 751:.\Generated_Source\PSoC4/capsense_CSHL.c **** }
 258              		.loc 1 751 0
 259              		@ sp needed
 260 0006 7047     		bx	lr
 261              	.L24:
 262              		.align	2
 263              	.L23:
 264 0008 00000000 		.word	.LANCHOR0
 265              		.cfi_endproc
 266              	.LFE45:
 267              		.size	capsense_GetDiffCountData, .-capsense_GetDiffCountData
 268              		.section	.text.capsense_SetDiffCountData,"ax",%progbits
 269              		.align	2
 270              		.global	capsense_SetDiffCountData
 271              		.code	16
ARM GAS  C:\Users\Alan\AppData\Local\Temp\ccSwCrkV.s 			page 19


 272              		.thumb_func
 273              		.type	capsense_SetDiffCountData, %function
 274              	capsense_SetDiffCountData:
 275              	.LFB46:
 752:.\Generated_Source\PSoC4/capsense_CSHL.c **** 
 753:.\Generated_Source\PSoC4/capsense_CSHL.c **** 
 754:.\Generated_Source\PSoC4/capsense_CSHL.c **** /*******************************************************************************
 755:.\Generated_Source\PSoC4/capsense_CSHL.c **** * Function Name: capsense_SetDiffCountData
 756:.\Generated_Source\PSoC4/capsense_CSHL.c **** ********************************************************************************
 757:.\Generated_Source\PSoC4/capsense_CSHL.c **** *
 758:.\Generated_Source\PSoC4/capsense_CSHL.c **** * Summary:
 759:.\Generated_Source\PSoC4/capsense_CSHL.c **** *  This API writes the data value passed as an argument to the sensor signal array.
 760:.\Generated_Source\PSoC4/capsense_CSHL.c **** *
 761:.\Generated_Source\PSoC4/capsense_CSHL.c **** * Parameters:
 762:.\Generated_Source\PSoC4/capsense_CSHL.c **** *  sensor:  Sensor number.
 763:.\Generated_Source\PSoC4/capsense_CSHL.c **** *  value:   Sensor signal.
 764:.\Generated_Source\PSoC4/capsense_CSHL.c **** *
 765:.\Generated_Source\PSoC4/capsense_CSHL.c **** * Return:
 766:.\Generated_Source\PSoC4/capsense_CSHL.c **** *  None.
 767:.\Generated_Source\PSoC4/capsense_CSHL.c **** *
 768:.\Generated_Source\PSoC4/capsense_CSHL.c **** * Global Variables:
 769:.\Generated_Source\PSoC4/capsense_CSHL.c **** *  capsense_sensorSignal[] - the array with difference counts for sensors
 770:.\Generated_Source\PSoC4/capsense_CSHL.c **** *
 771:.\Generated_Source\PSoC4/capsense_CSHL.c **** * Side Effects:
 772:.\Generated_Source\PSoC4/capsense_CSHL.c **** *  None
 773:.\Generated_Source\PSoC4/capsense_CSHL.c **** *
 774:.\Generated_Source\PSoC4/capsense_CSHL.c **** *******************************************************************************/
 775:.\Generated_Source\PSoC4/capsense_CSHL.c **** void capsense_SetDiffCountData(uint32 sensor, uint8 value)
 776:.\Generated_Source\PSoC4/capsense_CSHL.c **** {
 276              		.loc 1 776 0
 277              		.cfi_startproc
 278              	.LVL26:
 777:.\Generated_Source\PSoC4/capsense_CSHL.c ****     capsense_sensorSignal[sensor] = value;
 279              		.loc 1 777 0
 280 0000 014B     		ldr	r3, .L26
 281 0002 1818     		add	r0, r3, r0
 282              	.LVL27:
 283 0004 0175     		strb	r1, [r0, #20]
 778:.\Generated_Source\PSoC4/capsense_CSHL.c **** }
 284              		.loc 1 778 0
 285              		@ sp needed
 286 0006 7047     		bx	lr
 287              	.L27:
 288              		.align	2
 289              	.L26:
 290 0008 00000000 		.word	.LANCHOR0
 291              		.cfi_endproc
 292              	.LFE46:
 293              		.size	capsense_SetDiffCountData, .-capsense_SetDiffCountData
 294              		.section	.text.capsense_GetFingerThreshold,"ax",%progbits
 295              		.align	2
 296              		.global	capsense_GetFingerThreshold
 297              		.code	16
 298              		.thumb_func
 299              		.type	capsense_GetFingerThreshold, %function
 300              	capsense_GetFingerThreshold:
 301              	.LFB47:
ARM GAS  C:\Users\Alan\AppData\Local\Temp\ccSwCrkV.s 			page 20


 779:.\Generated_Source\PSoC4/capsense_CSHL.c **** 
 780:.\Generated_Source\PSoC4/capsense_CSHL.c **** 
 781:.\Generated_Source\PSoC4/capsense_CSHL.c **** /*******************************************************************************
 782:.\Generated_Source\PSoC4/capsense_CSHL.c **** * Function Name: capsense_GetFingerThreshold
 783:.\Generated_Source\PSoC4/capsense_CSHL.c **** ********************************************************************************
 784:.\Generated_Source\PSoC4/capsense_CSHL.c **** *
 785:.\Generated_Source\PSoC4/capsense_CSHL.c **** * Summary:
 786:.\Generated_Source\PSoC4/capsense_CSHL.c **** *  This function reads the finger threshold from the component.
 787:.\Generated_Source\PSoC4/capsense_CSHL.c **** *
 788:.\Generated_Source\PSoC4/capsense_CSHL.c **** * Parameters:
 789:.\Generated_Source\PSoC4/capsense_CSHL.c **** *  widget:  widget number.
 790:.\Generated_Source\PSoC4/capsense_CSHL.c **** *
 791:.\Generated_Source\PSoC4/capsense_CSHL.c **** * Return:
 792:.\Generated_Source\PSoC4/capsense_CSHL.c **** *  This API returns the finger threshold of the widget indicated by the argument.
 793:.\Generated_Source\PSoC4/capsense_CSHL.c **** *
 794:.\Generated_Source\PSoC4/capsense_CSHL.c **** * Global Variables:
 795:.\Generated_Source\PSoC4/capsense_CSHL.c **** *  capsense_fingerThreshold[] - This array contains the level of signal
 796:.\Generated_Source\PSoC4/capsense_CSHL.c **** *  for each widget that is determined if a finger is present on the widget.
 797:.\Generated_Source\PSoC4/capsense_CSHL.c **** *
 798:.\Generated_Source\PSoC4/capsense_CSHL.c **** * Side Effects:
 799:.\Generated_Source\PSoC4/capsense_CSHL.c **** *  None
 800:.\Generated_Source\PSoC4/capsense_CSHL.c **** *
 801:.\Generated_Source\PSoC4/capsense_CSHL.c **** *******************************************************************************/
 802:.\Generated_Source\PSoC4/capsense_CSHL.c **** uint8 capsense_GetFingerThreshold(uint32 widget)
 803:.\Generated_Source\PSoC4/capsense_CSHL.c **** {
 302              		.loc 1 803 0
 303              		.cfi_startproc
 304              	.LVL28:
 804:.\Generated_Source\PSoC4/capsense_CSHL.c ****     return(capsense_fingerThreshold[widget]);
 305              		.loc 1 804 0
 306 0000 014B     		ldr	r3, .L29
 307 0002 185C     		ldrb	r0, [r3, r0]
 308              	.LVL29:
 805:.\Generated_Source\PSoC4/capsense_CSHL.c **** }
 309              		.loc 1 805 0
 310              		@ sp needed
 311 0004 7047     		bx	lr
 312              	.L30:
 313 0006 C046     		.align	2
 314              	.L29:
 315 0008 00000000 		.word	capsense_fingerThreshold
 316              		.cfi_endproc
 317              	.LFE47:
 318              		.size	capsense_GetFingerThreshold, .-capsense_GetFingerThreshold
 319              		.section	.text.capsense_GetNoiseThreshold,"ax",%progbits
 320              		.align	2
 321              		.global	capsense_GetNoiseThreshold
 322              		.code	16
 323              		.thumb_func
 324              		.type	capsense_GetNoiseThreshold, %function
 325              	capsense_GetNoiseThreshold:
 326              	.LFB48:
 806:.\Generated_Source\PSoC4/capsense_CSHL.c **** 
 807:.\Generated_Source\PSoC4/capsense_CSHL.c **** 
 808:.\Generated_Source\PSoC4/capsense_CSHL.c **** /*******************************************************************************
 809:.\Generated_Source\PSoC4/capsense_CSHL.c **** * Function Name: capsense_GetNoiseThreshold
 810:.\Generated_Source\PSoC4/capsense_CSHL.c **** ********************************************************************************
ARM GAS  C:\Users\Alan\AppData\Local\Temp\ccSwCrkV.s 			page 21


 811:.\Generated_Source\PSoC4/capsense_CSHL.c **** *
 812:.\Generated_Source\PSoC4/capsense_CSHL.c **** * Summary:
 813:.\Generated_Source\PSoC4/capsense_CSHL.c **** *  This function reads the noise threshold from the component.
 814:.\Generated_Source\PSoC4/capsense_CSHL.c **** *
 815:.\Generated_Source\PSoC4/capsense_CSHL.c **** * Parameters:
 816:.\Generated_Source\PSoC4/capsense_CSHL.c **** *  widget:  widget number.
 817:.\Generated_Source\PSoC4/capsense_CSHL.c **** *
 818:.\Generated_Source\PSoC4/capsense_CSHL.c **** * Return:
 819:.\Generated_Source\PSoC4/capsense_CSHL.c **** *  This API returns the noise threshold of the widget indicated by the argument.
 820:.\Generated_Source\PSoC4/capsense_CSHL.c **** *
 821:.\Generated_Source\PSoC4/capsense_CSHL.c **** * Global Variables:
 822:.\Generated_Source\PSoC4/capsense_CSHL.c **** *  capsense_noiseThreshold[] - This array contains the level of signal
 823:.\Generated_Source\PSoC4/capsense_CSHL.c **** *  for each widget that determines the level of noise in the capacitive scan.
 824:.\Generated_Source\PSoC4/capsense_CSHL.c **** *
 825:.\Generated_Source\PSoC4/capsense_CSHL.c **** * Side Effects:
 826:.\Generated_Source\PSoC4/capsense_CSHL.c **** *  None
 827:.\Generated_Source\PSoC4/capsense_CSHL.c **** *
 828:.\Generated_Source\PSoC4/capsense_CSHL.c **** *******************************************************************************/
 829:.\Generated_Source\PSoC4/capsense_CSHL.c **** uint8 capsense_GetNoiseThreshold(uint32 widget)
 830:.\Generated_Source\PSoC4/capsense_CSHL.c **** {
 327              		.loc 1 830 0
 328              		.cfi_startproc
 329              	.LVL30:
 831:.\Generated_Source\PSoC4/capsense_CSHL.c ****     return (capsense_noiseThreshold[widget]);
 330              		.loc 1 831 0
 331 0000 014B     		ldr	r3, .L32
 332 0002 185C     		ldrb	r0, [r3, r0]
 333              	.LVL31:
 832:.\Generated_Source\PSoC4/capsense_CSHL.c **** }
 334              		.loc 1 832 0
 335              		@ sp needed
 336 0004 7047     		bx	lr
 337              	.L33:
 338 0006 C046     		.align	2
 339              	.L32:
 340 0008 00000000 		.word	capsense_noiseThreshold
 341              		.cfi_endproc
 342              	.LFE48:
 343              		.size	capsense_GetNoiseThreshold, .-capsense_GetNoiseThreshold
 344              		.section	.text.capsense_GetFingerHysteresis,"ax",%progbits
 345              		.align	2
 346              		.global	capsense_GetFingerHysteresis
 347              		.code	16
 348              		.thumb_func
 349              		.type	capsense_GetFingerHysteresis, %function
 350              	capsense_GetFingerHysteresis:
 351              	.LFB49:
 833:.\Generated_Source\PSoC4/capsense_CSHL.c **** 
 834:.\Generated_Source\PSoC4/capsense_CSHL.c **** 
 835:.\Generated_Source\PSoC4/capsense_CSHL.c **** /*******************************************************************************
 836:.\Generated_Source\PSoC4/capsense_CSHL.c **** * Function Name: capsense_GetFingerHysteresis
 837:.\Generated_Source\PSoC4/capsense_CSHL.c **** ********************************************************************************
 838:.\Generated_Source\PSoC4/capsense_CSHL.c **** *
 839:.\Generated_Source\PSoC4/capsense_CSHL.c **** * Summary:
 840:.\Generated_Source\PSoC4/capsense_CSHL.c **** *  This function reads the Hysteresis value from the component.
 841:.\Generated_Source\PSoC4/capsense_CSHL.c **** *
 842:.\Generated_Source\PSoC4/capsense_CSHL.c **** * Parameters:
ARM GAS  C:\Users\Alan\AppData\Local\Temp\ccSwCrkV.s 			page 22


 843:.\Generated_Source\PSoC4/capsense_CSHL.c **** *  widget:  widget number.
 844:.\Generated_Source\PSoC4/capsense_CSHL.c **** *
 845:.\Generated_Source\PSoC4/capsense_CSHL.c **** * Return:
 846:.\Generated_Source\PSoC4/capsense_CSHL.c **** *  This API returns the Hysteresis of the widget indicated by the argument.
 847:.\Generated_Source\PSoC4/capsense_CSHL.c **** *
 848:.\Generated_Source\PSoC4/capsense_CSHL.c **** * Global Variables:
 849:.\Generated_Source\PSoC4/capsense_CSHL.c **** *  capsense_hysteresis[] - This array contains the hysteresis value
 850:.\Generated_Source\PSoC4/capsense_CSHL.c **** *   for each widget.
 851:.\Generated_Source\PSoC4/capsense_CSHL.c **** *  capsense_widgetNumberSld - structure with dynamic sliders' parameters.
 852:.\Generated_Source\PSoC4/capsense_CSHL.c **** *
 853:.\Generated_Source\PSoC4/capsense_CSHL.c **** * Side Effects:
 854:.\Generated_Source\PSoC4/capsense_CSHL.c **** *  None
 855:.\Generated_Source\PSoC4/capsense_CSHL.c **** *
 856:.\Generated_Source\PSoC4/capsense_CSHL.c **** *******************************************************************************/
 857:.\Generated_Source\PSoC4/capsense_CSHL.c **** uint8 capsense_GetFingerHysteresis(uint32 widget)
 858:.\Generated_Source\PSoC4/capsense_CSHL.c **** {
 352              		.loc 1 858 0
 353              		.cfi_startproc
 354              	.LVL32:
 859:.\Generated_Source\PSoC4/capsense_CSHL.c ****     return(capsense_hysteresis[widget]);
 355              		.loc 1 859 0
 356 0000 014B     		ldr	r3, .L35
 357 0002 185C     		ldrb	r0, [r3, r0]
 358              	.LVL33:
 860:.\Generated_Source\PSoC4/capsense_CSHL.c **** }
 359              		.loc 1 860 0
 360              		@ sp needed
 361 0004 7047     		bx	lr
 362              	.L36:
 363 0006 C046     		.align	2
 364              	.L35:
 365 0008 00000000 		.word	capsense_hysteresis
 366              		.cfi_endproc
 367              	.LFE49:
 368              		.size	capsense_GetFingerHysteresis, .-capsense_GetFingerHysteresis
 369              		.section	.text.capsense_GetNegativeNoiseThreshold,"ax",%progbits
 370              		.align	2
 371              		.global	capsense_GetNegativeNoiseThreshold
 372              		.code	16
 373              		.thumb_func
 374              		.type	capsense_GetNegativeNoiseThreshold, %function
 375              	capsense_GetNegativeNoiseThreshold:
 376              	.LFB50:
 861:.\Generated_Source\PSoC4/capsense_CSHL.c **** 
 862:.\Generated_Source\PSoC4/capsense_CSHL.c **** 
 863:.\Generated_Source\PSoC4/capsense_CSHL.c **** /*******************************************************************************
 864:.\Generated_Source\PSoC4/capsense_CSHL.c **** * Function Name: capsense_GetNegativeNoiseThreshold
 865:.\Generated_Source\PSoC4/capsense_CSHL.c **** ********************************************************************************
 866:.\Generated_Source\PSoC4/capsense_CSHL.c **** *
 867:.\Generated_Source\PSoC4/capsense_CSHL.c **** * Summary:
 868:.\Generated_Source\PSoC4/capsense_CSHL.c **** *  This function reads the negative noise threshold from the component.
 869:.\Generated_Source\PSoC4/capsense_CSHL.c **** *
 870:.\Generated_Source\PSoC4/capsense_CSHL.c **** * Parameters:
 871:.\Generated_Source\PSoC4/capsense_CSHL.c **** *  None.
 872:.\Generated_Source\PSoC4/capsense_CSHL.c **** *
 873:.\Generated_Source\PSoC4/capsense_CSHL.c **** * Return Value:
 874:.\Generated_Source\PSoC4/capsense_CSHL.c **** *  This API returns the negative noise threshold
ARM GAS  C:\Users\Alan\AppData\Local\Temp\ccSwCrkV.s 			page 23


 875:.\Generated_Source\PSoC4/capsense_CSHL.c **** *
 876:.\Generated_Source\PSoC4/capsense_CSHL.c **** * Global Variables:
 877:.\Generated_Source\PSoC4/capsense_CSHL.c **** *  capsense_negativeNoiseThreshold - This variable specifies the negative
 878:.\Generated_Source\PSoC4/capsense_CSHL.c **** *   difference between the raw count and baseline levels for Baseline resetting
 879:.\Generated_Source\PSoC4/capsense_CSHL.c **** *   to the raw count level.
 880:.\Generated_Source\PSoC4/capsense_CSHL.c **** *
 881:.\Generated_Source\PSoC4/capsense_CSHL.c **** * Side Effects:
 882:.\Generated_Source\PSoC4/capsense_CSHL.c **** *  None
 883:.\Generated_Source\PSoC4/capsense_CSHL.c **** *
 884:.\Generated_Source\PSoC4/capsense_CSHL.c **** *******************************************************************************/
 885:.\Generated_Source\PSoC4/capsense_CSHL.c **** uint8 capsense_GetNegativeNoiseThreshold(uint32 widget)
 886:.\Generated_Source\PSoC4/capsense_CSHL.c **** {
 377              		.loc 1 886 0
 378              		.cfi_startproc
 379              	.LVL34:
 887:.\Generated_Source\PSoC4/capsense_CSHL.c **** #if (capsense_TUNING_METHOD != capsense__TUNING_NONE)
 888:.\Generated_Source\PSoC4/capsense_CSHL.c ****     return(capsense_negativeNoiseThreshold[widget]);
 380              		.loc 1 888 0
 381 0000 014B     		ldr	r3, .L38
 382 0002 185C     		ldrb	r0, [r3, r0]
 383              	.LVL35:
 889:.\Generated_Source\PSoC4/capsense_CSHL.c **** #else
 890:.\Generated_Source\PSoC4/capsense_CSHL.c ****     return(capsense_NEGATIVE_NOISE_THRESHOLD);
 891:.\Generated_Source\PSoC4/capsense_CSHL.c **** #endif /* (capsense_TUNING_METHOD != capsense__TUNING_NONE) */
 892:.\Generated_Source\PSoC4/capsense_CSHL.c **** }
 384              		.loc 1 892 0
 385              		@ sp needed
 386 0004 7047     		bx	lr
 387              	.L39:
 388 0006 C046     		.align	2
 389              	.L38:
 390 0008 00000000 		.word	capsense_negativeNoiseThreshold
 391              		.cfi_endproc
 392              	.LFE50:
 393              		.size	capsense_GetNegativeNoiseThreshold, .-capsense_GetNegativeNoiseThreshold
 394              		.section	.text.capsense_SetFingerThreshold,"ax",%progbits
 395              		.align	2
 396              		.global	capsense_SetFingerThreshold
 397              		.code	16
 398              		.thumb_func
 399              		.type	capsense_SetFingerThreshold, %function
 400              	capsense_SetFingerThreshold:
 401              	.LFB51:
 893:.\Generated_Source\PSoC4/capsense_CSHL.c **** 
 894:.\Generated_Source\PSoC4/capsense_CSHL.c **** 
 895:.\Generated_Source\PSoC4/capsense_CSHL.c **** #if(capsense_TUNING_METHOD != capsense__TUNING_NONE)
 896:.\Generated_Source\PSoC4/capsense_CSHL.c ****     /*******************************************************************************
 897:.\Generated_Source\PSoC4/capsense_CSHL.c ****     * Function Name: capsense_SetFingerThreshold
 898:.\Generated_Source\PSoC4/capsense_CSHL.c ****     ********************************************************************************
 899:.\Generated_Source\PSoC4/capsense_CSHL.c ****     *
 900:.\Generated_Source\PSoC4/capsense_CSHL.c ****     * Summary:
 901:.\Generated_Source\PSoC4/capsense_CSHL.c ****     *  This API sets the finger threshold value for a widget.
 902:.\Generated_Source\PSoC4/capsense_CSHL.c ****     *
 903:.\Generated_Source\PSoC4/capsense_CSHL.c ****     * Parameters:
 904:.\Generated_Source\PSoC4/capsense_CSHL.c ****     *  sensorNumber:  widget index.
 905:.\Generated_Source\PSoC4/capsense_CSHL.c ****     *  value:  Finger threshold value for the widget.
 906:.\Generated_Source\PSoC4/capsense_CSHL.c ****     *
ARM GAS  C:\Users\Alan\AppData\Local\Temp\ccSwCrkV.s 			page 24


 907:.\Generated_Source\PSoC4/capsense_CSHL.c ****     * Return Value:
 908:.\Generated_Source\PSoC4/capsense_CSHL.c ****     *  None
 909:.\Generated_Source\PSoC4/capsense_CSHL.c ****     *
 910:.\Generated_Source\PSoC4/capsense_CSHL.c ****     * Global Variables:
 911:.\Generated_Source\PSoC4/capsense_CSHL.c ****     *  capsense_fingerThreshold[] - This array contains the level of signal
 912:.\Generated_Source\PSoC4/capsense_CSHL.c ****     *   for each widget that determines if a finger is present on the widget.
 913:.\Generated_Source\PSoC4/capsense_CSHL.c ****     *
 914:.\Generated_Source\PSoC4/capsense_CSHL.c ****     * Side Effects:
 915:.\Generated_Source\PSoC4/capsense_CSHL.c ****     *  None
 916:.\Generated_Source\PSoC4/capsense_CSHL.c ****     *
 917:.\Generated_Source\PSoC4/capsense_CSHL.c ****     *******************************************************************************/
 918:.\Generated_Source\PSoC4/capsense_CSHL.c ****     void capsense_SetFingerThreshold(uint32 widget, uint8 value)
 919:.\Generated_Source\PSoC4/capsense_CSHL.c ****     {
 402              		.loc 1 919 0
 403              		.cfi_startproc
 404              	.LVL36:
 920:.\Generated_Source\PSoC4/capsense_CSHL.c ****         capsense_fingerThreshold[widget] = value;
 405              		.loc 1 920 0
 406 0000 014B     		ldr	r3, .L41
 407 0002 1954     		strb	r1, [r3, r0]
 921:.\Generated_Source\PSoC4/capsense_CSHL.c ****     }
 408              		.loc 1 921 0
 409              		@ sp needed
 410 0004 7047     		bx	lr
 411              	.L42:
 412 0006 C046     		.align	2
 413              	.L41:
 414 0008 00000000 		.word	capsense_fingerThreshold
 415              		.cfi_endproc
 416              	.LFE51:
 417              		.size	capsense_SetFingerThreshold, .-capsense_SetFingerThreshold
 418              		.section	.text.capsense_SetNoiseThreshold,"ax",%progbits
 419              		.align	2
 420              		.global	capsense_SetNoiseThreshold
 421              		.code	16
 422              		.thumb_func
 423              		.type	capsense_SetNoiseThreshold, %function
 424              	capsense_SetNoiseThreshold:
 425              	.LFB52:
 922:.\Generated_Source\PSoC4/capsense_CSHL.c **** 
 923:.\Generated_Source\PSoC4/capsense_CSHL.c **** 
 924:.\Generated_Source\PSoC4/capsense_CSHL.c ****     /*******************************************************************************
 925:.\Generated_Source\PSoC4/capsense_CSHL.c ****     * Function Name: capsense_SetNoiseThreshold
 926:.\Generated_Source\PSoC4/capsense_CSHL.c ****     ********************************************************************************
 927:.\Generated_Source\PSoC4/capsense_CSHL.c ****     *
 928:.\Generated_Source\PSoC4/capsense_CSHL.c ****     * Summary:
 929:.\Generated_Source\PSoC4/capsense_CSHL.c ****     *  This API sets the Noise Threshold value for each widget.
 930:.\Generated_Source\PSoC4/capsense_CSHL.c ****     *
 931:.\Generated_Source\PSoC4/capsense_CSHL.c ****     * Parameters:
 932:.\Generated_Source\PSoC4/capsense_CSHL.c ****     *  widget:  Sensor index number.
 933:.\Generated_Source\PSoC4/capsense_CSHL.c ****     *  value:   Noise Threshold value for widget.
 934:.\Generated_Source\PSoC4/capsense_CSHL.c ****     *
 935:.\Generated_Source\PSoC4/capsense_CSHL.c ****     * Return Value:
 936:.\Generated_Source\PSoC4/capsense_CSHL.c ****     *  None
 937:.\Generated_Source\PSoC4/capsense_CSHL.c ****     *
 938:.\Generated_Source\PSoC4/capsense_CSHL.c ****     * Global Variables:
 939:.\Generated_Source\PSoC4/capsense_CSHL.c ****     *  capsense_noiseThreshold[] - This array contains the level of signal
ARM GAS  C:\Users\Alan\AppData\Local\Temp\ccSwCrkV.s 			page 25


 940:.\Generated_Source\PSoC4/capsense_CSHL.c ****     *   for each widget that determines the level of noise in the capacitive scan.
 941:.\Generated_Source\PSoC4/capsense_CSHL.c ****     *
 942:.\Generated_Source\PSoC4/capsense_CSHL.c ****     * Side Effects:
 943:.\Generated_Source\PSoC4/capsense_CSHL.c ****     *  None
 944:.\Generated_Source\PSoC4/capsense_CSHL.c ****     *
 945:.\Generated_Source\PSoC4/capsense_CSHL.c ****     *******************************************************************************/
 946:.\Generated_Source\PSoC4/capsense_CSHL.c ****     void capsense_SetNoiseThreshold(uint32 widget, uint8 value)
 947:.\Generated_Source\PSoC4/capsense_CSHL.c ****     {
 426              		.loc 1 947 0
 427              		.cfi_startproc
 428              	.LVL37:
 948:.\Generated_Source\PSoC4/capsense_CSHL.c ****         capsense_noiseThreshold[widget] = value;
 429              		.loc 1 948 0
 430 0000 014B     		ldr	r3, .L44
 431 0002 1954     		strb	r1, [r3, r0]
 949:.\Generated_Source\PSoC4/capsense_CSHL.c ****     }
 432              		.loc 1 949 0
 433              		@ sp needed
 434 0004 7047     		bx	lr
 435              	.L45:
 436 0006 C046     		.align	2
 437              	.L44:
 438 0008 00000000 		.word	capsense_noiseThreshold
 439              		.cfi_endproc
 440              	.LFE52:
 441              		.size	capsense_SetNoiseThreshold, .-capsense_SetNoiseThreshold
 442              		.section	.text.capsense_SetFingerHysteresis,"ax",%progbits
 443              		.align	2
 444              		.global	capsense_SetFingerHysteresis
 445              		.code	16
 446              		.thumb_func
 447              		.type	capsense_SetFingerHysteresis, %function
 448              	capsense_SetFingerHysteresis:
 449              	.LFB53:
 950:.\Generated_Source\PSoC4/capsense_CSHL.c **** 
 951:.\Generated_Source\PSoC4/capsense_CSHL.c **** 
 952:.\Generated_Source\PSoC4/capsense_CSHL.c ****     /*******************************************************************************
 953:.\Generated_Source\PSoC4/capsense_CSHL.c ****     * Function Name: capsense_SetFingerHysteresis
 954:.\Generated_Source\PSoC4/capsense_CSHL.c ****     ********************************************************************************
 955:.\Generated_Source\PSoC4/capsense_CSHL.c ****     *
 956:.\Generated_Source\PSoC4/capsense_CSHL.c ****     * Summary:
 957:.\Generated_Source\PSoC4/capsense_CSHL.c ****     *  This API sets the Hysteresis value of a widget
 958:.\Generated_Source\PSoC4/capsense_CSHL.c ****     *
 959:.\Generated_Source\PSoC4/capsense_CSHL.c ****     * Parameters:
 960:.\Generated_Source\PSoC4/capsense_CSHL.c ****     *  value:  Hysteresis value for widgets.
 961:.\Generated_Source\PSoC4/capsense_CSHL.c ****     *  widget:  widget number
 962:.\Generated_Source\PSoC4/capsense_CSHL.c ****     *
 963:.\Generated_Source\PSoC4/capsense_CSHL.c ****     * Return Value:
 964:.\Generated_Source\PSoC4/capsense_CSHL.c ****     *  None
 965:.\Generated_Source\PSoC4/capsense_CSHL.c ****     *
 966:.\Generated_Source\PSoC4/capsense_CSHL.c ****     * Global Variables:
 967:.\Generated_Source\PSoC4/capsense_CSHL.c ****     *  capsense_hysteresis[] - This array contains the hysteresis value for each widget.
 968:.\Generated_Source\PSoC4/capsense_CSHL.c ****     *  capsense_widgetNumberSld - structure with dynamic sliders' parameters.
 969:.\Generated_Source\PSoC4/capsense_CSHL.c ****     *
 970:.\Generated_Source\PSoC4/capsense_CSHL.c ****     * Side Effects:
 971:.\Generated_Source\PSoC4/capsense_CSHL.c ****     *  None
 972:.\Generated_Source\PSoC4/capsense_CSHL.c ****     *
ARM GAS  C:\Users\Alan\AppData\Local\Temp\ccSwCrkV.s 			page 26


 973:.\Generated_Source\PSoC4/capsense_CSHL.c ****     *******************************************************************************/
 974:.\Generated_Source\PSoC4/capsense_CSHL.c ****     void capsense_SetFingerHysteresis(uint32 widget, uint8 value)
 975:.\Generated_Source\PSoC4/capsense_CSHL.c ****     {
 450              		.loc 1 975 0
 451              		.cfi_startproc
 452              	.LVL38:
 976:.\Generated_Source\PSoC4/capsense_CSHL.c ****         capsense_hysteresis[widget] = value;
 453              		.loc 1 976 0
 454 0000 014B     		ldr	r3, .L47
 455 0002 1954     		strb	r1, [r3, r0]
 977:.\Generated_Source\PSoC4/capsense_CSHL.c ****     }
 456              		.loc 1 977 0
 457              		@ sp needed
 458 0004 7047     		bx	lr
 459              	.L48:
 460 0006 C046     		.align	2
 461              	.L47:
 462 0008 00000000 		.word	capsense_hysteresis
 463              		.cfi_endproc
 464              	.LFE53:
 465              		.size	capsense_SetFingerHysteresis, .-capsense_SetFingerHysteresis
 466              		.section	.text.capsense_SetNegativeNoiseThreshold,"ax",%progbits
 467              		.align	2
 468              		.global	capsense_SetNegativeNoiseThreshold
 469              		.code	16
 470              		.thumb_func
 471              		.type	capsense_SetNegativeNoiseThreshold, %function
 472              	capsense_SetNegativeNoiseThreshold:
 473              	.LFB54:
 978:.\Generated_Source\PSoC4/capsense_CSHL.c **** 
 979:.\Generated_Source\PSoC4/capsense_CSHL.c **** 
 980:.\Generated_Source\PSoC4/capsense_CSHL.c ****     /*******************************************************************************
 981:.\Generated_Source\PSoC4/capsense_CSHL.c ****     * Function Name: capsense_SetNegativeNoiseThreshold
 982:.\Generated_Source\PSoC4/capsense_CSHL.c ****     ********************************************************************************
 983:.\Generated_Source\PSoC4/capsense_CSHL.c ****     *
 984:.\Generated_Source\PSoC4/capsense_CSHL.c ****     * Summary:
 985:.\Generated_Source\PSoC4/capsense_CSHL.c ****     *  This API sets the Negative Noise Threshold value of a widget
 986:.\Generated_Source\PSoC4/capsense_CSHL.c ****     *
 987:.\Generated_Source\PSoC4/capsense_CSHL.c ****     * Parameters:
 988:.\Generated_Source\PSoC4/capsense_CSHL.c ****     *  value:  Negative Noise Threshold value for widgets.
 989:.\Generated_Source\PSoC4/capsense_CSHL.c ****     *  widget: widget number
 990:.\Generated_Source\PSoC4/capsense_CSHL.c ****     *
 991:.\Generated_Source\PSoC4/capsense_CSHL.c ****     * Return Value:
 992:.\Generated_Source\PSoC4/capsense_CSHL.c ****     *  None
 993:.\Generated_Source\PSoC4/capsense_CSHL.c ****     *
 994:.\Generated_Source\PSoC4/capsense_CSHL.c ****     * Global Variables:
 995:.\Generated_Source\PSoC4/capsense_CSHL.c ****     *  capsense_negativeNoiseThreshold  - This parameter specifies the negative
 996:.\Generated_Source\PSoC4/capsense_CSHL.c ****     *   difference between the raw count and baseline levels for Baseline resetting to
 997:.\Generated_Source\PSoC4/capsense_CSHL.c ****     *   the raw count level.
 998:.\Generated_Source\PSoC4/capsense_CSHL.c ****     *
 999:.\Generated_Source\PSoC4/capsense_CSHL.c ****     * Side Effects:
1000:.\Generated_Source\PSoC4/capsense_CSHL.c ****     *  None
1001:.\Generated_Source\PSoC4/capsense_CSHL.c ****     *
1002:.\Generated_Source\PSoC4/capsense_CSHL.c ****     *******************************************************************************/
1003:.\Generated_Source\PSoC4/capsense_CSHL.c ****     void capsense_SetNegativeNoiseThreshold(uint32 widget, uint8 value)
1004:.\Generated_Source\PSoC4/capsense_CSHL.c ****     {
 474              		.loc 1 1004 0
ARM GAS  C:\Users\Alan\AppData\Local\Temp\ccSwCrkV.s 			page 27


 475              		.cfi_startproc
 476              	.LVL39:
1005:.\Generated_Source\PSoC4/capsense_CSHL.c ****         capsense_negativeNoiseThreshold[widget] = value;
 477              		.loc 1 1005 0
 478 0000 014B     		ldr	r3, .L50
 479 0002 1954     		strb	r1, [r3, r0]
1006:.\Generated_Source\PSoC4/capsense_CSHL.c ****     }
 480              		.loc 1 1006 0
 481              		@ sp needed
 482 0004 7047     		bx	lr
 483              	.L51:
 484 0006 C046     		.align	2
 485              	.L50:
 486 0008 00000000 		.word	capsense_negativeNoiseThreshold
 487              		.cfi_endproc
 488              	.LFE54:
 489              		.size	capsense_SetNegativeNoiseThreshold, .-capsense_SetNegativeNoiseThreshold
 490              		.section	.text.capsense_SetDebounce,"ax",%progbits
 491              		.align	2
 492              		.global	capsense_SetDebounce
 493              		.code	16
 494              		.thumb_func
 495              		.type	capsense_SetDebounce, %function
 496              	capsense_SetDebounce:
 497              	.LFB55:
1007:.\Generated_Source\PSoC4/capsense_CSHL.c **** 
1008:.\Generated_Source\PSoC4/capsense_CSHL.c **** 
1009:.\Generated_Source\PSoC4/capsense_CSHL.c ****     /*******************************************************************************
1010:.\Generated_Source\PSoC4/capsense_CSHL.c ****     * Function Name: capsense_SetDebounce
1011:.\Generated_Source\PSoC4/capsense_CSHL.c ****     ********************************************************************************
1012:.\Generated_Source\PSoC4/capsense_CSHL.c ****     *
1013:.\Generated_Source\PSoC4/capsense_CSHL.c ****     * Summary:
1014:.\Generated_Source\PSoC4/capsense_CSHL.c ****     *  This API sets the debounce value for a widget.
1015:.\Generated_Source\PSoC4/capsense_CSHL.c ****     *
1016:.\Generated_Source\PSoC4/capsense_CSHL.c ****     * Parameters:
1017:.\Generated_Source\PSoC4/capsense_CSHL.c ****     *  value:  Debounce value for widget.
1018:.\Generated_Source\PSoC4/capsense_CSHL.c ****     *  widget: widget index.
1019:.\Generated_Source\PSoC4/capsense_CSHL.c ****     *
1020:.\Generated_Source\PSoC4/capsense_CSHL.c ****     * Return Value:
1021:.\Generated_Source\PSoC4/capsense_CSHL.c ****     *  None
1022:.\Generated_Source\PSoC4/capsense_CSHL.c ****     *
1023:.\Generated_Source\PSoC4/capsense_CSHL.c ****     * Global Variables:
1024:.\Generated_Source\PSoC4/capsense_CSHL.c ****     *  capsense_debounce[] - This array contains the debounce value for each widget.
1025:.\Generated_Source\PSoC4/capsense_CSHL.c ****     *  capsense_widgetNumberSld - structure with dynamic sliders' parameters.
1026:.\Generated_Source\PSoC4/capsense_CSHL.c ****     *
1027:.\Generated_Source\PSoC4/capsense_CSHL.c ****     * Side Effects:
1028:.\Generated_Source\PSoC4/capsense_CSHL.c ****     *  None
1029:.\Generated_Source\PSoC4/capsense_CSHL.c ****     *
1030:.\Generated_Source\PSoC4/capsense_CSHL.c ****     *******************************************************************************/
1031:.\Generated_Source\PSoC4/capsense_CSHL.c ****     void capsense_SetDebounce(uint32 widget, uint8 value)
1032:.\Generated_Source\PSoC4/capsense_CSHL.c ****     {
 498              		.loc 1 1032 0
 499              		.cfi_startproc
 500              	.LVL40:
1033:.\Generated_Source\PSoC4/capsense_CSHL.c ****         capsense_debounce[widget] = value;
 501              		.loc 1 1033 0
 502 0000 014B     		ldr	r3, .L53
ARM GAS  C:\Users\Alan\AppData\Local\Temp\ccSwCrkV.s 			page 28


 503 0002 1954     		strb	r1, [r3, r0]
1034:.\Generated_Source\PSoC4/capsense_CSHL.c ****     }
 504              		.loc 1 1034 0
 505              		@ sp needed
 506 0004 7047     		bx	lr
 507              	.L54:
 508 0006 C046     		.align	2
 509              	.L53:
 510 0008 00000000 		.word	.LANCHOR1
 511              		.cfi_endproc
 512              	.LFE55:
 513              		.size	capsense_SetDebounce, .-capsense_SetDebounce
 514              		.section	.text.capsense_SetLowBaselineReset,"ax",%progbits
 515              		.align	2
 516              		.global	capsense_SetLowBaselineReset
 517              		.code	16
 518              		.thumb_func
 519              		.type	capsense_SetLowBaselineReset, %function
 520              	capsense_SetLowBaselineReset:
 521              	.LFB56:
1035:.\Generated_Source\PSoC4/capsense_CSHL.c **** 
1036:.\Generated_Source\PSoC4/capsense_CSHL.c **** 
1037:.\Generated_Source\PSoC4/capsense_CSHL.c ****     /*******************************************************************************
1038:.\Generated_Source\PSoC4/capsense_CSHL.c ****     * Function Name: capsense_SetLowBaselineReset
1039:.\Generated_Source\PSoC4/capsense_CSHL.c ****     ********************************************************************************
1040:.\Generated_Source\PSoC4/capsense_CSHL.c ****     *
1041:.\Generated_Source\PSoC4/capsense_CSHL.c ****     * Summary:
1042:.\Generated_Source\PSoC4/capsense_CSHL.c ****     *  This API sets the low baseline reset threshold value for the sensor.
1043:.\Generated_Source\PSoC4/capsense_CSHL.c ****     *
1044:.\Generated_Source\PSoC4/capsense_CSHL.c ****     * Parameters:
1045:.\Generated_Source\PSoC4/capsense_CSHL.c ****     *  value: low baseline reset threshold value.
1046:.\Generated_Source\PSoC4/capsense_CSHL.c ****     *  sensor: Sensor index.
1047:.\Generated_Source\PSoC4/capsense_CSHL.c ****     *
1048:.\Generated_Source\PSoC4/capsense_CSHL.c ****     * Return Value:
1049:.\Generated_Source\PSoC4/capsense_CSHL.c ****     *  None
1050:.\Generated_Source\PSoC4/capsense_CSHL.c ****     *
1051:.\Generated_Source\PSoC4/capsense_CSHL.c ****     * Global Variables:
1052:.\Generated_Source\PSoC4/capsense_CSHL.c ****     *  capsense_lowBaselineReset[] - This array contains the Baseline update
1053:.\Generated_Source\PSoC4/capsense_CSHL.c ****     *  threshold value for each sensor.
1054:.\Generated_Source\PSoC4/capsense_CSHL.c ****     *
1055:.\Generated_Source\PSoC4/capsense_CSHL.c ****     * Side Effects:
1056:.\Generated_Source\PSoC4/capsense_CSHL.c ****     *  None
1057:.\Generated_Source\PSoC4/capsense_CSHL.c ****     *
1058:.\Generated_Source\PSoC4/capsense_CSHL.c ****     *******************************************************************************/
1059:.\Generated_Source\PSoC4/capsense_CSHL.c ****     void capsense_SetLowBaselineReset(uint32 sensor, uint8 value)
1060:.\Generated_Source\PSoC4/capsense_CSHL.c ****     {
 522              		.loc 1 1060 0
 523              		.cfi_startproc
 524              	.LVL41:
1061:.\Generated_Source\PSoC4/capsense_CSHL.c ****         capsense_lowBaselineReset[sensor] = value;
 525              		.loc 1 1061 0
 526 0000 014B     		ldr	r3, .L56
 527 0002 1818     		add	r0, r3, r0
 528              	.LVL42:
 529 0004 0171     		strb	r1, [r0, #4]
1062:.\Generated_Source\PSoC4/capsense_CSHL.c ****     }
 530              		.loc 1 1062 0
ARM GAS  C:\Users\Alan\AppData\Local\Temp\ccSwCrkV.s 			page 29


 531              		@ sp needed
 532 0006 7047     		bx	lr
 533              	.L57:
 534              		.align	2
 535              	.L56:
 536 0008 00000000 		.word	.LANCHOR1
 537              		.cfi_endproc
 538              	.LFE56:
 539              		.size	capsense_SetLowBaselineReset, .-capsense_SetLowBaselineReset
 540              		.section	.text.capsense_CheckIsSensorActive,"ax",%progbits
 541              		.align	2
 542              		.global	capsense_CheckIsSensorActive
 543              		.code	16
 544              		.thumb_func
 545              		.type	capsense_CheckIsSensorActive, %function
 546              	capsense_CheckIsSensorActive:
 547              	.LFB57:
1063:.\Generated_Source\PSoC4/capsense_CSHL.c **** #endif /* (capsense_TUNING_METHOD != capsense__TUNING_NONE) */
1064:.\Generated_Source\PSoC4/capsense_CSHL.c **** 
1065:.\Generated_Source\PSoC4/capsense_CSHL.c **** 
1066:.\Generated_Source\PSoC4/capsense_CSHL.c **** /*******************************************************************************
1067:.\Generated_Source\PSoC4/capsense_CSHL.c **** * Function Name: capsense_CheckIsSensorActive
1068:.\Generated_Source\PSoC4/capsense_CSHL.c **** ********************************************************************************
1069:.\Generated_Source\PSoC4/capsense_CSHL.c **** *
1070:.\Generated_Source\PSoC4/capsense_CSHL.c **** * Summary:
1071:.\Generated_Source\PSoC4/capsense_CSHL.c **** *  Compares the capsense_sensorSignal[sensor] array element to the finger
1072:.\Generated_Source\PSoC4/capsense_CSHL.c **** *  threshold of the widget it belongs to. The hysteresis and debounce are taken into
1073:.\Generated_Source\PSoC4/capsense_CSHL.c **** *  account. The hysteresis is added or subtracted from the finger threshold
1074:.\Generated_Source\PSoC4/capsense_CSHL.c **** *  based on whether the sensor is currently active.
1075:.\Generated_Source\PSoC4/capsense_CSHL.c **** *  If the sensor is active, the threshold is lowered by the hysteresis amount.
1076:.\Generated_Source\PSoC4/capsense_CSHL.c **** *  If the sensor is inactive, the threshold is raised by the hysteresis amount.
1077:.\Generated_Source\PSoC4/capsense_CSHL.c **** *  The debounce counter is added to the sensor active transition.
1078:.\Generated_Source\PSoC4/capsense_CSHL.c **** *  This function updates the capsense_sensorOnMask[] array element.
1079:.\Generated_Source\PSoC4/capsense_CSHL.c **** *
1080:.\Generated_Source\PSoC4/capsense_CSHL.c **** * Parameters:
1081:.\Generated_Source\PSoC4/capsense_CSHL.c **** *  sensor:  Sensor number.
1082:.\Generated_Source\PSoC4/capsense_CSHL.c **** *
1083:.\Generated_Source\PSoC4/capsense_CSHL.c **** * Return:
1084:.\Generated_Source\PSoC4/capsense_CSHL.c **** *  Returns sensor state 1 if active, 0 if not active.
1085:.\Generated_Source\PSoC4/capsense_CSHL.c **** *
1086:.\Generated_Source\PSoC4/capsense_CSHL.c **** * Global Variables:
1087:.\Generated_Source\PSoC4/capsense_CSHL.c **** *  capsense_sensorSignal[] - used to store the difference between
1088:.\Generated_Source\PSoC4/capsense_CSHL.c **** *  the current value of raw data and a previous value of the baseline.
1089:.\Generated_Source\PSoC4/capsense_CSHL.c **** *  capsense_debounceCounter[]   - used to store the current debounce
1090:.\Generated_Source\PSoC4/capsense_CSHL.c **** *  counter of the sensor. the widget which have this parameter are buttons, matrix
1091:.\Generated_Source\PSoC4/capsense_CSHL.c **** *  buttons, proximity, and guard. All other widgets don't have the  debounce parameter
1092:.\Generated_Source\PSoC4/capsense_CSHL.c **** *  and use the last element of this array with value 0 (it means no debounce).
1093:.\Generated_Source\PSoC4/capsense_CSHL.c **** *  capsense_sensorOnMask[] - used to store the sensors on/off state.
1094:.\Generated_Source\PSoC4/capsense_CSHL.c **** *  capsense_sensorOnMask[0] contains the masked bits for sensors
1095:.\Generated_Source\PSoC4/capsense_CSHL.c **** *   0 through 7 (sensor 0 is bit 0, sensor 1 is bit 1).
1096:.\Generated_Source\PSoC4/capsense_CSHL.c **** *  capsense_sensorEnableMask[1] contains the masked bits for
1097:.\Generated_Source\PSoC4/capsense_CSHL.c **** *  sensors 8 through 15 (if needed), and so on.
1098:.\Generated_Source\PSoC4/capsense_CSHL.c **** *  0 - sensor is inactive.
1099:.\Generated_Source\PSoC4/capsense_CSHL.c **** *  1 - sensor is active.
1100:.\Generated_Source\PSoC4/capsense_CSHL.c **** *
1101:.\Generated_Source\PSoC4/capsense_CSHL.c **** * Side Effects:
1102:.\Generated_Source\PSoC4/capsense_CSHL.c **** *  None
ARM GAS  C:\Users\Alan\AppData\Local\Temp\ccSwCrkV.s 			page 30


1103:.\Generated_Source\PSoC4/capsense_CSHL.c **** *
1104:.\Generated_Source\PSoC4/capsense_CSHL.c **** *******************************************************************************/
1105:.\Generated_Source\PSoC4/capsense_CSHL.c **** uint32 capsense_CheckIsSensorActive(uint32 sensor)
1106:.\Generated_Source\PSoC4/capsense_CSHL.c **** {
 548              		.loc 1 1106 0
 549              		.cfi_startproc
 550              	.LVL43:
 551 0000 F8B5     		push	{r3, r4, r5, r6, r7, lr}
 552              		.cfi_def_cfa_offset 24
 553              		.cfi_offset 3, -24
 554              		.cfi_offset 4, -20
 555              		.cfi_offset 5, -16
 556              		.cfi_offset 6, -12
 557              		.cfi_offset 7, -8
 558              		.cfi_offset 14, -4
 559 0002 041C     		mov	r4, r0
1107:.\Generated_Source\PSoC4/capsense_CSHL.c ****     uint8 widget;
1108:.\Generated_Source\PSoC4/capsense_CSHL.c ****     uint8 debounce;
1109:.\Generated_Source\PSoC4/capsense_CSHL.c ****     uint8 debounceIndex;
1110:.\Generated_Source\PSoC4/capsense_CSHL.c **** 
1111:.\Generated_Source\PSoC4/capsense_CSHL.c ****     uint8 fingerThreshold;
1112:.\Generated_Source\PSoC4/capsense_CSHL.c ****     uint8 hysteresis;
1113:.\Generated_Source\PSoC4/capsense_CSHL.c ****     static uint8 capsense_debounceCounter[] = {
1114:.\Generated_Source\PSoC4/capsense_CSHL.c ****     0u, 
1115:.\Generated_Source\PSoC4/capsense_CSHL.c **** };
1116:.\Generated_Source\PSoC4/capsense_CSHL.c **** 
1117:.\Generated_Source\PSoC4/capsense_CSHL.c **** 
1118:.\Generated_Source\PSoC4/capsense_CSHL.c **** 
1119:.\Generated_Source\PSoC4/capsense_CSHL.c ****     /* Prepare to find debounce counter index */
1120:.\Generated_Source\PSoC4/capsense_CSHL.c ****     widget = capsense_widgetNumber[sensor];
 560              		.loc 1 1120 0
 561 0004 1F4B     		ldr	r3, .L63
 562 0006 1B5C     		ldrb	r3, [r3, r0]
 563              	.LVL44:
1121:.\Generated_Source\PSoC4/capsense_CSHL.c **** 
1122:.\Generated_Source\PSoC4/capsense_CSHL.c ****     fingerThreshold = capsense_fingerThreshold[widget];
 564              		.loc 1 1122 0
 565 0008 1F4A     		ldr	r2, .L63+4
 566 000a D65C     		ldrb	r6, [r2, r3]
 567              	.LVL45:
1123:.\Generated_Source\PSoC4/capsense_CSHL.c ****     hysteresis = capsense_hysteresis[widget];
 568              		.loc 1 1123 0
 569 000c 1F4A     		ldr	r2, .L63+8
 570 000e D55C     		ldrb	r5, [r2, r3]
 571              	.LVL46:
1124:.\Generated_Source\PSoC4/capsense_CSHL.c ****     debounce = capsense_debounce[widget];
 572              		.loc 1 1124 0
 573 0010 1F4A     		ldr	r2, .L63+12
 574 0012 D75C     		ldrb	r7, [r2, r3]
 575              	.LVL47:
1125:.\Generated_Source\PSoC4/capsense_CSHL.c **** 
1126:.\Generated_Source\PSoC4/capsense_CSHL.c ****         debounceIndex = capsense_UNUSED_DEBOUNCE_COUNTER_INDEX;
1127:.\Generated_Source\PSoC4/capsense_CSHL.c ****     capsense_debounceCounter[debounceIndex] = 1u;
 576              		.loc 1 1127 0
 577 0014 1F48     		ldr	r0, .L63+16
 578              	.LVL48:
 579 0016 0123     		mov	r3, #1
ARM GAS  C:\Users\Alan\AppData\Local\Temp\ccSwCrkV.s 			page 31


 580              	.LVL49:
 581 0018 0377     		strb	r3, [r0, #28]
1128:.\Generated_Source\PSoC4/capsense_CSHL.c **** 
1129:.\Generated_Source\PSoC4/capsense_CSHL.c **** 
1130:.\Generated_Source\PSoC4/capsense_CSHL.c ****     /* Was on */
1131:.\Generated_Source\PSoC4/capsense_CSHL.c ****     if (0u != capsense_GetBitValue(capsense_sensorOnMask, sensor))
 582              		.loc 1 1131 0
 583 001a 2030     		add	r0, r0, #32
 584 001c 211C     		mov	r1, r4
 585 001e FFF7FEFF 		bl	capsense_GetBitValue
 586              	.LVL50:
 587 0022 0028     		cmp	r0, #0
 588 0024 0ED0     		beq	.L59
1132:.\Generated_Source\PSoC4/capsense_CSHL.c ****     {
1133:.\Generated_Source\PSoC4/capsense_CSHL.c ****         /* Hysteresis minus */
1134:.\Generated_Source\PSoC4/capsense_CSHL.c ****         if (capsense_sensorSignal[sensor] < (fingerThreshold - hysteresis))
 589              		.loc 1 1134 0
 590 0026 1B4B     		ldr	r3, .L63+16
 591 0028 1B19     		add	r3, r3, r4
 592 002a 1B7D     		ldrb	r3, [r3, #20]
 593 002c 751B     		sub	r5, r6, r5
 594              	.LVL51:
 595 002e AB42     		cmp	r3, r5
 596 0030 1EDA     		bge	.L60
1135:.\Generated_Source\PSoC4/capsense_CSHL.c ****         {
1136:.\Generated_Source\PSoC4/capsense_CSHL.c ****             capsense_SetBitValue(capsense_sensorOnMask, sensor, 0u);
 597              		.loc 1 1136 0
 598 0032 184D     		ldr	r5, .L63+16
 599 0034 281C     		mov	r0, r5
 600 0036 2030     		add	r0, r0, #32
 601 0038 211C     		mov	r1, r4
 602 003a 0022     		mov	r2, #0
 603 003c FFF7FEFF 		bl	capsense_SetBitValue
 604              	.LVL52:
1137:.\Generated_Source\PSoC4/capsense_CSHL.c ****             /* Sensor inactive - reset Debounce counter */
1138:.\Generated_Source\PSoC4/capsense_CSHL.c ****             capsense_debounceCounter[debounceIndex] = debounce;
 605              		.loc 1 1138 0
 606 0040 2F77     		strb	r7, [r5, #28]
 607 0042 15E0     		b	.L60
 608              	.LVL53:
 609              	.L59:
1139:.\Generated_Source\PSoC4/capsense_CSHL.c ****         }
1140:.\Generated_Source\PSoC4/capsense_CSHL.c ****     }
1141:.\Generated_Source\PSoC4/capsense_CSHL.c ****     else    /* Was off */
1142:.\Generated_Source\PSoC4/capsense_CSHL.c ****     {
1143:.\Generated_Source\PSoC4/capsense_CSHL.c ****         /* Hysteresis plus */
1144:.\Generated_Source\PSoC4/capsense_CSHL.c ****         if (capsense_sensorSignal[sensor] >= (fingerThreshold + hysteresis))
 610              		.loc 1 1144 0
 611 0044 134B     		ldr	r3, .L63+16
 612 0046 1B19     		add	r3, r3, r4
 613 0048 1B7D     		ldrb	r3, [r3, #20]
 614 004a 7519     		add	r5, r6, r5
 615              	.LVL54:
 616 004c AB42     		cmp	r3, r5
 617 004e 0DDB     		blt	.L61
1145:.\Generated_Source\PSoC4/capsense_CSHL.c ****         {
1146:.\Generated_Source\PSoC4/capsense_CSHL.c ****             capsense_debounceCounter[debounceIndex]--;
ARM GAS  C:\Users\Alan\AppData\Local\Temp\ccSwCrkV.s 			page 32


 618              		.loc 1 1146 0
 619 0050 104A     		ldr	r2, .L63+16
 620 0052 137F     		ldrb	r3, [r2, #28]
 621 0054 013B     		sub	r3, r3, #1
 622 0056 DBB2     		uxtb	r3, r3
 623 0058 1377     		strb	r3, [r2, #28]
1147:.\Generated_Source\PSoC4/capsense_CSHL.c ****             /* Sensor active, decrement debounce counter */
1148:.\Generated_Source\PSoC4/capsense_CSHL.c ****             if(capsense_debounceCounter[debounceIndex] == 0u)
 624              		.loc 1 1148 0
 625 005a 002B     		cmp	r3, #0
 626 005c 08D1     		bne	.L60
1149:.\Generated_Source\PSoC4/capsense_CSHL.c ****             {
1150:.\Generated_Source\PSoC4/capsense_CSHL.c ****                 capsense_SetBitValue(capsense_sensorOnMask, sensor, 1u);
 627              		.loc 1 1150 0
 628 005e 101C     		mov	r0, r2
 629 0060 2030     		add	r0, r0, #32
 630 0062 211C     		mov	r1, r4
 631 0064 0122     		mov	r2, #1
 632 0066 FFF7FEFF 		bl	capsense_SetBitValue
 633              	.LVL55:
 634 006a 01E0     		b	.L60
 635              	.L61:
1151:.\Generated_Source\PSoC4/capsense_CSHL.c ****             }
1152:.\Generated_Source\PSoC4/capsense_CSHL.c ****         }
1153:.\Generated_Source\PSoC4/capsense_CSHL.c ****         else
1154:.\Generated_Source\PSoC4/capsense_CSHL.c ****         {
1155:.\Generated_Source\PSoC4/capsense_CSHL.c ****             /* Sensor inactive - reset Debounce counter */
1156:.\Generated_Source\PSoC4/capsense_CSHL.c ****             capsense_debounceCounter[debounceIndex] = debounce;
 636              		.loc 1 1156 0
 637 006c 094B     		ldr	r3, .L63+16
 638 006e 1F77     		strb	r7, [r3, #28]
 639              	.L60:
1157:.\Generated_Source\PSoC4/capsense_CSHL.c ****         }
1158:.\Generated_Source\PSoC4/capsense_CSHL.c ****     }
1159:.\Generated_Source\PSoC4/capsense_CSHL.c **** 
1160:.\Generated_Source\PSoC4/capsense_CSHL.c ****     return ((uint32)((0u != capsense_GetBitValue(capsense_sensorOnMask, sensor)) ? 1u : 0u));
 640              		.loc 1 1160 0
 641 0070 0848     		ldr	r0, .L63+16
 642 0072 2030     		add	r0, r0, #32
 643 0074 211C     		mov	r1, r4
 644 0076 FFF7FEFF 		bl	capsense_GetBitValue
 645              	.LVL56:
 646 007a 0028     		cmp	r0, #0
 647 007c 00D0     		beq	.L62
 648 007e 0120     		mov	r0, #1
 649              	.L62:
1161:.\Generated_Source\PSoC4/capsense_CSHL.c **** }
 650              		.loc 1 1161 0 discriminator 4
 651              		@ sp needed
 652              	.LVL57:
 653              	.LVL58:
 654              	.LVL59:
 655 0080 F8BD     		pop	{r3, r4, r5, r6, r7, pc}
 656              	.L64:
 657 0082 C046     		.align	2
 658              	.L63:
 659 0084 00000000 		.word	capsense_widgetNumber
ARM GAS  C:\Users\Alan\AppData\Local\Temp\ccSwCrkV.s 			page 33


 660 0088 00000000 		.word	capsense_fingerThreshold
 661 008c 00000000 		.word	capsense_hysteresis
 662 0090 00000000 		.word	.LANCHOR1
 663 0094 00000000 		.word	.LANCHOR0
 664              		.cfi_endproc
 665              	.LFE57:
 666              		.size	capsense_CheckIsSensorActive, .-capsense_CheckIsSensorActive
 667              		.section	.text.capsense_CheckIsWidgetActive,"ax",%progbits
 668              		.align	2
 669              		.global	capsense_CheckIsWidgetActive
 670              		.code	16
 671              		.thumb_func
 672              		.type	capsense_CheckIsWidgetActive, %function
 673              	capsense_CheckIsWidgetActive:
 674              	.LFB58:
1162:.\Generated_Source\PSoC4/capsense_CSHL.c **** 
1163:.\Generated_Source\PSoC4/capsense_CSHL.c **** 
1164:.\Generated_Source\PSoC4/capsense_CSHL.c **** /*******************************************************************************
1165:.\Generated_Source\PSoC4/capsense_CSHL.c **** * Function Name: capsense_CheckIsWidgetActive
1166:.\Generated_Source\PSoC4/capsense_CSHL.c **** ********************************************************************************
1167:.\Generated_Source\PSoC4/capsense_CSHL.c **** *
1168:.\Generated_Source\PSoC4/capsense_CSHL.c **** * Summary:
1169:.\Generated_Source\PSoC4/capsense_CSHL.c **** *  Compares the CapSense_sensorSignal[] array element to the finger threshold of
1170:.\Generated_Source\PSoC4/capsense_CSHL.c **** * the widget it belongs to. The hysteresis and debounce are taken into account.
1171:.\Generated_Source\PSoC4/capsense_CSHL.c **** * The hysteresis is added or subtracted from the finger threshold based on whether
1172:.\Generated_Source\PSoC4/capsense_CSHL.c **** *  the sensor is currently active. If the sensor is active, the threshold is
1173:.\Generated_Source\PSoC4/capsense_CSHL.c **** *  lowered by the hysteresis amount. If the sensor is inactive, the threshold
1174:.\Generated_Source\PSoC4/capsense_CSHL.c **** *  is raised by the hysteresis amount.
1175:.\Generated_Source\PSoC4/capsense_CSHL.c **** * The debounce counter added to the sensor active transition.
1176:.\Generated_Source\PSoC4/capsense_CSHL.c **** * This function updates CapSense_sensorOnMask[] array element
1177:.\Generated_Source\PSoC4/capsense_CSHL.c **** *
1178:.\Generated_Source\PSoC4/capsense_CSHL.c **** * Parameters:
1179:.\Generated_Source\PSoC4/capsense_CSHL.c **** *  widget:  widget number.
1180:.\Generated_Source\PSoC4/capsense_CSHL.c **** *
1181:.\Generated_Source\PSoC4/capsense_CSHL.c **** * Return:
1182:.\Generated_Source\PSoC4/capsense_CSHL.c **** *  Returns widget sensor state 1 if one or more sensors within widget is/are
1183:.\Generated_Source\PSoC4/capsense_CSHL.c **** *  active, 0 if all sensors within widget are inactive.
1184:.\Generated_Source\PSoC4/capsense_CSHL.c **** *
1185:.\Generated_Source\PSoC4/capsense_CSHL.c **** * Global Variables:
1186:.\Generated_Source\PSoC4/capsense_CSHL.c **** *  rawDataIndex[]: Contains the  1st sensor position in the widget
1187:.\Generated_Source\PSoC4/capsense_CSHL.c **** *
1188:.\Generated_Source\PSoC4/capsense_CSHL.c **** * Side Effects:
1189:.\Generated_Source\PSoC4/capsense_CSHL.c **** *  None
1190:.\Generated_Source\PSoC4/capsense_CSHL.c **** *
1191:.\Generated_Source\PSoC4/capsense_CSHL.c **** *******************************************************************************/
1192:.\Generated_Source\PSoC4/capsense_CSHL.c **** uint32 capsense_CheckIsWidgetActive(uint32 widget)
1193:.\Generated_Source\PSoC4/capsense_CSHL.c **** {
 675              		.loc 1 1193 0
 676              		.cfi_startproc
 677              	.LVL60:
 678 0000 38B5     		push	{r3, r4, r5, lr}
 679              		.cfi_def_cfa_offset 16
 680              		.cfi_offset 3, -16
 681              		.cfi_offset 4, -12
 682              		.cfi_offset 5, -8
 683              		.cfi_offset 14, -4
 684              	.LVL61:
ARM GAS  C:\Users\Alan\AppData\Local\Temp\ccSwCrkV.s 			page 34


1194:.\Generated_Source\PSoC4/capsense_CSHL.c ****     uint32 rawIndex = (uint32)capsense_rawDataIndex[widget];
1195:.\Generated_Source\PSoC4/capsense_CSHL.c ****     uint32 numOfSensors = (uint32)capsense_numberOfSensors[widget] + rawIndex;
1196:.\Generated_Source\PSoC4/capsense_CSHL.c ****     uint32 state = 0u;
 685              		.loc 1 1196 0
 686 0002 0025     		mov	r5, #0
1194:.\Generated_Source\PSoC4/capsense_CSHL.c ****     uint32 rawIndex = (uint32)capsense_rawDataIndex[widget];
 687              		.loc 1 1194 0
 688 0004 0024     		mov	r4, #0
 689              	.LVL62:
 690              	.L67:
1197:.\Generated_Source\PSoC4/capsense_CSHL.c **** 
1198:.\Generated_Source\PSoC4/capsense_CSHL.c ****     /* Check all sensors of widget */
1199:.\Generated_Source\PSoC4/capsense_CSHL.c ****     do
1200:.\Generated_Source\PSoC4/capsense_CSHL.c ****     {
1201:.\Generated_Source\PSoC4/capsense_CSHL.c ****         if(capsense_CheckIsSensorActive((uint32)rawIndex) != 0u)
 691              		.loc 1 1201 0
 692 0006 201C     		mov	r0, r4
 693 0008 FFF7FEFF 		bl	capsense_CheckIsSensorActive
 694              	.LVL63:
 695 000c 0028     		cmp	r0, #0
 696 000e 00D0     		beq	.L66
1202:.\Generated_Source\PSoC4/capsense_CSHL.c ****         {
1203:.\Generated_Source\PSoC4/capsense_CSHL.c ****             state = capsense_SENSOR_IS_ACTIVE;
 697              		.loc 1 1203 0
 698 0010 0125     		mov	r5, #1
 699              	.LVL64:
 700              	.L66:
1204:.\Generated_Source\PSoC4/capsense_CSHL.c ****         }
1205:.\Generated_Source\PSoC4/capsense_CSHL.c ****         rawIndex++;
 701              		.loc 1 1205 0
 702 0012 0134     		add	r4, r4, #1
 703              	.LVL65:
1206:.\Generated_Source\PSoC4/capsense_CSHL.c ****     }
1207:.\Generated_Source\PSoC4/capsense_CSHL.c ****     while(rawIndex < numOfSensors);
 704              		.loc 1 1207 0
 705 0014 042C     		cmp	r4, #4
 706 0016 F6D9     		bls	.L67
1208:.\Generated_Source\PSoC4/capsense_CSHL.c **** 
1209:.\Generated_Source\PSoC4/capsense_CSHL.c **** 
1210:.\Generated_Source\PSoC4/capsense_CSHL.c **** 
1211:.\Generated_Source\PSoC4/capsense_CSHL.c ****     return state;
1212:.\Generated_Source\PSoC4/capsense_CSHL.c **** }
 707              		.loc 1 1212 0
 708 0018 281C     		mov	r0, r5
 709              		@ sp needed
 710              	.LVL66:
 711              	.LVL67:
 712 001a 38BD     		pop	{r3, r4, r5, pc}
 713              		.cfi_endproc
 714              	.LFE58:
 715              		.size	capsense_CheckIsWidgetActive, .-capsense_CheckIsWidgetActive
 716              		.section	.text.capsense_CheckIsAnyWidgetActive,"ax",%progbits
 717              		.align	2
 718              		.global	capsense_CheckIsAnyWidgetActive
 719              		.code	16
 720              		.thumb_func
 721              		.type	capsense_CheckIsAnyWidgetActive, %function
ARM GAS  C:\Users\Alan\AppData\Local\Temp\ccSwCrkV.s 			page 35


 722              	capsense_CheckIsAnyWidgetActive:
 723              	.LFB59:
1213:.\Generated_Source\PSoC4/capsense_CSHL.c **** 
1214:.\Generated_Source\PSoC4/capsense_CSHL.c **** 
1215:.\Generated_Source\PSoC4/capsense_CSHL.c **** /*******************************************************************************
1216:.\Generated_Source\PSoC4/capsense_CSHL.c **** * Function Name: capsense_CheckIsAnyWidgetActive
1217:.\Generated_Source\PSoC4/capsense_CSHL.c **** ********************************************************************************
1218:.\Generated_Source\PSoC4/capsense_CSHL.c **** *
1219:.\Generated_Source\PSoC4/capsense_CSHL.c **** * Summary:
1220:.\Generated_Source\PSoC4/capsense_CSHL.c **** *  Compares all the sensors of the capsense_Signal[] array to their finger
1221:.\Generated_Source\PSoC4/capsense_CSHL.c **** *  threshold. Calls capsense_CheckIsWidgetActive() for each widget so
1222:.\Generated_Source\PSoC4/capsense_CSHL.c **** *  the capsense_sensorOnMask[] array is up to date after calling this
1223:.\Generated_Source\PSoC4/capsense_CSHL.c **** *  function.
1224:.\Generated_Source\PSoC4/capsense_CSHL.c **** *
1225:.\Generated_Source\PSoC4/capsense_CSHL.c **** * Parameters:
1226:.\Generated_Source\PSoC4/capsense_CSHL.c **** *  widget:  widget number.
1227:.\Generated_Source\PSoC4/capsense_CSHL.c **** *
1228:.\Generated_Source\PSoC4/capsense_CSHL.c **** * Return:
1229:.\Generated_Source\PSoC4/capsense_CSHL.c **** *  Returns 1 if any widget is active, 0 none of widgets are active.
1230:.\Generated_Source\PSoC4/capsense_CSHL.c **** *
1231:.\Generated_Source\PSoC4/capsense_CSHL.c **** * Global Variables:
1232:.\Generated_Source\PSoC4/capsense_CSHL.c **** *  None
1233:.\Generated_Source\PSoC4/capsense_CSHL.c **** *
1234:.\Generated_Source\PSoC4/capsense_CSHL.c **** * Side Effects:
1235:.\Generated_Source\PSoC4/capsense_CSHL.c **** *  None
1236:.\Generated_Source\PSoC4/capsense_CSHL.c **** *
1237:.\Generated_Source\PSoC4/capsense_CSHL.c **** *******************************************************************************/
1238:.\Generated_Source\PSoC4/capsense_CSHL.c **** uint32 capsense_CheckIsAnyWidgetActive(void)
1239:.\Generated_Source\PSoC4/capsense_CSHL.c **** {
 724              		.loc 1 1239 0
 725              		.cfi_startproc
 726 0000 38B5     		push	{r3, r4, r5, lr}
 727              		.cfi_def_cfa_offset 16
 728              		.cfi_offset 3, -16
 729              		.cfi_offset 4, -12
 730              		.cfi_offset 5, -8
 731              		.cfi_offset 14, -4
 732              	.LVL68:
1240:.\Generated_Source\PSoC4/capsense_CSHL.c **** 
1241:.\Generated_Source\PSoC4/capsense_CSHL.c ****         uint32 i;
1242:.\Generated_Source\PSoC4/capsense_CSHL.c ****     uint32 state = 0u;
 733              		.loc 1 1242 0
 734 0002 0025     		mov	r5, #0
1243:.\Generated_Source\PSoC4/capsense_CSHL.c ****     
1244:.\Generated_Source\PSoC4/capsense_CSHL.c ****     for(i = 0u; i < capsense_TOTAL_WIDGET_COUNT; i++)
 735              		.loc 1 1244 0
 736 0004 0024     		mov	r4, #0
 737 0006 06E0     		b	.L70
 738              	.LVL69:
 739              	.L72:
1245:.\Generated_Source\PSoC4/capsense_CSHL.c ****     {
1246:.\Generated_Source\PSoC4/capsense_CSHL.c ****         if (capsense_CheckIsWidgetActive(i) != 0u)
 740              		.loc 1 1246 0
 741 0008 201C     		mov	r0, r4
 742 000a FFF7FEFF 		bl	capsense_CheckIsWidgetActive
 743              	.LVL70:
 744 000e 0028     		cmp	r0, #0
ARM GAS  C:\Users\Alan\AppData\Local\Temp\ccSwCrkV.s 			page 36


 745 0010 00D0     		beq	.L71
1247:.\Generated_Source\PSoC4/capsense_CSHL.c ****         {
1248:.\Generated_Source\PSoC4/capsense_CSHL.c ****             state = capsense_WIDGET_IS_ACTIVE;
 746              		.loc 1 1248 0
 747 0012 0125     		mov	r5, #1
 748              	.LVL71:
 749              	.L71:
1244:.\Generated_Source\PSoC4/capsense_CSHL.c ****     {
 750              		.loc 1 1244 0 discriminator 2
 751 0014 0134     		add	r4, r4, #1
 752              	.LVL72:
 753              	.L70:
1244:.\Generated_Source\PSoC4/capsense_CSHL.c ****     {
 754              		.loc 1 1244 0 is_stmt 0 discriminator 1
 755 0016 002C     		cmp	r4, #0
 756 0018 F6D0     		beq	.L72
1249:.\Generated_Source\PSoC4/capsense_CSHL.c ****         }
1250:.\Generated_Source\PSoC4/capsense_CSHL.c ****     }
1251:.\Generated_Source\PSoC4/capsense_CSHL.c ****     
1252:.\Generated_Source\PSoC4/capsense_CSHL.c **** 
1253:.\Generated_Source\PSoC4/capsense_CSHL.c **** 
1254:.\Generated_Source\PSoC4/capsense_CSHL.c ****     return state;
1255:.\Generated_Source\PSoC4/capsense_CSHL.c **** }
 757              		.loc 1 1255 0 is_stmt 1
 758 001a 281C     		mov	r0, r5
 759              		@ sp needed
 760              	.LVL73:
 761              	.LVL74:
 762 001c 38BD     		pop	{r3, r4, r5, pc}
 763              		.cfi_endproc
 764              	.LFE59:
 765              		.size	capsense_CheckIsAnyWidgetActive, .-capsense_CheckIsAnyWidgetActive
 766 001e C046     		.section	.text.capsense_EnableWidget,"ax",%progbits
 767              		.align	2
 768              		.global	capsense_EnableWidget
 769              		.code	16
 770              		.thumb_func
 771              		.type	capsense_EnableWidget, %function
 772              	capsense_EnableWidget:
 773              	.LFB60:
1256:.\Generated_Source\PSoC4/capsense_CSHL.c **** 
1257:.\Generated_Source\PSoC4/capsense_CSHL.c **** 
1258:.\Generated_Source\PSoC4/capsense_CSHL.c **** /*******************************************************************************
1259:.\Generated_Source\PSoC4/capsense_CSHL.c **** * Function Name: capsense_EnableWidget
1260:.\Generated_Source\PSoC4/capsense_CSHL.c **** ********************************************************************************
1261:.\Generated_Source\PSoC4/capsense_CSHL.c **** *
1262:.\Generated_Source\PSoC4/capsense_CSHL.c **** * Summary:
1263:.\Generated_Source\PSoC4/capsense_CSHL.c **** *  Enables all the widget elements (sensors) to the scanning process.
1264:.\Generated_Source\PSoC4/capsense_CSHL.c **** *
1265:.\Generated_Source\PSoC4/capsense_CSHL.c **** * Parameters:
1266:.\Generated_Source\PSoC4/capsense_CSHL.c **** *  widget:  widget number.
1267:.\Generated_Source\PSoC4/capsense_CSHL.c **** *
1268:.\Generated_Source\PSoC4/capsense_CSHL.c **** * Return:
1269:.\Generated_Source\PSoC4/capsense_CSHL.c **** *  None
1270:.\Generated_Source\PSoC4/capsense_CSHL.c **** *
1271:.\Generated_Source\PSoC4/capsense_CSHL.c **** * Global Variables:
1272:.\Generated_Source\PSoC4/capsense_CSHL.c **** *  capsense_sensorEnableMask[] - used to store the sensor scanning
ARM GAS  C:\Users\Alan\AppData\Local\Temp\ccSwCrkV.s 			page 37


1273:.\Generated_Source\PSoC4/capsense_CSHL.c **** *  state.
1274:.\Generated_Source\PSoC4/capsense_CSHL.c **** *  capsense_sensorEnableMask[0] contains the masked bits for sensors
1275:.\Generated_Source\PSoC4/capsense_CSHL.c **** *  0 through 7 (sensor 0 is bit 0, sensor 1 is bit 1).
1276:.\Generated_Source\PSoC4/capsense_CSHL.c **** *  capsense_sensorEnableMask[1] contains the masked bits for
1277:.\Generated_Source\PSoC4/capsense_CSHL.c **** *  sensors 8 through 15 (if needed), and so on.
1278:.\Generated_Source\PSoC4/capsense_CSHL.c **** *  0 - sensor doesn't scan by capsense_ScanEnabledWidgets().
1279:.\Generated_Source\PSoC4/capsense_CSHL.c **** *  1 - sensor scans by capsense_ScanEnabledWidgets().
1280:.\Generated_Source\PSoC4/capsense_CSHL.c **** *
1281:.\Generated_Source\PSoC4/capsense_CSHL.c **** * Side Effects:
1282:.\Generated_Source\PSoC4/capsense_CSHL.c **** *  None
1283:.\Generated_Source\PSoC4/capsense_CSHL.c **** *
1284:.\Generated_Source\PSoC4/capsense_CSHL.c **** *******************************************************************************/
1285:.\Generated_Source\PSoC4/capsense_CSHL.c **** void capsense_EnableWidget(uint32 widget)
1286:.\Generated_Source\PSoC4/capsense_CSHL.c **** {
 774              		.loc 1 1286 0
 775              		.cfi_startproc
 776              	.LVL75:
 777 0000 10B5     		push	{r4, lr}
 778              		.cfi_def_cfa_offset 8
 779              		.cfi_offset 4, -8
 780              		.cfi_offset 14, -4
 781              	.LVL76:
1287:.\Generated_Source\PSoC4/capsense_CSHL.c **** 
1288:.\Generated_Source\PSoC4/capsense_CSHL.c ****     uint8 rawIndex = capsense_rawDataIndex[widget];
 782              		.loc 1 1288 0
 783 0002 0024     		mov	r4, #0
 784              	.LVL77:
 785              	.L75:
1289:.\Generated_Source\PSoC4/capsense_CSHL.c ****     uint8 numOfSensors = capsense_numberOfSensors[widget] + rawIndex;
1290:.\Generated_Source\PSoC4/capsense_CSHL.c **** 
1291:.\Generated_Source\PSoC4/capsense_CSHL.c ****     /* Enable all sensors of widget */
1292:.\Generated_Source\PSoC4/capsense_CSHL.c ****     do
1293:.\Generated_Source\PSoC4/capsense_CSHL.c ****     {
1294:.\Generated_Source\PSoC4/capsense_CSHL.c ****         capsense_SetBitValue(capsense_sensorEnableMask, (uint32)rawIndex, 1u);
 786              		.loc 1 1294 0 discriminator 1
 787 0004 0448     		ldr	r0, .L76
 788 0006 211C     		mov	r1, r4
 789 0008 0122     		mov	r2, #1
 790 000a FFF7FEFF 		bl	capsense_SetBitValue
 791              	.LVL78:
1295:.\Generated_Source\PSoC4/capsense_CSHL.c ****         rawIndex++;
 792              		.loc 1 1295 0 discriminator 1
 793 000e 0134     		add	r4, r4, #1
 794              	.LVL79:
 795 0010 E4B2     		uxtb	r4, r4
 796              	.LVL80:
1296:.\Generated_Source\PSoC4/capsense_CSHL.c ****     }
1297:.\Generated_Source\PSoC4/capsense_CSHL.c ****     while(rawIndex < numOfSensors);
 797              		.loc 1 1297 0 discriminator 1
 798 0012 042C     		cmp	r4, #4
 799 0014 F6D9     		bls	.L75
1298:.\Generated_Source\PSoC4/capsense_CSHL.c **** }
 800              		.loc 1 1298 0
 801              		@ sp needed
 802              	.LVL81:
 803 0016 10BD     		pop	{r4, pc}
 804              	.L77:
ARM GAS  C:\Users\Alan\AppData\Local\Temp\ccSwCrkV.s 			page 38


 805              		.align	2
 806              	.L76:
 807 0018 00000000 		.word	capsense_sensorEnableMask
 808              		.cfi_endproc
 809              	.LFE60:
 810              		.size	capsense_EnableWidget, .-capsense_EnableWidget
 811              		.section	.text.capsense_DisableWidget,"ax",%progbits
 812              		.align	2
 813              		.global	capsense_DisableWidget
 814              		.code	16
 815              		.thumb_func
 816              		.type	capsense_DisableWidget, %function
 817              	capsense_DisableWidget:
 818              	.LFB61:
1299:.\Generated_Source\PSoC4/capsense_CSHL.c **** 
1300:.\Generated_Source\PSoC4/capsense_CSHL.c **** 
1301:.\Generated_Source\PSoC4/capsense_CSHL.c **** /*******************************************************************************
1302:.\Generated_Source\PSoC4/capsense_CSHL.c **** * Function Name: capsense_DisableWidget
1303:.\Generated_Source\PSoC4/capsense_CSHL.c **** ********************************************************************************
1304:.\Generated_Source\PSoC4/capsense_CSHL.c **** *
1305:.\Generated_Source\PSoC4/capsense_CSHL.c **** * Summary:
1306:.\Generated_Source\PSoC4/capsense_CSHL.c **** *  Disables all the widget elements (sensors) from the scanning process.
1307:.\Generated_Source\PSoC4/capsense_CSHL.c **** *
1308:.\Generated_Source\PSoC4/capsense_CSHL.c **** * Parameters:
1309:.\Generated_Source\PSoC4/capsense_CSHL.c **** *  widget:  widget number.
1310:.\Generated_Source\PSoC4/capsense_CSHL.c **** *
1311:.\Generated_Source\PSoC4/capsense_CSHL.c **** * Return:
1312:.\Generated_Source\PSoC4/capsense_CSHL.c **** *  None
1313:.\Generated_Source\PSoC4/capsense_CSHL.c **** *
1314:.\Generated_Source\PSoC4/capsense_CSHL.c **** * Global Variables:
1315:.\Generated_Source\PSoC4/capsense_CSHL.c **** *  capsense_sensorEnableMask[] - used to store the sensor scanning
1316:.\Generated_Source\PSoC4/capsense_CSHL.c **** *  state.
1317:.\Generated_Source\PSoC4/capsense_CSHL.c **** *  capsense_sensorEnableMask[0] contains the masked bits for sensors
1318:.\Generated_Source\PSoC4/capsense_CSHL.c **** *  0 through 7 (sensor 0 is bit 0, sensor 1 is bit 1).
1319:.\Generated_Source\PSoC4/capsense_CSHL.c **** *  capsense_sensorEnableMask[1] contains the masked bits for
1320:.\Generated_Source\PSoC4/capsense_CSHL.c **** *  sensors 8 through 15 (if needed), and so on.
1321:.\Generated_Source\PSoC4/capsense_CSHL.c **** *  0 - sensor isn't scanned by capsense_ScanEnabledWidgets().
1322:.\Generated_Source\PSoC4/capsense_CSHL.c **** *  1 - sensor is scanned by capsense_ScanEnabledWidgets().
1323:.\Generated_Source\PSoC4/capsense_CSHL.c **** *
1324:.\Generated_Source\PSoC4/capsense_CSHL.c **** * Side Effects:
1325:.\Generated_Source\PSoC4/capsense_CSHL.c **** *  None
1326:.\Generated_Source\PSoC4/capsense_CSHL.c **** *
1327:.\Generated_Source\PSoC4/capsense_CSHL.c **** *******************************************************************************/
1328:.\Generated_Source\PSoC4/capsense_CSHL.c **** void capsense_DisableWidget(uint32 widget)
1329:.\Generated_Source\PSoC4/capsense_CSHL.c **** {
 819              		.loc 1 1329 0
 820              		.cfi_startproc
 821              	.LVL82:
 822 0000 10B5     		push	{r4, lr}
 823              		.cfi_def_cfa_offset 8
 824              		.cfi_offset 4, -8
 825              		.cfi_offset 14, -4
 826              	.LVL83:
1330:.\Generated_Source\PSoC4/capsense_CSHL.c ****     uint8 rawIndex = capsense_rawDataIndex[widget];
 827              		.loc 1 1330 0
 828 0002 0024     		mov	r4, #0
 829              	.LVL84:
ARM GAS  C:\Users\Alan\AppData\Local\Temp\ccSwCrkV.s 			page 39


 830              	.L79:
1331:.\Generated_Source\PSoC4/capsense_CSHL.c ****     uint8 numOfSensors = capsense_numberOfSensors[widget] + rawIndex;
1332:.\Generated_Source\PSoC4/capsense_CSHL.c **** 
1333:.\Generated_Source\PSoC4/capsense_CSHL.c ****     /* Disable all sensors of widget */
1334:.\Generated_Source\PSoC4/capsense_CSHL.c ****     do
1335:.\Generated_Source\PSoC4/capsense_CSHL.c ****     {
1336:.\Generated_Source\PSoC4/capsense_CSHL.c **** 
1337:.\Generated_Source\PSoC4/capsense_CSHL.c ****         capsense_SetBitValue(capsense_sensorEnableMask, (uint32)rawIndex, 0u);
 831              		.loc 1 1337 0 discriminator 1
 832 0004 0448     		ldr	r0, .L80
 833 0006 211C     		mov	r1, r4
 834 0008 0022     		mov	r2, #0
 835 000a FFF7FEFF 		bl	capsense_SetBitValue
 836              	.LVL85:
1338:.\Generated_Source\PSoC4/capsense_CSHL.c ****         rawIndex++;
 837              		.loc 1 1338 0 discriminator 1
 838 000e 0134     		add	r4, r4, #1
 839              	.LVL86:
 840 0010 E4B2     		uxtb	r4, r4
 841              	.LVL87:
1339:.\Generated_Source\PSoC4/capsense_CSHL.c ****     }
1340:.\Generated_Source\PSoC4/capsense_CSHL.c ****     while(rawIndex < numOfSensors);
 842              		.loc 1 1340 0 discriminator 1
 843 0012 042C     		cmp	r4, #4
 844 0014 F6D9     		bls	.L79
1341:.\Generated_Source\PSoC4/capsense_CSHL.c **** }
 845              		.loc 1 1341 0
 846              		@ sp needed
 847              	.LVL88:
 848 0016 10BD     		pop	{r4, pc}
 849              	.L81:
 850              		.align	2
 851              	.L80:
 852 0018 00000000 		.word	capsense_sensorEnableMask
 853              		.cfi_endproc
 854              	.LFE61:
 855              		.size	capsense_DisableWidget, .-capsense_DisableWidget
 856              		.section	.text.capsense_FindMaximum,"ax",%progbits
 857              		.align	2
 858              		.global	capsense_FindMaximum
 859              		.code	16
 860              		.thumb_func
 861              		.type	capsense_FindMaximum, %function
 862              	capsense_FindMaximum:
 863              	.LFB62:
1342:.\Generated_Source\PSoC4/capsense_CSHL.c **** 
1343:.\Generated_Source\PSoC4/capsense_CSHL.c **** 
1344:.\Generated_Source\PSoC4/capsense_CSHL.c **** #if(capsense_TOTAL_CENTROIDS_BASIC_COUNT)
1345:.\Generated_Source\PSoC4/capsense_CSHL.c ****     /*******************************************************************************
1346:.\Generated_Source\PSoC4/capsense_CSHL.c ****     * Function Name: capsense_FindMaximum
1347:.\Generated_Source\PSoC4/capsense_CSHL.c ****     ********************************************************************************
1348:.\Generated_Source\PSoC4/capsense_CSHL.c ****     *
1349:.\Generated_Source\PSoC4/capsense_CSHL.c ****     * Summary:
1350:.\Generated_Source\PSoC4/capsense_CSHL.c ****     *  Finds the index of the maximum element within a defined centroid. Checks
1351:.\Generated_Source\PSoC4/capsense_CSHL.c ****     *  capsense_sensorSignal[] within a defined centroid and
1352:.\Generated_Source\PSoC4/capsense_CSHL.c ****     *  returns the index of the maximum element. The values below the finger threshold are
1353:.\Generated_Source\PSoC4/capsense_CSHL.c ****     *  ignored.
ARM GAS  C:\Users\Alan\AppData\Local\Temp\ccSwCrkV.s 			page 40


1354:.\Generated_Source\PSoC4/capsense_CSHL.c ****     *  The centroid is defined by offset of the first element and a number of elements - count.
1355:.\Generated_Source\PSoC4/capsense_CSHL.c ****     *  The diplexed centroid requires at least two consecutive elements above
1356:.\Generated_Source\PSoC4/capsense_CSHL.c ****     *  FingerThreshold to find the index of the maximum element.
1357:.\Generated_Source\PSoC4/capsense_CSHL.c ****     *
1358:.\Generated_Source\PSoC4/capsense_CSHL.c ****     * Parameters:
1359:.\Generated_Source\PSoC4/capsense_CSHL.c ****     *  offset:  Start index of centroid in capsense_sensorSignal[] array.
1360:.\Generated_Source\PSoC4/capsense_CSHL.c ****     *  count:   number of elements within centroid.
1361:.\Generated_Source\PSoC4/capsense_CSHL.c ****     *  fingerThreshold:  Finger threshold.
1362:.\Generated_Source\PSoC4/capsense_CSHL.c ****     *  diplex:   pointer to diplex table.
1363:.\Generated_Source\PSoC4/capsense_CSHL.c ****     *
1364:.\Generated_Source\PSoC4/capsense_CSHL.c ****     * Return:
1365:.\Generated_Source\PSoC4/capsense_CSHL.c ****     *  Returns the index of the maximum element within a defined centroid.
1366:.\Generated_Source\PSoC4/capsense_CSHL.c ****     *  If the index of the maximum element isn't found it returns 0xFF.
1367:.\Generated_Source\PSoC4/capsense_CSHL.c ****     *
1368:.\Generated_Source\PSoC4/capsense_CSHL.c ****     * Global Variables:
1369:.\Generated_Source\PSoC4/capsense_CSHL.c ****     *  capsense_startOfSlider[] - contains the index of the first slider element
1370:.\Generated_Source\PSoC4/capsense_CSHL.c ****     *
1371:.\Generated_Source\PSoC4/capsense_CSHL.c ****     * Side Effects:
1372:.\Generated_Source\PSoC4/capsense_CSHL.c ****     *  None
1373:.\Generated_Source\PSoC4/capsense_CSHL.c ****     *
1374:.\Generated_Source\PSoC4/capsense_CSHL.c ****     *******************************************************************************/
1375:.\Generated_Source\PSoC4/capsense_CSHL.c ****     #if (capsense_IS_DIPLEX_SLIDER)
1376:.\Generated_Source\PSoC4/capsense_CSHL.c ****         uint8 capsense_FindMaximum(uint8 offset, uint8 count, uint8 fingerThreshold, const uint8 *d
1377:.\Generated_Source\PSoC4/capsense_CSHL.c ****     #else
1378:.\Generated_Source\PSoC4/capsense_CSHL.c ****         uint8 capsense_FindMaximum(uint8 offset, uint8 count, uint8 fingerThreshold)
1379:.\Generated_Source\PSoC4/capsense_CSHL.c ****     #endif /* (capsense_IS_DIPLEX_SLIDER) */
1380:.\Generated_Source\PSoC4/capsense_CSHL.c ****     {
 864              		.loc 1 1380 0
 865              		.cfi_startproc
 866              	.LVL89:
 867 0000 70B5     		push	{r4, r5, r6, lr}
 868              		.cfi_def_cfa_offset 16
 869              		.cfi_offset 4, -16
 870              		.cfi_offset 5, -12
 871              		.cfi_offset 6, -8
 872              		.cfi_offset 14, -4
 873              	.LVL90:
1381:.\Generated_Source\PSoC4/capsense_CSHL.c ****         uint8 i;
1382:.\Generated_Source\PSoC4/capsense_CSHL.c ****         #if (capsense_IS_DIPLEX_SLIDER)
1383:.\Generated_Source\PSoC4/capsense_CSHL.c ****             uint8 curPos = 0u;
1384:.\Generated_Source\PSoC4/capsense_CSHL.c ****             /* No centroid at Start */
1385:.\Generated_Source\PSoC4/capsense_CSHL.c ****             uint8 curCntrdSize = 0u;
1386:.\Generated_Source\PSoC4/capsense_CSHL.c ****             uint8 curCtrdStartPos = capsense_MAXIMUM_CENTROID;
1387:.\Generated_Source\PSoC4/capsense_CSHL.c ****             /* Biggest centroid is zero */
1388:.\Generated_Source\PSoC4/capsense_CSHL.c ****             uint8 biggestCtrdSize = 0u;
1389:.\Generated_Source\PSoC4/capsense_CSHL.c ****             uint8 biggestCtrdStartPos = 0u;
1390:.\Generated_Source\PSoC4/capsense_CSHL.c ****         #endif /* (capsense_IS_DIPLEX_SLIDER) */
1391:.\Generated_Source\PSoC4/capsense_CSHL.c ****         uint8 maximum = capsense_MAXIMUM_CENTROID;
1392:.\Generated_Source\PSoC4/capsense_CSHL.c **** 
1393:.\Generated_Source\PSoC4/capsense_CSHL.c ****         uint8 temp = 0u;
1394:.\Generated_Source\PSoC4/capsense_CSHL.c ****         uint8 *startOfSlider = &capsense_sensorSignal[offset];
 874              		.loc 1 1394 0
 875 0002 094D     		ldr	r5, .L87
 876 0004 1435     		add	r5, r5, #20
 877 0006 2D18     		add	r5, r5, r0
 878              	.LVL91:
1393:.\Generated_Source\PSoC4/capsense_CSHL.c ****         uint8 *startOfSlider = &capsense_sensorSignal[offset];
ARM GAS  C:\Users\Alan\AppData\Local\Temp\ccSwCrkV.s 			page 41


 879              		.loc 1 1393 0
 880 0008 0026     		mov	r6, #0
1391:.\Generated_Source\PSoC4/capsense_CSHL.c **** 
 881              		.loc 1 1391 0
 882 000a FF20     		mov	r0, #255
 883              	.LVL92:
1395:.\Generated_Source\PSoC4/capsense_CSHL.c **** 
1396:.\Generated_Source\PSoC4/capsense_CSHL.c ****         #if (capsense_IS_DIPLEX_SLIDER)
1397:.\Generated_Source\PSoC4/capsense_CSHL.c ****             if(diplex != 0u)
1398:.\Generated_Source\PSoC4/capsense_CSHL.c ****             {
1399:.\Generated_Source\PSoC4/capsense_CSHL.c ****                 /* Initialize */
1400:.\Generated_Source\PSoC4/capsense_CSHL.c ****                 i = 0u;
1401:.\Generated_Source\PSoC4/capsense_CSHL.c **** 
1402:.\Generated_Source\PSoC4/capsense_CSHL.c ****                 /* Make slider x2 as Diplexed */
1403:.\Generated_Source\PSoC4/capsense_CSHL.c ****                 count <<= 1u;
1404:.\Generated_Source\PSoC4/capsense_CSHL.c ****                 while(1u)
1405:.\Generated_Source\PSoC4/capsense_CSHL.c ****                 {
1406:.\Generated_Source\PSoC4/capsense_CSHL.c ****                     if (startOfSlider[curPos] > 0u)    /* Looking for centroids */
1407:.\Generated_Source\PSoC4/capsense_CSHL.c ****                     {
1408:.\Generated_Source\PSoC4/capsense_CSHL.c ****                         if (curCtrdStartPos == capsense_MAXIMUM_CENTROID)
1409:.\Generated_Source\PSoC4/capsense_CSHL.c ****                         {
1410:.\Generated_Source\PSoC4/capsense_CSHL.c ****                             /* Start of centroid */
1411:.\Generated_Source\PSoC4/capsense_CSHL.c ****                             curCtrdStartPos = i;
1412:.\Generated_Source\PSoC4/capsense_CSHL.c ****                             curCntrdSize++;
1413:.\Generated_Source\PSoC4/capsense_CSHL.c ****                         }
1414:.\Generated_Source\PSoC4/capsense_CSHL.c ****                         else
1415:.\Generated_Source\PSoC4/capsense_CSHL.c ****                         {
1416:.\Generated_Source\PSoC4/capsense_CSHL.c ****                             curCntrdSize++;
1417:.\Generated_Source\PSoC4/capsense_CSHL.c ****                         }
1418:.\Generated_Source\PSoC4/capsense_CSHL.c ****                     }
1419:.\Generated_Source\PSoC4/capsense_CSHL.c ****                     else   /* Select biggest and indicate zero start */
1420:.\Generated_Source\PSoC4/capsense_CSHL.c ****                     {
1421:.\Generated_Source\PSoC4/capsense_CSHL.c ****                         if(curCntrdSize > 0u)
1422:.\Generated_Source\PSoC4/capsense_CSHL.c ****                         {
1423:.\Generated_Source\PSoC4/capsense_CSHL.c ****                             /* We are at the end of current */
1424:.\Generated_Source\PSoC4/capsense_CSHL.c ****                             if(curCntrdSize > biggestCtrdSize)
1425:.\Generated_Source\PSoC4/capsense_CSHL.c ****                             {
1426:.\Generated_Source\PSoC4/capsense_CSHL.c ****                                 biggestCtrdSize = curCntrdSize;
1427:.\Generated_Source\PSoC4/capsense_CSHL.c ****                                 biggestCtrdStartPos = curCtrdStartPos;
1428:.\Generated_Source\PSoC4/capsense_CSHL.c ****                             }
1429:.\Generated_Source\PSoC4/capsense_CSHL.c **** 
1430:.\Generated_Source\PSoC4/capsense_CSHL.c ****                             curCntrdSize = 0u;
1431:.\Generated_Source\PSoC4/capsense_CSHL.c ****                             curCtrdStartPos = capsense_MAXIMUM_CENTROID;
1432:.\Generated_Source\PSoC4/capsense_CSHL.c ****                         }
1433:.\Generated_Source\PSoC4/capsense_CSHL.c ****                     }
1434:.\Generated_Source\PSoC4/capsense_CSHL.c **** 
1435:.\Generated_Source\PSoC4/capsense_CSHL.c ****                     i++;
1436:.\Generated_Source\PSoC4/capsense_CSHL.c ****                     curPos = diplex[i];
1437:.\Generated_Source\PSoC4/capsense_CSHL.c ****                     if(i == count)
1438:.\Generated_Source\PSoC4/capsense_CSHL.c ****                     {
1439:.\Generated_Source\PSoC4/capsense_CSHL.c ****                         break;
1440:.\Generated_Source\PSoC4/capsense_CSHL.c ****                     }
1441:.\Generated_Source\PSoC4/capsense_CSHL.c ****                 }
1442:.\Generated_Source\PSoC4/capsense_CSHL.c **** 
1443:.\Generated_Source\PSoC4/capsense_CSHL.c ****                     /* Find biggest centroid if two are same size, last one wins
1444:.\Generated_Source\PSoC4/capsense_CSHL.c ****                        We are at the end of current */
1445:.\Generated_Source\PSoC4/capsense_CSHL.c ****                 if (curCntrdSize >= biggestCtrdSize)
ARM GAS  C:\Users\Alan\AppData\Local\Temp\ccSwCrkV.s 			page 42


1446:.\Generated_Source\PSoC4/capsense_CSHL.c ****                 {
1447:.\Generated_Source\PSoC4/capsense_CSHL.c ****                     biggestCtrdSize = curCntrdSize;
1448:.\Generated_Source\PSoC4/capsense_CSHL.c ****                     biggestCtrdStartPos = curCtrdStartPos;
1449:.\Generated_Source\PSoC4/capsense_CSHL.c ****                 }
1450:.\Generated_Source\PSoC4/capsense_CSHL.c ****             }
1451:.\Generated_Source\PSoC4/capsense_CSHL.c ****             else
1452:.\Generated_Source\PSoC4/capsense_CSHL.c ****             {
1453:.\Generated_Source\PSoC4/capsense_CSHL.c ****                 /* Without diplexing */
1454:.\Generated_Source\PSoC4/capsense_CSHL.c ****                 biggestCtrdSize = count;
1455:.\Generated_Source\PSoC4/capsense_CSHL.c ****             }
1456:.\Generated_Source\PSoC4/capsense_CSHL.c **** 
1457:.\Generated_Source\PSoC4/capsense_CSHL.c **** 
1458:.\Generated_Source\PSoC4/capsense_CSHL.c ****             /* Check centroid size */
1459:.\Generated_Source\PSoC4/capsense_CSHL.c ****             #if (capsense_IS_NON_DIPLEX_SLIDER)
1460:.\Generated_Source\PSoC4/capsense_CSHL.c ****                 if((biggestCtrdSize >= 2u) || ((biggestCtrdSize == 1u) && (diplex == 0u)))
1461:.\Generated_Source\PSoC4/capsense_CSHL.c ****             #else
1462:.\Generated_Source\PSoC4/capsense_CSHL.c ****                 if(biggestCtrdSize >= 2u)
1463:.\Generated_Source\PSoC4/capsense_CSHL.c ****             #endif /* (capsense_IS_NON_DIPLEX_SLIDER) */
1464:.\Generated_Source\PSoC4/capsense_CSHL.c ****                 {
1465:.\Generated_Source\PSoC4/capsense_CSHL.c ****                     for (i = biggestCtrdStartPos; i < (biggestCtrdStartPos + biggestCtrdSize); i++)
1466:.\Generated_Source\PSoC4/capsense_CSHL.c ****                     {
1467:.\Generated_Source\PSoC4/capsense_CSHL.c ****                         #if (capsense_IS_DIPLEX_SLIDER && capsense_IS_NON_DIPLEX_SLIDER)
1468:.\Generated_Source\PSoC4/capsense_CSHL.c ****                             if (diplex == 0u)
1469:.\Generated_Source\PSoC4/capsense_CSHL.c ****                             {
1470:.\Generated_Source\PSoC4/capsense_CSHL.c ****                                 curPos = i;
1471:.\Generated_Source\PSoC4/capsense_CSHL.c ****                             }
1472:.\Generated_Source\PSoC4/capsense_CSHL.c ****                             else
1473:.\Generated_Source\PSoC4/capsense_CSHL.c ****                             {
1474:.\Generated_Source\PSoC4/capsense_CSHL.c ****                                 curPos = diplex[i];
1475:.\Generated_Source\PSoC4/capsense_CSHL.c ****                             }
1476:.\Generated_Source\PSoC4/capsense_CSHL.c ****                         #elif (capsense_IS_DIPLEX_SLIDER)
1477:.\Generated_Source\PSoC4/capsense_CSHL.c ****                             curPos = diplex[i];
1478:.\Generated_Source\PSoC4/capsense_CSHL.c ****                         #endif /* (capsense_IS_DIPLEX_SLIDER && capsense_IS_NON_DIPLEX_SLIDER) */
1479:.\Generated_Source\PSoC4/capsense_CSHL.c ****                         /* Looking for greater element within centroid */
1480:.\Generated_Source\PSoC4/capsense_CSHL.c ****                         if(startOfSlider[curPos] > fingerThreshold)
1481:.\Generated_Source\PSoC4/capsense_CSHL.c ****                         {
1482:.\Generated_Source\PSoC4/capsense_CSHL.c ****                             if(startOfSlider[curPos] > temp)
1483:.\Generated_Source\PSoC4/capsense_CSHL.c ****                             {
1484:.\Generated_Source\PSoC4/capsense_CSHL.c ****                                 maximum = i;
1485:.\Generated_Source\PSoC4/capsense_CSHL.c ****                                 temp = startOfSlider[curPos];
1486:.\Generated_Source\PSoC4/capsense_CSHL.c ****                             }
1487:.\Generated_Source\PSoC4/capsense_CSHL.c ****                         }
1488:.\Generated_Source\PSoC4/capsense_CSHL.c ****                     }
1489:.\Generated_Source\PSoC4/capsense_CSHL.c ****                 }
1490:.\Generated_Source\PSoC4/capsense_CSHL.c ****         #else
1491:.\Generated_Source\PSoC4/capsense_CSHL.c ****             for (i = 0u; i < count; i++)
 884              		.loc 1 1491 0
 885 000c 0023     		mov	r3, #0
 886 000e 08E0     		b	.L83
 887              	.LVL93:
 888              	.L85:
1492:.\Generated_Source\PSoC4/capsense_CSHL.c ****             {
1493:.\Generated_Source\PSoC4/capsense_CSHL.c ****                 /* Looking for greater element within centroid */
1494:.\Generated_Source\PSoC4/capsense_CSHL.c ****                 if(startOfSlider[i] > fingerThreshold)
 889              		.loc 1 1494 0
 890 0010 EC5C     		ldrb	r4, [r5, r3]
 891 0012 9442     		cmp	r4, r2
ARM GAS  C:\Users\Alan\AppData\Local\Temp\ccSwCrkV.s 			page 43


 892 0014 03D9     		bls	.L84
1495:.\Generated_Source\PSoC4/capsense_CSHL.c ****                 {
1496:.\Generated_Source\PSoC4/capsense_CSHL.c ****                     if(startOfSlider[i] > temp)
 893              		.loc 1 1496 0
 894 0016 A642     		cmp	r6, r4
 895 0018 01D2     		bcs	.L84
1497:.\Generated_Source\PSoC4/capsense_CSHL.c ****                     {
1498:.\Generated_Source\PSoC4/capsense_CSHL.c ****                         maximum = i;
1499:.\Generated_Source\PSoC4/capsense_CSHL.c ****                         temp = startOfSlider[i];
 896              		.loc 1 1499 0
 897 001a 261C     		mov	r6, r4
 898              	.LVL94:
1498:.\Generated_Source\PSoC4/capsense_CSHL.c ****                         temp = startOfSlider[i];
 899              		.loc 1 1498 0
 900 001c 181C     		mov	r0, r3
 901              	.LVL95:
 902              	.L84:
1491:.\Generated_Source\PSoC4/capsense_CSHL.c ****             {
 903              		.loc 1 1491 0 discriminator 2
 904 001e 0133     		add	r3, r3, #1
 905              	.LVL96:
 906 0020 DBB2     		uxtb	r3, r3
 907              	.LVL97:
 908              	.L83:
1491:.\Generated_Source\PSoC4/capsense_CSHL.c ****             {
 909              		.loc 1 1491 0 is_stmt 0 discriminator 1
 910 0022 8B42     		cmp	r3, r1
 911 0024 F4D3     		bcc	.L85
1500:.\Generated_Source\PSoC4/capsense_CSHL.c ****                     }
1501:.\Generated_Source\PSoC4/capsense_CSHL.c ****                 }
1502:.\Generated_Source\PSoC4/capsense_CSHL.c ****             }
1503:.\Generated_Source\PSoC4/capsense_CSHL.c ****         #endif /* (capsense_IS_DIPLEX_SLIDER) */
1504:.\Generated_Source\PSoC4/capsense_CSHL.c ****         return (maximum);
1505:.\Generated_Source\PSoC4/capsense_CSHL.c ****     }
 912              		.loc 1 1505 0 is_stmt 1
 913              		@ sp needed
 914              	.LVL98:
 915              	.LVL99:
 916 0026 70BD     		pop	{r4, r5, r6, pc}
 917              	.L88:
 918              		.align	2
 919              	.L87:
 920 0028 00000000 		.word	.LANCHOR0
 921              		.cfi_endproc
 922              	.LFE62:
 923              		.size	capsense_FindMaximum, .-capsense_FindMaximum
 924              		.global	__aeabi_idiv
 925              		.section	.text.capsense_CalcCentroid,"ax",%progbits
 926              		.align	2
 927              		.global	capsense_CalcCentroid
 928              		.code	16
 929              		.thumb_func
 930              		.type	capsense_CalcCentroid, %function
 931              	capsense_CalcCentroid:
 932              	.LFB63:
1506:.\Generated_Source\PSoC4/capsense_CSHL.c **** 
1507:.\Generated_Source\PSoC4/capsense_CSHL.c **** 
ARM GAS  C:\Users\Alan\AppData\Local\Temp\ccSwCrkV.s 			page 44


1508:.\Generated_Source\PSoC4/capsense_CSHL.c ****     /*******************************************************************************
1509:.\Generated_Source\PSoC4/capsense_CSHL.c ****     * Function Name: capsense_CalcCentroid
1510:.\Generated_Source\PSoC4/capsense_CSHL.c ****     ********************************************************************************
1511:.\Generated_Source\PSoC4/capsense_CSHL.c ****     *
1512:.\Generated_Source\PSoC4/capsense_CSHL.c ****     * Summary:
1513:.\Generated_Source\PSoC4/capsense_CSHL.c ****     *  Returns a position value calculated according to the index of the maximum element and API
1514:.\Generated_Source\PSoC4/capsense_CSHL.c ****     *  resolution.
1515:.\Generated_Source\PSoC4/capsense_CSHL.c ****     *
1516:.\Generated_Source\PSoC4/capsense_CSHL.c ****     * Parameters:
1517:.\Generated_Source\PSoC4/capsense_CSHL.c ****     *  type:  widget type.
1518:.\Generated_Source\PSoC4/capsense_CSHL.c ****     *  diplex:  pointer to diplex table.
1519:.\Generated_Source\PSoC4/capsense_CSHL.c ****     *  maximum:  Index of maximum element within centroid.
1520:.\Generated_Source\PSoC4/capsense_CSHL.c ****     *  offset:   Start index of centroid in capsense_sensorSignal[] array.
1521:.\Generated_Source\PSoC4/capsense_CSHL.c ****     *  count:    Number of elements within centroid.
1522:.\Generated_Source\PSoC4/capsense_CSHL.c ****     *  resolution:  multiplicator calculated according to centroid type and
1523:.\Generated_Source\PSoC4/capsense_CSHL.c ****     *  API resolution.
1524:.\Generated_Source\PSoC4/capsense_CSHL.c ****     *  noiseThreshold:  Noise threshold.
1525:.\Generated_Source\PSoC4/capsense_CSHL.c ****     *
1526:.\Generated_Source\PSoC4/capsense_CSHL.c ****     * Return:
1527:.\Generated_Source\PSoC4/capsense_CSHL.c ****     *  Returns a position value of the slider.
1528:.\Generated_Source\PSoC4/capsense_CSHL.c ****     *
1529:.\Generated_Source\PSoC4/capsense_CSHL.c ****     * Side Effects:
1530:.\Generated_Source\PSoC4/capsense_CSHL.c ****     *  None
1531:.\Generated_Source\PSoC4/capsense_CSHL.c ****     *
1532:.\Generated_Source\PSoC4/capsense_CSHL.c ****     *******************************************************************************/
1533:.\Generated_Source\PSoC4/capsense_CSHL.c **** #if (capsense_TOTAL_TRACKPAD_GESTURES_COUNT > 0u)
1534:.\Generated_Source\PSoC4/capsense_CSHL.c ****     uint8 capsense_CalcCentroid(uint8 maximum, uint8 offset,
1535:.\Generated_Source\PSoC4/capsense_CSHL.c ****                                         uint8 count, uint32 resolution, uint8 noiseThreshold)
1536:.\Generated_Source\PSoC4/capsense_CSHL.c **** #else
1537:.\Generated_Source\PSoC4/capsense_CSHL.c ****     uint8 capsense_CalcCentroid(uint8 maximum, uint8 offset,
1538:.\Generated_Source\PSoC4/capsense_CSHL.c ****                                         uint8 count, uint16 resolution, uint8 noiseThreshold)
1539:.\Generated_Source\PSoC4/capsense_CSHL.c **** #endif /* (capsense_TOTAL_TRACKPAD_GESTURES_COUNT > 0u) */
1540:.\Generated_Source\PSoC4/capsense_CSHL.c ****     {
 933              		.loc 1 1540 0
 934              		.cfi_startproc
 935              	.LVL100:
 936 0000 F0B5     		push	{r4, r5, r6, r7, lr}
 937              		.cfi_def_cfa_offset 20
 938              		.cfi_offset 4, -20
 939              		.cfi_offset 5, -16
 940              		.cfi_offset 6, -12
 941              		.cfi_offset 7, -8
 942              		.cfi_offset 14, -4
 943 0002 83B0     		sub	sp, sp, #12
 944              		.cfi_def_cfa_offset 32
 945 0004 041C     		mov	r4, r0
 946 0006 0192     		str	r2, [sp, #4]
 947 0008 0093     		str	r3, [sp]
 948 000a 08AB     		add	r3, sp, #32
 949              	.LVL101:
 950 000c 1878     		ldrb	r0, [r3]
 951              	.LVL102:
1541:.\Generated_Source\PSoC4/capsense_CSHL.c ****         #if ((capsense_TOTAL_LINEAR_SLIDERS_COUNT > 0u) || (capsense_TOTAL_TOUCH_PADS_BASIC_COUNT >
1542:.\Generated_Source\PSoC4/capsense_CSHL.c ****             uint8 posPrev;
1543:.\Generated_Source\PSoC4/capsense_CSHL.c ****             uint8 posNext;
1544:.\Generated_Source\PSoC4/capsense_CSHL.c ****         #endif /* ((capsense_TOTAL_LINEAR_SLIDERS_COUNT>0u) || (capsense_TOTAL_TOUCH_PADS_BASIC_COU
1545:.\Generated_Source\PSoC4/capsense_CSHL.c **** 
ARM GAS  C:\Users\Alan\AppData\Local\Temp\ccSwCrkV.s 			page 45


1546:.\Generated_Source\PSoC4/capsense_CSHL.c ****         /* Helps during centroid calculation */
1547:.\Generated_Source\PSoC4/capsense_CSHL.c ****         #if (capsense_TOTAL_CENTROIDS_BASIC_COUNT)
1548:.\Generated_Source\PSoC4/capsense_CSHL.c ****             static uint8 capsense_centroid[3u];
1549:.\Generated_Source\PSoC4/capsense_CSHL.c ****         #endif  /* (capsense_TOTAL_CENTROIDS_BASIC_COUNT) */
1550:.\Generated_Source\PSoC4/capsense_CSHL.c **** 
1551:.\Generated_Source\PSoC4/capsense_CSHL.c ****         #if (capsense_IS_DIPLEX_SLIDER)
1552:.\Generated_Source\PSoC4/capsense_CSHL.c ****             uint8 pos;
1553:.\Generated_Source\PSoC4/capsense_CSHL.c ****         #endif /* (capsense_IS_DIPLEX_SLIDER) */
1554:.\Generated_Source\PSoC4/capsense_CSHL.c **** 
1555:.\Generated_Source\PSoC4/capsense_CSHL.c ****         uint8 position;
1556:.\Generated_Source\PSoC4/capsense_CSHL.c ****         uint32 numerator;
1557:.\Generated_Source\PSoC4/capsense_CSHL.c ****         int32 denominator;
1558:.\Generated_Source\PSoC4/capsense_CSHL.c **** 
1559:.\Generated_Source\PSoC4/capsense_CSHL.c ****         uint8  *startOfSlider = &capsense_sensorSignal[offset];
 952              		.loc 1 1559 0
 953 000e 344B     		ldr	r3, .L99
 954              	.LVL103:
 955 0010 1433     		add	r3, r3, #20
 956 0012 5918     		add	r1, r3, r1
 957              	.LVL104:
1560:.\Generated_Source\PSoC4/capsense_CSHL.c **** 
1561:.\Generated_Source\PSoC4/capsense_CSHL.c ****         #if ((capsense_TOTAL_LINEAR_SLIDERS_COUNT > 0u) || (capsense_TOTAL_TOUCH_PADS_BASIC_COUNT >
1562:.\Generated_Source\PSoC4/capsense_CSHL.c ****             posPrev = 0u;
1563:.\Generated_Source\PSoC4/capsense_CSHL.c ****         #endif /* ((capsense_TOTAL_LINEAR_SLIDERS_COUNT>0u) || (capsense_TOTAL_TOUCH_PADS_BASIC_COU
1564:.\Generated_Source\PSoC4/capsense_CSHL.c **** 
1565:.\Generated_Source\PSoC4/capsense_CSHL.c ****         #if (capsense_ADD_SLIDER_TYPE)
1566:.\Generated_Source\PSoC4/capsense_CSHL.c ****             if(type == capsense_TYPE_RADIAL_SLIDER)
1567:.\Generated_Source\PSoC4/capsense_CSHL.c ****             {
1568:.\Generated_Source\PSoC4/capsense_CSHL.c ****         #endif /* (capsense_ADD_SLIDER_TYPE) */
1569:.\Generated_Source\PSoC4/capsense_CSHL.c **** 
1570:.\Generated_Source\PSoC4/capsense_CSHL.c ****             #if (capsense_TOTAL_RADIAL_SLIDERS_COUNT > 0u)
1571:.\Generated_Source\PSoC4/capsense_CSHL.c ****                 /* Copy Signal to the centroid array */
1572:.\Generated_Source\PSoC4/capsense_CSHL.c ****                 capsense_centroid[capsense_POS] = startOfSlider[maximum];
1573:.\Generated_Source\PSoC4/capsense_CSHL.c **** 
1574:.\Generated_Source\PSoC4/capsense_CSHL.c ****                 /* Check borders for ROTARY Slider */
1575:.\Generated_Source\PSoC4/capsense_CSHL.c ****                 if (maximum == 0u)                   /* Start of centroid */
1576:.\Generated_Source\PSoC4/capsense_CSHL.c ****                 {
1577:.\Generated_Source\PSoC4/capsense_CSHL.c ****                     capsense_centroid[capsense_POS_PREV] = startOfSlider[count - 1u];
1578:.\Generated_Source\PSoC4/capsense_CSHL.c ****                     capsense_centroid[capsense_POS_NEXT] = startOfSlider[1u];
1579:.\Generated_Source\PSoC4/capsense_CSHL.c ****                 }
1580:.\Generated_Source\PSoC4/capsense_CSHL.c ****                 else if (maximum == (count - 1u))    /* End of centroid */
1581:.\Generated_Source\PSoC4/capsense_CSHL.c ****                 {
1582:.\Generated_Source\PSoC4/capsense_CSHL.c ****                     capsense_centroid[capsense_POS_PREV] = startOfSlider[maximum - 1u];
1583:.\Generated_Source\PSoC4/capsense_CSHL.c ****                     capsense_centroid[capsense_POS_NEXT] = startOfSlider[0u];
1584:.\Generated_Source\PSoC4/capsense_CSHL.c ****                 }
1585:.\Generated_Source\PSoC4/capsense_CSHL.c ****                 else                                /* Not first Not last */
1586:.\Generated_Source\PSoC4/capsense_CSHL.c ****                 {
1587:.\Generated_Source\PSoC4/capsense_CSHL.c ****                     capsense_centroid[capsense_POS_PREV] = startOfSlider[maximum - 1u];
1588:.\Generated_Source\PSoC4/capsense_CSHL.c ****                     capsense_centroid[capsense_POS_NEXT] = startOfSlider[maximum + 1u];
1589:.\Generated_Source\PSoC4/capsense_CSHL.c ****                 }
1590:.\Generated_Source\PSoC4/capsense_CSHL.c ****             #endif /* (capsense_TOTAL_RADIAL_SLIDERS_COUNT > 0u) */
1591:.\Generated_Source\PSoC4/capsense_CSHL.c **** 
1592:.\Generated_Source\PSoC4/capsense_CSHL.c ****         #if (capsense_ADD_SLIDER_TYPE)
1593:.\Generated_Source\PSoC4/capsense_CSHL.c ****             }
1594:.\Generated_Source\PSoC4/capsense_CSHL.c ****             else
1595:.\Generated_Source\PSoC4/capsense_CSHL.c ****             {
1596:.\Generated_Source\PSoC4/capsense_CSHL.c ****         #endif /* (capsense_ADD_SLIDER_TYPE) */
ARM GAS  C:\Users\Alan\AppData\Local\Temp\ccSwCrkV.s 			page 46


1597:.\Generated_Source\PSoC4/capsense_CSHL.c **** 
1598:.\Generated_Source\PSoC4/capsense_CSHL.c ****             #if ((capsense_TOTAL_LINEAR_SLIDERS_COUNT > 0u) || (capsense_TOTAL_TOUCH_PADS_BASIC_COU
1599:.\Generated_Source\PSoC4/capsense_CSHL.c ****                 #if (capsense_IS_DIPLEX_SLIDER && capsense_IS_NON_DIPLEX_SLIDER)
1600:.\Generated_Source\PSoC4/capsense_CSHL.c ****                     /* Calculate next and previous near to maximum */
1601:.\Generated_Source\PSoC4/capsense_CSHL.c ****                     if(diplex == 0u)
1602:.\Generated_Source\PSoC4/capsense_CSHL.c ****                     {
1603:.\Generated_Source\PSoC4/capsense_CSHL.c ****                         pos     = maximum;
1604:.\Generated_Source\PSoC4/capsense_CSHL.c ****                         posPrev = maximum - 1u;
1605:.\Generated_Source\PSoC4/capsense_CSHL.c ****                         posNext = maximum + 1u;
1606:.\Generated_Source\PSoC4/capsense_CSHL.c ****                     }
1607:.\Generated_Source\PSoC4/capsense_CSHL.c ****                     else
1608:.\Generated_Source\PSoC4/capsense_CSHL.c ****                     {
1609:.\Generated_Source\PSoC4/capsense_CSHL.c ****                         pos     = diplex[maximum];
1610:.\Generated_Source\PSoC4/capsense_CSHL.c ****                         posPrev = diplex[maximum - 1u];
1611:.\Generated_Source\PSoC4/capsense_CSHL.c ****                         posNext = diplex[maximum + 1u];
1612:.\Generated_Source\PSoC4/capsense_CSHL.c ****                         count <<= 1u;
1613:.\Generated_Source\PSoC4/capsense_CSHL.c ****                     }
1614:.\Generated_Source\PSoC4/capsense_CSHL.c ****                 #elif (capsense_IS_DIPLEX_SLIDER)
1615:.\Generated_Source\PSoC4/capsense_CSHL.c ****                     /* Calculate next and previous near to maximum */
1616:.\Generated_Source\PSoC4/capsense_CSHL.c ****                     pos     = diplex[maximum];
1617:.\Generated_Source\PSoC4/capsense_CSHL.c ****                     posPrev = diplex[maximum - 1u];
1618:.\Generated_Source\PSoC4/capsense_CSHL.c ****                     posNext = diplex[maximum + 1u];
1619:.\Generated_Source\PSoC4/capsense_CSHL.c ****                     count <<= 1u;
1620:.\Generated_Source\PSoC4/capsense_CSHL.c ****                 #else
1621:.\Generated_Source\PSoC4/capsense_CSHL.c ****                     /* Calculate next and previous near to maximum */
1622:.\Generated_Source\PSoC4/capsense_CSHL.c ****                     if (maximum >= 1u)
 958              		.loc 1 1622 0
 959 0014 002C     		cmp	r4, #0
 960 0016 02D0     		beq	.L98
1623:.\Generated_Source\PSoC4/capsense_CSHL.c ****                     {
1624:.\Generated_Source\PSoC4/capsense_CSHL.c ****                         posPrev = maximum - 1u;
 961              		.loc 1 1624 0
 962 0018 661E     		sub	r6, r4, #1
 963 001a F6B2     		uxtb	r6, r6
 964              	.LVL105:
 965 001c 00E0     		b	.L90
 966              	.LVL106:
 967              	.L98:
1562:.\Generated_Source\PSoC4/capsense_CSHL.c ****         #endif /* ((capsense_TOTAL_LINEAR_SLIDERS_COUNT>0u) || (capsense_TOTAL_TOUCH_PADS_BASIC_COU
 968              		.loc 1 1562 0
 969 001e 0026     		mov	r6, #0
 970              	.LVL107:
 971              	.L90:
1625:.\Generated_Source\PSoC4/capsense_CSHL.c ****                     }
1626:.\Generated_Source\PSoC4/capsense_CSHL.c ****                     posNext = maximum + 1u;
 972              		.loc 1 1626 0
 973 0020 631C     		add	r3, r4, #1
 974 0022 DDB2     		uxtb	r5, r3
 975              	.LVL108:
1627:.\Generated_Source\PSoC4/capsense_CSHL.c ****                 #endif /* (capsense_IS_DIPLEX_SLIDER && capsense_IS_NON_DIPLEX_SLIDER) */
1628:.\Generated_Source\PSoC4/capsense_CSHL.c **** 
1629:.\Generated_Source\PSoC4/capsense_CSHL.c ****                 /* Copy Signal to the centroid array */
1630:.\Generated_Source\PSoC4/capsense_CSHL.c ****                 #if (capsense_IS_DIPLEX_SLIDER)
1631:.\Generated_Source\PSoC4/capsense_CSHL.c ****                     capsense_centroid[capsense_POS] = startOfSlider[pos];
1632:.\Generated_Source\PSoC4/capsense_CSHL.c ****                 #else
1633:.\Generated_Source\PSoC4/capsense_CSHL.c ****                     capsense_centroid[capsense_POS] = startOfSlider[maximum];
 976              		.loc 1 1633 0
ARM GAS  C:\Users\Alan\AppData\Local\Temp\ccSwCrkV.s 			page 47


 977 0024 0B5D     		ldrb	r3, [r1, r4]
 978 0026 9C46     		mov	ip, r3
 979 0028 2D4B     		ldr	r3, .L99
 980 002a 2433     		add	r3, r3, #36
 981 002c 6246     		mov	r2, ip
 982              	.LVL109:
 983 002e 5A70     		strb	r2, [r3, #1]
1634:.\Generated_Source\PSoC4/capsense_CSHL.c ****                 #endif /* (capsense_IS_DIPLEX_SLIDER) */
1635:.\Generated_Source\PSoC4/capsense_CSHL.c **** 
1636:.\Generated_Source\PSoC4/capsense_CSHL.c ****                 /* Check borders for LINEAR Slider */
1637:.\Generated_Source\PSoC4/capsense_CSHL.c ****                 if (maximum == 0u)                   /* Start of centroid */
 984              		.loc 1 1637 0
 985 0030 002C     		cmp	r4, #0
 986 0032 07D1     		bne	.L91
1638:.\Generated_Source\PSoC4/capsense_CSHL.c ****                 {
1639:.\Generated_Source\PSoC4/capsense_CSHL.c ****                     capsense_centroid[capsense_POS_PREV] = 0u;
 987              		.loc 1 1639 0
 988 0034 2A4B     		ldr	r3, .L99
 989 0036 0026     		mov	r6, #0
 990              	.LVL110:
 991 0038 2422     		mov	r2, #36
 992 003a 9E54     		strb	r6, [r3, r2]
1640:.\Generated_Source\PSoC4/capsense_CSHL.c ****                     capsense_centroid[capsense_POS_NEXT] = startOfSlider[posNext];
 993              		.loc 1 1640 0
 994 003c 4A5D     		ldrb	r2, [r1, r5]
 995 003e 2433     		add	r3, r3, #36
 996 0040 9A70     		strb	r2, [r3, #2]
 997 0042 12E0     		b	.L92
 998              	.LVL111:
 999              	.L91:
1641:.\Generated_Source\PSoC4/capsense_CSHL.c ****                 }
1642:.\Generated_Source\PSoC4/capsense_CSHL.c ****                 else if (maximum == ((count) - 1u)) /* End of centroid */
 1000              		.loc 1 1642 0
 1001 0044 019A     		ldr	r2, [sp, #4]
 1002 0046 013A     		sub	r2, r2, #1
 1003 0048 9442     		cmp	r4, r2
 1004 004a 07D1     		bne	.L93
1643:.\Generated_Source\PSoC4/capsense_CSHL.c ****                 {
1644:.\Generated_Source\PSoC4/capsense_CSHL.c ****                     capsense_centroid[capsense_POS_PREV] = startOfSlider[posPrev];
 1005              		.loc 1 1644 0
 1006 004c 895D     		ldrb	r1, [r1, r6]
 1007              	.LVL112:
 1008 004e 244B     		ldr	r3, .L99
 1009 0050 2422     		mov	r2, #36
 1010 0052 9954     		strb	r1, [r3, r2]
1645:.\Generated_Source\PSoC4/capsense_CSHL.c ****                     capsense_centroid[capsense_POS_NEXT] = 0u;
 1011              		.loc 1 1645 0
 1012 0054 2433     		add	r3, r3, #36
 1013 0056 0022     		mov	r2, #0
 1014 0058 9A70     		strb	r2, [r3, #2]
 1015 005a 06E0     		b	.L92
 1016              	.LVL113:
 1017              	.L93:
1646:.\Generated_Source\PSoC4/capsense_CSHL.c ****                 }
1647:.\Generated_Source\PSoC4/capsense_CSHL.c ****                 else                                /* Not first Not last */
1648:.\Generated_Source\PSoC4/capsense_CSHL.c ****                 {
1649:.\Generated_Source\PSoC4/capsense_CSHL.c ****                     capsense_centroid[capsense_POS_PREV] = startOfSlider[posPrev];
ARM GAS  C:\Users\Alan\AppData\Local\Temp\ccSwCrkV.s 			page 48


 1018              		.loc 1 1649 0
 1019 005c 8E5D     		ldrb	r6, [r1, r6]
 1020              	.LVL114:
 1021 005e 204B     		ldr	r3, .L99
 1022 0060 2422     		mov	r2, #36
 1023 0062 9E54     		strb	r6, [r3, r2]
1650:.\Generated_Source\PSoC4/capsense_CSHL.c ****                     capsense_centroid[capsense_POS_NEXT] = startOfSlider[posNext];
 1024              		.loc 1 1650 0
 1025 0064 4A5D     		ldrb	r2, [r1, r5]
 1026 0066 2433     		add	r3, r3, #36
 1027 0068 9A70     		strb	r2, [r3, #2]
 1028              	.LVL115:
 1029              	.L92:
1651:.\Generated_Source\PSoC4/capsense_CSHL.c ****                 }
1652:.\Generated_Source\PSoC4/capsense_CSHL.c ****             #endif /* ((capsense_TOTAL_LINEAR_SLIDERS_COUNT>0u)||(capsense_TOTAL_TOUCH_PADS_BASIC_C
1653:.\Generated_Source\PSoC4/capsense_CSHL.c **** 
1654:.\Generated_Source\PSoC4/capsense_CSHL.c ****         #if (capsense_ADD_SLIDER_TYPE)
1655:.\Generated_Source\PSoC4/capsense_CSHL.c ****             }
1656:.\Generated_Source\PSoC4/capsense_CSHL.c ****         #endif /* (capsense_ADD_SLIDER_TYPE) */
1657:.\Generated_Source\PSoC4/capsense_CSHL.c **** 
1658:.\Generated_Source\PSoC4/capsense_CSHL.c ****         /* Subtract noiseThreshold */
1659:.\Generated_Source\PSoC4/capsense_CSHL.c ****         if(capsense_centroid[capsense_POS_PREV] > noiseThreshold)
 1030              		.loc 1 1659 0
 1031 006a 2423     		mov	r3, #36
 1032 006c 1C4A     		ldr	r2, .L99
 1033 006e D35C     		ldrb	r3, [r2, r3]
 1034 0070 8342     		cmp	r3, r0
 1035 0072 04D9     		bls	.L94
1660:.\Generated_Source\PSoC4/capsense_CSHL.c ****         {
1661:.\Generated_Source\PSoC4/capsense_CSHL.c ****             capsense_centroid[capsense_POS_PREV] -= noiseThreshold;
 1036              		.loc 1 1661 0
 1037 0074 1B1A     		sub	r3, r3, r0
 1038 0076 2422     		mov	r2, #36
 1039 0078 1949     		ldr	r1, .L99
 1040 007a 8B54     		strb	r3, [r1, r2]
 1041 007c 03E0     		b	.L95
 1042              	.L94:
1662:.\Generated_Source\PSoC4/capsense_CSHL.c ****         }
1663:.\Generated_Source\PSoC4/capsense_CSHL.c ****         else
1664:.\Generated_Source\PSoC4/capsense_CSHL.c ****         {
1665:.\Generated_Source\PSoC4/capsense_CSHL.c ****             capsense_centroid[capsense_POS_PREV] = 0u;
 1043              		.loc 1 1665 0
 1044 007e 0021     		mov	r1, #0
 1045 0080 2423     		mov	r3, #36
 1046 0082 174A     		ldr	r2, .L99
 1047 0084 D154     		strb	r1, [r2, r3]
 1048              	.L95:
1666:.\Generated_Source\PSoC4/capsense_CSHL.c ****         }
1667:.\Generated_Source\PSoC4/capsense_CSHL.c **** 
1668:.\Generated_Source\PSoC4/capsense_CSHL.c ****         /* Maximum always greater than fingerThreshold, so greater than noiseThreshold */
1669:.\Generated_Source\PSoC4/capsense_CSHL.c ****         capsense_centroid[capsense_POS] -= noiseThreshold;
 1049              		.loc 1 1669 0
 1050 0086 164A     		ldr	r2, .L99
 1051 0088 2432     		add	r2, r2, #36
 1052 008a 5378     		ldrb	r3, [r2, #1]
 1053 008c 1B1A     		sub	r3, r3, r0
 1054 008e DBB2     		uxtb	r3, r3
ARM GAS  C:\Users\Alan\AppData\Local\Temp\ccSwCrkV.s 			page 49


 1055 0090 5370     		strb	r3, [r2, #1]
1670:.\Generated_Source\PSoC4/capsense_CSHL.c **** 
1671:.\Generated_Source\PSoC4/capsense_CSHL.c ****         /* Subtract noiseThreshold */
1672:.\Generated_Source\PSoC4/capsense_CSHL.c ****         if(capsense_centroid[capsense_POS_NEXT] > noiseThreshold)
 1056              		.loc 1 1672 0
 1057 0092 9278     		ldrb	r2, [r2, #2]
 1058 0094 8242     		cmp	r2, r0
 1059 0096 04D9     		bls	.L96
1673:.\Generated_Source\PSoC4/capsense_CSHL.c ****         {
1674:.\Generated_Source\PSoC4/capsense_CSHL.c ****             capsense_centroid[capsense_POS_NEXT] -= noiseThreshold;
 1060              		.loc 1 1674 0
 1061 0098 101A     		sub	r0, r2, r0
 1062 009a 114A     		ldr	r2, .L99
 1063 009c 2432     		add	r2, r2, #36
 1064 009e 9070     		strb	r0, [r2, #2]
 1065 00a0 03E0     		b	.L97
 1066              	.L96:
1675:.\Generated_Source\PSoC4/capsense_CSHL.c ****         }
1676:.\Generated_Source\PSoC4/capsense_CSHL.c ****         else
1677:.\Generated_Source\PSoC4/capsense_CSHL.c ****         {
1678:.\Generated_Source\PSoC4/capsense_CSHL.c ****             capsense_centroid[capsense_POS_NEXT] = 0u;
 1067              		.loc 1 1678 0
 1068 00a2 0021     		mov	r1, #0
 1069 00a4 0E4A     		ldr	r2, .L99
 1070 00a6 2432     		add	r2, r2, #36
 1071 00a8 9170     		strb	r1, [r2, #2]
 1072              	.L97:
1679:.\Generated_Source\PSoC4/capsense_CSHL.c ****         }
1680:.\Generated_Source\PSoC4/capsense_CSHL.c **** 
1681:.\Generated_Source\PSoC4/capsense_CSHL.c **** 
1682:.\Generated_Source\PSoC4/capsense_CSHL.c ****         /* Si+1 - Si-1 */
1683:.\Generated_Source\PSoC4/capsense_CSHL.c ****         numerator = (uint32) capsense_centroid[capsense_POS_NEXT] -
 1073              		.loc 1 1683 0
 1074 00aa 0D49     		ldr	r1, .L99
 1075 00ac 0A1C     		mov	r2, r1
 1076 00ae 2432     		add	r2, r2, #36
 1077 00b0 9278     		ldrb	r2, [r2, #2]
1684:.\Generated_Source\PSoC4/capsense_CSHL.c ****                     (uint32) capsense_centroid[capsense_POS_PREV];
 1078              		.loc 1 1684 0
 1079 00b2 2420     		mov	r0, #36
 1080 00b4 095C     		ldrb	r1, [r1, r0]
1683:.\Generated_Source\PSoC4/capsense_CSHL.c ****                     (uint32) capsense_centroid[capsense_POS_PREV];
 1081              		.loc 1 1683 0
 1082 00b6 501A     		sub	r0, r2, r1
 1083              	.LVL116:
1685:.\Generated_Source\PSoC4/capsense_CSHL.c **** 
1686:.\Generated_Source\PSoC4/capsense_CSHL.c ****         /* Si+1 + Si + Si-1 */
1687:.\Generated_Source\PSoC4/capsense_CSHL.c ****         denominator = (int32) capsense_centroid[capsense_POS_PREV] +
 1084              		.loc 1 1687 0
 1085 00b8 C918     		add	r1, r1, r3
 1086 00ba 8918     		add	r1, r1, r2
 1087              	.LVL117:
1688:.\Generated_Source\PSoC4/capsense_CSHL.c ****                       (int32) capsense_centroid[capsense_POS] +
1689:.\Generated_Source\PSoC4/capsense_CSHL.c ****                       (int32) capsense_centroid[capsense_POS_NEXT];
1690:.\Generated_Source\PSoC4/capsense_CSHL.c **** 
1691:.\Generated_Source\PSoC4/capsense_CSHL.c ****         /* (numerator/denominator) + maximum */
1692:.\Generated_Source\PSoC4/capsense_CSHL.c ****         denominator = (((int32)(uint32)((uint32)numerator << 8u)/denominator) + (int32)(uint32)((ui
ARM GAS  C:\Users\Alan\AppData\Local\Temp\ccSwCrkV.s 			page 50


 1088              		.loc 1 1692 0
 1089 00bc 0002     		lsl	r0, r0, #8
 1090              	.LVL118:
 1091 00be FFF7FEFF 		bl	__aeabi_idiv
 1092              	.LVL119:
 1093 00c2 2402     		lsl	r4, r4, #8
 1094 00c4 0419     		add	r4, r0, r4
 1095              	.LVL120:
1693:.\Generated_Source\PSoC4/capsense_CSHL.c **** 
1694:.\Generated_Source\PSoC4/capsense_CSHL.c ****         #if(capsense_TOTAL_RADIAL_SLIDERS_COUNT > 0u)
1695:.\Generated_Source\PSoC4/capsense_CSHL.c ****             /* Only required for RADIAL Slider */
1696:.\Generated_Source\PSoC4/capsense_CSHL.c ****             if(denominator < 0)
1697:.\Generated_Source\PSoC4/capsense_CSHL.c ****             {
1698:.\Generated_Source\PSoC4/capsense_CSHL.c ****                 denominator += (int32)((uint16)((uint16) count << 8u));
1699:.\Generated_Source\PSoC4/capsense_CSHL.c ****             }
1700:.\Generated_Source\PSoC4/capsense_CSHL.c ****         #endif /* (capsense_TOTAL_RADIAL_SLIDERS_COUNT > 0u) */
1701:.\Generated_Source\PSoC4/capsense_CSHL.c **** 
1702:.\Generated_Source\PSoC4/capsense_CSHL.c ****         denominator *= (int16)resolution;
 1096              		.loc 1 1702 0
 1097 00c6 6B46     		mov	r3, sp
 1098 00c8 0020     		mov	r0, #0
 1099 00ca 185E     		ldrsh	r0, [r3, r0]
 1100 00cc 6043     		mul	r0, r4
 1101              	.LVL121:
1703:.\Generated_Source\PSoC4/capsense_CSHL.c **** 
1704:.\Generated_Source\PSoC4/capsense_CSHL.c ****         /* Round result and put it to uint8 */
1705:.\Generated_Source\PSoC4/capsense_CSHL.c ****         position = ((uint8) HI16((uint32)denominator + capsense_CENTROID_ROUND_VALUE));
 1102              		.loc 1 1705 0
 1103 00ce FE23     		mov	r3, #254
 1104 00d0 DB01     		lsl	r3, r3, #7
 1105 00d2 9C46     		mov	ip, r3
 1106 00d4 6044     		add	r0, r0, ip
 1107              	.LVL122:
 1108 00d6 000C     		lsr	r0, r0, #16
 1109              	.LVL123:
 1110 00d8 C0B2     		uxtb	r0, r0
 1111              	.LVL124:
1706:.\Generated_Source\PSoC4/capsense_CSHL.c **** 
1707:.\Generated_Source\PSoC4/capsense_CSHL.c ****         return (position);
1708:.\Generated_Source\PSoC4/capsense_CSHL.c ****     }
 1112              		.loc 1 1708 0
 1113 00da 03B0     		add	sp, sp, #12
 1114              	.LVL125:
 1115              		@ sp needed
 1116              	.LVL126:
 1117              	.LVL127:
 1118 00dc F0BD     		pop	{r4, r5, r6, r7, pc}
 1119              	.L100:
 1120 00de C046     		.align	2
 1121              	.L99:
 1122 00e0 00000000 		.word	.LANCHOR0
 1123              		.cfi_endproc
 1124              	.LFE63:
 1125              		.size	capsense_CalcCentroid, .-capsense_CalcCentroid
 1126              		.section	.text.capsense_GetRadialCentroidPos,"ax",%progbits
 1127              		.align	2
 1128              		.global	capsense_GetRadialCentroidPos
ARM GAS  C:\Users\Alan\AppData\Local\Temp\ccSwCrkV.s 			page 51


 1129              		.code	16
 1130              		.thumb_func
 1131              		.type	capsense_GetRadialCentroidPos, %function
 1132              	capsense_GetRadialCentroidPos:
 1133              	.LFB65:
1709:.\Generated_Source\PSoC4/capsense_CSHL.c **** #endif /* (capsense_TOTAL_CENTROIDS_BASIC_COUNT) */
1710:.\Generated_Source\PSoC4/capsense_CSHL.c **** 
1711:.\Generated_Source\PSoC4/capsense_CSHL.c **** 
1712:.\Generated_Source\PSoC4/capsense_CSHL.c **** #if((capsense_TOTAL_RADIAL_SLIDERS_COUNT > 0u) || (capsense_TOTAL_LINEAR_SLIDERS_COUNT > 0u))
1713:.\Generated_Source\PSoC4/capsense_CSHL.c ****     /*******************************************************************************
1714:.\Generated_Source\PSoC4/capsense_CSHL.c ****     * Function Name: capsense_GetCentroidPos
1715:.\Generated_Source\PSoC4/capsense_CSHL.c ****     ********************************************************************************
1716:.\Generated_Source\PSoC4/capsense_CSHL.c ****     *
1717:.\Generated_Source\PSoC4/capsense_CSHL.c ****     * Summary:
1718:.\Generated_Source\PSoC4/capsense_CSHL.c ****     *  Checks the capsense_Signal[ ] array for a centroid within
1719:.\Generated_Source\PSoC4/capsense_CSHL.c ****     *  a slider specified range. The centroid position is calculated according to the resolution
1720:.\Generated_Source\PSoC4/capsense_CSHL.c ****     *  specified in the CapSense customizer. The position filters are applied to the
1721:.\Generated_Source\PSoC4/capsense_CSHL.c ****     *  result if enabled.
1722:.\Generated_Source\PSoC4/capsense_CSHL.c ****     *
1723:.\Generated_Source\PSoC4/capsense_CSHL.c ****     * Parameters:
1724:.\Generated_Source\PSoC4/capsense_CSHL.c ****     *  widget:  Widget number.
1725:.\Generated_Source\PSoC4/capsense_CSHL.c ****     *  For every linear slider widget there are defines in this format:
1726:.\Generated_Source\PSoC4/capsense_CSHL.c ****     *  #define capsense_"widget_name"__LS           5
1727:.\Generated_Source\PSoC4/capsense_CSHL.c ****     *
1728:.\Generated_Source\PSoC4/capsense_CSHL.c ****     * Return:
1729:.\Generated_Source\PSoC4/capsense_CSHL.c ****     *  Returns a position value of the linear slider.
1730:.\Generated_Source\PSoC4/capsense_CSHL.c ****     *
1731:.\Generated_Source\PSoC4/capsense_CSHL.c ****     * Global Variables:
1732:.\Generated_Source\PSoC4/capsense_CSHL.c ****     *  None
1733:.\Generated_Source\PSoC4/capsense_CSHL.c ****     *
1734:.\Generated_Source\PSoC4/capsense_CSHL.c ****     * Side Effects:
1735:.\Generated_Source\PSoC4/capsense_CSHL.c ****     *  If any sensor within the slider widget is active, the function returns values
1736:.\Generated_Source\PSoC4/capsense_CSHL.c ****     *  from zero to the API resolution value set in the CapSense customizer. If no
1737:.\Generated_Source\PSoC4/capsense_CSHL.c ****     *  sensors are active, the function returns 0xFFFF. If an error occurs during
1738:.\Generated_Source\PSoC4/capsense_CSHL.c ****     *  execution of the centroid/diplexing algorithm, the function returns 0xFFFF.
1739:.\Generated_Source\PSoC4/capsense_CSHL.c ****     *  There are no checks of the widget type argument provided to this function.
1740:.\Generated_Source\PSoC4/capsense_CSHL.c ****     *  The unproper widget type provided will cause unexpected position calculations.
1741:.\Generated_Source\PSoC4/capsense_CSHL.c ****     *
1742:.\Generated_Source\PSoC4/capsense_CSHL.c ****     * Note:
1743:.\Generated_Source\PSoC4/capsense_CSHL.c ****     *  If noise counts on the slider segments are greater than the noise
1744:.\Generated_Source\PSoC4/capsense_CSHL.c ****     *  threshold, this subroutine may generate a false centroid result. The noise
1745:.\Generated_Source\PSoC4/capsense_CSHL.c ****     *  threshold should be set carefully (high enough above the noise level) so
1746:.\Generated_Source\PSoC4/capsense_CSHL.c ****     *  that noise will not generate a false centroid.
1747:.\Generated_Source\PSoC4/capsense_CSHL.c ****     *******************************************************************************/
1748:.\Generated_Source\PSoC4/capsense_CSHL.c ****     uint16 capsense_GetCentroidPos(uint32 widget)
1749:.\Generated_Source\PSoC4/capsense_CSHL.c ****     {
1750:.\Generated_Source\PSoC4/capsense_CSHL.c ****         #if (capsense_IS_DIPLEX_SLIDER)
1751:.\Generated_Source\PSoC4/capsense_CSHL.c ****             const uint8 *diplex;
1752:.\Generated_Source\PSoC4/capsense_CSHL.c ****         #endif /* (capsense_IS_DIPLEX_SLIDER) */
1753:.\Generated_Source\PSoC4/capsense_CSHL.c **** 
1754:.\Generated_Source\PSoC4/capsense_CSHL.c ****         #if (0u != capsense_LINEAR_SLIDERS_POS_FILTERS_MASK)
1755:.\Generated_Source\PSoC4/capsense_CSHL.c ****             uint8 posIndex;
1756:.\Generated_Source\PSoC4/capsense_CSHL.c ****             uint8 firstTimeIndex = capsense_posFiltersData[widget];
1757:.\Generated_Source\PSoC4/capsense_CSHL.c ****             uint8 posFiltersMask = capsense_posFiltersMask[widget];
1758:.\Generated_Source\PSoC4/capsense_CSHL.c ****         #endif /* (0u != capsense_LINEAR_SLIDERS_POS_FILTERS_MASK) */
1759:.\Generated_Source\PSoC4/capsense_CSHL.c **** 
1760:.\Generated_Source\PSoC4/capsense_CSHL.c ****         #if ((0u != (capsense_MEDIAN_FILTER & capsense_LINEAR_SLIDERS_POS_FILTERS_MASK)) || \
ARM GAS  C:\Users\Alan\AppData\Local\Temp\ccSwCrkV.s 			page 52


1761:.\Generated_Source\PSoC4/capsense_CSHL.c ****              (0u != (capsense_AVERAGING_FILTER & capsense_LINEAR_SLIDERS_POS_FILTERS_MASK)))
1762:.\Generated_Source\PSoC4/capsense_CSHL.c ****             uint8 tempPos;
1763:.\Generated_Source\PSoC4/capsense_CSHL.c ****         #endif /* ((0u != (capsense_MEDIAN_FILTER & capsense_LINEAR_SLIDERS_POS_FILTERS_MASK)) || \
1764:.\Generated_Source\PSoC4/capsense_CSHL.c ****                *   (0u != (capsense_AVERAGING_FILTER & capsense_LINEAR_SLIDERS_POS_FILTERS_MASK)))
1765:.\Generated_Source\PSoC4/capsense_CSHL.c ****                */
1766:.\Generated_Source\PSoC4/capsense_CSHL.c **** 
1767:.\Generated_Source\PSoC4/capsense_CSHL.c ****         uint8 maximum;
1768:.\Generated_Source\PSoC4/capsense_CSHL.c ****         uint16 position;
1769:.\Generated_Source\PSoC4/capsense_CSHL.c ****         uint8 offset = capsense_rawDataIndex[widget];
1770:.\Generated_Source\PSoC4/capsense_CSHL.c ****         uint8 count = capsense_numberOfSensors[widget];
1771:.\Generated_Source\PSoC4/capsense_CSHL.c **** 
1772:.\Generated_Source\PSoC4/capsense_CSHL.c ****         #if (capsense_IS_DIPLEX_SLIDER)
1773:.\Generated_Source\PSoC4/capsense_CSHL.c ****             if(widget < capsense_TOTAL_DIPLEXED_SLIDERS_COUNT)
1774:.\Generated_Source\PSoC4/capsense_CSHL.c ****             {
1775:.\Generated_Source\PSoC4/capsense_CSHL.c ****                 maximum = capsense_diplexTable[widget];
1776:.\Generated_Source\PSoC4/capsense_CSHL.c ****                 diplex = &capsense_diplexTable[maximum];
1777:.\Generated_Source\PSoC4/capsense_CSHL.c ****             }
1778:.\Generated_Source\PSoC4/capsense_CSHL.c ****             else
1779:.\Generated_Source\PSoC4/capsense_CSHL.c ****             {
1780:.\Generated_Source\PSoC4/capsense_CSHL.c ****                 diplex = 0u;
1781:.\Generated_Source\PSoC4/capsense_CSHL.c ****             }
1782:.\Generated_Source\PSoC4/capsense_CSHL.c ****         #endif /* (capsense_IS_DIPLEX_SLIDER) */
1783:.\Generated_Source\PSoC4/capsense_CSHL.c **** 
1784:.\Generated_Source\PSoC4/capsense_CSHL.c ****         /* Find Maximum within centroid */
1785:.\Generated_Source\PSoC4/capsense_CSHL.c ****         #if (capsense_IS_DIPLEX_SLIDER)
1786:.\Generated_Source\PSoC4/capsense_CSHL.c ****             maximum = capsense_FindMaximum(offset, count, (uint8)capsense_fingerThreshold[widget], 
1787:.\Generated_Source\PSoC4/capsense_CSHL.c ****         #else
1788:.\Generated_Source\PSoC4/capsense_CSHL.c ****             maximum = capsense_FindMaximum(offset, count, (uint8)capsense_fingerThreshold[widget]);
1789:.\Generated_Source\PSoC4/capsense_CSHL.c ****         #endif /* (capsense_IS_DIPLEX_SLIDER) */
1790:.\Generated_Source\PSoC4/capsense_CSHL.c **** 
1791:.\Generated_Source\PSoC4/capsense_CSHL.c ****         if (maximum != 0xFFu)
1792:.\Generated_Source\PSoC4/capsense_CSHL.c ****         {
1793:.\Generated_Source\PSoC4/capsense_CSHL.c ****             /* Calculate centroid */
1794:.\Generated_Source\PSoC4/capsense_CSHL.c ****             position = (uint16) capsense_CalcCentroid(maximum,
1795:.\Generated_Source\PSoC4/capsense_CSHL.c ****                          offset, count, capsense_centroidMult[widget], capsense_noiseThreshold[widg
1796:.\Generated_Source\PSoC4/capsense_CSHL.c **** 
1797:.\Generated_Source\PSoC4/capsense_CSHL.c ****             #if (0u != capsense_LINEAR_SLIDERS_POS_FILTERS_MASK)
1798:.\Generated_Source\PSoC4/capsense_CSHL.c ****                 /* Check if this linear slider has enabled filters */
1799:.\Generated_Source\PSoC4/capsense_CSHL.c ****                 if (0u != (posFiltersMask & capsense_ANY_POS_FILTER))
1800:.\Generated_Source\PSoC4/capsense_CSHL.c ****                 {
1801:.\Generated_Source\PSoC4/capsense_CSHL.c ****                     /* Calculate position to store filters data */
1802:.\Generated_Source\PSoC4/capsense_CSHL.c ****                     posIndex  = firstTimeIndex + 1u;
1803:.\Generated_Source\PSoC4/capsense_CSHL.c **** 
1804:.\Generated_Source\PSoC4/capsense_CSHL.c ****                     if (0u == capsense_posFiltersData[firstTimeIndex])
1805:.\Generated_Source\PSoC4/capsense_CSHL.c ****                     {
1806:.\Generated_Source\PSoC4/capsense_CSHL.c ****                         /* Init filters */
1807:.\Generated_Source\PSoC4/capsense_CSHL.c ****                         capsense_posFiltersData[posIndex] = (uint8) position;
1808:.\Generated_Source\PSoC4/capsense_CSHL.c ****                         #if ((0u != (capsense_MEDIAN_FILTER & \
1809:.\Generated_Source\PSoC4/capsense_CSHL.c ****                                      capsense_LINEAR_SLIDERS_POS_FILTERS_MASK)) || \
1810:.\Generated_Source\PSoC4/capsense_CSHL.c ****                              (0u != (capsense_AVERAGING_FILTER & \
1811:.\Generated_Source\PSoC4/capsense_CSHL.c ****                                      capsense_LINEAR_SLIDERS_POS_FILTERS_MASK)))
1812:.\Generated_Source\PSoC4/capsense_CSHL.c **** 
1813:.\Generated_Source\PSoC4/capsense_CSHL.c ****                             if ( (0u != (posFiltersMask & capsense_MEDIAN_FILTER)) ||
1814:.\Generated_Source\PSoC4/capsense_CSHL.c ****                                  (0u != (posFiltersMask & capsense_AVERAGING_FILTER)) )
1815:.\Generated_Source\PSoC4/capsense_CSHL.c ****                             {
1816:.\Generated_Source\PSoC4/capsense_CSHL.c ****                                 capsense_posFiltersData[posIndex + 1u] = (uint8) position;
1817:.\Generated_Source\PSoC4/capsense_CSHL.c ****                             }
ARM GAS  C:\Users\Alan\AppData\Local\Temp\ccSwCrkV.s 			page 53


1818:.\Generated_Source\PSoC4/capsense_CSHL.c ****                         #endif /* ((0u != (capsense_MEDIAN_FILTER & \
1819:.\Generated_Source\PSoC4/capsense_CSHL.c ****                                *           capsense_LINEAR_SLIDERS_POS_FILTERS_MASK)) || \
1820:.\Generated_Source\PSoC4/capsense_CSHL.c ****                                *   (0u != (capsense_AVERAGING_FILTER & \
1821:.\Generated_Source\PSoC4/capsense_CSHL.c ****                                *           capsense_LINEAR_SLIDERS_POS_FILTERS_MASK)))
1822:.\Generated_Source\PSoC4/capsense_CSHL.c ****                                */
1823:.\Generated_Source\PSoC4/capsense_CSHL.c **** 
1824:.\Generated_Source\PSoC4/capsense_CSHL.c ****                         capsense_posFiltersData[firstTimeIndex] = 1u;
1825:.\Generated_Source\PSoC4/capsense_CSHL.c ****                     }
1826:.\Generated_Source\PSoC4/capsense_CSHL.c ****                     else
1827:.\Generated_Source\PSoC4/capsense_CSHL.c ****                     {
1828:.\Generated_Source\PSoC4/capsense_CSHL.c ****                         /* Do filtering */
1829:.\Generated_Source\PSoC4/capsense_CSHL.c ****                         #if (0u != (capsense_MEDIAN_FILTER & capsense_LINEAR_SLIDERS_POS_FILTERS_MA
1830:.\Generated_Source\PSoC4/capsense_CSHL.c ****                             if (0u != (posFiltersMask & capsense_MEDIAN_FILTER))
1831:.\Generated_Source\PSoC4/capsense_CSHL.c ****                             {
1832:.\Generated_Source\PSoC4/capsense_CSHL.c ****                                 tempPos = (uint8) position;
1833:.\Generated_Source\PSoC4/capsense_CSHL.c ****                                 position = capsense_MedianFilter(position,
1834:.\Generated_Source\PSoC4/capsense_CSHL.c ****                                                                 (uint16)capsense_posFiltersData[pos
1835:.\Generated_Source\PSoC4/capsense_CSHL.c ****                                                                 (uint16)capsense_posFiltersData[pos
1836:.\Generated_Source\PSoC4/capsense_CSHL.c ****                                 capsense_posFiltersData[posIndex + 1u] =
1837:.\Generated_Source\PSoC4/capsense_CSHL.c ****                                                                              capsense_posFiltersDat
1838:.\Generated_Source\PSoC4/capsense_CSHL.c ****                                 capsense_posFiltersData[posIndex] = tempPos;
1839:.\Generated_Source\PSoC4/capsense_CSHL.c ****                             }
1840:.\Generated_Source\PSoC4/capsense_CSHL.c ****                         #endif /*(0u != (capsense_MEDIAN_FILTER &
1841:.\Generated_Source\PSoC4/capsense_CSHL.c ****                                *         capsense_LINEAR_SLIDERS_POS_FILTERS_MASK))
1842:.\Generated_Source\PSoC4/capsense_CSHL.c ****                                */
1843:.\Generated_Source\PSoC4/capsense_CSHL.c **** 
1844:.\Generated_Source\PSoC4/capsense_CSHL.c ****                         #if(0u!=(capsense_AVERAGING_FILTER & capsense_LINEAR_SLIDERS_POS_FILTERS_MA
1845:.\Generated_Source\PSoC4/capsense_CSHL.c ****                             if (0u != (posFiltersMask & capsense_AVERAGING_FILTER))
1846:.\Generated_Source\PSoC4/capsense_CSHL.c ****                             {
1847:.\Generated_Source\PSoC4/capsense_CSHL.c ****                                 tempPos = (uint8) position;
1848:.\Generated_Source\PSoC4/capsense_CSHL.c ****                                 position = capsense_AveragingFilter(position,
1849:.\Generated_Source\PSoC4/capsense_CSHL.c ****                                                                 (uint16)capsense_posFiltersData[pos
1850:.\Generated_Source\PSoC4/capsense_CSHL.c ****                                                                 (uint16)capsense_posFiltersData[pos
1851:.\Generated_Source\PSoC4/capsense_CSHL.c ****                                 capsense_posFiltersData[posIndex+1u]=capsense_posFiltersData[posInd
1852:.\Generated_Source\PSoC4/capsense_CSHL.c ****                                 capsense_posFiltersData[posIndex] = tempPos;
1853:.\Generated_Source\PSoC4/capsense_CSHL.c ****                             }
1854:.\Generated_Source\PSoC4/capsense_CSHL.c ****                         #endif /* (0u != (capsense_AVERAGING_FILTER & \
1855:.\Generated_Source\PSoC4/capsense_CSHL.c ****                                *           capsense_LINEAR_SLIDERS_POS_FILTERS_MASK))
1856:.\Generated_Source\PSoC4/capsense_CSHL.c ****                                */
1857:.\Generated_Source\PSoC4/capsense_CSHL.c **** 
1858:.\Generated_Source\PSoC4/capsense_CSHL.c ****                         #if (0u != (capsense_IIR2_FILTER & capsense_LINEAR_SLIDERS_POS_FILTERS_MASK
1859:.\Generated_Source\PSoC4/capsense_CSHL.c ****                             if (0u != (posFiltersMask & capsense_IIR2_FILTER))
1860:.\Generated_Source\PSoC4/capsense_CSHL.c ****                             {
1861:.\Generated_Source\PSoC4/capsense_CSHL.c ****                                 position = capsense_IIR2Filter(position,
1862:.\Generated_Source\PSoC4/capsense_CSHL.c ****                                                                     (uint16)capsense_posFiltersData
1863:.\Generated_Source\PSoC4/capsense_CSHL.c ****                                 capsense_posFiltersData[posIndex] = (uint8) position;
1864:.\Generated_Source\PSoC4/capsense_CSHL.c ****                             }
1865:.\Generated_Source\PSoC4/capsense_CSHL.c ****                         #endif /* (0u != (capsense_IIR2_FILTER & \
1866:.\Generated_Source\PSoC4/capsense_CSHL.c ****                                *          capsense_LINEAR_SLIDERS_POS_FILTERS_MASK))
1867:.\Generated_Source\PSoC4/capsense_CSHL.c ****                                */
1868:.\Generated_Source\PSoC4/capsense_CSHL.c **** 
1869:.\Generated_Source\PSoC4/capsense_CSHL.c ****                         #if (0u != (capsense_IIR4_FILTER & capsense_LINEAR_SLIDERS_POS_FILTERS_MASK
1870:.\Generated_Source\PSoC4/capsense_CSHL.c ****                             if (0u != (posFiltersMask & capsense_IIR4_FILTER))
1871:.\Generated_Source\PSoC4/capsense_CSHL.c ****                             {
1872:.\Generated_Source\PSoC4/capsense_CSHL.c ****                                 position = capsense_IIR4Filter(position,
1873:.\Generated_Source\PSoC4/capsense_CSHL.c ****                                                                     (uint16)capsense_posFiltersData
1874:.\Generated_Source\PSoC4/capsense_CSHL.c ****                                 capsense_posFiltersData[posIndex] = (uint8) position;
ARM GAS  C:\Users\Alan\AppData\Local\Temp\ccSwCrkV.s 			page 54


1875:.\Generated_Source\PSoC4/capsense_CSHL.c ****                             }
1876:.\Generated_Source\PSoC4/capsense_CSHL.c ****                         #endif /* (0u != (capsense_IIR4_FILTER & \
1877:.\Generated_Source\PSoC4/capsense_CSHL.c ****                                *          capsense_LINEAR_SLIDERS_POS_FILTERS_MASK))
1878:.\Generated_Source\PSoC4/capsense_CSHL.c ****                                */
1879:.\Generated_Source\PSoC4/capsense_CSHL.c **** 
1880:.\Generated_Source\PSoC4/capsense_CSHL.c ****                         #if (0u != (capsense_JITTER_FILTER & capsense_LINEAR_SLIDERS_POS_FILTERS_MA
1881:.\Generated_Source\PSoC4/capsense_CSHL.c ****                             if (0u != (posFiltersMask & capsense_JITTER_FILTER))
1882:.\Generated_Source\PSoC4/capsense_CSHL.c ****                             {
1883:.\Generated_Source\PSoC4/capsense_CSHL.c ****                                 position = capsense_JitterFilter(position,
1884:.\Generated_Source\PSoC4/capsense_CSHL.c ****                                                                     (uint16)capsense_posFiltersData
1885:.\Generated_Source\PSoC4/capsense_CSHL.c ****                                 capsense_posFiltersData[posIndex] = (uint8) position;
1886:.\Generated_Source\PSoC4/capsense_CSHL.c ****                             }
1887:.\Generated_Source\PSoC4/capsense_CSHL.c ****                         #endif /* (0u != (capsense_JITTER_FILTER & \
1888:.\Generated_Source\PSoC4/capsense_CSHL.c ****                                *           capsense_LINEAR_SLIDERS_POS_FILTERS_MASK))
1889:.\Generated_Source\PSoC4/capsense_CSHL.c ****                                */
1890:.\Generated_Source\PSoC4/capsense_CSHL.c ****                     }
1891:.\Generated_Source\PSoC4/capsense_CSHL.c ****                 }
1892:.\Generated_Source\PSoC4/capsense_CSHL.c ****             #endif /* (0u != capsense_LINEAR_SLIDERS_POS_FILTERS_MASK) */
1893:.\Generated_Source\PSoC4/capsense_CSHL.c **** 
1894:.\Generated_Source\PSoC4/capsense_CSHL.c ****         }
1895:.\Generated_Source\PSoC4/capsense_CSHL.c ****         else
1896:.\Generated_Source\PSoC4/capsense_CSHL.c ****         {
1897:.\Generated_Source\PSoC4/capsense_CSHL.c ****             /* Maximum wasn't found */
1898:.\Generated_Source\PSoC4/capsense_CSHL.c ****             position = 0xFFFFu;
1899:.\Generated_Source\PSoC4/capsense_CSHL.c **** 
1900:.\Generated_Source\PSoC4/capsense_CSHL.c ****             #if(0u != capsense_LINEAR_SLIDERS_POS_FILTERS_MASK)
1901:.\Generated_Source\PSoC4/capsense_CSHL.c ****                 /* Reset filters */
1902:.\Generated_Source\PSoC4/capsense_CSHL.c ****                 if(0u != (posFiltersMask & capsense_ANY_POS_FILTER))
1903:.\Generated_Source\PSoC4/capsense_CSHL.c ****                 {
1904:.\Generated_Source\PSoC4/capsense_CSHL.c ****                     capsense_posFiltersData[firstTimeIndex] = 0u;
1905:.\Generated_Source\PSoC4/capsense_CSHL.c ****                 }
1906:.\Generated_Source\PSoC4/capsense_CSHL.c ****             #endif /* (0u != capsense_LINEAR_SLIDERS_POS_FILTERS_MASK) */
1907:.\Generated_Source\PSoC4/capsense_CSHL.c ****         }
1908:.\Generated_Source\PSoC4/capsense_CSHL.c **** 
1909:.\Generated_Source\PSoC4/capsense_CSHL.c **** 
1910:.\Generated_Source\PSoC4/capsense_CSHL.c ****         return (position);
1911:.\Generated_Source\PSoC4/capsense_CSHL.c ****     }
1912:.\Generated_Source\PSoC4/capsense_CSHL.c **** #endif /* ((capsense_TOTAL_RADIAL_SLIDERS_COUNT > 0u) || (capsense_TOTAL_LINEAR_SLIDERS_COUNT > 0u)
1913:.\Generated_Source\PSoC4/capsense_CSHL.c **** 
1914:.\Generated_Source\PSoC4/capsense_CSHL.c **** 
1915:.\Generated_Source\PSoC4/capsense_CSHL.c **** #if((capsense_TOTAL_RADIAL_SLIDERS_COUNT > 0u) || (capsense_TOTAL_LINEAR_SLIDERS_COUNT > 0u))
1916:.\Generated_Source\PSoC4/capsense_CSHL.c ****     /*******************************************************************************
1917:.\Generated_Source\PSoC4/capsense_CSHL.c ****     * Function Name: capsense_GetRadialCentroidPos
1918:.\Generated_Source\PSoC4/capsense_CSHL.c ****     ********************************************************************************
1919:.\Generated_Source\PSoC4/capsense_CSHL.c ****     *
1920:.\Generated_Source\PSoC4/capsense_CSHL.c ****     * Summary:
1921:.\Generated_Source\PSoC4/capsense_CSHL.c ****     *  Checks the capsense_Signal[ ] array for a centroid within
1922:.\Generated_Source\PSoC4/capsense_CSHL.c ****     *  a slider specified range. The centroid position is calculated according to the resolution
1923:.\Generated_Source\PSoC4/capsense_CSHL.c ****     *  specified in the CapSense customizer. The position filters are applied to the
1924:.\Generated_Source\PSoC4/capsense_CSHL.c ****     *  result if enabled.
1925:.\Generated_Source\PSoC4/capsense_CSHL.c ****     *
1926:.\Generated_Source\PSoC4/capsense_CSHL.c ****     * Parameters:
1927:.\Generated_Source\PSoC4/capsense_CSHL.c ****     *  widget:  Widget number.
1928:.\Generated_Source\PSoC4/capsense_CSHL.c ****     *  For every radial slider widget there are defines in this format:
1929:.\Generated_Source\PSoC4/capsense_CSHL.c ****     *  #define capsense_"widget_name"__RS           5
1930:.\Generated_Source\PSoC4/capsense_CSHL.c ****     *
1931:.\Generated_Source\PSoC4/capsense_CSHL.c ****     * Return:
ARM GAS  C:\Users\Alan\AppData\Local\Temp\ccSwCrkV.s 			page 55


1932:.\Generated_Source\PSoC4/capsense_CSHL.c ****     *  Returns a position value of the radial slider.
1933:.\Generated_Source\PSoC4/capsense_CSHL.c ****     *
1934:.\Generated_Source\PSoC4/capsense_CSHL.c ****     * Global Variables:
1935:.\Generated_Source\PSoC4/capsense_CSHL.c ****     *  None.
1936:.\Generated_Source\PSoC4/capsense_CSHL.c ****     *
1937:.\Generated_Source\PSoC4/capsense_CSHL.c ****     * Side Effects:
1938:.\Generated_Source\PSoC4/capsense_CSHL.c ****     *  If any sensor within the slider widget is active, the function returns values
1939:.\Generated_Source\PSoC4/capsense_CSHL.c ****     *  from zero to the API resolution value set in the CapSense customizer. If no
1940:.\Generated_Source\PSoC4/capsense_CSHL.c ****     *  sensors are active, the function returns 0xFFFF.
1941:.\Generated_Source\PSoC4/capsense_CSHL.c ****     *  There are no checks of the widget type argument provided to this function.
1942:.\Generated_Source\PSoC4/capsense_CSHL.c ****     *  The unproper widget type provided will cause unexpected position calculations.
1943:.\Generated_Source\PSoC4/capsense_CSHL.c ****     *
1944:.\Generated_Source\PSoC4/capsense_CSHL.c ****     * Note:
1945:.\Generated_Source\PSoC4/capsense_CSHL.c ****     *  If noise counts on the slider segments are greater than the noise
1946:.\Generated_Source\PSoC4/capsense_CSHL.c ****     *  threshold, this subroutine may generate a false centroid result. The noise
1947:.\Generated_Source\PSoC4/capsense_CSHL.c ****     *  threshold should be set carefully (high enough above the noise level) so
1948:.\Generated_Source\PSoC4/capsense_CSHL.c ****     *  that noise will not generate a false centroid.
1949:.\Generated_Source\PSoC4/capsense_CSHL.c ****     *
1950:.\Generated_Source\PSoC4/capsense_CSHL.c ****     *******************************************************************************/
1951:.\Generated_Source\PSoC4/capsense_CSHL.c ****      uint16 capsense_GetRadialCentroidPos(uint32 widget)
1952:.\Generated_Source\PSoC4/capsense_CSHL.c ****     {
 1134              		.loc 1 1952 0
 1135              		.cfi_startproc
 1136              	.LVL128:
 1137 0000 10B5     		push	{r4, lr}
 1138              		.cfi_def_cfa_offset 8
 1139              		.cfi_offset 4, -8
 1140              		.cfi_offset 14, -4
 1141 0002 82B0     		sub	sp, sp, #8
 1142              		.cfi_def_cfa_offset 16
 1143 0004 041C     		mov	r4, r0
 1144              	.LVL129:
1953:.\Generated_Source\PSoC4/capsense_CSHL.c ****         #if (0u != capsense_RADIAL_SLIDERS_POS_FILTERS_MASK)
1954:.\Generated_Source\PSoC4/capsense_CSHL.c ****             uint8 posIndex;
1955:.\Generated_Source\PSoC4/capsense_CSHL.c ****             uint8 firstTimeIndex = capsense_posFiltersData[widget];
1956:.\Generated_Source\PSoC4/capsense_CSHL.c ****             uint8 posFiltersMask = capsense_posFiltersMask[widget];
1957:.\Generated_Source\PSoC4/capsense_CSHL.c ****         #endif /* (0u != capsense_RADIAL_SLIDERS_POS_FILTERS_MASK) */
1958:.\Generated_Source\PSoC4/capsense_CSHL.c **** 
1959:.\Generated_Source\PSoC4/capsense_CSHL.c ****         #if ((0u != (capsense_MEDIAN_FILTER & capsense_RADIAL_SLIDERS_POS_FILTERS_MASK)) || \
1960:.\Generated_Source\PSoC4/capsense_CSHL.c ****              (0u != (capsense_AVERAGING_FILTER & capsense_RADIAL_SLIDERS_POS_FILTERS_MASK)))
1961:.\Generated_Source\PSoC4/capsense_CSHL.c ****             uint8 tempPos;
1962:.\Generated_Source\PSoC4/capsense_CSHL.c ****         #endif /* ((0u != (capsense_MEDIAN_FILTER & capsense_RADIAL_SLIDERS_POS_FILTERS_MASK)) || \
1963:.\Generated_Source\PSoC4/capsense_CSHL.c ****                *   (0u != (capsense_AVERAGING_FILTER & capsense_RADIAL_SLIDERS_POS_FILTERS_MASK)))
1964:.\Generated_Source\PSoC4/capsense_CSHL.c ****                */
1965:.\Generated_Source\PSoC4/capsense_CSHL.c **** 
1966:.\Generated_Source\PSoC4/capsense_CSHL.c ****         uint8 maximum;
1967:.\Generated_Source\PSoC4/capsense_CSHL.c ****         uint16 position;
1968:.\Generated_Source\PSoC4/capsense_CSHL.c ****         uint8 offset = capsense_rawDataIndex[widget];
1969:.\Generated_Source\PSoC4/capsense_CSHL.c ****         uint8 count = capsense_numberOfSensors[widget];
1970:.\Generated_Source\PSoC4/capsense_CSHL.c **** 
1971:.\Generated_Source\PSoC4/capsense_CSHL.c ****         /* Find Maximum within centroid */
1972:.\Generated_Source\PSoC4/capsense_CSHL.c ****         #if (capsense_IS_DIPLEX_SLIDER)
1973:.\Generated_Source\PSoC4/capsense_CSHL.c ****             maximum = capsense_FindMaximum(offset, count, (uint8)capsense_fingerThreshold[widget], 
1974:.\Generated_Source\PSoC4/capsense_CSHL.c ****         #else
1975:.\Generated_Source\PSoC4/capsense_CSHL.c ****             maximum = capsense_FindMaximum(offset, count, (uint8)capsense_fingerThreshold[widget]);
 1145              		.loc 1 1975 0
 1146 0006 0B4B     		ldr	r3, .L104
ARM GAS  C:\Users\Alan\AppData\Local\Temp\ccSwCrkV.s 			page 56


 1147 0008 1A5C     		ldrb	r2, [r3, r0]
 1148 000a 0020     		mov	r0, #0
 1149              	.LVL130:
 1150 000c 0521     		mov	r1, #5
 1151 000e FFF7FEFF 		bl	capsense_FindMaximum
 1152              	.LVL131:
1976:.\Generated_Source\PSoC4/capsense_CSHL.c ****         #endif /* (capsense_IS_DIPLEX_SLIDER) */
1977:.\Generated_Source\PSoC4/capsense_CSHL.c **** 
1978:.\Generated_Source\PSoC4/capsense_CSHL.c ****         if (maximum != capsense_MAXIMUM_CENTROID)
 1153              		.loc 1 1978 0
 1154 0012 FF28     		cmp	r0, #255
 1155 0014 0AD0     		beq	.L103
1979:.\Generated_Source\PSoC4/capsense_CSHL.c ****         {
1980:.\Generated_Source\PSoC4/capsense_CSHL.c ****             /* Calculate centroid */
1981:.\Generated_Source\PSoC4/capsense_CSHL.c ****             position = (uint16) capsense_CalcCentroid(maximum,
 1156              		.loc 1 1981 0
 1157 0016 084B     		ldr	r3, .L104+4
 1158 0018 1B5D     		ldrb	r3, [r3, r4]
 1159 001a 0093     		str	r3, [sp]
 1160 001c 0021     		mov	r1, #0
 1161 001e 0522     		mov	r2, #5
 1162 0020 C823     		mov	r3, #200
 1163 0022 5B01     		lsl	r3, r3, #5
 1164 0024 FFF7FEFF 		bl	capsense_CalcCentroid
 1165              	.LVL132:
 1166 0028 80B2     		uxth	r0, r0
 1167              	.LVL133:
 1168 002a 00E0     		b	.L102
 1169              	.LVL134:
 1170              	.L103:
1982:.\Generated_Source\PSoC4/capsense_CSHL.c ****                          offset, count, capsense_centroidMult[widget], capsense_noiseThreshold[widg
1983:.\Generated_Source\PSoC4/capsense_CSHL.c **** 
1984:.\Generated_Source\PSoC4/capsense_CSHL.c ****             #if (0u != capsense_RADIAL_SLIDERS_POS_FILTERS_MASK)
1985:.\Generated_Source\PSoC4/capsense_CSHL.c ****                 /* Check if this Radial slider has enabled filters */
1986:.\Generated_Source\PSoC4/capsense_CSHL.c ****                 if (0u != (posFiltersMask & capsense_ANY_POS_FILTER))
1987:.\Generated_Source\PSoC4/capsense_CSHL.c ****                 {
1988:.\Generated_Source\PSoC4/capsense_CSHL.c ****                     /* Calculate position to store filters data */
1989:.\Generated_Source\PSoC4/capsense_CSHL.c ****                     posIndex  = firstTimeIndex + 1u;
1990:.\Generated_Source\PSoC4/capsense_CSHL.c **** 
1991:.\Generated_Source\PSoC4/capsense_CSHL.c ****                     if (0u == capsense_posFiltersData[firstTimeIndex])
1992:.\Generated_Source\PSoC4/capsense_CSHL.c ****                     {
1993:.\Generated_Source\PSoC4/capsense_CSHL.c ****                         /* Init filters */
1994:.\Generated_Source\PSoC4/capsense_CSHL.c ****                         capsense_posFiltersData[posIndex] = (uint8) position;
1995:.\Generated_Source\PSoC4/capsense_CSHL.c ****                         #if ((0u != (capsense_MEDIAN_FILTER & \
1996:.\Generated_Source\PSoC4/capsense_CSHL.c ****                                      capsense_RADIAL_SLIDERS_POS_FILTERS_MASK)) || \
1997:.\Generated_Source\PSoC4/capsense_CSHL.c ****                              (0u != (capsense_AVERAGING_FILTER & \
1998:.\Generated_Source\PSoC4/capsense_CSHL.c ****                                      capsense_RADIAL_SLIDERS_POS_FILTERS_MASK)))
1999:.\Generated_Source\PSoC4/capsense_CSHL.c **** 
2000:.\Generated_Source\PSoC4/capsense_CSHL.c ****                             if ( (0u != (posFiltersMask & capsense_MEDIAN_FILTER))  ||
2001:.\Generated_Source\PSoC4/capsense_CSHL.c ****                                  (0u != (posFiltersMask & capsense_AVERAGING_FILTER)) )
2002:.\Generated_Source\PSoC4/capsense_CSHL.c ****                             {
2003:.\Generated_Source\PSoC4/capsense_CSHL.c ****                                 capsense_posFiltersData[posIndex + 1u] = (uint8) position;
2004:.\Generated_Source\PSoC4/capsense_CSHL.c ****                             }
2005:.\Generated_Source\PSoC4/capsense_CSHL.c ****                         #endif /* ((0u != (capsense_MEDIAN_FILTER & \
2006:.\Generated_Source\PSoC4/capsense_CSHL.c ****                                *           capsense_RADIAL_SLIDERS_POS_FILTERS_MASK)) || \
2007:.\Generated_Source\PSoC4/capsense_CSHL.c ****                                *   (0u != (capsense_AVERAGING_FILTER & \
2008:.\Generated_Source\PSoC4/capsense_CSHL.c ****                                *           capsense_RADIAL_SLIDERS_POS_FILTERS_MASK)))
ARM GAS  C:\Users\Alan\AppData\Local\Temp\ccSwCrkV.s 			page 57


2009:.\Generated_Source\PSoC4/capsense_CSHL.c ****                                */
2010:.\Generated_Source\PSoC4/capsense_CSHL.c **** 
2011:.\Generated_Source\PSoC4/capsense_CSHL.c ****                         capsense_posFiltersData[firstTimeIndex] = 1u;
2012:.\Generated_Source\PSoC4/capsense_CSHL.c ****                     }
2013:.\Generated_Source\PSoC4/capsense_CSHL.c ****                     else
2014:.\Generated_Source\PSoC4/capsense_CSHL.c ****                     {
2015:.\Generated_Source\PSoC4/capsense_CSHL.c ****                         /* Do filtering */
2016:.\Generated_Source\PSoC4/capsense_CSHL.c ****                         #if (0u != (capsense_MEDIAN_FILTER & capsense_RADIAL_SLIDERS_POS_FILTERS_MA
2017:.\Generated_Source\PSoC4/capsense_CSHL.c ****                             if (0u != (posFiltersMask & capsense_MEDIAN_FILTER))
2018:.\Generated_Source\PSoC4/capsense_CSHL.c ****                             {
2019:.\Generated_Source\PSoC4/capsense_CSHL.c ****                                 tempPos = (uint8) position;
2020:.\Generated_Source\PSoC4/capsense_CSHL.c ****                                 position = capsense_MedianFilter(position,
2021:.\Generated_Source\PSoC4/capsense_CSHL.c ****                                                                         capsense_posFiltersData[pos
2022:.\Generated_Source\PSoC4/capsense_CSHL.c ****                                                                         capsense_posFiltersData[pos
2023:.\Generated_Source\PSoC4/capsense_CSHL.c ****                                 capsense_posFiltersData[posIndex + 1u] =
2024:.\Generated_Source\PSoC4/capsense_CSHL.c ****                                                                               capsense_posFiltersDa
2025:.\Generated_Source\PSoC4/capsense_CSHL.c ****                                 capsense_posFiltersData[posIndex] = tempPos;
2026:.\Generated_Source\PSoC4/capsense_CSHL.c ****                             }
2027:.\Generated_Source\PSoC4/capsense_CSHL.c ****                         #endif /* (0u != (capsense_MEDIAN_FILTER &
2028:.\Generated_Source\PSoC4/capsense_CSHL.c ****                                *          capsense_RADIAL_SLIDERS_POS_FILTERS_MASK))
2029:.\Generated_Source\PSoC4/capsense_CSHL.c ****                                */
2030:.\Generated_Source\PSoC4/capsense_CSHL.c **** 
2031:.\Generated_Source\PSoC4/capsense_CSHL.c ****                         #if (0u != (capsense_AVERAGING_FILTER & \
2032:.\Generated_Source\PSoC4/capsense_CSHL.c ****                                     capsense_RADIAL_SLIDERS_POS_FILTERS_MASK))
2033:.\Generated_Source\PSoC4/capsense_CSHL.c ****                             if (0u != (posFiltersMask & capsense_AVERAGING_FILTER))
2034:.\Generated_Source\PSoC4/capsense_CSHL.c ****                             {
2035:.\Generated_Source\PSoC4/capsense_CSHL.c ****                                 tempPos = (uint8) position;
2036:.\Generated_Source\PSoC4/capsense_CSHL.c ****                                 position = capsense_AveragingFilter(position,
2037:.\Generated_Source\PSoC4/capsense_CSHL.c ****                                                                        capsense_posFiltersData[posI
2038:.\Generated_Source\PSoC4/capsense_CSHL.c ****                                                                        capsense_posFiltersData[posI
2039:.\Generated_Source\PSoC4/capsense_CSHL.c ****                                 capsense_posFiltersData[posIndex+1u]= capsense_posFiltersData[posIn
2040:.\Generated_Source\PSoC4/capsense_CSHL.c ****                                 capsense_posFiltersData[posIndex] = tempPos;
2041:.\Generated_Source\PSoC4/capsense_CSHL.c ****                             }
2042:.\Generated_Source\PSoC4/capsense_CSHL.c ****                         #endif /* (0u != (capsense_AVERAGING_FILTER & \
2043:.\Generated_Source\PSoC4/capsense_CSHL.c ****                                *          capsense_RADIAL_SLIDERS_POS_FILTERS_MASK))
2044:.\Generated_Source\PSoC4/capsense_CSHL.c ****                                */
2045:.\Generated_Source\PSoC4/capsense_CSHL.c **** 
2046:.\Generated_Source\PSoC4/capsense_CSHL.c ****                         #if (0u != (capsense_IIR2_FILTER & capsense_RADIAL_SLIDERS_POS_FILTERS_MASK
2047:.\Generated_Source\PSoC4/capsense_CSHL.c ****                             if (0u != (posFiltersMask & capsense_IIR2_FILTER))
2048:.\Generated_Source\PSoC4/capsense_CSHL.c ****                             {
2049:.\Generated_Source\PSoC4/capsense_CSHL.c ****                                 position = capsense_IIR2Filter(position,
2050:.\Generated_Source\PSoC4/capsense_CSHL.c ****                                                                     (uint16)capsense_posFiltersData
2051:.\Generated_Source\PSoC4/capsense_CSHL.c ****                                 capsense_posFiltersData[posIndex] = (uint8) position;
2052:.\Generated_Source\PSoC4/capsense_CSHL.c ****                             }
2053:.\Generated_Source\PSoC4/capsense_CSHL.c ****                         #endif /* (0u != (capsense_IIR2_FILTER &
2054:.\Generated_Source\PSoC4/capsense_CSHL.c ****                                *          capsense_RADIAL_SLIDERS_POS_FILTERS_MASK))
2055:.\Generated_Source\PSoC4/capsense_CSHL.c ****                                */
2056:.\Generated_Source\PSoC4/capsense_CSHL.c **** 
2057:.\Generated_Source\PSoC4/capsense_CSHL.c ****                         #if (0u != (capsense_IIR4_FILTER & capsense_RADIAL_SLIDERS_POS_FILTERS_MASK
2058:.\Generated_Source\PSoC4/capsense_CSHL.c ****                             if (0u != (posFiltersMask & capsense_IIR4_FILTER))
2059:.\Generated_Source\PSoC4/capsense_CSHL.c ****                             {
2060:.\Generated_Source\PSoC4/capsense_CSHL.c ****                                 position = capsense_IIR4Filter(position,
2061:.\Generated_Source\PSoC4/capsense_CSHL.c ****                                                                     (uint16)capsense_posFiltersData
2062:.\Generated_Source\PSoC4/capsense_CSHL.c ****                                 capsense_posFiltersData[posIndex] = (uint8) position;
2063:.\Generated_Source\PSoC4/capsense_CSHL.c ****                             }
2064:.\Generated_Source\PSoC4/capsense_CSHL.c ****                         #endif /* (0u != (capsense_IIR4_FILTER &
2065:.\Generated_Source\PSoC4/capsense_CSHL.c ****                                *          capsense_RADIAL_SLIDERS_POS_FILTERS_MASK))
ARM GAS  C:\Users\Alan\AppData\Local\Temp\ccSwCrkV.s 			page 58


2066:.\Generated_Source\PSoC4/capsense_CSHL.c ****                                */
2067:.\Generated_Source\PSoC4/capsense_CSHL.c **** 
2068:.\Generated_Source\PSoC4/capsense_CSHL.c ****                         #if (0u != (capsense_JITTER_FILTER & capsense_RADIAL_SLIDERS_POS_FILTERS_MA
2069:.\Generated_Source\PSoC4/capsense_CSHL.c ****                             if (0u != (posFiltersMask & capsense_JITTER_FILTER))
2070:.\Generated_Source\PSoC4/capsense_CSHL.c ****                             {
2071:.\Generated_Source\PSoC4/capsense_CSHL.c ****                                 position = capsense_JitterFilter(position,
2072:.\Generated_Source\PSoC4/capsense_CSHL.c ****                                                                          capsense_posFiltersData[po
2073:.\Generated_Source\PSoC4/capsense_CSHL.c ****                                 capsense_posFiltersData[posIndex] = (uint8) position;
2074:.\Generated_Source\PSoC4/capsense_CSHL.c ****                             }
2075:.\Generated_Source\PSoC4/capsense_CSHL.c ****                         #endif /* (0u != (capsense_JITTER_FILTER &
2076:.\Generated_Source\PSoC4/capsense_CSHL.c ****                                *           capsense_RADIAL_SLIDERS_POS_FILTERS_MASK))
2077:.\Generated_Source\PSoC4/capsense_CSHL.c ****                                */
2078:.\Generated_Source\PSoC4/capsense_CSHL.c ****                     }
2079:.\Generated_Source\PSoC4/capsense_CSHL.c ****                 }
2080:.\Generated_Source\PSoC4/capsense_CSHL.c ****             #endif /* (0u != capsense_RADIAL_SLIDERS_POS_FILTERS_MASK) */
2081:.\Generated_Source\PSoC4/capsense_CSHL.c **** 
2082:.\Generated_Source\PSoC4/capsense_CSHL.c ****         }
2083:.\Generated_Source\PSoC4/capsense_CSHL.c ****         else
2084:.\Generated_Source\PSoC4/capsense_CSHL.c ****         {
2085:.\Generated_Source\PSoC4/capsense_CSHL.c ****             /* Maximum was not found */
2086:.\Generated_Source\PSoC4/capsense_CSHL.c ****             position = 0xFFFFu;
 1171              		.loc 1 2086 0
 1172 002c 0348     		ldr	r0, .L104+8
 1173              	.LVL135:
 1174              	.L102:
2087:.\Generated_Source\PSoC4/capsense_CSHL.c **** 
2088:.\Generated_Source\PSoC4/capsense_CSHL.c ****             #if (0u != capsense_RADIAL_SLIDERS_POS_FILTERS_MASK)
2089:.\Generated_Source\PSoC4/capsense_CSHL.c ****                 /* Reset filters */
2090:.\Generated_Source\PSoC4/capsense_CSHL.c ****                 if((posFiltersMask & capsense_ANY_POS_FILTER) != 0u)
2091:.\Generated_Source\PSoC4/capsense_CSHL.c ****                 {
2092:.\Generated_Source\PSoC4/capsense_CSHL.c ****                     capsense_posFiltersData[firstTimeIndex] = 0u;
2093:.\Generated_Source\PSoC4/capsense_CSHL.c ****                 }
2094:.\Generated_Source\PSoC4/capsense_CSHL.c ****             #endif /* (0u != capsense_RADIAL_SLIDERS_POS_FILTERS_MASK) */
2095:.\Generated_Source\PSoC4/capsense_CSHL.c ****         }
2096:.\Generated_Source\PSoC4/capsense_CSHL.c **** 
2097:.\Generated_Source\PSoC4/capsense_CSHL.c ****         return (position);
2098:.\Generated_Source\PSoC4/capsense_CSHL.c ****     }
 1175              		.loc 1 2098 0
 1176 002e 02B0     		add	sp, sp, #8
 1177              		@ sp needed
 1178              	.LVL136:
 1179 0030 10BD     		pop	{r4, pc}
 1180              	.L105:
 1181 0032 C046     		.align	2
 1182              	.L104:
 1183 0034 00000000 		.word	capsense_fingerThreshold
 1184 0038 00000000 		.word	capsense_noiseThreshold
 1185 003c FFFF0000 		.word	65535
 1186              		.cfi_endproc
 1187              	.LFE65:
 1188              		.size	capsense_GetRadialCentroidPos, .-capsense_GetRadialCentroidPos
 1189              		.section	.text.capsense_MedianFilter,"ax",%progbits
 1190              		.align	2
 1191              		.global	capsense_MedianFilter
 1192              		.code	16
 1193              		.thumb_func
 1194              		.type	capsense_MedianFilter, %function
ARM GAS  C:\Users\Alan\AppData\Local\Temp\ccSwCrkV.s 			page 59


 1195              	capsense_MedianFilter:
 1196              	.LFB66:
2099:.\Generated_Source\PSoC4/capsense_CSHL.c **** #endif /* ((capsense_TOTAL_RADIAL_SLIDERS_COUNT > 0u) || (capsense_TOTAL_LINEAR_SLIDERS_COUNT > 0u)
2100:.\Generated_Source\PSoC4/capsense_CSHL.c **** 
2101:.\Generated_Source\PSoC4/capsense_CSHL.c **** 
2102:.\Generated_Source\PSoC4/capsense_CSHL.c **** #if(capsense_TOTAL_TOUCH_PADS_BASIC_COUNT > 0u)
2103:.\Generated_Source\PSoC4/capsense_CSHL.c ****     /*******************************************************************************
2104:.\Generated_Source\PSoC4/capsense_CSHL.c ****     * Function Name: capsense_GetTouchCentroidPos
2105:.\Generated_Source\PSoC4/capsense_CSHL.c ****     ********************************************************************************
2106:.\Generated_Source\PSoC4/capsense_CSHL.c ****     *
2107:.\Generated_Source\PSoC4/capsense_CSHL.c ****     * Summary:
2108:.\Generated_Source\PSoC4/capsense_CSHL.c ****     *  If a finger is present on a touchpad, this function calculates the X and Y
2109:.\Generated_Source\PSoC4/capsense_CSHL.c ****     *  position of the finger by calculating the centroids within touchpad specified
2110:.\Generated_Source\PSoC4/capsense_CSHL.c ****     *  range. The X and Y positions are calculated according to the API resolutions set in the
2111:.\Generated_Source\PSoC4/capsense_CSHL.c ****     *  CapSense customizer. Returns 1 if a finger is on the touchpad.
2112:.\Generated_Source\PSoC4/capsense_CSHL.c ****     *  The position filter is applied to the result if enabled.
2113:.\Generated_Source\PSoC4/capsense_CSHL.c ****     *  This function is available only if a touch pad is defined by the CapSense
2114:.\Generated_Source\PSoC4/capsense_CSHL.c ****     *  customizer.
2115:.\Generated_Source\PSoC4/capsense_CSHL.c ****     *
2116:.\Generated_Source\PSoC4/capsense_CSHL.c ****     * Parameters:
2117:.\Generated_Source\PSoC4/capsense_CSHL.c ****     *  widget:  Widget number.
2118:.\Generated_Source\PSoC4/capsense_CSHL.c ****     *  For every touchpad widget there are defines in this format:
2119:.\Generated_Source\PSoC4/capsense_CSHL.c ****     *  #define capsense_"widget_name"__TP            5
2120:.\Generated_Source\PSoC4/capsense_CSHL.c ****     *
2121:.\Generated_Source\PSoC4/capsense_CSHL.c ****     *  pos:     Pointer to the array of two uint16 elements, where result
2122:.\Generated_Source\PSoC4/capsense_CSHL.c ****     *  result of calculation of X and Y position are stored.
2123:.\Generated_Source\PSoC4/capsense_CSHL.c ****     *  pos[0u]  - position of X
2124:.\Generated_Source\PSoC4/capsense_CSHL.c ****     *  pos[1u]  - position of Y
2125:.\Generated_Source\PSoC4/capsense_CSHL.c ****     *
2126:.\Generated_Source\PSoC4/capsense_CSHL.c ****     * Return:
2127:.\Generated_Source\PSoC4/capsense_CSHL.c ****     *  Returns a 1 if a finger is on the touch pad, 0 - if not.
2128:.\Generated_Source\PSoC4/capsense_CSHL.c ****     *
2129:.\Generated_Source\PSoC4/capsense_CSHL.c ****     * Global Variables:
2130:.\Generated_Source\PSoC4/capsense_CSHL.c ****     *  None.
2131:.\Generated_Source\PSoC4/capsense_CSHL.c ****     *
2132:.\Generated_Source\PSoC4/capsense_CSHL.c ****     * Side Effects:
2133:.\Generated_Source\PSoC4/capsense_CSHL.c ****     *   There are no checks of the widget type argument provided to this function.
2134:.\Generated_Source\PSoC4/capsense_CSHL.c ****     *   The unproper widget type provided will cause unexpected position
2135:.\Generated_Source\PSoC4/capsense_CSHL.c ****     *   calculations.
2136:.\Generated_Source\PSoC4/capsense_CSHL.c ****     *
2137:.\Generated_Source\PSoC4/capsense_CSHL.c ****     *******************************************************************************/
2138:.\Generated_Source\PSoC4/capsense_CSHL.c ****     uint32 capsense_GetTouchCentroidPos(uint32 widget, uint16* pos)
2139:.\Generated_Source\PSoC4/capsense_CSHL.c ****     {
2140:.\Generated_Source\PSoC4/capsense_CSHL.c ****         #if (0u != capsense_TOUCH_PADS_POS_FILTERS_MASK)
2141:.\Generated_Source\PSoC4/capsense_CSHL.c ****             uint8 posXIndex;
2142:.\Generated_Source\PSoC4/capsense_CSHL.c ****             uint8 posYIndex;
2143:.\Generated_Source\PSoC4/capsense_CSHL.c ****             uint8 firstTimeIndex = capsense_posFiltersData[widget];
2144:.\Generated_Source\PSoC4/capsense_CSHL.c ****             uint8 posFiltersMask = capsense_posFiltersMask[widget];
2145:.\Generated_Source\PSoC4/capsense_CSHL.c ****         #endif /* (0u != capsense_TOUCH_PADS_POS_FILTERS_MASK) */
2146:.\Generated_Source\PSoC4/capsense_CSHL.c **** 
2147:.\Generated_Source\PSoC4/capsense_CSHL.c ****         #if ((0u != (capsense_MEDIAN_FILTER & capsense_TOUCH_PADS_POS_FILTERS_MASK)) || \
2148:.\Generated_Source\PSoC4/capsense_CSHL.c ****              (0u != (capsense_AVERAGING_FILTER & capsense_TOUCH_PADS_POS_FILTERS_MASK)))
2149:.\Generated_Source\PSoC4/capsense_CSHL.c ****             uint16 tempPos;
2150:.\Generated_Source\PSoC4/capsense_CSHL.c ****         #endif /* ((0u != (capsense_MEDIAN_FILTER & capsense_TOUCH_PADS_POS_FILTERS_MASK)) || \
2151:.\Generated_Source\PSoC4/capsense_CSHL.c ****                *   (0u != (capsense_AVERAGING_FILTER & capsense_TOUCH_PADS_POS_FILTERS_MASK)))
2152:.\Generated_Source\PSoC4/capsense_CSHL.c ****                */
2153:.\Generated_Source\PSoC4/capsense_CSHL.c **** 
ARM GAS  C:\Users\Alan\AppData\Local\Temp\ccSwCrkV.s 			page 60


2154:.\Generated_Source\PSoC4/capsense_CSHL.c ****         uint8 MaxX;
2155:.\Generated_Source\PSoC4/capsense_CSHL.c ****         uint8 MaxY;
2156:.\Generated_Source\PSoC4/capsense_CSHL.c ****         uint8 posX;
2157:.\Generated_Source\PSoC4/capsense_CSHL.c ****         uint8 posY;
2158:.\Generated_Source\PSoC4/capsense_CSHL.c ****         uint32 touch = 0u;
2159:.\Generated_Source\PSoC4/capsense_CSHL.c ****         uint8 offset = capsense_rawDataIndex[widget];
2160:.\Generated_Source\PSoC4/capsense_CSHL.c ****         uint8 count = capsense_numberOfSensors[widget];
2161:.\Generated_Source\PSoC4/capsense_CSHL.c **** 
2162:.\Generated_Source\PSoC4/capsense_CSHL.c ****         /* Find Maximum within X centroid */
2163:.\Generated_Source\PSoC4/capsense_CSHL.c ****         #if (capsense_IS_DIPLEX_SLIDER)
2164:.\Generated_Source\PSoC4/capsense_CSHL.c ****             MaxX = capsense_FindMaximum(offset, count, capsense_fingerThreshold[widget], 0u);
2165:.\Generated_Source\PSoC4/capsense_CSHL.c ****         #else
2166:.\Generated_Source\PSoC4/capsense_CSHL.c ****             MaxX = capsense_FindMaximum(offset, count, capsense_fingerThreshold[widget]);
2167:.\Generated_Source\PSoC4/capsense_CSHL.c ****         #endif /* (capsense_IS_DIPLEX_SLIDER) */
2168:.\Generated_Source\PSoC4/capsense_CSHL.c **** 
2169:.\Generated_Source\PSoC4/capsense_CSHL.c ****         if (MaxX != capsense_MAXIMUM_CENTROID)
2170:.\Generated_Source\PSoC4/capsense_CSHL.c ****         {
2171:.\Generated_Source\PSoC4/capsense_CSHL.c ****             offset = capsense_rawDataIndex[widget + 1u];
2172:.\Generated_Source\PSoC4/capsense_CSHL.c ****             count = capsense_numberOfSensors[widget + 1u];
2173:.\Generated_Source\PSoC4/capsense_CSHL.c **** 
2174:.\Generated_Source\PSoC4/capsense_CSHL.c ****             /* Find Maximum within Y centroid */
2175:.\Generated_Source\PSoC4/capsense_CSHL.c ****             #if (capsense_IS_DIPLEX_SLIDER)
2176:.\Generated_Source\PSoC4/capsense_CSHL.c ****                 MaxY = capsense_FindMaximum(offset, count, capsense_fingerThreshold[widget + 1u], 0
2177:.\Generated_Source\PSoC4/capsense_CSHL.c ****             #else
2178:.\Generated_Source\PSoC4/capsense_CSHL.c ****                 MaxY = capsense_FindMaximum(offset, count, capsense_fingerThreshold[widget + 1u]);
2179:.\Generated_Source\PSoC4/capsense_CSHL.c ****             #endif /* (capsense_IS_DIPLEX_SLIDER) */
2180:.\Generated_Source\PSoC4/capsense_CSHL.c **** 
2181:.\Generated_Source\PSoC4/capsense_CSHL.c ****             if (MaxY != capsense_MAXIMUM_CENTROID)
2182:.\Generated_Source\PSoC4/capsense_CSHL.c ****             {
2183:.\Generated_Source\PSoC4/capsense_CSHL.c ****                 /* X and Y maximums are found = true touch */
2184:.\Generated_Source\PSoC4/capsense_CSHL.c ****                 touch = 1u;
2185:.\Generated_Source\PSoC4/capsense_CSHL.c **** 
2186:.\Generated_Source\PSoC4/capsense_CSHL.c ****                 /* Calculate Y centroid */
2187:.\Generated_Source\PSoC4/capsense_CSHL.c ****                 posY = capsense_CalcCentroid(MaxY, offset, count,
2188:.\Generated_Source\PSoC4/capsense_CSHL.c ****                             capsense_centroidMult[widget + 1u], capsense_noiseThreshold[widget + 1u
2189:.\Generated_Source\PSoC4/capsense_CSHL.c **** 
2190:.\Generated_Source\PSoC4/capsense_CSHL.c ****                 /* Calculate X centroid */
2191:.\Generated_Source\PSoC4/capsense_CSHL.c ****                 offset = capsense_rawDataIndex[widget];
2192:.\Generated_Source\PSoC4/capsense_CSHL.c ****                 count = capsense_numberOfSensors[widget];
2193:.\Generated_Source\PSoC4/capsense_CSHL.c **** 
2194:.\Generated_Source\PSoC4/capsense_CSHL.c ****                 posX = capsense_CalcCentroid(MaxX, offset, count,
2195:.\Generated_Source\PSoC4/capsense_CSHL.c ****                             capsense_centroidMult[widget],capsense_noiseThreshold[widget]);
2196:.\Generated_Source\PSoC4/capsense_CSHL.c **** 
2197:.\Generated_Source\PSoC4/capsense_CSHL.c ****                 #if (0u != capsense_TOUCH_PADS_POS_FILTERS_MASK)
2198:.\Generated_Source\PSoC4/capsense_CSHL.c ****                     /* Check if this TP has enabled filters */
2199:.\Generated_Source\PSoC4/capsense_CSHL.c ****                     if (0u != (posFiltersMask & capsense_ANY_POS_FILTER))
2200:.\Generated_Source\PSoC4/capsense_CSHL.c ****                     {
2201:.\Generated_Source\PSoC4/capsense_CSHL.c ****                         /* Calculate position to store filters data */
2202:.\Generated_Source\PSoC4/capsense_CSHL.c ****                         posXIndex  = firstTimeIndex + 1u;
2203:.\Generated_Source\PSoC4/capsense_CSHL.c ****                         posYIndex  = capsense_posFiltersData[widget + 1u];
2204:.\Generated_Source\PSoC4/capsense_CSHL.c **** 
2205:.\Generated_Source\PSoC4/capsense_CSHL.c ****                         if (0u == capsense_posFiltersData[firstTimeIndex])
2206:.\Generated_Source\PSoC4/capsense_CSHL.c ****                         {
2207:.\Generated_Source\PSoC4/capsense_CSHL.c ****                             /* Init filters */
2208:.\Generated_Source\PSoC4/capsense_CSHL.c ****                             capsense_posFiltersData[posXIndex] = posX;
2209:.\Generated_Source\PSoC4/capsense_CSHL.c ****                             capsense_posFiltersData[posYIndex] = posY;
2210:.\Generated_Source\PSoC4/capsense_CSHL.c **** 
ARM GAS  C:\Users\Alan\AppData\Local\Temp\ccSwCrkV.s 			page 61


2211:.\Generated_Source\PSoC4/capsense_CSHL.c ****                             #if((0u != (capsense_MEDIAN_FILTER & \
2212:.\Generated_Source\PSoC4/capsense_CSHL.c ****                                         capsense_TOUCH_PADS_POS_FILTERS_MASK))|| \
2213:.\Generated_Source\PSoC4/capsense_CSHL.c ****                                 (0u != (capsense_AVERAGING_FILTER & \
2214:.\Generated_Source\PSoC4/capsense_CSHL.c ****                                         capsense_TOUCH_PADS_POS_FILTERS_MASK)))
2215:.\Generated_Source\PSoC4/capsense_CSHL.c **** 
2216:.\Generated_Source\PSoC4/capsense_CSHL.c ****                                 if ( (0u != (posFiltersMask & capsense_MEDIAN_FILTER)) ||
2217:.\Generated_Source\PSoC4/capsense_CSHL.c ****                                      (0u != (posFiltersMask & capsense_AVERAGING_FILTER)) )
