ARM GAS  C:\Users\Alan\AppData\Local\Temp\ccTIy4ty.s 			page 1


   1              		.cpu cortex-m0
   2              		.fpu softvfp
   3              		.eabi_attribute 20, 1
   4              		.eabi_attribute 21, 1
   5              		.eabi_attribute 23, 3
   6              		.eabi_attribute 24, 1
   7              		.eabi_attribute 25, 1
   8              		.eabi_attribute 26, 1
   9              		.eabi_attribute 30, 1
  10              		.eabi_attribute 34, 0
  11              		.eabi_attribute 18, 4
  12              		.code	16
  13              		.file	"capsense.c"
  14              		.text
  15              	.Ltext0:
  16              		.cfi_sections	.debug_frame
  17              		.section	.text.capsense_CsdHwBlockInit,"ax",%progbits
  18              		.align	2
  19              		.global	capsense_CsdHwBlockInit
  20              		.code	16
  21              		.thumb_func
  22              		.type	capsense_CsdHwBlockInit, %function
  23              	capsense_CsdHwBlockInit:
  24              	.LFB36:
  25              		.file 1 ".\\Generated_Source\\PSoC4\\capsense.c"
   1:.\Generated_Source\PSoC4/capsense.c **** /*******************************************************************************
   2:.\Generated_Source\PSoC4/capsense.c **** * File Name: capsense.c
   3:.\Generated_Source\PSoC4/capsense.c **** * Version 2.30
   4:.\Generated_Source\PSoC4/capsense.c **** *
   5:.\Generated_Source\PSoC4/capsense.c **** * Description:
   6:.\Generated_Source\PSoC4/capsense.c **** *  This file provides the source code for scanning APIs for the CapSense CSD
   7:.\Generated_Source\PSoC4/capsense.c **** *  component.
   8:.\Generated_Source\PSoC4/capsense.c **** *
   9:.\Generated_Source\PSoC4/capsense.c **** * Note:
  10:.\Generated_Source\PSoC4/capsense.c **** *
  11:.\Generated_Source\PSoC4/capsense.c **** ********************************************************************************
  12:.\Generated_Source\PSoC4/capsense.c **** * Copyright 2013-2015, Cypress Semiconductor Corporation.  All rights reserved.
  13:.\Generated_Source\PSoC4/capsense.c **** * You may use this file only in accordance with the license, terms, conditions,
  14:.\Generated_Source\PSoC4/capsense.c **** * disclaimers, and limitations in the end user license agreement accompanying
  15:.\Generated_Source\PSoC4/capsense.c **** * the software package with which this file was provided.
  16:.\Generated_Source\PSoC4/capsense.c **** *******************************************************************************/
  17:.\Generated_Source\PSoC4/capsense.c **** 
  18:.\Generated_Source\PSoC4/capsense.c **** #include "capsense.h"
  19:.\Generated_Source\PSoC4/capsense.c **** #include "capsense_PVT.h"
  20:.\Generated_Source\PSoC4/capsense.c **** #include "cypins.h"
  21:.\Generated_Source\PSoC4/capsense.c **** 
  22:.\Generated_Source\PSoC4/capsense.c **** 
  23:.\Generated_Source\PSoC4/capsense.c **** #if(0u != capsense_CSHL_API_GENERATE)
  24:.\Generated_Source\PSoC4/capsense.c ****     #include "capsense_CSHL.h"
  25:.\Generated_Source\PSoC4/capsense.c **** #endif /* (0u != capsense_CSHL_API_GENERATE) */
  26:.\Generated_Source\PSoC4/capsense.c **** 
  27:.\Generated_Source\PSoC4/capsense.c **** /* This definition is intended to prevent unexpected linker error.
  28:.\Generated_Source\PSoC4/capsense.c ****    For more details please see the IAR Technical Note 49981 */
  29:.\Generated_Source\PSoC4/capsense.c **** #if defined(__ICCARM__)
  30:.\Generated_Source\PSoC4/capsense.c ****     extern void capsense_EnableSensor(uint32 sensor);
  31:.\Generated_Source\PSoC4/capsense.c ****     extern void capsense_DisableSensor(uint32 sensor);
  32:.\Generated_Source\PSoC4/capsense.c **** #endif /* (__ICCARM__) */
ARM GAS  C:\Users\Alan\AppData\Local\Temp\ccTIy4ty.s 			page 2


  33:.\Generated_Source\PSoC4/capsense.c **** 
  34:.\Generated_Source\PSoC4/capsense.c **** /* SmartSense functions */
  35:.\Generated_Source\PSoC4/capsense.c **** #if (capsense_TUNING_METHOD == capsense__TUNING_AUTO)
  36:.\Generated_Source\PSoC4/capsense.c ****     uint8 capsense_lowLevelTuningDone = 0u;
  37:.\Generated_Source\PSoC4/capsense.c ****     uint8 capsense_scanSpeedTbl[((capsense_TOTAL_SENSOR_COUNT - 1u) / 8u) + 1u];
  38:.\Generated_Source\PSoC4/capsense.c **** #endif /* (capsense_TUNING_METHOD == capsense__TUNING_AUTO) */
  39:.\Generated_Source\PSoC4/capsense.c **** 
  40:.\Generated_Source\PSoC4/capsense.c **** #if(capsense_PRS_OPTIONS != capsense__PRS_NONE)
  41:.\Generated_Source\PSoC4/capsense.c ****     uint8 capsense_prescalersTuningDone = 0u;
  42:.\Generated_Source\PSoC4/capsense.c **** #endif /* (capsense_PRS_OPTIONS == capsense__PRS_NONE) */
  43:.\Generated_Source\PSoC4/capsense.c **** 
  44:.\Generated_Source\PSoC4/capsense.c **** /* Global software variables */
  45:.\Generated_Source\PSoC4/capsense.c **** volatile uint8 capsense_csdStatusVar = 0u;   /* CapSense CSD status, variable */
  46:.\Generated_Source\PSoC4/capsense.c **** volatile uint8 capsense_sensorIndex = 0u;    /* Index of scannig sensor */
  47:.\Generated_Source\PSoC4/capsense.c **** 
  48:.\Generated_Source\PSoC4/capsense.c **** /* Global array of Raw Counts */
  49:.\Generated_Source\PSoC4/capsense.c **** uint16 capsense_sensorRaw[capsense_TOTAL_SENSOR_COUNT] = {0u};
  50:.\Generated_Source\PSoC4/capsense.c **** 
  51:.\Generated_Source\PSoC4/capsense.c **** /* Backup variables for trim registers*/
  52:.\Generated_Source\PSoC4/capsense.c **** #if (capsense_IDAC1_POLARITY == capsense__IDAC_SINK)
  53:.\Generated_Source\PSoC4/capsense.c ****     uint8 capsense_csdTrim2;
  54:.\Generated_Source\PSoC4/capsense.c **** #else
  55:.\Generated_Source\PSoC4/capsense.c ****     uint8 capsense_csdTrim1;
  56:.\Generated_Source\PSoC4/capsense.c **** #endif /* (capsense_IDAC1_POLARITY == capsense__IDAC_SINK) */
  57:.\Generated_Source\PSoC4/capsense.c **** 
  58:.\Generated_Source\PSoC4/capsense.c **** /* Global array of un-scanned sensors state */
  59:.\Generated_Source\PSoC4/capsense.c **** uint8 capsense_unscannedSnsDriveMode[capsense_TOTAL_SENSOR_COUNT];
  60:.\Generated_Source\PSoC4/capsense.c **** 
  61:.\Generated_Source\PSoC4/capsense.c **** /* Backup array for capsense_sensorEnableMask */
  62:.\Generated_Source\PSoC4/capsense.c **** uint8 capsense_sensorEnableMaskBackup[(((capsense_TOTAL_SENSOR_COUNT - 1u) / 8u) + 1u)];
  63:.\Generated_Source\PSoC4/capsense.c **** 
  64:.\Generated_Source\PSoC4/capsense.c **** /* Configured constants and arrays by Customizer */
  65:.\Generated_Source\PSoC4/capsense.c **** uint8 capsense_sensorEnableMask[(((capsense_TOTAL_SENSOR_COUNT - 1u) / 8u) + 1u)] = {
  66:.\Generated_Source\PSoC4/capsense.c **** 0x1Fu, };
  67:.\Generated_Source\PSoC4/capsense.c **** 
  68:.\Generated_Source\PSoC4/capsense.c **** reg32 * capsense_pcTable[] = {
  69:.\Generated_Source\PSoC4/capsense.c ****     (reg32 *)capsense_Sns__LinearSlider0_e0__LS__PC, 
  70:.\Generated_Source\PSoC4/capsense.c ****     (reg32 *)capsense_Sns__LinearSlider0_e1__LS__PC, 
  71:.\Generated_Source\PSoC4/capsense.c ****     (reg32 *)capsense_Sns__LinearSlider0_e2__LS__PC, 
  72:.\Generated_Source\PSoC4/capsense.c ****     (reg32 *)capsense_Sns__LinearSlider0_e3__LS__PC, 
  73:.\Generated_Source\PSoC4/capsense.c ****     (reg32 *)capsense_Sns__LinearSlider0_e4__LS__PC, 
  74:.\Generated_Source\PSoC4/capsense.c **** };
  75:.\Generated_Source\PSoC4/capsense.c **** 
  76:.\Generated_Source\PSoC4/capsense.c **** const uint8 capsense_portTable[] = {
  77:.\Generated_Source\PSoC4/capsense.c ****     capsense_Sns__LinearSlider0_e0__LS__PORT, 
  78:.\Generated_Source\PSoC4/capsense.c ****     capsense_Sns__LinearSlider0_e1__LS__PORT, 
  79:.\Generated_Source\PSoC4/capsense.c ****     capsense_Sns__LinearSlider0_e2__LS__PORT, 
  80:.\Generated_Source\PSoC4/capsense.c ****     capsense_Sns__LinearSlider0_e3__LS__PORT, 
  81:.\Generated_Source\PSoC4/capsense.c ****     capsense_Sns__LinearSlider0_e4__LS__PORT, 
  82:.\Generated_Source\PSoC4/capsense.c **** };
  83:.\Generated_Source\PSoC4/capsense.c **** 
  84:.\Generated_Source\PSoC4/capsense.c **** const uint32 capsense_maskTable[] = {
  85:.\Generated_Source\PSoC4/capsense.c ****     capsense_Sns__LinearSlider0_e0__LS__MASK, 
  86:.\Generated_Source\PSoC4/capsense.c ****     capsense_Sns__LinearSlider0_e1__LS__MASK, 
  87:.\Generated_Source\PSoC4/capsense.c ****     capsense_Sns__LinearSlider0_e2__LS__MASK, 
  88:.\Generated_Source\PSoC4/capsense.c ****     capsense_Sns__LinearSlider0_e3__LS__MASK, 
  89:.\Generated_Source\PSoC4/capsense.c ****     capsense_Sns__LinearSlider0_e4__LS__MASK, 
ARM GAS  C:\Users\Alan\AppData\Local\Temp\ccTIy4ty.s 			page 3


  90:.\Generated_Source\PSoC4/capsense.c **** };
  91:.\Generated_Source\PSoC4/capsense.c **** 
  92:.\Generated_Source\PSoC4/capsense.c **** const uint8 capsense_pinShiftTbl[] = {
  93:.\Generated_Source\PSoC4/capsense.c ****     (uint8) capsense_Sns__LinearSlider0_e0__LS__SHIFT, 
  94:.\Generated_Source\PSoC4/capsense.c ****     (uint8) capsense_Sns__LinearSlider0_e1__LS__SHIFT, 
  95:.\Generated_Source\PSoC4/capsense.c ****     (uint8) capsense_Sns__LinearSlider0_e2__LS__SHIFT, 
  96:.\Generated_Source\PSoC4/capsense.c ****     (uint8) capsense_Sns__LinearSlider0_e3__LS__SHIFT, 
  97:.\Generated_Source\PSoC4/capsense.c ****     (uint8) capsense_Sns__LinearSlider0_e4__LS__SHIFT, 
  98:.\Generated_Source\PSoC4/capsense.c **** };
  99:.\Generated_Source\PSoC4/capsense.c **** 
 100:.\Generated_Source\PSoC4/capsense.c **** uint8 capsense_modulationIDAC[capsense_TOTAL_SENSOR_COUNT];
 101:.\Generated_Source\PSoC4/capsense.c **** uint8 capsense_compensationIDAC[capsense_TOTAL_SENSOR_COUNT];
 102:.\Generated_Source\PSoC4/capsense.c **** 
 103:.\Generated_Source\PSoC4/capsense.c **** uint32 capsense_widgetResolution[capsense_RESOLUTIONS_TBL_SIZE] = {
 104:.\Generated_Source\PSoC4/capsense.c ****     capsense_RESOLUTION_12_BITS,
 105:.\Generated_Source\PSoC4/capsense.c **** };
 106:.\Generated_Source\PSoC4/capsense.c **** 
 107:.\Generated_Source\PSoC4/capsense.c **** uint8 capsense_senseClkDividerVal[capsense_TOTAL_SCANSLOT_COUNT];
 108:.\Generated_Source\PSoC4/capsense.c **** uint8 capsense_sampleClkDividerVal[capsense_TOTAL_SCANSLOT_COUNT];
 109:.\Generated_Source\PSoC4/capsense.c **** 
 110:.\Generated_Source\PSoC4/capsense.c **** const uint8 capsense_widgetNumber[capsense_TOTAL_SENSOR_COUNT] = {
 111:.\Generated_Source\PSoC4/capsense.c ****     0u, 0u, 0u, 0u, 0u, /* LinearSlider0__LS */
 112:.\Generated_Source\PSoC4/capsense.c **** };
 113:.\Generated_Source\PSoC4/capsense.c **** 
 114:.\Generated_Source\PSoC4/capsense.c **** reg32* const capsense_prtSelTbl[capsense_CFG_REG_TBL_SIZE] = {
 115:.\Generated_Source\PSoC4/capsense.c ****     ((reg32 *) CYREG_HSIOM_PORT_SEL0),
 116:.\Generated_Source\PSoC4/capsense.c ****     ((reg32 *) CYREG_HSIOM_PORT_SEL1),
 117:.\Generated_Source\PSoC4/capsense.c ****     ((reg32 *) CYREG_HSIOM_PORT_SEL2),
 118:.\Generated_Source\PSoC4/capsense.c ****     ((reg32 *) CYREG_HSIOM_PORT_SEL3),
 119:.\Generated_Source\PSoC4/capsense.c ****     ((reg32 *) CYREG_HSIOM_PORT_SEL4),
 120:.\Generated_Source\PSoC4/capsense.c ****     ((reg32 *) CYREG_HSIOM_PORT_SEL5),
 121:.\Generated_Source\PSoC4/capsense.c ****     ((reg32 *) CYREG_HSIOM_PORT_SEL6),
 122:.\Generated_Source\PSoC4/capsense.c **** };
 123:.\Generated_Source\PSoC4/capsense.c **** 
 124:.\Generated_Source\PSoC4/capsense.c **** reg32* const capsense_prtCfgTbl[capsense_CFG_REG_TBL_SIZE] = {
 125:.\Generated_Source\PSoC4/capsense.c ****     ((reg32 *) CYREG_GPIO_PRT0_PC),
 126:.\Generated_Source\PSoC4/capsense.c ****     ((reg32 *) CYREG_GPIO_PRT1_PC),
 127:.\Generated_Source\PSoC4/capsense.c ****     ((reg32 *) CYREG_GPIO_PRT2_PC),
 128:.\Generated_Source\PSoC4/capsense.c ****     ((reg32 *) CYREG_GPIO_PRT3_PC),
 129:.\Generated_Source\PSoC4/capsense.c ****     ((reg32 *) CYREG_GPIO_PRT4_PC),
 130:.\Generated_Source\PSoC4/capsense.c ****     ((reg32 *) CYREG_GPIO_PRT5_PC),
 131:.\Generated_Source\PSoC4/capsense.c ****     ((reg32 *) CYREG_GPIO_PRT6_PC),
 132:.\Generated_Source\PSoC4/capsense.c **** };
 133:.\Generated_Source\PSoC4/capsense.c **** 
 134:.\Generated_Source\PSoC4/capsense.c **** reg32* const capsense_prtDRTbl[capsense_CFG_REG_TBL_SIZE] = {
 135:.\Generated_Source\PSoC4/capsense.c ****     ((reg32 *) CYREG_GPIO_PRT0_DR),
 136:.\Generated_Source\PSoC4/capsense.c ****     ((reg32 *) CYREG_GPIO_PRT1_DR),
 137:.\Generated_Source\PSoC4/capsense.c ****     ((reg32 *) CYREG_GPIO_PRT2_DR),
 138:.\Generated_Source\PSoC4/capsense.c ****     ((reg32 *) CYREG_GPIO_PRT3_DR),
 139:.\Generated_Source\PSoC4/capsense.c ****     ((reg32 *) CYREG_GPIO_PRT4_DR),
 140:.\Generated_Source\PSoC4/capsense.c ****     ((reg32 *) CYREG_GPIO_PRT5_DR),
 141:.\Generated_Source\PSoC4/capsense.c ****     ((reg32 *) CYREG_GPIO_PRT6_DR),
 142:.\Generated_Source\PSoC4/capsense.c **** };
 143:.\Generated_Source\PSoC4/capsense.c **** 
 144:.\Generated_Source\PSoC4/capsense.c **** 
 145:.\Generated_Source\PSoC4/capsense.c **** 
 146:.\Generated_Source\PSoC4/capsense.c **** /*******************************************************************************
ARM GAS  C:\Users\Alan\AppData\Local\Temp\ccTIy4ty.s 			page 4


 147:.\Generated_Source\PSoC4/capsense.c **** * Function Name: capsense_Init
 148:.\Generated_Source\PSoC4/capsense.c **** ********************************************************************************
 149:.\Generated_Source\PSoC4/capsense.c **** *
 150:.\Generated_Source\PSoC4/capsense.c **** * Summary:
 151:.\Generated_Source\PSoC4/capsense.c **** *  API initializes default CapSense configuration provided by the customizer that defines
 152:.\Generated_Source\PSoC4/capsense.c **** *  the mode of component operations and resets all the sensors to an inactive state.
 153:.\Generated_Source\PSoC4/capsense.c **** *
 154:.\Generated_Source\PSoC4/capsense.c **** * Parameters:
 155:.\Generated_Source\PSoC4/capsense.c **** *  None
 156:.\Generated_Source\PSoC4/capsense.c **** *
 157:.\Generated_Source\PSoC4/capsense.c **** * Return:
 158:.\Generated_Source\PSoC4/capsense.c **** *  None
 159:.\Generated_Source\PSoC4/capsense.c **** *
 160:.\Generated_Source\PSoC4/capsense.c **** * Global Variables:
 161:.\Generated_Source\PSoC4/capsense.c **** *  capsense_immunityIndex - defines immunity level.
 162:.\Generated_Source\PSoC4/capsense.c **** *
 163:.\Generated_Source\PSoC4/capsense.c **** * Side Effects:
 164:.\Generated_Source\PSoC4/capsense.c **** *  None
 165:.\Generated_Source\PSoC4/capsense.c **** *
 166:.\Generated_Source\PSoC4/capsense.c **** *******************************************************************************/
 167:.\Generated_Source\PSoC4/capsense.c **** void capsense_Init(void)
 168:.\Generated_Source\PSoC4/capsense.c **** {
 169:.\Generated_Source\PSoC4/capsense.c ****     uint32 curSensor;
 170:.\Generated_Source\PSoC4/capsense.c **** 
 171:.\Generated_Source\PSoC4/capsense.c ****     #if(capsense_IS_SHIELD_ENABLE)
 172:.\Generated_Source\PSoC4/capsense.c **** 
 173:.\Generated_Source\PSoC4/capsense.c ****         #if((capsense_CSH_TANK_PREGARGE_OPTION == capsense__CAPPRIOBUF) || (0u != capsense_CSH_TANK
 174:.\Generated_Source\PSoC4/capsense.c ****             uint32 newRegValue;
 175:.\Generated_Source\PSoC4/capsense.c **** 
 176:.\Generated_Source\PSoC4/capsense.c ****             newRegValue = capsense_CTANK_CONNECTION_REG;
 177:.\Generated_Source\PSoC4/capsense.c ****             newRegValue &= ~(capsense_CSD_CTANK_CONNECTION_MASK);
 178:.\Generated_Source\PSoC4/capsense.c ****             newRegValue |= capsense_CSD_CTANK_TO_AMUXBUS_B;
 179:.\Generated_Source\PSoC4/capsense.c ****             capsense_CTANK_CONNECTION_REG = newRegValue;
 180:.\Generated_Source\PSoC4/capsense.c **** 
 181:.\Generated_Source\PSoC4/capsense.c ****             #if(capsense_CSH_TANK_PREGARGE_OPTION == capsense__CAPPRIOBUF)
 182:.\Generated_Source\PSoC4/capsense.c ****                 newRegValue = capsense_CTANK_PORT_PC_REG;
 183:.\Generated_Source\PSoC4/capsense.c ****                 newRegValue &= ~(capsense_CSD_CTANK_PC_MASK);
 184:.\Generated_Source\PSoC4/capsense.c ****                 newRegValue |= capsense_CTANK_PC_STRONG_MODE;
 185:.\Generated_Source\PSoC4/capsense.c ****                 capsense_CTANK_PORT_PC_REG = newRegValue;
 186:.\Generated_Source\PSoC4/capsense.c **** 
 187:.\Generated_Source\PSoC4/capsense.c ****                 newRegValue = capsense_CTANK_PORT_DR_REG;
 188:.\Generated_Source\PSoC4/capsense.c ****                 newRegValue &= ~(capsense_CTANK_DR_MASK);
 189:.\Generated_Source\PSoC4/capsense.c ****                 newRegValue |= capsense_CTANK_DR_CONFIG;
 190:.\Generated_Source\PSoC4/capsense.c ****                 capsense_CTANK_PORT_DR_REG = newRegValue;
 191:.\Generated_Source\PSoC4/capsense.c ****             #endif /* (capsense_CSH_TANK_PREGARGE_OPTION == capsense__CAPPRIOBUF) */
 192:.\Generated_Source\PSoC4/capsense.c **** 
 193:.\Generated_Source\PSoC4/capsense.c ****         #endif /* ((capsense_CSH_TANK_PREGARGE_OPTION == capsense__CAPPRIOBUF) || (capsense_CSH_TAN
 194:.\Generated_Source\PSoC4/capsense.c **** 
 195:.\Generated_Source\PSoC4/capsense.c ****         capsense_EnableShieldElectrode((uint32)capsense_SHIELD_PIN_NUMBER, (uint32)capsense_SHIELD_
 196:.\Generated_Source\PSoC4/capsense.c **** 
 197:.\Generated_Source\PSoC4/capsense.c ****     #endif /* (capsense_IS_SHIELD_ENABLE) */
 198:.\Generated_Source\PSoC4/capsense.c **** 
 199:.\Generated_Source\PSoC4/capsense.c ****     for(curSensor = 0u; curSensor < capsense_TOTAL_SENSOR_COUNT; curSensor++)
 200:.\Generated_Source\PSoC4/capsense.c ****     {
 201:.\Generated_Source\PSoC4/capsense.c ****         capsense_unscannedSnsDriveMode[curSensor] = capsense_CONNECT_INACTIVE_SNS;
 202:.\Generated_Source\PSoC4/capsense.c ****     }
 203:.\Generated_Source\PSoC4/capsense.c **** 
ARM GAS  C:\Users\Alan\AppData\Local\Temp\ccTIy4ty.s 			page 5


 204:.\Generated_Source\PSoC4/capsense.c ****     capsense_CsdHwBlockInit();
 205:.\Generated_Source\PSoC4/capsense.c ****     capsense_SetShieldDelay(capsense_SHIELD_DELAY );
 206:.\Generated_Source\PSoC4/capsense.c **** 
 207:.\Generated_Source\PSoC4/capsense.c ****     /* Clear all sensors */
 208:.\Generated_Source\PSoC4/capsense.c ****     capsense_ClearSensors();
 209:.\Generated_Source\PSoC4/capsense.c **** }
 210:.\Generated_Source\PSoC4/capsense.c **** 
 211:.\Generated_Source\PSoC4/capsense.c **** /*******************************************************************************
 212:.\Generated_Source\PSoC4/capsense.c **** * Function Name: capsense_CsdHwBlockInit
 213:.\Generated_Source\PSoC4/capsense.c **** ********************************************************************************
 214:.\Generated_Source\PSoC4/capsense.c **** *
 215:.\Generated_Source\PSoC4/capsense.c **** * Summary:
 216:.\Generated_Source\PSoC4/capsense.c **** *  Initialises the hardware parameters of the CSD block
 217:.\Generated_Source\PSoC4/capsense.c **** *
 218:.\Generated_Source\PSoC4/capsense.c **** * Parameters:
 219:.\Generated_Source\PSoC4/capsense.c **** *  None
 220:.\Generated_Source\PSoC4/capsense.c **** *
 221:.\Generated_Source\PSoC4/capsense.c **** * Return:
 222:.\Generated_Source\PSoC4/capsense.c **** *  None
 223:.\Generated_Source\PSoC4/capsense.c **** *
 224:.\Generated_Source\PSoC4/capsense.c **** * Global Variables:
 225:.\Generated_Source\PSoC4/capsense.c **** *  capsense_csdTrim1 - Contains IDAC trim register value for Sourcing Mode.
 226:.\Generated_Source\PSoC4/capsense.c **** *  capsense_csdTrim2 - Contains IDAC trim register value for Sinking Mode.
 227:.\Generated_Source\PSoC4/capsense.c **** *
 228:.\Generated_Source\PSoC4/capsense.c **** * Side Effects:
 229:.\Generated_Source\PSoC4/capsense.c **** *  None
 230:.\Generated_Source\PSoC4/capsense.c **** *
 231:.\Generated_Source\PSoC4/capsense.c **** *******************************************************************************/
 232:.\Generated_Source\PSoC4/capsense.c **** void capsense_CsdHwBlockInit(void)
 233:.\Generated_Source\PSoC4/capsense.c **** {
  26              		.loc 1 233 0
  27              		.cfi_startproc
  28 0000 38B5     		push	{r3, r4, r5, lr}
  29              		.cfi_def_cfa_offset 16
  30              		.cfi_offset 3, -16
  31              		.cfi_offset 4, -12
  32              		.cfi_offset 5, -8
  33              		.cfi_offset 14, -4
 234:.\Generated_Source\PSoC4/capsense.c ****     uint32 newRegValue;
 235:.\Generated_Source\PSoC4/capsense.c **** 
 236:.\Generated_Source\PSoC4/capsense.c ****         /* Set trim registers for CSD Mode */
 237:.\Generated_Source\PSoC4/capsense.c ****     #if (capsense_IDAC1_POLARITY == capsense__IDAC_SINK)
 238:.\Generated_Source\PSoC4/capsense.c ****         /* iDAC1 Sinking Mode */
 239:.\Generated_Source\PSoC4/capsense.c ****         capsense_csdTrim2 = (uint8)capsense_CSD_TRIM2_REG;
 240:.\Generated_Source\PSoC4/capsense.c ****         newRegValue = capsense_csdTrim2;
 241:.\Generated_Source\PSoC4/capsense.c ****         newRegValue &= capsense_CSD_IDAC1_TRIM_MASK;
 242:.\Generated_Source\PSoC4/capsense.c ****         newRegValue |= (uint32)((uint32)capsense_SFLASH_CSD_TRIM2_REG & (uint32)capsense_CSFLASH_TR
 243:.\Generated_Source\PSoC4/capsense.c **** 
 244:.\Generated_Source\PSoC4/capsense.c ****         #if (capsense_IDAC_CNT == 2u)
 245:.\Generated_Source\PSoC4/capsense.c ****             /* iDAC2 Sinking Mode */
 246:.\Generated_Source\PSoC4/capsense.c ****             newRegValue &= capsense_CSD_IDAC2_TRIM_MASK;
 247:.\Generated_Source\PSoC4/capsense.c ****             newRegValue |= (uint32)((uint32)capsense_SFLASH_CSD_TRIM2_REG & (uint32)capsense_CSFLAS
 248:.\Generated_Source\PSoC4/capsense.c ****         #endif /* (capsense_IDAC_CNT == 2u) */
 249:.\Generated_Source\PSoC4/capsense.c ****         capsense_CSD_TRIM2_REG = newRegValue;
 250:.\Generated_Source\PSoC4/capsense.c ****     #else
 251:.\Generated_Source\PSoC4/capsense.c ****         /* iDAC1 Sourcing Mode */
 252:.\Generated_Source\PSoC4/capsense.c ****         capsense_csdTrim1 = (uint8)capsense_CSD_TRIM1_REG;
ARM GAS  C:\Users\Alan\AppData\Local\Temp\ccTIy4ty.s 			page 6


  34              		.loc 1 252 0
  35 0002 164C     		ldr	r4, .L2
  36 0004 2368     		ldr	r3, [r4]
  37 0006 DBB2     		uxtb	r3, r3
  38 0008 154A     		ldr	r2, .L2+4
  39 000a 1370     		strb	r3, [r2]
  40              	.LVL0:
 253:.\Generated_Source\PSoC4/capsense.c ****         newRegValue = capsense_csdTrim1;
 254:.\Generated_Source\PSoC4/capsense.c ****         newRegValue &= capsense_CSD_IDAC1_TRIM_MASK;
  41              		.loc 1 254 0
  42 000c 0F20     		mov	r0, #15
  43 000e 8343     		bic	r3, r0
  44              	.LVL1:
  45 0010 191C     		mov	r1, r3
  46              	.LVL2:
 255:.\Generated_Source\PSoC4/capsense.c ****         newRegValue |= (uint32)((uint32)capsense_SFLASH_CSD_TRIM1_REG & (uint32)capsense_CSFLASH_TR
  47              		.loc 1 255 0
  48 0012 144D     		ldr	r5, .L2+8
  49 0014 2A78     		ldrb	r2, [r5]
  50 0016 0F23     		mov	r3, #15
  51 0018 1340     		and	r3, r2
  52 001a 0B43     		orr	r3, r1
  53              	.LVL3:
 256:.\Generated_Source\PSoC4/capsense.c ****         #if (capsense_IDAC_CNT == 2u)
 257:.\Generated_Source\PSoC4/capsense.c ****              /* iDAC2 Sourcing Mode */
 258:.\Generated_Source\PSoC4/capsense.c ****             newRegValue &= capsense_CSD_IDAC2_TRIM_MASK;
  54              		.loc 1 258 0
  55 001c F022     		mov	r2, #240
  56 001e 9343     		bic	r3, r2
  57              	.LVL4:
  58 0020 1A1C     		mov	r2, r3
  59              	.LVL5:
 259:.\Generated_Source\PSoC4/capsense.c ****             newRegValue |= (uint32)((uint32)capsense_SFLASH_CSD_TRIM1_REG & (uint32)capsense_CSFLAS
  60              		.loc 1 259 0
  61 0022 2B78     		ldrb	r3, [r5]
  62 0024 8343     		bic	r3, r0
  63 0026 1343     		orr	r3, r2
  64              	.LVL6:
 260:.\Generated_Source\PSoC4/capsense.c ****         #endif
 261:.\Generated_Source\PSoC4/capsense.c ****         capsense_CSD_TRIM1_REG = newRegValue;
  65              		.loc 1 261 0
  66 0028 2360     		str	r3, [r4]
 262:.\Generated_Source\PSoC4/capsense.c ****     #endif /* (capsense_IDAC1_POLARITY == capsense__IDAC_SINK) */
 263:.\Generated_Source\PSoC4/capsense.c **** 
 264:.\Generated_Source\PSoC4/capsense.c ****     /* Configure CSD and IDAC */
 265:.\Generated_Source\PSoC4/capsense.c ****     #if (capsense_IDAC_CNT > 1u)
 266:.\Generated_Source\PSoC4/capsense.c ****         capsense_CSD_IDAC_REG = capsense_DEFAULT_CSD_IDAC_CONFIG;
  67              		.loc 1 266 0
  68 002a 0F4A     		ldr	r2, .L2+12
  69 002c 0F4B     		ldr	r3, .L2+16
  70              	.LVL7:
  71 002e 1A60     		str	r2, [r3]
  72              	.LVL8:
 267:.\Generated_Source\PSoC4/capsense.c ****         capsense_CSD_CFG_REG = capsense_DEFAULT_CSD_CONFIG;
  73              		.loc 1 267 0
  74 0030 0F4A     		ldr	r2, .L2+20
  75 0032 104B     		ldr	r3, .L2+24
ARM GAS  C:\Users\Alan\AppData\Local\Temp\ccTIy4ty.s 			page 7


  76 0034 1A60     		str	r2, [r3]
 268:.\Generated_Source\PSoC4/capsense.c ****     #else
 269:.\Generated_Source\PSoC4/capsense.c ****         capsense_CSD_IDAC_REG &= ~(capsense_CSD_IDAC1_MODE_MASK  | capsense_CSD_IDAC1_DATA_MASK);
 270:.\Generated_Source\PSoC4/capsense.c ****         capsense_CSD_IDAC_REG |= capsense_DEFAULT_CSD_IDAC_CONFIG;
 271:.\Generated_Source\PSoC4/capsense.c **** 
 272:.\Generated_Source\PSoC4/capsense.c ****         capsense_CSD_CFG_REG &= ~(capsense_CSD_CONFIG_MASK);
 273:.\Generated_Source\PSoC4/capsense.c ****         capsense_CSD_CFG_REG |= (capsense_DEFAULT_CSD_CONFIG);
 274:.\Generated_Source\PSoC4/capsense.c ****     #endif /* (capsense_IDAC_CNT > 1u) */
 275:.\Generated_Source\PSoC4/capsense.c **** 
 276:.\Generated_Source\PSoC4/capsense.c **** 
 277:.\Generated_Source\PSoC4/capsense.c ****     /* Connect Cmod to AMUX bus */
 278:.\Generated_Source\PSoC4/capsense.c ****     newRegValue = capsense_CMOD_CONNECTION_REG;
  77              		.loc 1 278 0
  78 0036 1049     		ldr	r1, .L2+28
  79 0038 0B68     		ldr	r3, [r1]
  80              	.LVL9:
 279:.\Generated_Source\PSoC4/capsense.c ****     newRegValue &= ~(capsense_CSD_CMOD_CONNECTION_MASK);
  81              		.loc 1 279 0
  82 003a 8343     		bic	r3, r0
  83              	.LVL10:
 280:.\Generated_Source\PSoC4/capsense.c ****     newRegValue |= capsense_CSD_CMOD_TO_AMUXBUS_A;
  84              		.loc 1 280 0
  85 003c 0622     		mov	r2, #6
  86 003e 1343     		orr	r3, r2
  87              	.LVL11:
 281:.\Generated_Source\PSoC4/capsense.c ****     capsense_CMOD_CONNECTION_REG = newRegValue;
  88              		.loc 1 281 0
  89 0040 0B60     		str	r3, [r1]
 282:.\Generated_Source\PSoC4/capsense.c **** 
 283:.\Generated_Source\PSoC4/capsense.c ****     /* Configure Dead Band PWM if it is enabled */
 284:.\Generated_Source\PSoC4/capsense.c ****     #if(capsense_CSD_4B_PWM_MODE != capsense__PWM_OFF)
 285:.\Generated_Source\PSoC4/capsense.c ****         capsense_CSD_4B_PWM_REG = capsense_DEFAULT_CSD_4B_PWM_CONFIG;
 286:.\Generated_Source\PSoC4/capsense.c ****     #endif /* (capsense_CSD_4B_PWM_MODE != capsense__PWM_OFF) */
 287:.\Generated_Source\PSoC4/capsense.c **** 
 288:.\Generated_Source\PSoC4/capsense.c ****     /* Setup ISR */
 289:.\Generated_Source\PSoC4/capsense.c ****     CyIntDisable(capsense_ISR_NUMBER);
  90              		.loc 1 289 0
  91 0042 0130     		add	r0, r0, #1
  92 0044 FFF7FEFF 		bl	CyIntDisable
  93              	.LVL12:
 290:.\Generated_Source\PSoC4/capsense.c ****     #if !defined(CY_EXTERNAL_INTERRUPT_CONFIG)
 291:.\Generated_Source\PSoC4/capsense.c ****         (void)CyIntSetVector(capsense_ISR_NUMBER, &capsense_ISR);
  94              		.loc 1 291 0
  95 0048 1020     		mov	r0, #16
  96 004a 0C49     		ldr	r1, .L2+32
  97 004c FFF7FEFF 		bl	CyIntSetVector
  98              	.LVL13:
 292:.\Generated_Source\PSoC4/capsense.c ****         CyIntSetPriority(capsense_ISR_NUMBER, capsense_ISR_PRIORITY);
  99              		.loc 1 292 0
 100 0050 1020     		mov	r0, #16
 101 0052 0321     		mov	r1, #3
 102 0054 FFF7FEFF 		bl	CyIntSetPriority
 103              	.LVL14:
 293:.\Generated_Source\PSoC4/capsense.c ****     #endif /* (CY_EXTERNAL_INTERRUPT_CONFIG) */
 294:.\Generated_Source\PSoC4/capsense.c **** }
 104              		.loc 1 294 0
 105              		@ sp needed
ARM GAS  C:\Users\Alan\AppData\Local\Temp\ccTIy4ty.s 			page 8


 106 0058 38BD     		pop	{r3, r4, r5, pc}
 107              	.L3:
 108 005a C046     		.align	2
 109              	.L2:
 110 005c 00FF2840 		.word	1076428544
 111 0060 00000000 		.word	capsense_csdTrim1
 112 0064 62F1FF0F 		.word	268431714
 113 0068 00020001 		.word	16777728
 114 006c 08002840 		.word	1076363272
 115 0070 0008A001 		.word	27265024
 116 0074 04002840 		.word	1076363268
 117 0078 00040240 		.word	1073873920
 118 007c 00000000 		.word	capsense_ISR
 119              		.cfi_endproc
 120              	.LFE36:
 121              		.size	capsense_CsdHwBlockInit, .-capsense_CsdHwBlockInit
 122              		.section	.text.capsense_Enable,"ax",%progbits
 123              		.align	2
 124              		.global	capsense_Enable
 125              		.code	16
 126              		.thumb_func
 127              		.type	capsense_Enable, %function
 128              	capsense_Enable:
 129              	.LFB37:
 295:.\Generated_Source\PSoC4/capsense.c **** 
 296:.\Generated_Source\PSoC4/capsense.c **** 
 297:.\Generated_Source\PSoC4/capsense.c **** /*******************************************************************************
 298:.\Generated_Source\PSoC4/capsense.c **** * Function Name: capsense_Enable
 299:.\Generated_Source\PSoC4/capsense.c **** ********************************************************************************
 300:.\Generated_Source\PSoC4/capsense.c **** *
 301:.\Generated_Source\PSoC4/capsense.c **** * Summary:
 302:.\Generated_Source\PSoC4/capsense.c **** *  Enables the CSD block and related resources to an active mode.
 303:.\Generated_Source\PSoC4/capsense.c **** *
 304:.\Generated_Source\PSoC4/capsense.c **** * Parameters:
 305:.\Generated_Source\PSoC4/capsense.c **** *  None
 306:.\Generated_Source\PSoC4/capsense.c **** *
 307:.\Generated_Source\PSoC4/capsense.c **** * Return:
 308:.\Generated_Source\PSoC4/capsense.c **** *  None
 309:.\Generated_Source\PSoC4/capsense.c **** *
 310:.\Generated_Source\PSoC4/capsense.c **** * Global Variables:
 311:.\Generated_Source\PSoC4/capsense.c **** *  None.
 312:.\Generated_Source\PSoC4/capsense.c **** *
 313:.\Generated_Source\PSoC4/capsense.c **** * Side Effects:
 314:.\Generated_Source\PSoC4/capsense.c **** *  None
 315:.\Generated_Source\PSoC4/capsense.c **** *
 316:.\Generated_Source\PSoC4/capsense.c **** *******************************************************************************/
 317:.\Generated_Source\PSoC4/capsense.c **** void capsense_Enable(void)
 318:.\Generated_Source\PSoC4/capsense.c **** {
 130              		.loc 1 318 0
 131              		.cfi_startproc
 132 0000 08B5     		push	{r3, lr}
 133              		.cfi_def_cfa_offset 8
 134              		.cfi_offset 3, -8
 135              		.cfi_offset 14, -4
 319:.\Generated_Source\PSoC4/capsense.c ****     uint32 newRegValue;
 320:.\Generated_Source\PSoC4/capsense.c **** 
 321:.\Generated_Source\PSoC4/capsense.c ****     /* Enable Clocks */
ARM GAS  C:\Users\Alan\AppData\Local\Temp\ccTIy4ty.s 			page 9


 322:.\Generated_Source\PSoC4/capsense.c ****     capsense_SenseClk_Stop();
 136              		.loc 1 322 0
 137 0002 FFF7FEFF 		bl	capsense_SenseClk_Stop
 138              	.LVL15:
 323:.\Generated_Source\PSoC4/capsense.c ****     capsense_SampleClk_Stop();
 139              		.loc 1 323 0
 140 0006 FFF7FEFF 		bl	capsense_SampleClk_Stop
 141              	.LVL16:
 324:.\Generated_Source\PSoC4/capsense.c **** 
 325:.\Generated_Source\PSoC4/capsense.c ****     capsense_SampleClk_SetDividerValue((uint16)capsense_INITIAL_CLK_DIVIDER);
 142              		.loc 1 325 0
 143 000a 0020     		mov	r0, #0
 144 000c 0021     		mov	r1, #0
 145 000e FFF7FEFF 		bl	capsense_SampleClk_SetFractionalDividerRegister
 146              	.LVL17:
 326:.\Generated_Source\PSoC4/capsense.c ****     capsense_SenseClk_SetDividerValue((uint16)capsense_INITIAL_CLK_DIVIDER);
 147              		.loc 1 326 0
 148 0012 0020     		mov	r0, #0
 149 0014 0021     		mov	r1, #0
 150 0016 FFF7FEFF 		bl	capsense_SenseClk_SetFractionalDividerRegister
 151              	.LVL18:
 327:.\Generated_Source\PSoC4/capsense.c **** 
 328:.\Generated_Source\PSoC4/capsense.c ****     #if (0u == capsense_IS_M0S8PERI_BLOCK)
 329:.\Generated_Source\PSoC4/capsense.c ****         capsense_SenseClk_Start();
 330:.\Generated_Source\PSoC4/capsense.c ****         capsense_SampleClk_Start();
 331:.\Generated_Source\PSoC4/capsense.c ****     #else
 332:.\Generated_Source\PSoC4/capsense.c ****         capsense_SampleClk_Start();
 152              		.loc 1 332 0
 153 001a FF20     		mov	r0, #255
 154 001c FFF7FEFF 		bl	capsense_SampleClk_StartEx
 155              	.LVL19:
 333:.\Generated_Source\PSoC4/capsense.c ****         capsense_SenseClk_StartEx(capsense_SampleClk__DIV_ID);
 156              		.loc 1 333 0
 157 0020 4020     		mov	r0, #64
 158 0022 FFF7FEFF 		bl	capsense_SenseClk_StartEx
 159              	.LVL20:
 334:.\Generated_Source\PSoC4/capsense.c ****     #endif /* (0u == capsense_IS_M0S8PERI_BLOCK) */
 335:.\Generated_Source\PSoC4/capsense.c **** 
 336:.\Generated_Source\PSoC4/capsense.c ****     /* Enable the CSD block */
 337:.\Generated_Source\PSoC4/capsense.c ****     newRegValue = capsense_CSD_CFG_REG;
 160              		.loc 1 337 0
 161 0026 044A     		ldr	r2, .L5
 162 0028 1368     		ldr	r3, [r2]
 163              	.LVL21:
 338:.\Generated_Source\PSoC4/capsense.c ****     newRegValue |= (capsense_CSD_CFG_ENABLE | capsense_CSD_CFG_SENSE_COMP_EN
 164              		.loc 1 338 0
 165 002a 0449     		ldr	r1, .L5+4
 166 002c 0B43     		orr	r3, r1
 167              	.LVL22:
 339:.\Generated_Source\PSoC4/capsense.c ****                                                    | capsense_CSD_CFG_SENSE_EN);
 340:.\Generated_Source\PSoC4/capsense.c ****     capsense_CSD_CFG_REG = newRegValue;
 168              		.loc 1 340 0
 169 002e 1360     		str	r3, [r2]
 341:.\Generated_Source\PSoC4/capsense.c **** 
 342:.\Generated_Source\PSoC4/capsense.c ****     /* Enable interrupt */
 343:.\Generated_Source\PSoC4/capsense.c ****     CyIntEnable(capsense_ISR_NUMBER);
 170              		.loc 1 343 0
ARM GAS  C:\Users\Alan\AppData\Local\Temp\ccTIy4ty.s 			page 10


 171 0030 1020     		mov	r0, #16
 172 0032 FFF7FEFF 		bl	CyIntEnable
 173              	.LVL23:
 344:.\Generated_Source\PSoC4/capsense.c **** }
 174              		.loc 1 344 0
 175              		@ sp needed
 176 0036 08BD     		pop	{r3, pc}
 177              	.L6:
 178              		.align	2
 179              	.L5:
 180 0038 04002840 		.word	1076363268
 181 003c 00100880 		.word	-2146955264
 182              		.cfi_endproc
 183              	.LFE37:
 184              		.size	capsense_Enable, .-capsense_Enable
 185              		.section	.text.capsense_Stop,"ax",%progbits
 186              		.align	2
 187              		.global	capsense_Stop
 188              		.code	16
 189              		.thumb_func
 190              		.type	capsense_Stop, %function
 191              	capsense_Stop:
 192              	.LFB39:
 345:.\Generated_Source\PSoC4/capsense.c **** 
 346:.\Generated_Source\PSoC4/capsense.c **** 
 347:.\Generated_Source\PSoC4/capsense.c **** /*******************************************************************************
 348:.\Generated_Source\PSoC4/capsense.c **** * Function Name: capsense_Start
 349:.\Generated_Source\PSoC4/capsense.c **** ********************************************************************************
 350:.\Generated_Source\PSoC4/capsense.c **** *
 351:.\Generated_Source\PSoC4/capsense.c **** * Summary:
 352:.\Generated_Source\PSoC4/capsense.c **** *  This is the preferred method to begin the component operation. CapSense_Start()
 353:.\Generated_Source\PSoC4/capsense.c **** *  calls the CapSense_Init() function, and then calls the CapSense_Enable()
 354:.\Generated_Source\PSoC4/capsense.c **** *  function. Initializes the registers and starts the CSD method of the CapSense
 355:.\Generated_Source\PSoC4/capsense.c **** *  component. Resets all the sensors to an inactive state. Enables interrupts for
 356:.\Generated_Source\PSoC4/capsense.c **** *  sensors scanning. When the SmartSense tuning mode is selected, the tuning procedure
 357:.\Generated_Source\PSoC4/capsense.c **** *  is applied for all the sensors. The CapSense_Start() routine must be called before
 358:.\Generated_Source\PSoC4/capsense.c **** *  any other API routines.
 359:.\Generated_Source\PSoC4/capsense.c **** *
 360:.\Generated_Source\PSoC4/capsense.c **** * Parameters:
 361:.\Generated_Source\PSoC4/capsense.c **** *  None
 362:.\Generated_Source\PSoC4/capsense.c **** *
 363:.\Generated_Source\PSoC4/capsense.c **** * Return:
 364:.\Generated_Source\PSoC4/capsense.c **** *  None
 365:.\Generated_Source\PSoC4/capsense.c **** *
 366:.\Generated_Source\PSoC4/capsense.c **** * Global Variables:
 367:.\Generated_Source\PSoC4/capsense.c **** *   capsense_initVar - used to check the initial configuration,
 368:.\Generated_Source\PSoC4/capsense.c **** *   modified on the first function call.
 369:.\Generated_Source\PSoC4/capsense.c **** *  capsense_lowLevelTuningDone - Used to notify the Tuner GUI that
 370:.\Generated_Source\PSoC4/capsense.c **** *   tuning of the scanning parameters is done.
 371:.\Generated_Source\PSoC4/capsense.c **** *
 372:.\Generated_Source\PSoC4/capsense.c **** * Side Effects:
 373:.\Generated_Source\PSoC4/capsense.c **** *  None
 374:.\Generated_Source\PSoC4/capsense.c **** *
 375:.\Generated_Source\PSoC4/capsense.c **** *******************************************************************************/
 376:.\Generated_Source\PSoC4/capsense.c **** void capsense_Start(void)
 377:.\Generated_Source\PSoC4/capsense.c **** {
 378:.\Generated_Source\PSoC4/capsense.c **** 
ARM GAS  C:\Users\Alan\AppData\Local\Temp\ccTIy4ty.s 			page 11


 379:.\Generated_Source\PSoC4/capsense.c ****     static uint8 capsense_initVar = 0u;
 380:.\Generated_Source\PSoC4/capsense.c **** 
 381:.\Generated_Source\PSoC4/capsense.c ****     #if((0u != capsense_AUTOCALIBRATION_ENABLE) && (capsense_TUNING_METHOD != capsense__TUNING_AUTO
 382:.\Generated_Source\PSoC4/capsense.c ****         uint32 curSensor;
 383:.\Generated_Source\PSoC4/capsense.c ****         uint32 rawLevel;
 384:.\Generated_Source\PSoC4/capsense.c ****         uint32 widget;
 385:.\Generated_Source\PSoC4/capsense.c ****     #endif /* ((0u != capsense_AUTOCALIBRATION_ENABLE) && (capsense_TUNING_METHOD != capsense__TUNI
 386:.\Generated_Source\PSoC4/capsense.c **** 
 387:.\Generated_Source\PSoC4/capsense.c ****     if (capsense_initVar == 0u)
 388:.\Generated_Source\PSoC4/capsense.c ****     {
 389:.\Generated_Source\PSoC4/capsense.c ****         capsense_Init();
 390:.\Generated_Source\PSoC4/capsense.c ****         capsense_initVar = 1u;
 391:.\Generated_Source\PSoC4/capsense.c ****     }
 392:.\Generated_Source\PSoC4/capsense.c ****     capsense_Enable();
 393:.\Generated_Source\PSoC4/capsense.c **** 
 394:.\Generated_Source\PSoC4/capsense.c ****     /* AutoTunning start */
 395:.\Generated_Source\PSoC4/capsense.c ****     #if(capsense_TUNING_METHOD == capsense__TUNING_AUTO)
 396:.\Generated_Source\PSoC4/capsense.c ****         #if(0u != capsense_CSHL_API_GENERATE)
 397:.\Generated_Source\PSoC4/capsense.c ****             capsense_AutoTune();
 398:.\Generated_Source\PSoC4/capsense.c ****             capsense_lowLevelTuningDone = 1u;
 399:.\Generated_Source\PSoC4/capsense.c ****         #endif /* (0u != capsense_CSHL_API_GENERATE) */
 400:.\Generated_Source\PSoC4/capsense.c ****     #else
 401:.\Generated_Source\PSoC4/capsense.c ****         #if(0u != capsense_AUTOCALIBRATION_ENABLE)
 402:.\Generated_Source\PSoC4/capsense.c **** 
 403:.\Generated_Source\PSoC4/capsense.c ****             #if(capsense_IDAC_CNT > 1u)
 404:.\Generated_Source\PSoC4/capsense.c ****                 capsense_CSD_IDAC_REG &= ~(capsense_CSD_IDAC2_MODE_MASK);
 405:.\Generated_Source\PSoC4/capsense.c ****             #endif /* (capsense_IDAC_CNT > 1u) */
 406:.\Generated_Source\PSoC4/capsense.c **** 
 407:.\Generated_Source\PSoC4/capsense.c ****             for(curSensor = 0u; curSensor < capsense_TOTAL_SCANSLOT_COUNT; curSensor++)
 408:.\Generated_Source\PSoC4/capsense.c ****             {
 409:.\Generated_Source\PSoC4/capsense.c ****                 widget = capsense_widgetNumber[curSensor];
 410:.\Generated_Source\PSoC4/capsense.c ****                 rawLevel = capsense_widgetResolution[widget] >> capsense_RESOLUTION_OFFSET;
 411:.\Generated_Source\PSoC4/capsense.c **** 
 412:.\Generated_Source\PSoC4/capsense.c ****                 /* Calibration level should be equal to 85% from scanning resolution */
 413:.\Generated_Source\PSoC4/capsense.c ****                 rawLevel = (rawLevel * 85u) / 100u;
 414:.\Generated_Source\PSoC4/capsense.c **** 
 415:.\Generated_Source\PSoC4/capsense.c ****                 capsense_CalibrateSensor(curSensor, rawLevel, capsense_modulationIDAC);
 416:.\Generated_Source\PSoC4/capsense.c ****             }
 417:.\Generated_Source\PSoC4/capsense.c **** 
 418:.\Generated_Source\PSoC4/capsense.c ****             #if(0u != capsense_TOTAL_CENTROIDS_COUNT)
 419:.\Generated_Source\PSoC4/capsense.c ****                 capsense_NormalizeWidgets(capsense_END_OF_WIDGETS_INDEX, capsense_modulationIDAC);
 420:.\Generated_Source\PSoC4/capsense.c ****             #endif /* (0u != capsense_TOTAL_CENTROIDS_COUNT)  */
 421:.\Generated_Source\PSoC4/capsense.c **** 
 422:.\Generated_Source\PSoC4/capsense.c ****             #if(capsense_IDAC_CNT > 1u)
 423:.\Generated_Source\PSoC4/capsense.c ****                 for(curSensor = 0u; curSensor < capsense_TOTAL_SCANSLOT_COUNT; curSensor++)
 424:.\Generated_Source\PSoC4/capsense.c ****                 {
 425:.\Generated_Source\PSoC4/capsense.c ****                     capsense_compensationIDAC[curSensor] = capsense_modulationIDAC[curSensor] / 2u;
 426:.\Generated_Source\PSoC4/capsense.c ****                     capsense_modulationIDAC[curSensor] = (capsense_modulationIDAC[curSensor] + 1u) 
 427:.\Generated_Source\PSoC4/capsense.c ****                 }
 428:.\Generated_Source\PSoC4/capsense.c ****                 capsense_CSD_IDAC_REG |= capsense_CSD_IDAC2_MODE_FIXED;
 429:.\Generated_Source\PSoC4/capsense.c ****             #endif /* (capsense_IDAC_CNT > 1u) */
 430:.\Generated_Source\PSoC4/capsense.c **** 
 431:.\Generated_Source\PSoC4/capsense.c ****         #endif /* (0u != capsense_AUTOCALIBRATION_ENABLE) */
 432:.\Generated_Source\PSoC4/capsense.c **** 
 433:.\Generated_Source\PSoC4/capsense.c ****     #endif /* ((capsense_TUNING_METHOD == capsense__TUNING_AUTO) */
 434:.\Generated_Source\PSoC4/capsense.c **** 
 435:.\Generated_Source\PSoC4/capsense.c ****     /* Initialize Advanced Centroid */
ARM GAS  C:\Users\Alan\AppData\Local\Temp\ccTIy4ty.s 			page 12


 436:.\Generated_Source\PSoC4/capsense.c ****     #if(capsense_TOTAL_TRACKPAD_GESTURES_COUNT > 0u)
 437:.\Generated_Source\PSoC4/capsense.c ****         capsense_AdvancedCentroidInit();
 438:.\Generated_Source\PSoC4/capsense.c ****     #endif /* (capsense_TOTAL_TRACKPAD_GESTURES_COUNT > 0u) */
 439:.\Generated_Source\PSoC4/capsense.c **** 
 440:.\Generated_Source\PSoC4/capsense.c ****     /* Connect sense comparator input to AMUXA */
 441:.\Generated_Source\PSoC4/capsense.c ****     capsense_CSD_CFG_REG |= capsense_CSD_CFG_SENSE_INSEL;
 442:.\Generated_Source\PSoC4/capsense.c **** }
 443:.\Generated_Source\PSoC4/capsense.c **** 
 444:.\Generated_Source\PSoC4/capsense.c **** 
 445:.\Generated_Source\PSoC4/capsense.c **** /*******************************************************************************
 446:.\Generated_Source\PSoC4/capsense.c **** * Function Name: capsense_Stop
 447:.\Generated_Source\PSoC4/capsense.c **** ********************************************************************************
 448:.\Generated_Source\PSoC4/capsense.c **** *
 449:.\Generated_Source\PSoC4/capsense.c **** * Summary:
 450:.\Generated_Source\PSoC4/capsense.c **** *  Stops the sensor scanning, disables component interrupts, and resets all the
 451:.\Generated_Source\PSoC4/capsense.c **** *  sensors to an inactive state. Disables the Active mode power template bits for
 452:.\Generated_Source\PSoC4/capsense.c **** *  the subcomponents used within CapSense.
 453:.\Generated_Source\PSoC4/capsense.c **** *
 454:.\Generated_Source\PSoC4/capsense.c **** * Parameters:
 455:.\Generated_Source\PSoC4/capsense.c **** *  None
 456:.\Generated_Source\PSoC4/capsense.c **** *
 457:.\Generated_Source\PSoC4/capsense.c **** * Return:
 458:.\Generated_Source\PSoC4/capsense.c **** *  None
 459:.\Generated_Source\PSoC4/capsense.c **** *
 460:.\Generated_Source\PSoC4/capsense.c **** * Global Variables:
 461:.\Generated_Source\PSoC4/capsense.c **** *  capsense_csdTrim1 - Contains the IDAC trim register value for the Sourcing Mode.
 462:.\Generated_Source\PSoC4/capsense.c **** *  capsense_csdTrim2 - Contains the IDAC trim register value for vSinking Mode.
 463:.\Generated_Source\PSoC4/capsense.c **** *
 464:.\Generated_Source\PSoC4/capsense.c **** * Side Effects:
 465:.\Generated_Source\PSoC4/capsense.c **** *  This function should be called after scans are completed.
 466:.\Generated_Source\PSoC4/capsense.c **** *
 467:.\Generated_Source\PSoC4/capsense.c **** *******************************************************************************/
 468:.\Generated_Source\PSoC4/capsense.c **** void capsense_Stop(void)
 469:.\Generated_Source\PSoC4/capsense.c **** {
 193              		.loc 1 469 0
 194              		.cfi_startproc
 195 0000 08B5     		push	{r3, lr}
 196              		.cfi_def_cfa_offset 8
 197              		.cfi_offset 3, -8
 198              		.cfi_offset 14, -4
 470:.\Generated_Source\PSoC4/capsense.c ****     /* Disable interrupt */
 471:.\Generated_Source\PSoC4/capsense.c ****     CyIntDisable(capsense_ISR_NUMBER);
 199              		.loc 1 471 0
 200 0002 1020     		mov	r0, #16
 201 0004 FFF7FEFF 		bl	CyIntDisable
 202              	.LVL24:
 472:.\Generated_Source\PSoC4/capsense.c **** 
 473:.\Generated_Source\PSoC4/capsense.c ****     capsense_CSD_CFG_REG &= ~(capsense_CSD_CFG_SENSE_COMP_EN | capsense_CSD_CFG_SENSE_EN);
 203              		.loc 1 473 0
 204 0008 064A     		ldr	r2, .L8
 205 000a 1168     		ldr	r1, [r2]
 206 000c 064B     		ldr	r3, .L8+4
 207 000e 0B40     		and	r3, r1
 208 0010 1360     		str	r3, [r2]
 474:.\Generated_Source\PSoC4/capsense.c **** 
 475:.\Generated_Source\PSoC4/capsense.c ****     #if(capsense_IDAC_CNT == 2u)
 476:.\Generated_Source\PSoC4/capsense.c ****         capsense_CSD_CFG_REG &= ~(capsense_CSD_CFG_ENABLE);
ARM GAS  C:\Users\Alan\AppData\Local\Temp\ccTIy4ty.s 			page 13


 209              		.loc 1 476 0
 210 0012 1368     		ldr	r3, [r2]
 211 0014 5B00     		lsl	r3, r3, #1
 212 0016 5B08     		lsr	r3, r3, #1
 213 0018 1360     		str	r3, [r2]
 477:.\Generated_Source\PSoC4/capsense.c ****     #endif /* (capsense_IDAC_CNT == 2u) */
 478:.\Generated_Source\PSoC4/capsense.c **** 
 479:.\Generated_Source\PSoC4/capsense.c ****     /* Disable the Clocks */
 480:.\Generated_Source\PSoC4/capsense.c ****     capsense_SenseClk_Stop();
 214              		.loc 1 480 0
 215 001a FFF7FEFF 		bl	capsense_SenseClk_Stop
 216              	.LVL25:
 481:.\Generated_Source\PSoC4/capsense.c ****     capsense_SampleClk_Stop();
 217              		.loc 1 481 0
 218 001e FFF7FEFF 		bl	capsense_SampleClk_Stop
 219              	.LVL26:
 482:.\Generated_Source\PSoC4/capsense.c **** }
 220              		.loc 1 482 0
 221              		@ sp needed
 222 0022 08BD     		pop	{r3, pc}
 223              	.L9:
 224              		.align	2
 225              	.L8:
 226 0024 04002840 		.word	1076363268
 227 0028 FFEFF7FF 		.word	-528385
 228              		.cfi_endproc
 229              	.LFE39:
 230              		.size	capsense_Stop, .-capsense_Stop
 231              		.section	.text.capsense_IsBusy,"ax",%progbits
 232              		.align	2
 233              		.global	capsense_IsBusy
 234              		.code	16
 235              		.thumb_func
 236              		.type	capsense_IsBusy, %function
 237              	capsense_IsBusy:
 238              	.LFB44:
 483:.\Generated_Source\PSoC4/capsense.c **** 
 484:.\Generated_Source\PSoC4/capsense.c **** 
 485:.\Generated_Source\PSoC4/capsense.c **** /*******************************************************************************
 486:.\Generated_Source\PSoC4/capsense.c **** * Function Name: capsense_FindNextSensor
 487:.\Generated_Source\PSoC4/capsense.c **** ********************************************************************************
 488:.\Generated_Source\PSoC4/capsense.c **** *
 489:.\Generated_Source\PSoC4/capsense.c **** * Summary:
 490:.\Generated_Source\PSoC4/capsense.c **** *  Finds the next sensor to scan.
 491:.\Generated_Source\PSoC4/capsense.c **** *
 492:.\Generated_Source\PSoC4/capsense.c **** * Parameters:
 493:.\Generated_Source\PSoC4/capsense.c **** *  snsIndex:  Current index of sensor.
 494:.\Generated_Source\PSoC4/capsense.c **** *
 495:.\Generated_Source\PSoC4/capsense.c **** * Return:
 496:.\Generated_Source\PSoC4/capsense.c **** *  Returns the next sensor index to scan.
 497:.\Generated_Source\PSoC4/capsense.c **** *
 498:.\Generated_Source\PSoC4/capsense.c **** * Global Variables:
 499:.\Generated_Source\PSoC4/capsense.c **** *  capsense_sensorEnableMask[] - used to store bit masks of the enabled sensors.
 500:.\Generated_Source\PSoC4/capsense.c **** *
 501:.\Generated_Source\PSoC4/capsense.c **** * Side Effects:
 502:.\Generated_Source\PSoC4/capsense.c **** *  This function affects the  current scanning and should not
 503:.\Generated_Source\PSoC4/capsense.c **** *  be used outside the component.
ARM GAS  C:\Users\Alan\AppData\Local\Temp\ccTIy4ty.s 			page 14


 504:.\Generated_Source\PSoC4/capsense.c **** *
 505:.\Generated_Source\PSoC4/capsense.c **** *******************************************************************************/
 506:.\Generated_Source\PSoC4/capsense.c **** uint8 capsense_FindNextSensor(uint8 snsIndex)
 507:.\Generated_Source\PSoC4/capsense.c **** {
 508:.\Generated_Source\PSoC4/capsense.c ****     uint32 enableFlag;
 509:.\Generated_Source\PSoC4/capsense.c **** 
 510:.\Generated_Source\PSoC4/capsense.c ****     /* Check if sensor enabled */
 511:.\Generated_Source\PSoC4/capsense.c ****     do
 512:.\Generated_Source\PSoC4/capsense.c ****     {
 513:.\Generated_Source\PSoC4/capsense.c ****         /* Proceed with next sensor */
 514:.\Generated_Source\PSoC4/capsense.c ****         snsIndex++;
 515:.\Generated_Source\PSoC4/capsense.c ****         if(snsIndex == capsense_TOTAL_SENSOR_COUNT)
 516:.\Generated_Source\PSoC4/capsense.c ****         {
 517:.\Generated_Source\PSoC4/capsense.c ****             break;
 518:.\Generated_Source\PSoC4/capsense.c ****         }
 519:.\Generated_Source\PSoC4/capsense.c ****         enableFlag = capsense_GetBitValue(capsense_sensorEnableMask, (uint32)snsIndex);
 520:.\Generated_Source\PSoC4/capsense.c ****     }
 521:.\Generated_Source\PSoC4/capsense.c ****     while(enableFlag == 0u);
 522:.\Generated_Source\PSoC4/capsense.c **** 
 523:.\Generated_Source\PSoC4/capsense.c ****     return ((uint8)snsIndex);
 524:.\Generated_Source\PSoC4/capsense.c **** }
 525:.\Generated_Source\PSoC4/capsense.c **** 
 526:.\Generated_Source\PSoC4/capsense.c **** 
 527:.\Generated_Source\PSoC4/capsense.c **** /*******************************************************************************
 528:.\Generated_Source\PSoC4/capsense.c **** * Function Name: capsense_ScanSensor
 529:.\Generated_Source\PSoC4/capsense.c **** ********************************************************************************
 530:.\Generated_Source\PSoC4/capsense.c **** *
 531:.\Generated_Source\PSoC4/capsense.c **** * Summary:
 532:.\Generated_Source\PSoC4/capsense.c **** *  Sets the scan settings and starts scanning a sensor. After scanning is complete,
 533:.\Generated_Source\PSoC4/capsense.c **** *  the ISR copies the measured sensor raw data to the global raw sensor array.
 534:.\Generated_Source\PSoC4/capsense.c **** *  Use of the ISR ensures this function is non-blocking.
 535:.\Generated_Source\PSoC4/capsense.c **** *  Each sensor has a unique number within the sensor array.
 536:.\Generated_Source\PSoC4/capsense.c **** *  This number is assigned by the CapSense customizer in sequence.
 537:.\Generated_Source\PSoC4/capsense.c **** *
 538:.\Generated_Source\PSoC4/capsense.c **** * Parameters:
 539:.\Generated_Source\PSoC4/capsense.c **** *  sensor:  Sensor number.
 540:.\Generated_Source\PSoC4/capsense.c **** *
 541:.\Generated_Source\PSoC4/capsense.c **** * Return:
 542:.\Generated_Source\PSoC4/capsense.c **** *  None
 543:.\Generated_Source\PSoC4/capsense.c **** *
 544:.\Generated_Source\PSoC4/capsense.c **** * Global Variables:
 545:.\Generated_Source\PSoC4/capsense.c **** *  capsense_csdStatusVar - used to provide the status and mode of the scanning process.
 546:.\Generated_Source\PSoC4/capsense.c **** *  Sets the busy status(scan in progress) and mode of scan as single scan.
 547:.\Generated_Source\PSoC4/capsense.c **** *  capsense_sensorIndex - used to store a sensor scanning sensor number.
 548:.\Generated_Source\PSoC4/capsense.c **** *  Sets to the provided sensor argument.
 549:.\Generated_Source\PSoC4/capsense.c **** *
 550:.\Generated_Source\PSoC4/capsense.c **** * Side Effects:
 551:.\Generated_Source\PSoC4/capsense.c **** *  None
 552:.\Generated_Source\PSoC4/capsense.c **** *
 553:.\Generated_Source\PSoC4/capsense.c **** *******************************************************************************/
 554:.\Generated_Source\PSoC4/capsense.c **** void capsense_ScanSensor(uint32 sensor)
 555:.\Generated_Source\PSoC4/capsense.c **** {
 556:.\Generated_Source\PSoC4/capsense.c ****     /* Clears status/control variable and set sensorIndex */
 557:.\Generated_Source\PSoC4/capsense.c ****     capsense_csdStatusVar = 0u;
 558:.\Generated_Source\PSoC4/capsense.c ****     capsense_sensorIndex = (uint8)sensor;
 559:.\Generated_Source\PSoC4/capsense.c **** 
 560:.\Generated_Source\PSoC4/capsense.c ****     /* Start of sensor scan */
ARM GAS  C:\Users\Alan\AppData\Local\Temp\ccTIy4ty.s 			page 15


 561:.\Generated_Source\PSoC4/capsense.c ****     capsense_csdStatusVar = (capsense_SW_STS_BUSY | capsense_SW_CTRL_SINGLE_SCAN);
 562:.\Generated_Source\PSoC4/capsense.c ****     capsense_PreScan(sensor);
 563:.\Generated_Source\PSoC4/capsense.c **** }
 564:.\Generated_Source\PSoC4/capsense.c **** 
 565:.\Generated_Source\PSoC4/capsense.c **** 
 566:.\Generated_Source\PSoC4/capsense.c **** #if(0u != capsense_CSHL_API_GENERATE)
 567:.\Generated_Source\PSoC4/capsense.c **** /*******************************************************************************
 568:.\Generated_Source\PSoC4/capsense.c **** * Function Name: capsense_ScanWidget
 569:.\Generated_Source\PSoC4/capsense.c **** ********************************************************************************
 570:.\Generated_Source\PSoC4/capsense.c **** *
 571:.\Generated_Source\PSoC4/capsense.c **** * Summary:
 572:.\Generated_Source\PSoC4/capsense.c **** *  Sets the scan settings and starts scanning a widget.
 573:.\Generated_Source\PSoC4/capsense.c **** *
 574:.\Generated_Source\PSoC4/capsense.c **** * Parameters:
 575:.\Generated_Source\PSoC4/capsense.c **** *  uint32 widget: Widget number.
 576:.\Generated_Source\PSoC4/capsense.c **** *
 577:.\Generated_Source\PSoC4/capsense.c **** * Return:
 578:.\Generated_Source\PSoC4/capsense.c **** *  None
 579:.\Generated_Source\PSoC4/capsense.c **** *
 580:.\Generated_Source\PSoC4/capsense.c **** * Global Variables:
 581:.\Generated_Source\PSoC4/capsense.c **** *  capsense_csdStatusVar - used to provide the status and mode of the scanning process.
 582:.\Generated_Source\PSoC4/capsense.c **** *  Sets the busy status(scan in progress) and clears the single scan mode.
 583:.\Generated_Source\PSoC4/capsense.c **** *  capsense_sensorIndex - used to store a sensor scanning sensor number.
 584:.\Generated_Source\PSoC4/capsense.c **** *  Sets to 0xFF and provided to function capsense_FindNextSensor or
 585:.\Generated_Source\PSoC4/capsense.c **** *  capsense_sensorEnableMask[] - used to store bit masks of the enabled sensors.
 586:.\Generated_Source\PSoC4/capsense.c **** *  capsense_sensorEnableMaskBackup[] - used to backup bit masks of the enabled
 587:.\Generated_Source\PSoC4/capsense.c **** *   sensors.
 588:.\Generated_Source\PSoC4/capsense.c **** *
 589:.\Generated_Source\PSoC4/capsense.c **** * Side Effects:
 590:.\Generated_Source\PSoC4/capsense.c **** *  None
 591:.\Generated_Source\PSoC4/capsense.c **** *
 592:.\Generated_Source\PSoC4/capsense.c **** *******************************************************************************/
 593:.\Generated_Source\PSoC4/capsense.c **** void capsense_ScanWidget(uint32 widget)
 594:.\Generated_Source\PSoC4/capsense.c **** {
 595:.\Generated_Source\PSoC4/capsense.c ****     uint32 sensorsPerWidget;
 596:.\Generated_Source\PSoC4/capsense.c ****     uint32 lastSensor;
 597:.\Generated_Source\PSoC4/capsense.c ****     uint32 snsIndex;
 598:.\Generated_Source\PSoC4/capsense.c **** 
 599:.\Generated_Source\PSoC4/capsense.c ****     /* Get first sensor in widget */
 600:.\Generated_Source\PSoC4/capsense.c ****     capsense_sensorIndex = capsense_rawDataIndex[widget];
 601:.\Generated_Source\PSoC4/capsense.c **** 
 602:.\Generated_Source\PSoC4/capsense.c ****     /* Get number of sensors in widget */
 603:.\Generated_Source\PSoC4/capsense.c ****     sensorsPerWidget = capsense_numberOfSensors[widget];
 604:.\Generated_Source\PSoC4/capsense.c **** 
 605:.\Generated_Source\PSoC4/capsense.c ****     /* Check if generic Sensor */
 606:.\Generated_Source\PSoC4/capsense.c ****     if(sensorsPerWidget == 0u)
 607:.\Generated_Source\PSoC4/capsense.c ****     {
 608:.\Generated_Source\PSoC4/capsense.c ****         sensorsPerWidget = 1u;
 609:.\Generated_Source\PSoC4/capsense.c ****     }
 610:.\Generated_Source\PSoC4/capsense.c **** 
 611:.\Generated_Source\PSoC4/capsense.c ****     /* Get last sensor in widget */
 612:.\Generated_Source\PSoC4/capsense.c ****     lastSensor = (capsense_rawDataIndex[widget] + sensorsPerWidget) - 1u;
 613:.\Generated_Source\PSoC4/capsense.c **** 
 614:.\Generated_Source\PSoC4/capsense.c ****     /* Backup sensorEnableMask array */
 615:.\Generated_Source\PSoC4/capsense.c ****     for(snsIndex = 0u; snsIndex < capsense_TOTAL_SENSOR_MASK; snsIndex++)
 616:.\Generated_Source\PSoC4/capsense.c ****     {
 617:.\Generated_Source\PSoC4/capsense.c ****         /* Backup sensorEnableMask array */
ARM GAS  C:\Users\Alan\AppData\Local\Temp\ccTIy4ty.s 			page 16


 618:.\Generated_Source\PSoC4/capsense.c ****         capsense_sensorEnableMaskBackup[snsIndex] = capsense_sensorEnableMask[snsIndex];
 619:.\Generated_Source\PSoC4/capsense.c ****     }
 620:.\Generated_Source\PSoC4/capsense.c **** 
 621:.\Generated_Source\PSoC4/capsense.c ****     /* Update sensorEnableMask to scan the sensors that belong to widget */
 622:.\Generated_Source\PSoC4/capsense.c ****     for(snsIndex = 0u; snsIndex < capsense_TOTAL_SENSOR_COUNT; snsIndex++)
 623:.\Generated_Source\PSoC4/capsense.c ****     {
 624:.\Generated_Source\PSoC4/capsense.c ****         /* Update sensorEnableMask array bits to scan the widget only */
 625:.\Generated_Source\PSoC4/capsense.c ****         if((snsIndex >= capsense_sensorIndex) && (snsIndex <= lastSensor))
 626:.\Generated_Source\PSoC4/capsense.c ****         {
 627:.\Generated_Source\PSoC4/capsense.c ****             /* Set sensor bit to scan */
 628:.\Generated_Source\PSoC4/capsense.c ****             capsense_SetBitValue(capsense_sensorEnableMask, snsIndex, 1u);
 629:.\Generated_Source\PSoC4/capsense.c ****         }
 630:.\Generated_Source\PSoC4/capsense.c ****         else
 631:.\Generated_Source\PSoC4/capsense.c ****         {
 632:.\Generated_Source\PSoC4/capsense.c ****             /* Reset sensor bit to do not scan */
 633:.\Generated_Source\PSoC4/capsense.c ****             capsense_SetBitValue(capsense_sensorEnableMask, snsIndex, 0u);
 634:.\Generated_Source\PSoC4/capsense.c ****         }
 635:.\Generated_Source\PSoC4/capsense.c ****     }
 636:.\Generated_Source\PSoC4/capsense.c **** 
 637:.\Generated_Source\PSoC4/capsense.c ****     /* Check end of scan condition */
 638:.\Generated_Source\PSoC4/capsense.c ****     if(capsense_sensorIndex < capsense_TOTAL_SENSOR_COUNT)
 639:.\Generated_Source\PSoC4/capsense.c ****     {
 640:.\Generated_Source\PSoC4/capsense.c ****         /* Set widget busy bit in status/control variable*/
 641:.\Generated_Source\PSoC4/capsense.c ****         capsense_csdStatusVar = (capsense_SW_STS_BUSY | capsense_SW_CTRL_WIDGET_SCAN);
 642:.\Generated_Source\PSoC4/capsense.c ****         /* Scan first sensor of widget*/
 643:.\Generated_Source\PSoC4/capsense.c ****         capsense_PreScan((uint32)capsense_sensorIndex);
 644:.\Generated_Source\PSoC4/capsense.c ****     }
 645:.\Generated_Source\PSoC4/capsense.c **** }
 646:.\Generated_Source\PSoC4/capsense.c **** #endif /* (0u != capsense_CSHL_API_GENERATE) */
 647:.\Generated_Source\PSoC4/capsense.c **** 
 648:.\Generated_Source\PSoC4/capsense.c **** 
 649:.\Generated_Source\PSoC4/capsense.c **** /*******************************************************************************
 650:.\Generated_Source\PSoC4/capsense.c **** * Function Name: capsense_ScanEnableWidgets
 651:.\Generated_Source\PSoC4/capsense.c **** ********************************************************************************
 652:.\Generated_Source\PSoC4/capsense.c **** *
 653:.\Generated_Source\PSoC4/capsense.c **** * Summary:
 654:.\Generated_Source\PSoC4/capsense.c **** *  This is the preferred method to scan all of the enabled widgets.
 655:.\Generated_Source\PSoC4/capsense.c **** *  The API starts scanning a sensor within the enabled widgets.
 656:.\Generated_Source\PSoC4/capsense.c **** *  The ISR continues scanning the sensors until all the enabled widgets are scanned.
 657:.\Generated_Source\PSoC4/capsense.c **** *  Use of the ISR ensures this function is non-blocking.
 658:.\Generated_Source\PSoC4/capsense.c **** *  All the widgets are enabled by default except proximity widgets.
 659:.\Generated_Source\PSoC4/capsense.c **** *  The proximity widgets must be manually enabled as their long scan time
 660:.\Generated_Source\PSoC4/capsense.c **** *  is incompatible with a fast response required of other widget types.
 661:.\Generated_Source\PSoC4/capsense.c **** *
 662:.\Generated_Source\PSoC4/capsense.c **** * Parameters:
 663:.\Generated_Source\PSoC4/capsense.c **** *  None
 664:.\Generated_Source\PSoC4/capsense.c **** *
 665:.\Generated_Source\PSoC4/capsense.c **** * Return:
 666:.\Generated_Source\PSoC4/capsense.c **** *  None
 667:.\Generated_Source\PSoC4/capsense.c **** *
 668:.\Generated_Source\PSoC4/capsense.c **** * Global Variables:
 669:.\Generated_Source\PSoC4/capsense.c **** *  capsense_csdStatusVar - used to provide the status and mode of the scanning process.
 670:.\Generated_Source\PSoC4/capsense.c **** *  Sets the busy status(scan in progress) and clears the single scan mode.
 671:.\Generated_Source\PSoC4/capsense.c **** *  capsense_sensorIndex - used to store a sensor scanning sensor number.
 672:.\Generated_Source\PSoC4/capsense.c **** *  Sets to 0xFF and provided to function capsense_FindNextSensor or
 673:.\Generated_Source\PSoC4/capsense.c **** *
 674:.\Generated_Source\PSoC4/capsense.c **** * Side Effects:
ARM GAS  C:\Users\Alan\AppData\Local\Temp\ccTIy4ty.s 			page 17


 675:.\Generated_Source\PSoC4/capsense.c **** *  None
 676:.\Generated_Source\PSoC4/capsense.c **** *
 677:.\Generated_Source\PSoC4/capsense.c **** *******************************************************************************/
 678:.\Generated_Source\PSoC4/capsense.c **** void capsense_ScanEnabledWidgets(void)
 679:.\Generated_Source\PSoC4/capsense.c **** {
 680:.\Generated_Source\PSoC4/capsense.c ****     /* Clears status/control variable and set sensorIndex */
 681:.\Generated_Source\PSoC4/capsense.c ****     capsense_csdStatusVar = 0u;
 682:.\Generated_Source\PSoC4/capsense.c ****     capsense_sensorIndex = 0xFFu;
 683:.\Generated_Source\PSoC4/capsense.c **** 
 684:.\Generated_Source\PSoC4/capsense.c ****     /* Find next sensor */
 685:.\Generated_Source\PSoC4/capsense.c ****     capsense_sensorIndex = (uint8)capsense_FindNextSensor(capsense_sensorIndex);
 686:.\Generated_Source\PSoC4/capsense.c **** 
 687:.\Generated_Source\PSoC4/capsense.c ****     /* Check end of scan condition */
 688:.\Generated_Source\PSoC4/capsense.c ****     if(capsense_sensorIndex < capsense_TOTAL_SENSOR_COUNT)
 689:.\Generated_Source\PSoC4/capsense.c ****     {
 690:.\Generated_Source\PSoC4/capsense.c ****         capsense_csdStatusVar |= capsense_SW_STS_BUSY;
 691:.\Generated_Source\PSoC4/capsense.c ****         capsense_PreScan((uint32)capsense_sensorIndex);
 692:.\Generated_Source\PSoC4/capsense.c ****     }
 693:.\Generated_Source\PSoC4/capsense.c **** }
 694:.\Generated_Source\PSoC4/capsense.c **** 
 695:.\Generated_Source\PSoC4/capsense.c **** 
 696:.\Generated_Source\PSoC4/capsense.c **** /*******************************************************************************
 697:.\Generated_Source\PSoC4/capsense.c **** * Function Name: capsense_IsBusy
 698:.\Generated_Source\PSoC4/capsense.c **** ********************************************************************************
 699:.\Generated_Source\PSoC4/capsense.c **** *
 700:.\Generated_Source\PSoC4/capsense.c **** * Summary:
 701:.\Generated_Source\PSoC4/capsense.c **** *  Returns the state of the CapSense component. 1 means that scanning in
 702:.\Generated_Source\PSoC4/capsense.c **** *  progress and 0 means that scanning is complete.
 703:.\Generated_Source\PSoC4/capsense.c **** *
 704:.\Generated_Source\PSoC4/capsense.c **** * Parameters:
 705:.\Generated_Source\PSoC4/capsense.c **** *  None
 706:.\Generated_Source\PSoC4/capsense.c **** *
 707:.\Generated_Source\PSoC4/capsense.c **** * Return:
 708:.\Generated_Source\PSoC4/capsense.c **** *  Returns the state of scanning. 1 - scanning in progress, 0 - scanning
 709:.\Generated_Source\PSoC4/capsense.c **** *  completed.
 710:.\Generated_Source\PSoC4/capsense.c **** *
 711:.\Generated_Source\PSoC4/capsense.c **** * Global Variables:
 712:.\Generated_Source\PSoC4/capsense.c **** *  capsense_csdStatusVar - used to provide the status and mode of the scanning process.
 713:.\Generated_Source\PSoC4/capsense.c **** *  Checks the busy status.
 714:.\Generated_Source\PSoC4/capsense.c **** *
 715:.\Generated_Source\PSoC4/capsense.c **** * Side Effects:
 716:.\Generated_Source\PSoC4/capsense.c **** *  None
 717:.\Generated_Source\PSoC4/capsense.c **** *
 718:.\Generated_Source\PSoC4/capsense.c **** *******************************************************************************/
 719:.\Generated_Source\PSoC4/capsense.c **** uint32 capsense_IsBusy(void)
 720:.\Generated_Source\PSoC4/capsense.c **** {
 239              		.loc 1 720 0
 240              		.cfi_startproc
 721:.\Generated_Source\PSoC4/capsense.c ****     return ((uint32)((0u != (capsense_csdStatusVar & capsense_SW_STS_BUSY)) ? 1u : 0u));
 241              		.loc 1 721 0
 242 0000 024B     		ldr	r3, .L11
 243 0002 1878     		ldrb	r0, [r3]
 244 0004 0123     		mov	r3, #1
 245 0006 1840     		and	r0, r3
 722:.\Generated_Source\PSoC4/capsense.c **** }
 246              		.loc 1 722 0
 247              		@ sp needed
ARM GAS  C:\Users\Alan\AppData\Local\Temp\ccTIy4ty.s 			page 18


 248 0008 7047     		bx	lr
 249              	.L12:
 250 000a C046     		.align	2
 251              	.L11:
 252 000c 00000000 		.word	.LANCHOR0
 253              		.cfi_endproc
 254              	.LFE44:
 255              		.size	capsense_IsBusy, .-capsense_IsBusy
 256              		.section	.text.capsense_ReadSensorRaw,"ax",%progbits
 257              		.align	2
 258              		.global	capsense_ReadSensorRaw
 259              		.code	16
 260              		.thumb_func
 261              		.type	capsense_ReadSensorRaw, %function
 262              	capsense_ReadSensorRaw:
 263              	.LFB45:
 723:.\Generated_Source\PSoC4/capsense.c **** 
 724:.\Generated_Source\PSoC4/capsense.c **** 
 725:.\Generated_Source\PSoC4/capsense.c **** /*******************************************************************************
 726:.\Generated_Source\PSoC4/capsense.c **** * Function Name: capsense_ReadSensorRaw
 727:.\Generated_Source\PSoC4/capsense.c **** ********************************************************************************
 728:.\Generated_Source\PSoC4/capsense.c **** *
 729:.\Generated_Source\PSoC4/capsense.c **** * Summary:
 730:.\Generated_Source\PSoC4/capsense.c **** *  Returns sensor raw data from the global CapSense_sensorRaw[ ] array.
 731:.\Generated_Source\PSoC4/capsense.c **** *  Each scan sensor has a unique number within the sensor array.
 732:.\Generated_Source\PSoC4/capsense.c **** *  This number is assigned by the CapSense customizer in sequence.
 733:.\Generated_Source\PSoC4/capsense.c **** *  Raw data can be used to perform calculations outside of the CapSense
 734:.\Generated_Source\PSoC4/capsense.c **** *  provided framework.
 735:.\Generated_Source\PSoC4/capsense.c **** *
 736:.\Generated_Source\PSoC4/capsense.c **** * Parameters:
 737:.\Generated_Source\PSoC4/capsense.c **** *  sensor:  Sensor number.
 738:.\Generated_Source\PSoC4/capsense.c **** *
 739:.\Generated_Source\PSoC4/capsense.c **** * Return:
 740:.\Generated_Source\PSoC4/capsense.c **** *  Returns the current raw data value for a defined sensor number.
 741:.\Generated_Source\PSoC4/capsense.c **** *
 742:.\Generated_Source\PSoC4/capsense.c **** * Global Variables:
 743:.\Generated_Source\PSoC4/capsense.c **** *  capsense_sensorRaw[] - used to store sensors raw data.
 744:.\Generated_Source\PSoC4/capsense.c **** *
 745:.\Generated_Source\PSoC4/capsense.c **** * Side Effects:
 746:.\Generated_Source\PSoC4/capsense.c **** *  None
 747:.\Generated_Source\PSoC4/capsense.c **** *
 748:.\Generated_Source\PSoC4/capsense.c **** *******************************************************************************/
 749:.\Generated_Source\PSoC4/capsense.c **** uint16 capsense_ReadSensorRaw(uint32 sensor)
 750:.\Generated_Source\PSoC4/capsense.c **** {
 264              		.loc 1 750 0
 265              		.cfi_startproc
 266              	.LVL27:
 751:.\Generated_Source\PSoC4/capsense.c ****     return capsense_sensorRaw[sensor];
 267              		.loc 1 751 0
 268 0000 4000     		lsl	r0, r0, #1
 269              	.LVL28:
 270 0002 024B     		ldr	r3, .L14
 271 0004 1818     		add	r0, r3, r0
 272 0006 8088     		ldrh	r0, [r0, #4]
 752:.\Generated_Source\PSoC4/capsense.c **** }
 273              		.loc 1 752 0
 274              		@ sp needed
ARM GAS  C:\Users\Alan\AppData\Local\Temp\ccTIy4ty.s 			page 19


 275 0008 7047     		bx	lr
 276              	.L15:
 277 000a C046     		.align	2
 278              	.L14:
 279 000c 00000000 		.word	.LANCHOR0
 280              		.cfi_endproc
 281              	.LFE45:
 282              		.size	capsense_ReadSensorRaw, .-capsense_ReadSensorRaw
 283              		.section	.text.capsense_WriteSensorRaw,"ax",%progbits
 284              		.align	2
 285              		.global	capsense_WriteSensorRaw
 286              		.code	16
 287              		.thumb_func
 288              		.type	capsense_WriteSensorRaw, %function
 289              	capsense_WriteSensorRaw:
 290              	.LFB46:
 753:.\Generated_Source\PSoC4/capsense.c **** 
 754:.\Generated_Source\PSoC4/capsense.c **** 
 755:.\Generated_Source\PSoC4/capsense.c **** /*******************************************************************************
 756:.\Generated_Source\PSoC4/capsense.c **** * Function Name: capsense_WriteSensorRaw
 757:.\Generated_Source\PSoC4/capsense.c **** ********************************************************************************
 758:.\Generated_Source\PSoC4/capsense.c **** *
 759:.\Generated_Source\PSoC4/capsense.c **** * Summary:
 760:.\Generated_Source\PSoC4/capsense.c **** *  This API writes the raw count value passed as an argument to the sensor Raw count array.
 761:.\Generated_Source\PSoC4/capsense.c **** *
 762:.\Generated_Source\PSoC4/capsense.c **** * Parameters:
 763:.\Generated_Source\PSoC4/capsense.c **** *  sensor:  Sensor number.
 764:.\Generated_Source\PSoC4/capsense.c **** *  value: Raw count value.
 765:.\Generated_Source\PSoC4/capsense.c **** *
 766:.\Generated_Source\PSoC4/capsense.c **** * Global Variables:
 767:.\Generated_Source\PSoC4/capsense.c **** *  capsense_sensorRaw[] - used to store sensors raw data.
 768:.\Generated_Source\PSoC4/capsense.c **** *
 769:.\Generated_Source\PSoC4/capsense.c **** * Return:
 770:.\Generated_Source\PSoC4/capsense.c **** *  None
 771:.\Generated_Source\PSoC4/capsense.c **** *
 772:.\Generated_Source\PSoC4/capsense.c **** * Side Effects:
 773:.\Generated_Source\PSoC4/capsense.c **** *  None
 774:.\Generated_Source\PSoC4/capsense.c **** *
 775:.\Generated_Source\PSoC4/capsense.c **** *******************************************************************************/
 776:.\Generated_Source\PSoC4/capsense.c **** void capsense_WriteSensorRaw(uint32 sensor, uint16 value)
 777:.\Generated_Source\PSoC4/capsense.c **** {
 291              		.loc 1 777 0
 292              		.cfi_startproc
 293              	.LVL29:
 778:.\Generated_Source\PSoC4/capsense.c ****     capsense_sensorRaw[sensor] = value;
 294              		.loc 1 778 0
 295 0000 4000     		lsl	r0, r0, #1
 296              	.LVL30:
 297 0002 024B     		ldr	r3, .L17
 298 0004 1818     		add	r0, r3, r0
 299 0006 8180     		strh	r1, [r0, #4]
 779:.\Generated_Source\PSoC4/capsense.c **** }
 300              		.loc 1 779 0
 301              		@ sp needed
 302 0008 7047     		bx	lr
 303              	.L18:
 304 000a C046     		.align	2
ARM GAS  C:\Users\Alan\AppData\Local\Temp\ccTIy4ty.s 			page 20


 305              	.L17:
 306 000c 00000000 		.word	.LANCHOR0
 307              		.cfi_endproc
 308              	.LFE46:
 309              		.size	capsense_WriteSensorRaw, .-capsense_WriteSensorRaw
 310              		.section	.text.capsense_SetScanResolution,"ax",%progbits
 311              		.align	2
 312              		.global	capsense_SetScanResolution
 313              		.code	16
 314              		.thumb_func
 315              		.type	capsense_SetScanResolution, %function
 316              	capsense_SetScanResolution:
 317              	.LFB47:
 780:.\Generated_Source\PSoC4/capsense.c **** 
 781:.\Generated_Source\PSoC4/capsense.c **** 
 782:.\Generated_Source\PSoC4/capsense.c **** #if (capsense_TUNING_METHOD != capsense__TUNING_NONE)
 783:.\Generated_Source\PSoC4/capsense.c ****     /*******************************************************************************
 784:.\Generated_Source\PSoC4/capsense.c ****     * Function Name: capsense_SetScanResolution
 785:.\Generated_Source\PSoC4/capsense.c ****     ********************************************************************************
 786:.\Generated_Source\PSoC4/capsense.c ****     *
 787:.\Generated_Source\PSoC4/capsense.c ****     * Summary:
 788:.\Generated_Source\PSoC4/capsense.c ****     *  Sets a value of the sensor scan resolution for a widget.
 789:.\Generated_Source\PSoC4/capsense.c ****     *  The MIN resolution can be set 8-bit. The MAX Resolution can be set 16 bit.
 790:.\Generated_Source\PSoC4/capsense.c ****     *  This function is not available for the tuning mode "None".
 791:.\Generated_Source\PSoC4/capsense.c ****     *
 792:.\Generated_Source\PSoC4/capsense.c ****     * Parameters:
 793:.\Generated_Source\PSoC4/capsense.c ****     *  widget:     Widget index.
 794:.\Generated_Source\PSoC4/capsense.c ****     *  resolution: Represents the resolution value. The following defines which are available in th
 795:.\Generated_Source\PSoC4/capsense.c ****     *              capsense.h file should be used:
 796:.\Generated_Source\PSoC4/capsense.c ****     *              capsense_RESOLUTION_6_BITS
 797:.\Generated_Source\PSoC4/capsense.c ****     *              capsense_RESOLUTION_7_BITS
 798:.\Generated_Source\PSoC4/capsense.c ****     *              capsense_RESOLUTION_8_BITS
 799:.\Generated_Source\PSoC4/capsense.c ****     *              capsense_RESOLUTION_9_BITS
 800:.\Generated_Source\PSoC4/capsense.c ****     *              capsense_RESOLUTION_10_BITS
 801:.\Generated_Source\PSoC4/capsense.c ****     *              capsense_RESOLUTION_11_BITS
 802:.\Generated_Source\PSoC4/capsense.c ****     *              capsense_RESOLUTION_12_BITS
 803:.\Generated_Source\PSoC4/capsense.c ****     *              capsense_RESOLUTION_13_BITS
 804:.\Generated_Source\PSoC4/capsense.c ****     *              capsense_RESOLUTION_14_BITS
 805:.\Generated_Source\PSoC4/capsense.c ****     *              capsense_RESOLUTION_15_BITS
 806:.\Generated_Source\PSoC4/capsense.c ****     *              capsense_RESOLUTION_16_BITS
 807:.\Generated_Source\PSoC4/capsense.c ****     *
 808:.\Generated_Source\PSoC4/capsense.c ****     * Return:
 809:.\Generated_Source\PSoC4/capsense.c ****     *  None
 810:.\Generated_Source\PSoC4/capsense.c ****     *
 811:.\Generated_Source\PSoC4/capsense.c ****     * Global Variables:
 812:.\Generated_Source\PSoC4/capsense.c ****     *  capsense_widgetResolution[] - used to store scan resolution of each widget.
 813:.\Generated_Source\PSoC4/capsense.c ****     *
 814:.\Generated_Source\PSoC4/capsense.c ****     * Side Effects:
 815:.\Generated_Source\PSoC4/capsense.c ****     *  None
 816:.\Generated_Source\PSoC4/capsense.c ****     *
 817:.\Generated_Source\PSoC4/capsense.c ****     *******************************************************************************/
 818:.\Generated_Source\PSoC4/capsense.c ****     void capsense_SetScanResolution(uint32 widget, uint32 resolution)
 819:.\Generated_Source\PSoC4/capsense.c ****     {
 318              		.loc 1 819 0
 319              		.cfi_startproc
 320              	.LVL31:
 820:.\Generated_Source\PSoC4/capsense.c ****         capsense_widgetResolution[widget] = resolution;
ARM GAS  C:\Users\Alan\AppData\Local\Temp\ccTIy4ty.s 			page 21


 321              		.loc 1 820 0
 322 0000 8000     		lsl	r0, r0, #2
 323              	.LVL32:
 324 0002 014B     		ldr	r3, .L20
 325 0004 C150     		str	r1, [r0, r3]
 821:.\Generated_Source\PSoC4/capsense.c ****     }
 326              		.loc 1 821 0
 327              		@ sp needed
 328 0006 7047     		bx	lr
 329              	.L21:
 330              		.align	2
 331              	.L20:
 332 0008 00000000 		.word	.LANCHOR1
 333              		.cfi_endproc
 334              	.LFE47:
 335              		.size	capsense_SetScanResolution, .-capsense_SetScanResolution
 336              		.section	.text.capsense_GetScanResolution,"ax",%progbits
 337              		.align	2
 338              		.global	capsense_GetScanResolution
 339              		.code	16
 340              		.thumb_func
 341              		.type	capsense_GetScanResolution, %function
 342              	capsense_GetScanResolution:
 343              	.LFB48:
 822:.\Generated_Source\PSoC4/capsense.c **** #endif /* (capsense_TUNING_METHOD != capsense__TUNING_NONE) */
 823:.\Generated_Source\PSoC4/capsense.c **** 
 824:.\Generated_Source\PSoC4/capsense.c **** 
 825:.\Generated_Source\PSoC4/capsense.c **** /*******************************************************************************
 826:.\Generated_Source\PSoC4/capsense.c **** * Function Name: capsense_GetScanResolution
 827:.\Generated_Source\PSoC4/capsense.c **** ********************************************************************************
 828:.\Generated_Source\PSoC4/capsense.c **** *
 829:.\Generated_Source\PSoC4/capsense.c **** * Summary:
 830:.\Generated_Source\PSoC4/capsense.c **** *  Returns the resolution value for the appropriate sensor.
 831:.\Generated_Source\PSoC4/capsense.c **** *  This function is not available for tuning mode "None".
 832:.\Generated_Source\PSoC4/capsense.c **** *
 833:.\Generated_Source\PSoC4/capsense.c **** * Parameters:
 834:.\Generated_Source\PSoC4/capsense.c **** *  widget:     Widget index.
 835:.\Generated_Source\PSoC4/capsense.c **** *
 836:.\Generated_Source\PSoC4/capsense.c **** * Return:
 837:.\Generated_Source\PSoC4/capsense.c **** *  resolution: Returns the resolution value for the appropriate sensor.
 838:.\Generated_Source\PSoC4/capsense.c **** *              The resolution values are defined in the capsense.h file
 839:.\Generated_Source\PSoC4/capsense.c **** *              The defines are encountered below:
 840:.\Generated_Source\PSoC4/capsense.c **** *              capsense_RESOLUTION_6_BITS
 841:.\Generated_Source\PSoC4/capsense.c **** *              capsense_RESOLUTION_7_BITS
 842:.\Generated_Source\PSoC4/capsense.c **** *              capsense_RESOLUTION_8_BITS
 843:.\Generated_Source\PSoC4/capsense.c **** *              capsense_RESOLUTION_9_BITS
 844:.\Generated_Source\PSoC4/capsense.c **** *              capsense_RESOLUTION_10_BITS
 845:.\Generated_Source\PSoC4/capsense.c **** *              capsense_RESOLUTION_11_BITS
 846:.\Generated_Source\PSoC4/capsense.c **** *              capsense_RESOLUTION_12_BITS
 847:.\Generated_Source\PSoC4/capsense.c **** *              capsense_RESOLUTION_13_BITS
 848:.\Generated_Source\PSoC4/capsense.c **** *              capsense_RESOLUTION_14_BITS
 849:.\Generated_Source\PSoC4/capsense.c **** *              capsense_RESOLUTION_15_BITS
 850:.\Generated_Source\PSoC4/capsense.c **** *              capsense_RESOLUTION_16_BITS
 851:.\Generated_Source\PSoC4/capsense.c **** *
 852:.\Generated_Source\PSoC4/capsense.c **** * Global Variables:
 853:.\Generated_Source\PSoC4/capsense.c **** *  capsense_widgetResolution[] - used to store scan resolution of every widget.
 854:.\Generated_Source\PSoC4/capsense.c **** *
ARM GAS  C:\Users\Alan\AppData\Local\Temp\ccTIy4ty.s 			page 22


 855:.\Generated_Source\PSoC4/capsense.c **** * Side Effects:
 856:.\Generated_Source\PSoC4/capsense.c **** *  None
 857:.\Generated_Source\PSoC4/capsense.c **** *
 858:.\Generated_Source\PSoC4/capsense.c **** *******************************************************************************/
 859:.\Generated_Source\PSoC4/capsense.c **** uint32 capsense_GetScanResolution(uint32 widget)
 860:.\Generated_Source\PSoC4/capsense.c **** {
 344              		.loc 1 860 0
 345              		.cfi_startproc
 346              	.LVL33:
 861:.\Generated_Source\PSoC4/capsense.c ****     return(capsense_widgetResolution[widget]);
 347              		.loc 1 861 0
 348 0000 8000     		lsl	r0, r0, #2
 349              	.LVL34:
 350 0002 014B     		ldr	r3, .L23
 351 0004 C058     		ldr	r0, [r0, r3]
 862:.\Generated_Source\PSoC4/capsense.c **** }
 352              		.loc 1 862 0
 353              		@ sp needed
 354 0006 7047     		bx	lr
 355              	.L24:
 356              		.align	2
 357              	.L23:
 358 0008 00000000 		.word	.LANCHOR1
 359              		.cfi_endproc
 360              	.LFE48:
 361              		.size	capsense_GetScanResolution, .-capsense_GetScanResolution
 362              		.section	.text.capsense_EnableSensor,"ax",%progbits
 363              		.align	2
 364              		.global	capsense_EnableSensor
 365              		.code	16
 366              		.thumb_func
 367              		.type	capsense_EnableSensor, %function
 368              	capsense_EnableSensor:
 369              	.LFB50:
 863:.\Generated_Source\PSoC4/capsense.c **** 
 864:.\Generated_Source\PSoC4/capsense.c **** 
 865:.\Generated_Source\PSoC4/capsense.c **** /*******************************************************************************
 866:.\Generated_Source\PSoC4/capsense.c **** * Function Name: capsense_ClearSensors
 867:.\Generated_Source\PSoC4/capsense.c **** ********************************************************************************
 868:.\Generated_Source\PSoC4/capsense.c **** *
 869:.\Generated_Source\PSoC4/capsense.c **** * Summary:
 870:.\Generated_Source\PSoC4/capsense.c **** *  Resets all the sensors to the non-sampling state by sequentially disconnecting
 871:.\Generated_Source\PSoC4/capsense.c **** *  all the sensors from Analog MUX Bus and putting them to an inactive state.
 872:.\Generated_Source\PSoC4/capsense.c **** *
 873:.\Generated_Source\PSoC4/capsense.c **** * Parameters:
 874:.\Generated_Source\PSoC4/capsense.c **** *  None
 875:.\Generated_Source\PSoC4/capsense.c **** *
 876:.\Generated_Source\PSoC4/capsense.c **** * Return:
 877:.\Generated_Source\PSoC4/capsense.c **** *  None
 878:.\Generated_Source\PSoC4/capsense.c **** *
 879:.\Generated_Source\PSoC4/capsense.c **** * Global Variables:
 880:.\Generated_Source\PSoC4/capsense.c **** *  None
 881:.\Generated_Source\PSoC4/capsense.c **** *
 882:.\Generated_Source\PSoC4/capsense.c **** * Side Effects:
 883:.\Generated_Source\PSoC4/capsense.c **** *  None
 884:.\Generated_Source\PSoC4/capsense.c **** *
 885:.\Generated_Source\PSoC4/capsense.c **** *******************************************************************************/
ARM GAS  C:\Users\Alan\AppData\Local\Temp\ccTIy4ty.s 			page 23


 886:.\Generated_Source\PSoC4/capsense.c **** void capsense_ClearSensors(void)
 887:.\Generated_Source\PSoC4/capsense.c **** {
 888:.\Generated_Source\PSoC4/capsense.c ****     uint32 snsIndex;
 889:.\Generated_Source\PSoC4/capsense.c **** 
 890:.\Generated_Source\PSoC4/capsense.c ****     for (snsIndex = 0u; snsIndex < capsense_TOTAL_SENSOR_COUNT; snsIndex++)
 891:.\Generated_Source\PSoC4/capsense.c ****     {
 892:.\Generated_Source\PSoC4/capsense.c ****         capsense_DisableScanSlot(snsIndex);
 893:.\Generated_Source\PSoC4/capsense.c ****     }
 894:.\Generated_Source\PSoC4/capsense.c **** }
 895:.\Generated_Source\PSoC4/capsense.c **** 
 896:.\Generated_Source\PSoC4/capsense.c **** 
 897:.\Generated_Source\PSoC4/capsense.c **** #if (capsense_IS_COMPLEX_SCANSLOTS)
 898:.\Generated_Source\PSoC4/capsense.c ****     /*******************************************************************************
 899:.\Generated_Source\PSoC4/capsense.c ****     * Function Name: capsense_EnableScanSlot
 900:.\Generated_Source\PSoC4/capsense.c ****     ********************************************************************************
 901:.\Generated_Source\PSoC4/capsense.c ****     *
 902:.\Generated_Source\PSoC4/capsense.c ****     * Summary:
 903:.\Generated_Source\PSoC4/capsense.c ****     *  Configures the selected slot to measure during the next measurement
 904:.\Generated_Source\PSoC4/capsense.c ****     *  cycle. The corresponding pin/pins are set to Analog High-Z mode and
 905:.\Generated_Source\PSoC4/capsense.c ****     *  connected to the Analog Mux Bus. This also enables the comparator function.
 906:.\Generated_Source\PSoC4/capsense.c ****     *
 907:.\Generated_Source\PSoC4/capsense.c ****     * Parameters:
 908:.\Generated_Source\PSoC4/capsense.c ****     *  slot:  Slot number.
 909:.\Generated_Source\PSoC4/capsense.c ****     *
 910:.\Generated_Source\PSoC4/capsense.c ****     * Return:
 911:.\Generated_Source\PSoC4/capsense.c ****     *  None
 912:.\Generated_Source\PSoC4/capsense.c ****     *
 913:.\Generated_Source\PSoC4/capsense.c ****     * Global Constants:
 914:.\Generated_Source\PSoC4/capsense.c ****     *  capsense_portTable[]  - used to store the port number that pin
 915:.\Generated_Source\PSoC4/capsense.c ****     *  belongs to for each sensor.
 916:.\Generated_Source\PSoC4/capsense.c ****     *  capsense_maskTable[]  - used to store the pin within the port for
 917:.\Generated_Source\PSoC4/capsense.c ****     *  each sensor.
 918:.\Generated_Source\PSoC4/capsense.c ****     *  capsense_indexTable[] - used to store indexes of complex sensors.
 919:.\Generated_Source\PSoC4/capsense.c ****     *  The offset and position in this array are stored in a port and mask table for
 920:.\Generated_Source\PSoC4/capsense.c ****     *  complex sensors.
 921:.\Generated_Source\PSoC4/capsense.c ****     *  Bit 7 (msb) is used to define the sensor type: single or complex.
 922:.\Generated_Source\PSoC4/capsense.c ****     *
 923:.\Generated_Source\PSoC4/capsense.c ****     * Side Effects:
 924:.\Generated_Source\PSoC4/capsense.c ****     *  None
 925:.\Generated_Source\PSoC4/capsense.c ****     *
 926:.\Generated_Source\PSoC4/capsense.c ****     *******************************************************************************/
 927:.\Generated_Source\PSoC4/capsense.c ****     void capsense_EnableScanSlot(uint32 slot)
 928:.\Generated_Source\PSoC4/capsense.c ****     {
 929:.\Generated_Source\PSoC4/capsense.c ****         uint8 j;
 930:.\Generated_Source\PSoC4/capsense.c ****         uint8 snsNumber;
 931:.\Generated_Source\PSoC4/capsense.c ****         const uint8 *index;
 932:.\Generated_Source\PSoC4/capsense.c ****         /* Read sensor type: single or complex */
 933:.\Generated_Source\PSoC4/capsense.c ****         uint8 snsType = capsense_portTable[slot];
 934:.\Generated_Source\PSoC4/capsense.c **** 
 935:.\Generated_Source\PSoC4/capsense.c ****         /* Check if sensor is complex */
 936:.\Generated_Source\PSoC4/capsense.c ****         if ((snsType & capsense_COMPLEX_SS_FLAG) == 0u)
 937:.\Generated_Source\PSoC4/capsense.c ****         {
 938:.\Generated_Source\PSoC4/capsense.c ****             /* Enable sensor (single) */
 939:.\Generated_Source\PSoC4/capsense.c ****             capsense_EnableSensor(slot);
 940:.\Generated_Source\PSoC4/capsense.c ****         }
 941:.\Generated_Source\PSoC4/capsense.c ****         else
 942:.\Generated_Source\PSoC4/capsense.c ****         {
ARM GAS  C:\Users\Alan\AppData\Local\Temp\ccTIy4ty.s 			page 24


 943:.\Generated_Source\PSoC4/capsense.c ****             /* Enable complex sensor */
 944:.\Generated_Source\PSoC4/capsense.c ****             snsType &= ~capsense_COMPLEX_SS_FLAG;
 945:.\Generated_Source\PSoC4/capsense.c ****             index = &capsense_indexTable[snsType];
 946:.\Generated_Source\PSoC4/capsense.c ****             snsNumber = capsense_maskTable[slot];
 947:.\Generated_Source\PSoC4/capsense.c **** 
 948:.\Generated_Source\PSoC4/capsense.c ****             for (j = 0u; j < snsNumber; j++)
 949:.\Generated_Source\PSoC4/capsense.c ****             {
 950:.\Generated_Source\PSoC4/capsense.c ****                 capsense_EnableSensor(index[j]);
 951:.\Generated_Source\PSoC4/capsense.c ****             }
 952:.\Generated_Source\PSoC4/capsense.c ****         }
 953:.\Generated_Source\PSoC4/capsense.c ****     }
 954:.\Generated_Source\PSoC4/capsense.c **** 
 955:.\Generated_Source\PSoC4/capsense.c **** 
 956:.\Generated_Source\PSoC4/capsense.c ****     /*******************************************************************************
 957:.\Generated_Source\PSoC4/capsense.c ****     * Function Name: capsense_DisableScanSlot
 958:.\Generated_Source\PSoC4/capsense.c ****     ********************************************************************************
 959:.\Generated_Source\PSoC4/capsense.c ****     *
 960:.\Generated_Source\PSoC4/capsense.c ****     * Summary:
 961:.\Generated_Source\PSoC4/capsense.c ****     *  Disables the selected slot. The corresponding pin/pins is/are disconnected
 962:.\Generated_Source\PSoC4/capsense.c ****     *  from the Analog Mux Bus and connected to GND, High_Z or Shield electrode.
 963:.\Generated_Source\PSoC4/capsense.c ****     *
 964:.\Generated_Source\PSoC4/capsense.c ****     * Parameters:
 965:.\Generated_Source\PSoC4/capsense.c ****     *  slot:  Slot number.
 966:.\Generated_Source\PSoC4/capsense.c ****     *
 967:.\Generated_Source\PSoC4/capsense.c ****     * Return:
 968:.\Generated_Source\PSoC4/capsense.c ****     *  None
 969:.\Generated_Source\PSoC4/capsense.c ****     *
 970:.\Generated_Source\PSoC4/capsense.c ****     * Global Variables:
 971:.\Generated_Source\PSoC4/capsense.c ****     *  capsense_portTable[]  - used to store the port number that pin
 972:.\Generated_Source\PSoC4/capsense.c ****     *  belongs to for each sensor.
 973:.\Generated_Source\PSoC4/capsense.c ****     *  capsense_maskTable[]  - used to store the pin within the port for
 974:.\Generated_Source\PSoC4/capsense.c ****     *  each sensor.
 975:.\Generated_Source\PSoC4/capsense.c ****     *  capsense_indexTable[] - used to store indexes of complex sensors.
 976:.\Generated_Source\PSoC4/capsense.c ****     *  The offset and position in this array are stored in a port and mask table for
 977:.\Generated_Source\PSoC4/capsense.c ****     *  complex sensors.
 978:.\Generated_Source\PSoC4/capsense.c ****     *  7bit(msb) is used to define the sensor type: single or complex.
 979:.\Generated_Source\PSoC4/capsense.c ****     *
 980:.\Generated_Source\PSoC4/capsense.c ****     * Side Effects:
 981:.\Generated_Source\PSoC4/capsense.c ****     *  None
 982:.\Generated_Source\PSoC4/capsense.c ****     *
 983:.\Generated_Source\PSoC4/capsense.c ****     *******************************************************************************/
 984:.\Generated_Source\PSoC4/capsense.c ****     void capsense_DisableScanSlot(uint32 slot)
 985:.\Generated_Source\PSoC4/capsense.c ****     {
 986:.\Generated_Source\PSoC4/capsense.c ****         uint8 j;
 987:.\Generated_Source\PSoC4/capsense.c ****         uint8 snsNumber;
 988:.\Generated_Source\PSoC4/capsense.c ****         const uint8 *index;
 989:.\Generated_Source\PSoC4/capsense.c **** 
 990:.\Generated_Source\PSoC4/capsense.c ****         /* Read sensor type: single or complex */
 991:.\Generated_Source\PSoC4/capsense.c ****         uint8 snsType = capsense_portTable[slot];
 992:.\Generated_Source\PSoC4/capsense.c **** 
 993:.\Generated_Source\PSoC4/capsense.c ****         /* Check if sensor is complex */
 994:.\Generated_Source\PSoC4/capsense.c ****         if ((snsType & capsense_COMPLEX_SS_FLAG) == 0u)
 995:.\Generated_Source\PSoC4/capsense.c ****         {
 996:.\Generated_Source\PSoC4/capsense.c ****             /* Disable sensor (single) */
 997:.\Generated_Source\PSoC4/capsense.c ****             capsense_DisableSensor(slot);
 998:.\Generated_Source\PSoC4/capsense.c ****         }
 999:.\Generated_Source\PSoC4/capsense.c ****         else
ARM GAS  C:\Users\Alan\AppData\Local\Temp\ccTIy4ty.s 			page 25


1000:.\Generated_Source\PSoC4/capsense.c ****         {
1001:.\Generated_Source\PSoC4/capsense.c ****             /* Disable complex sensor */
1002:.\Generated_Source\PSoC4/capsense.c ****             snsType &= ~capsense_COMPLEX_SS_FLAG;
1003:.\Generated_Source\PSoC4/capsense.c ****             index = &capsense_indexTable[snsType];
1004:.\Generated_Source\PSoC4/capsense.c ****             snsNumber = capsense_maskTable[slot];
1005:.\Generated_Source\PSoC4/capsense.c **** 
1006:.\Generated_Source\PSoC4/capsense.c ****             for (j=0; j < snsNumber; j++)
1007:.\Generated_Source\PSoC4/capsense.c ****             {
1008:.\Generated_Source\PSoC4/capsense.c ****                 capsense_DisableSensor(index[j]);
1009:.\Generated_Source\PSoC4/capsense.c ****             }
1010:.\Generated_Source\PSoC4/capsense.c ****         }
1011:.\Generated_Source\PSoC4/capsense.c ****     }
1012:.\Generated_Source\PSoC4/capsense.c **** #endif  /* capsense_IS_COMPLEX_SCANSLOTS */
1013:.\Generated_Source\PSoC4/capsense.c **** 
1014:.\Generated_Source\PSoC4/capsense.c **** 
1015:.\Generated_Source\PSoC4/capsense.c **** /*******************************************************************************
1016:.\Generated_Source\PSoC4/capsense.c **** * Function Name: capsense_EnableSensor
1017:.\Generated_Source\PSoC4/capsense.c **** ********************************************************************************
1018:.\Generated_Source\PSoC4/capsense.c **** *
1019:.\Generated_Source\PSoC4/capsense.c **** * Summary:
1020:.\Generated_Source\PSoC4/capsense.c **** *  Configures the selected sensor to measure during the next measurement cycle.
1021:.\Generated_Source\PSoC4/capsense.c **** *  The corresponding pins are set to Analog High-Z mode and connected to the
1022:.\Generated_Source\PSoC4/capsense.c **** *  Analog Mux Bus. This also enables the comparator function.
1023:.\Generated_Source\PSoC4/capsense.c **** *
1024:.\Generated_Source\PSoC4/capsense.c **** * Parameters:
1025:.\Generated_Source\PSoC4/capsense.c **** *  sensor:  Sensor number.
1026:.\Generated_Source\PSoC4/capsense.c **** *
1027:.\Generated_Source\PSoC4/capsense.c **** * Return:
1028:.\Generated_Source\PSoC4/capsense.c **** *  None
1029:.\Generated_Source\PSoC4/capsense.c **** *
1030:.\Generated_Source\PSoC4/capsense.c **** * Global Variables:
1031:.\Generated_Source\PSoC4/capsense.c **** *  capsense_portTable[] - used to store the port number that pin
1032:.\Generated_Source\PSoC4/capsense.c **** *  belongs to for each sensor.
1033:.\Generated_Source\PSoC4/capsense.c **** *  capsense_pinShiftTbl[] - used to store position of pin that
1034:.\Generated_Source\PSoC4/capsense.c **** *  configured as sensor in port.
1035:.\Generated_Source\PSoC4/capsense.c **** *  capsense_prtSelTbl[] - Contains pointers to the HSIOM
1036:.\Generated_Source\PSoC4/capsense.c **** *  registers for each port.
1037:.\Generated_Source\PSoC4/capsense.c **** *  capsense_PrtCfgTb[] - Contains pointers to the port config
1038:.\Generated_Source\PSoC4/capsense.c **** *  registers for each port.
1039:.\Generated_Source\PSoC4/capsense.c **** *
1040:.\Generated_Source\PSoC4/capsense.c **** * Side Effects:
1041:.\Generated_Source\PSoC4/capsense.c **** *  None
1042:.\Generated_Source\PSoC4/capsense.c **** *
1043:.\Generated_Source\PSoC4/capsense.c **** *******************************************************************************/
1044:.\Generated_Source\PSoC4/capsense.c **** void capsense_EnableSensor(uint32 sensor)
1045:.\Generated_Source\PSoC4/capsense.c **** {
 370              		.loc 1 1045 0
 371              		.cfi_startproc
 372              	.LVL35:
 373 0000 F8B5     		push	{r3, r4, r5, r6, r7, lr}
 374              		.cfi_def_cfa_offset 24
 375              		.cfi_offset 3, -24
 376              		.cfi_offset 4, -20
 377              		.cfi_offset 5, -16
 378              		.cfi_offset 6, -12
 379              		.cfi_offset 7, -8
 380              		.cfi_offset 14, -4
ARM GAS  C:\Users\Alan\AppData\Local\Temp\ccTIy4ty.s 			page 26


1046:.\Generated_Source\PSoC4/capsense.c ****     uint8  pinModeShift;
1047:.\Generated_Source\PSoC4/capsense.c ****     uint8  pinHSIOMShift;
1048:.\Generated_Source\PSoC4/capsense.c ****     uint8 interruptState;
1049:.\Generated_Source\PSoC4/capsense.c ****     uint32 newRegisterValue;
1050:.\Generated_Source\PSoC4/capsense.c ****     uint32 port;
1051:.\Generated_Source\PSoC4/capsense.c **** 
1052:.\Generated_Source\PSoC4/capsense.c ****     port = (uint32) capsense_portTable[sensor];
 381              		.loc 1 1052 0
 382 0002 104F     		ldr	r7, .L26
 383 0004 3C5C     		ldrb	r4, [r7, r0]
 384              	.LVL36:
1053:.\Generated_Source\PSoC4/capsense.c ****     pinModeShift = capsense_pinShiftTbl[sensor]  * capsense_PC_PIN_CFG_SIZE;
 385              		.loc 1 1053 0
 386 0006 3818     		add	r0, r7, r0
 387              	.LVL37:
 388 0008 027A     		ldrb	r2, [r0, #8]
 389 000a 5500     		lsl	r5, r2, #1
 390 000c 5519     		add	r5, r2, r5
 391 000e EDB2     		uxtb	r5, r5
 392              	.LVL38:
1054:.\Generated_Source\PSoC4/capsense.c ****     pinHSIOMShift = capsense_pinShiftTbl[sensor] * capsense_HSIOM_PIN_CFG_SIZE;
 393              		.loc 1 1054 0
 394 0010 9200     		lsl	r2, r2, #2
 395 0012 D6B2     		uxtb	r6, r2
 396              	.LVL39:
1055:.\Generated_Source\PSoC4/capsense.c **** 
1056:.\Generated_Source\PSoC4/capsense.c ****     interruptState = CyEnterCriticalSection();
 397              		.loc 1 1056 0
 398 0014 FFF7FEFF 		bl	CyEnterCriticalSection
 399              	.LVL40:
1057:.\Generated_Source\PSoC4/capsense.c **** 
1058:.\Generated_Source\PSoC4/capsense.c ****     newRegisterValue = *capsense_prtSelTbl[port];
 400              		.loc 1 1058 0
 401 0018 A400     		lsl	r4, r4, #2
 402              	.LVL41:
 403 001a 3B19     		add	r3, r7, r4
 404 001c 1C69     		ldr	r4, [r3, #16]
 405 001e 2268     		ldr	r2, [r4]
 406              	.LVL42:
1059:.\Generated_Source\PSoC4/capsense.c ****     newRegisterValue &= ~(capsense_CSD_HSIOM_MASK << pinHSIOMShift);
 407              		.loc 1 1059 0
 408 0020 0F21     		mov	r1, #15
 409 0022 B140     		lsl	r1, r1, r6
 410 0024 8A43     		bic	r2, r1
 411              	.LVL43:
 412 0026 111C     		mov	r1, r2
 413              	.LVL44:
1060:.\Generated_Source\PSoC4/capsense.c ****     newRegisterValue |= (uint32)((uint32)capsense_CSD_SENSE_PORT_MODE << pinHSIOMShift);
 414              		.loc 1 1060 0
 415 0028 0422     		mov	r2, #4
 416 002a B240     		lsl	r2, r2, r6
 417 002c 0A43     		orr	r2, r1
 418              	.LVL45:
1061:.\Generated_Source\PSoC4/capsense.c **** 
1062:.\Generated_Source\PSoC4/capsense.c ****     *capsense_prtCfgTbl[port] &= (uint32)~((uint32)capsense_CSD_PIN_MODE_MASK << pinModeShift);
 419              		.loc 1 1062 0
 420 002e DE6A     		ldr	r6, [r3, #44]
ARM GAS  C:\Users\Alan\AppData\Local\Temp\ccTIy4ty.s 			page 27


 421              	.LVL46:
 422 0030 3368     		ldr	r3, [r6]
 423 0032 0721     		mov	r1, #7
 424 0034 A940     		lsl	r1, r1, r5
 425 0036 8B43     		bic	r3, r1
 426 0038 3360     		str	r3, [r6]
1063:.\Generated_Source\PSoC4/capsense.c ****     *capsense_prtSelTbl[port] = newRegisterValue;
 427              		.loc 1 1063 0
 428 003a 2260     		str	r2, [r4]
1064:.\Generated_Source\PSoC4/capsense.c **** 
1065:.\Generated_Source\PSoC4/capsense.c ****     CyExitCriticalSection(interruptState);
 429              		.loc 1 1065 0
 430 003c FFF7FEFF 		bl	CyExitCriticalSection
 431              	.LVL47:
1066:.\Generated_Source\PSoC4/capsense.c **** }
 432              		.loc 1 1066 0
 433              		@ sp needed
 434              	.LVL48:
 435              	.LVL49:
 436 0040 F8BD     		pop	{r3, r4, r5, r6, r7, pc}
 437              	.L27:
 438 0042 C046     		.align	2
 439              	.L26:
 440 0044 00000000 		.word	.LANCHOR2
 441              		.cfi_endproc
 442              	.LFE50:
 443              		.size	capsense_EnableSensor, .-capsense_EnableSensor
 444              		.section	.text.capsense_DisableSensor,"ax",%progbits
 445              		.align	2
 446              		.global	capsense_DisableSensor
 447              		.code	16
 448              		.thumb_func
 449              		.type	capsense_DisableSensor, %function
 450              	capsense_DisableSensor:
 451              	.LFB51:
1067:.\Generated_Source\PSoC4/capsense.c **** 
1068:.\Generated_Source\PSoC4/capsense.c **** 
1069:.\Generated_Source\PSoC4/capsense.c **** /*******************************************************************************
1070:.\Generated_Source\PSoC4/capsense.c **** * Function Name: capsense_DisableSensor
1071:.\Generated_Source\PSoC4/capsense.c **** ********************************************************************************
1072:.\Generated_Source\PSoC4/capsense.c **** *
1073:.\Generated_Source\PSoC4/capsense.c **** * Summary:
1074:.\Generated_Source\PSoC4/capsense.c **** *  Disables the selected sensor. The corresponding pin is disconnected from the
1075:.\Generated_Source\PSoC4/capsense.c **** *  Analog Mux Bus and connected to GND, High_Z or Shield electrode.
1076:.\Generated_Source\PSoC4/capsense.c **** *
1077:.\Generated_Source\PSoC4/capsense.c **** * Parameters:
1078:.\Generated_Source\PSoC4/capsense.c **** *  sensor:  Sensor number
1079:.\Generated_Source\PSoC4/capsense.c **** *
1080:.\Generated_Source\PSoC4/capsense.c **** * Return:
1081:.\Generated_Source\PSoC4/capsense.c **** *  None
1082:.\Generated_Source\PSoC4/capsense.c **** *
1083:.\Generated_Source\PSoC4/capsense.c **** * Global Variables:
1084:.\Generated_Source\PSoC4/capsense.c **** *  capsense_portTable[] - used to store the port number that pin
1085:.\Generated_Source\PSoC4/capsense.c **** *  belongs to for each sensor.
1086:.\Generated_Source\PSoC4/capsense.c **** *  capsense_pinShiftTbl[] - used to store position of pin that
1087:.\Generated_Source\PSoC4/capsense.c **** *  configured as a sensor in the port.
1088:.\Generated_Source\PSoC4/capsense.c **** *  capsense_prtSelTbl[] - Contains pointers to the HSIOM
ARM GAS  C:\Users\Alan\AppData\Local\Temp\ccTIy4ty.s 			page 28


1089:.\Generated_Source\PSoC4/capsense.c **** *  registers for each port.
1090:.\Generated_Source\PSoC4/capsense.c **** *  capsense_PrtCfgTb[] - Contains pointers to the port config
1091:.\Generated_Source\PSoC4/capsense.c **** *  registers for each port.
1092:.\Generated_Source\PSoC4/capsense.c **** *
1093:.\Generated_Source\PSoC4/capsense.c **** * Side Effects:
1094:.\Generated_Source\PSoC4/capsense.c **** *  None
1095:.\Generated_Source\PSoC4/capsense.c **** *
1096:.\Generated_Source\PSoC4/capsense.c **** *******************************************************************************/
1097:.\Generated_Source\PSoC4/capsense.c **** void capsense_DisableSensor(uint32 sensor)
1098:.\Generated_Source\PSoC4/capsense.c **** {
 452              		.loc 1 1098 0
 453              		.cfi_startproc
 454              	.LVL50:
 455 0000 F8B5     		push	{r3, r4, r5, r6, r7, lr}
 456              		.cfi_def_cfa_offset 24
 457              		.cfi_offset 3, -24
 458              		.cfi_offset 4, -20
 459              		.cfi_offset 5, -16
 460              		.cfi_offset 6, -12
 461              		.cfi_offset 7, -8
 462              		.cfi_offset 14, -4
1099:.\Generated_Source\PSoC4/capsense.c ****     uint8 interruptState;
1100:.\Generated_Source\PSoC4/capsense.c ****     uint32 newRegisterValue;
1101:.\Generated_Source\PSoC4/capsense.c **** 
1102:.\Generated_Source\PSoC4/capsense.c ****     uint32 port = (uint32) capsense_portTable[sensor];
 463              		.loc 1 1102 0
 464 0002 1949     		ldr	r1, .L33
 465 0004 0C5C     		ldrb	r4, [r1, r0]
 466              	.LVL51:
1103:.\Generated_Source\PSoC4/capsense.c ****     uint8  pinHSIOMShift = capsense_pinShiftTbl[sensor] * capsense_HSIOM_PIN_CFG_SIZE;
 467              		.loc 1 1103 0
 468 0006 0B18     		add	r3, r1, r0
 469 0008 1E7A     		ldrb	r6, [r3, #8]
 470 000a B200     		lsl	r2, r6, #2
 471 000c D2B2     		uxtb	r2, r2
 472              	.LVL52:
1104:.\Generated_Source\PSoC4/capsense.c ****     uint8  pinModeShift = capsense_pinShiftTbl[sensor]  * capsense_PC_PIN_CFG_SIZE;
 473              		.loc 1 1104 0
 474 000e 7500     		lsl	r5, r6, #1
 475 0010 7519     		add	r5, r6, r5
 476 0012 EDB2     		uxtb	r5, r5
 477              	.LVL53:
1105:.\Generated_Source\PSoC4/capsense.c **** 
1106:.\Generated_Source\PSoC4/capsense.c ****     uint32 inactiveConnect = capsense_SNS_HIZANALOG_CONNECT;
1107:.\Generated_Source\PSoC4/capsense.c ****     uint32 sensorState = capsense_unscannedSnsDriveMode[sensor];
 478              		.loc 1 1107 0
 479 0014 154B     		ldr	r3, .L33+4
 480 0016 185C     		ldrb	r0, [r3, r0]
 481              	.LVL54:
1108:.\Generated_Source\PSoC4/capsense.c **** 
1109:.\Generated_Source\PSoC4/capsense.c ****     *capsense_prtSelTbl[port] &= ~(capsense_CSD_HSIOM_MASK << pinHSIOMShift);
 482              		.loc 1 1109 0
 483 0018 A300     		lsl	r3, r4, #2
 484 001a CB18     		add	r3, r1, r3
 485 001c 1F69     		ldr	r7, [r3, #16]
 486 001e 3B68     		ldr	r3, [r7]
 487 0020 0F21     		mov	r1, #15
ARM GAS  C:\Users\Alan\AppData\Local\Temp\ccTIy4ty.s 			page 29


 488 0022 9140     		lsl	r1, r1, r2
 489 0024 8B43     		bic	r3, r1
 490 0026 3B60     		str	r3, [r7]
1110:.\Generated_Source\PSoC4/capsense.c **** 
1111:.\Generated_Source\PSoC4/capsense.c ****     #if(capsense_IS_SHIELD_ENABLE != 0)
1112:.\Generated_Source\PSoC4/capsense.c ****     if(sensorState != (uint32)capsense__SHIELD)
1113:.\Generated_Source\PSoC4/capsense.c ****     {
1114:.\Generated_Source\PSoC4/capsense.c ****     #else
1115:.\Generated_Source\PSoC4/capsense.c ****         /* Connected to Ground if shield is disabled */
1116:.\Generated_Source\PSoC4/capsense.c ****         if(sensorState == (uint32)capsense__SHIELD)
 491              		.loc 1 1116 0
 492 0028 0228     		cmp	r0, #2
 493 002a 00D1     		bne	.L29
1117:.\Generated_Source\PSoC4/capsense.c ****         {
1118:.\Generated_Source\PSoC4/capsense.c ****             sensorState = (uint32)capsense__GROUND;
 494              		.loc 1 1118 0
 495 002c 0020     		mov	r0, #0
 496              	.LVL55:
 497              	.L29:
1119:.\Generated_Source\PSoC4/capsense.c ****         }
1120:.\Generated_Source\PSoC4/capsense.c ****     #endif /* (capsense_IS_SHIELD_ENABLE) */
1121:.\Generated_Source\PSoC4/capsense.c ****         if(sensorState != (uint32)capsense__HIZ_ANALOG)
 498              		.loc 1 1121 0
 499 002e 0128     		cmp	r0, #1
 500 0030 01D1     		bne	.L32
1106:.\Generated_Source\PSoC4/capsense.c ****     uint32 sensorState = capsense_unscannedSnsDriveMode[sensor];
 501              		.loc 1 1106 0
 502 0032 0027     		mov	r7, #0
 503 0034 00E0     		b	.L30
 504              	.L32:
1122:.\Generated_Source\PSoC4/capsense.c ****         {
1123:.\Generated_Source\PSoC4/capsense.c ****             /* Connected to Ground */
1124:.\Generated_Source\PSoC4/capsense.c ****             inactiveConnect = (uint32)capsense_SNS_GROUND_CONNECT;
 505              		.loc 1 1124 0
 506 0036 0627     		mov	r7, #6
 507              	.L30:
 508              	.LVL56:
1125:.\Generated_Source\PSoC4/capsense.c ****         }
1126:.\Generated_Source\PSoC4/capsense.c **** 
1127:.\Generated_Source\PSoC4/capsense.c ****         interruptState = CyEnterCriticalSection();
 509              		.loc 1 1127 0
 510 0038 FFF7FEFF 		bl	CyEnterCriticalSection
 511              	.LVL57:
1128:.\Generated_Source\PSoC4/capsense.c **** 
1129:.\Generated_Source\PSoC4/capsense.c ****         /* Set drive mode */
1130:.\Generated_Source\PSoC4/capsense.c ****         newRegisterValue = *capsense_prtCfgTbl[port];
 512              		.loc 1 1130 0
 513 003c A400     		lsl	r4, r4, #2
 514              	.LVL58:
 515 003e 0A4B     		ldr	r3, .L33
 516              	.LVL59:
 517 0040 1C19     		add	r4, r3, r4
 518 0042 E16A     		ldr	r1, [r4, #44]
 519 0044 0B68     		ldr	r3, [r1]
 520              	.LVL60:
1131:.\Generated_Source\PSoC4/capsense.c ****         newRegisterValue &= ~(capsense_CSD_PIN_MODE_MASK << pinModeShift);
 521              		.loc 1 1131 0
ARM GAS  C:\Users\Alan\AppData\Local\Temp\ccTIy4ty.s 			page 30


 522 0046 0722     		mov	r2, #7
 523 0048 AA40     		lsl	r2, r2, r5
 524 004a 9343     		bic	r3, r2
 525              	.LVL61:
 526 004c 1A1C     		mov	r2, r3
 527              	.LVL62:
1132:.\Generated_Source\PSoC4/capsense.c ****         newRegisterValue |=  (uint32)(inactiveConnect << pinModeShift);
 528              		.loc 1 1132 0
 529 004e 3B1C     		mov	r3, r7
 530 0050 AB40     		lsl	r3, r3, r5
 531 0052 1343     		orr	r3, r2
 532              	.LVL63:
1133:.\Generated_Source\PSoC4/capsense.c ****         *capsense_prtCfgTbl[port] =  newRegisterValue;
 533              		.loc 1 1133 0
 534 0054 0B60     		str	r3, [r1]
1134:.\Generated_Source\PSoC4/capsense.c **** 
1135:.\Generated_Source\PSoC4/capsense.c ****         CyExitCriticalSection(interruptState);
 535              		.loc 1 1135 0
 536 0056 FFF7FEFF 		bl	CyExitCriticalSection
 537              	.LVL64:
1136:.\Generated_Source\PSoC4/capsense.c **** 
1137:.\Generated_Source\PSoC4/capsense.c ****         *capsense_prtDRTbl[port]  &=  (uint32)~(uint32)((uint32)1u << capsense_pinShiftTbl[sensor])
 538              		.loc 1 1137 0
 539 005a A16C     		ldr	r1, [r4, #72]
 540 005c 0B68     		ldr	r3, [r1]
 541 005e 0122     		mov	r2, #1
 542 0060 B240     		lsl	r2, r2, r6
 543 0062 9343     		bic	r3, r2
 544 0064 0B60     		str	r3, [r1]
1138:.\Generated_Source\PSoC4/capsense.c ****     #if(capsense_IS_SHIELD_ENABLE != 0)
1139:.\Generated_Source\PSoC4/capsense.c ****     }
1140:.\Generated_Source\PSoC4/capsense.c ****     else
1141:.\Generated_Source\PSoC4/capsense.c ****     {
1142:.\Generated_Source\PSoC4/capsense.c ****         /* Connect to Shield */
1143:.\Generated_Source\PSoC4/capsense.c ****         *capsense_prtSelTbl[port] |= (capsense_CSD_SHIELD_PORT_MODE << pinHSIOMShift);
1144:.\Generated_Source\PSoC4/capsense.c ****     }
1145:.\Generated_Source\PSoC4/capsense.c ****     #endif /* (capsense_IS_SHIELD_ENABLE) */
1146:.\Generated_Source\PSoC4/capsense.c **** }
 545              		.loc 1 1146 0
 546              		@ sp needed
 547              	.LVL65:
 548              	.LVL66:
 549              	.LVL67:
 550 0066 F8BD     		pop	{r3, r4, r5, r6, r7, pc}
 551              	.L34:
 552              		.align	2
 553              	.L33:
 554 0068 00000000 		.word	.LANCHOR2
 555 006c 00000000 		.word	capsense_unscannedSnsDriveMode
 556              		.cfi_endproc
 557              	.LFE51:
 558              		.size	capsense_DisableSensor, .-capsense_DisableSensor
 559              		.section	.text.capsense_ClearSensors,"ax",%progbits
 560              		.align	2
 561              		.global	capsense_ClearSensors
 562              		.code	16
 563              		.thumb_func
ARM GAS  C:\Users\Alan\AppData\Local\Temp\ccTIy4ty.s 			page 31


 564              		.type	capsense_ClearSensors, %function
 565              	capsense_ClearSensors:
 566              	.LFB49:
 887:.\Generated_Source\PSoC4/capsense.c ****     uint32 snsIndex;
 567              		.loc 1 887 0
 568              		.cfi_startproc
 569 0000 10B5     		push	{r4, lr}
 570              		.cfi_def_cfa_offset 8
 571              		.cfi_offset 4, -8
 572              		.cfi_offset 14, -4
 573              	.LVL68:
 890:.\Generated_Source\PSoC4/capsense.c ****     {
 574              		.loc 1 890 0
 575 0002 0024     		mov	r4, #0
 576 0004 03E0     		b	.L36
 577              	.LVL69:
 578              	.L37:
 892:.\Generated_Source\PSoC4/capsense.c ****     }
 579              		.loc 1 892 0 discriminator 3
 580 0006 201C     		mov	r0, r4
 581 0008 FFF7FEFF 		bl	capsense_DisableSensor
 582              	.LVL70:
 890:.\Generated_Source\PSoC4/capsense.c ****     {
 583              		.loc 1 890 0 discriminator 3
 584 000c 0134     		add	r4, r4, #1
 585              	.LVL71:
 586              	.L36:
 890:.\Generated_Source\PSoC4/capsense.c ****     {
 587              		.loc 1 890 0 is_stmt 0 discriminator 1
 588 000e 042C     		cmp	r4, #4
 589 0010 F9D9     		bls	.L37
 894:.\Generated_Source\PSoC4/capsense.c **** 
 590              		.loc 1 894 0 is_stmt 1
 591              		@ sp needed
 592              	.LVL72:
 593 0012 10BD     		pop	{r4, pc}
 594              		.cfi_endproc
 595              	.LFE49:
 596              		.size	capsense_ClearSensors, .-capsense_ClearSensors
 597              		.section	.text.capsense_SetPinDriveMode,"ax",%progbits
 598              		.align	2
 599              		.global	capsense_SetPinDriveMode
 600              		.code	16
 601              		.thumb_func
 602              		.type	capsense_SetPinDriveMode, %function
 603              	capsense_SetPinDriveMode:
 604              	.LFB54:
1147:.\Generated_Source\PSoC4/capsense.c **** 
1148:.\Generated_Source\PSoC4/capsense.c **** 
1149:.\Generated_Source\PSoC4/capsense.c **** /*******************************************************************************
1150:.\Generated_Source\PSoC4/capsense.c **** * Function Name: capsense_SetDriveModeAllPins
1151:.\Generated_Source\PSoC4/capsense.c **** ********************************************************************************
1152:.\Generated_Source\PSoC4/capsense.c **** *
1153:.\Generated_Source\PSoC4/capsense.c **** * Summary:
1154:.\Generated_Source\PSoC4/capsense.c **** * This API sets the drive mode of port pins used by the CapSense
1155:.\Generated_Source\PSoC4/capsense.c **** * component (sensors, guard, shield, shield tank and Cmod) to drive the
1156:.\Generated_Source\PSoC4/capsense.c **** * mode specified by the argument.
ARM GAS  C:\Users\Alan\AppData\Local\Temp\ccTIy4ty.s 			page 32


1157:.\Generated_Source\PSoC4/capsense.c **** *
1158:.\Generated_Source\PSoC4/capsense.c **** * Parameters:
1159:.\Generated_Source\PSoC4/capsense.c **** *  driveMode:  Drive mode definition.
1160:.\Generated_Source\PSoC4/capsense.c **** *
1161:.\Generated_Source\PSoC4/capsense.c **** * Return:
1162:.\Generated_Source\PSoC4/capsense.c **** *  None
1163:.\Generated_Source\PSoC4/capsense.c **** *
1164:.\Generated_Source\PSoC4/capsense.c **** * Global Variables:
1165:.\Generated_Source\PSoC4/capsense.c **** *  capsense_portTable[] - used to store the port number that pin
1166:.\Generated_Source\PSoC4/capsense.c **** *  belongs to for each sensor.
1167:.\Generated_Source\PSoC4/capsense.c **** *  capsense_pinShiftTbl[] - used to store position of pin that
1168:.\Generated_Source\PSoC4/capsense.c **** *  configured as a sensor in the port.
1169:.\Generated_Source\PSoC4/capsense.c **** *
1170:.\Generated_Source\PSoC4/capsense.c **** * Side Effects:
1171:.\Generated_Source\PSoC4/capsense.c **** *  This API shall be called only after CapSense component is stopped.
1172:.\Generated_Source\PSoC4/capsense.c **** *
1173:.\Generated_Source\PSoC4/capsense.c **** *******************************************************************************/
1174:.\Generated_Source\PSoC4/capsense.c **** void capsense_SetDriveModeAllPins(uint32 driveMode)
1175:.\Generated_Source\PSoC4/capsense.c **** {
1176:.\Generated_Source\PSoC4/capsense.c ****     uint8 curSensor;
1177:.\Generated_Source\PSoC4/capsense.c ****     #if (capsense_IS_COMPLEX_SCANSLOTS)
1178:.\Generated_Source\PSoC4/capsense.c ****         uint8 snsNumber;
1179:.\Generated_Source\PSoC4/capsense.c ****         uint8 snsType;
1180:.\Generated_Source\PSoC4/capsense.c ****     #endif  /* capsense_IS_COMPLEX_SCANSLOTS */
1181:.\Generated_Source\PSoC4/capsense.c ****     uint32 prtNumberTmp;
1182:.\Generated_Source\PSoC4/capsense.c ****     uint32 pinNumberTmp;
1183:.\Generated_Source\PSoC4/capsense.c **** 
1184:.\Generated_Source\PSoC4/capsense.c ****     for(curSensor = 0u; curSensor < capsense_TOTAL_SENSOR_COUNT; curSensor++)
1185:.\Generated_Source\PSoC4/capsense.c ****     {
1186:.\Generated_Source\PSoC4/capsense.c ****         #if (capsense_IS_COMPLEX_SCANSLOTS)
1187:.\Generated_Source\PSoC4/capsense.c ****             /* Read sensor type: single or complex */
1188:.\Generated_Source\PSoC4/capsense.c ****             snsType = capsense_portTable[curSensor];
1189:.\Generated_Source\PSoC4/capsense.c **** 
1190:.\Generated_Source\PSoC4/capsense.c ****             /* Check if sensor is complex */
1191:.\Generated_Source\PSoC4/capsense.c ****             if ((snsType & capsense_COMPLEX_SS_FLAG) == 0u)
1192:.\Generated_Source\PSoC4/capsense.c ****             {
1193:.\Generated_Source\PSoC4/capsense.c ****                 /* The sensor is not complex */
1194:.\Generated_Source\PSoC4/capsense.c ****                 snsNumber = curSensor;
1195:.\Generated_Source\PSoC4/capsense.c ****             }
1196:.\Generated_Source\PSoC4/capsense.c ****             else
1197:.\Generated_Source\PSoC4/capsense.c ****             {
1198:.\Generated_Source\PSoC4/capsense.c ****                 /* Get dedicated sensor ID of the complex sensor */
1199:.\Generated_Source\PSoC4/capsense.c ****                 snsType &= ~capsense_COMPLEX_SS_FLAG;
1200:.\Generated_Source\PSoC4/capsense.c ****                 snsNumber = capsense_indexTable[snsType];
1201:.\Generated_Source\PSoC4/capsense.c ****             }
1202:.\Generated_Source\PSoC4/capsense.c **** 
1203:.\Generated_Source\PSoC4/capsense.c ****             prtNumberTmp = capsense_portTable[snsNumber];
1204:.\Generated_Source\PSoC4/capsense.c ****             pinNumberTmp = capsense_pinShiftTbl[snsNumber];
1205:.\Generated_Source\PSoC4/capsense.c ****         #else
1206:.\Generated_Source\PSoC4/capsense.c ****             prtNumberTmp = capsense_portTable[curSensor];
1207:.\Generated_Source\PSoC4/capsense.c ****             pinNumberTmp = capsense_pinShiftTbl[curSensor];
1208:.\Generated_Source\PSoC4/capsense.c ****         #endif  /* capsense_IS_COMPLEX_SCANSLOTS */
1209:.\Generated_Source\PSoC4/capsense.c **** 
1210:.\Generated_Source\PSoC4/capsense.c ****         capsense_SetPinDriveMode(driveMode, pinNumberTmp, prtNumberTmp);
1211:.\Generated_Source\PSoC4/capsense.c ****     }
1212:.\Generated_Source\PSoC4/capsense.c **** 
1213:.\Generated_Source\PSoC4/capsense.c ****     capsense_SetPinDriveMode(driveMode, (uint32)capsense_CMOD_PIN_NUMBER, (uint32)capsense_CMOD_PRT
ARM GAS  C:\Users\Alan\AppData\Local\Temp\ccTIy4ty.s 			page 33


1214:.\Generated_Source\PSoC4/capsense.c **** 
1215:.\Generated_Source\PSoC4/capsense.c ****     #if(0u != capsense_CSH_TANK_ENABLE)
1216:.\Generated_Source\PSoC4/capsense.c ****         capsense_SetPinDriveMode(driveMode, (uint32)capsense_CTANK_PIN_NUMBER, (uint32)capsense_CTA
1217:.\Generated_Source\PSoC4/capsense.c ****     #endif /* (0u != capsense_CSH_TANK_ENABLE) */
1218:.\Generated_Source\PSoC4/capsense.c **** 
1219:.\Generated_Source\PSoC4/capsense.c ****     #if(0u != capsense_IS_SHIELD_ENABLE)
1220:.\Generated_Source\PSoC4/capsense.c ****         capsense_SetPinDriveMode(driveMode, (uint32)capsense_SHIELD_PIN_NUMBER, (uint32)capsense_SH
1221:.\Generated_Source\PSoC4/capsense.c ****     #endif /* (0u != capsense_IS_SHIELD_ENABLE) */
1222:.\Generated_Source\PSoC4/capsense.c **** }
1223:.\Generated_Source\PSoC4/capsense.c **** 
1224:.\Generated_Source\PSoC4/capsense.c **** 
1225:.\Generated_Source\PSoC4/capsense.c **** /*******************************************************************************
1226:.\Generated_Source\PSoC4/capsense.c **** * Function Name: capsense_RestoreDriveModeAllPins
1227:.\Generated_Source\PSoC4/capsense.c **** ********************************************************************************
1228:.\Generated_Source\PSoC4/capsense.c **** *
1229:.\Generated_Source\PSoC4/capsense.c **** * Summary:
1230:.\Generated_Source\PSoC4/capsense.c **** *  This API restores the drive for all the CapSense port pins to the original
1231:.\Generated_Source\PSoC4/capsense.c **** *  state.
1232:.\Generated_Source\PSoC4/capsense.c **** *
1233:.\Generated_Source\PSoC4/capsense.c **** * Parameters:
1234:.\Generated_Source\PSoC4/capsense.c **** *  None
1235:.\Generated_Source\PSoC4/capsense.c **** *
1236:.\Generated_Source\PSoC4/capsense.c **** * Return:
1237:.\Generated_Source\PSoC4/capsense.c **** *  None
1238:.\Generated_Source\PSoC4/capsense.c **** *
1239:.\Generated_Source\PSoC4/capsense.c **** * Global Variables:
1240:.\Generated_Source\PSoC4/capsense.c **** *  capsense_prtSelTbl[] - Contains pointers to the HSIOM
1241:.\Generated_Source\PSoC4/capsense.c **** *  registers for each port.
1242:.\Generated_Source\PSoC4/capsense.c **** *
1243:.\Generated_Source\PSoC4/capsense.c **** * Side Effects:
1244:.\Generated_Source\PSoC4/capsense.c **** *  This API is called only after the CapSense component is stopped.
1245:.\Generated_Source\PSoC4/capsense.c **** *
1246:.\Generated_Source\PSoC4/capsense.c **** *******************************************************************************/
1247:.\Generated_Source\PSoC4/capsense.c **** void capsense_RestoreDriveModeAllPins(void)
1248:.\Generated_Source\PSoC4/capsense.c **** {
1249:.\Generated_Source\PSoC4/capsense.c ****     uint32 newRegisterValue;
1250:.\Generated_Source\PSoC4/capsense.c **** 
1251:.\Generated_Source\PSoC4/capsense.c ****     capsense_SetDriveModeAllPins(CY_SYS_PINS_DM_ALG_HIZ);
1252:.\Generated_Source\PSoC4/capsense.c **** 
1253:.\Generated_Source\PSoC4/capsense.c ****     newRegisterValue = capsense_CMOD_CONNECTION_REG;
1254:.\Generated_Source\PSoC4/capsense.c ****     newRegisterValue &= ~(capsense_CSD_CMOD_CONNECTION_MASK);
1255:.\Generated_Source\PSoC4/capsense.c ****     newRegisterValue |= capsense_CSD_CMOD_TO_AMUXBUS_A;
1256:.\Generated_Source\PSoC4/capsense.c ****     capsense_CMOD_CONNECTION_REG = newRegisterValue;
1257:.\Generated_Source\PSoC4/capsense.c **** 
1258:.\Generated_Source\PSoC4/capsense.c ****     #if(0u != capsense_CSH_TANK_ENABLE)
1259:.\Generated_Source\PSoC4/capsense.c ****         newRegisterValue = capsense_CTANK_CONNECTION_REG;
1260:.\Generated_Source\PSoC4/capsense.c ****         newRegisterValue &= ~(capsense_CSD_CTANK_CONNECTION_MASK);
1261:.\Generated_Source\PSoC4/capsense.c ****         newRegisterValue |= capsense_CSD_CTANK_TO_AMUXBUS_B;
1262:.\Generated_Source\PSoC4/capsense.c ****         capsense_CTANK_CONNECTION_REG = newRegisterValue;
1263:.\Generated_Source\PSoC4/capsense.c ****     #endif/* (0u != capsense_CSH_TANK_ENABLE) */
1264:.\Generated_Source\PSoC4/capsense.c **** 
1265:.\Generated_Source\PSoC4/capsense.c ****     #if(0u != capsense_IS_SHIELD_ENABLE)
1266:.\Generated_Source\PSoC4/capsense.c ****         newRegisterValue = *capsense_prtSelTbl[capsense_SHIELD_PORT_NUMBER];
1267:.\Generated_Source\PSoC4/capsense.c ****         newRegisterValue &= ~(capsense_CSD_HSIOM_MASK << ((uint32)capsense_SHIELD_PIN_NUMBER * caps
1268:.\Generated_Source\PSoC4/capsense.c ****         newRegisterValue |= (capsense_CSD_SHIELD_PORT_MODE << ((uint32)capsense_SHIELD_PIN_NUMBER *
1269:.\Generated_Source\PSoC4/capsense.c ****         *capsense_prtSelTbl[capsense_SHIELD_PORT_NUMBER] = newRegisterValue;
1270:.\Generated_Source\PSoC4/capsense.c ****     #endif /* (0u != capsense_IS_SHIELD_ENABLE) */
ARM GAS  C:\Users\Alan\AppData\Local\Temp\ccTIy4ty.s 			page 34


1271:.\Generated_Source\PSoC4/capsense.c **** }
1272:.\Generated_Source\PSoC4/capsense.c **** 
1273:.\Generated_Source\PSoC4/capsense.c **** 
1274:.\Generated_Source\PSoC4/capsense.c **** /*******************************************************************************
1275:.\Generated_Source\PSoC4/capsense.c **** * Function Name: capsense_SetPinDriveMode
1276:.\Generated_Source\PSoC4/capsense.c **** ********************************************************************************
1277:.\Generated_Source\PSoC4/capsense.c **** *
1278:.\Generated_Source\PSoC4/capsense.c **** * Summary:
1279:.\Generated_Source\PSoC4/capsense.c **** * This API sets the drive mode for the appropriate port/pin.
1280:.\Generated_Source\PSoC4/capsense.c **** *
1281:.\Generated_Source\PSoC4/capsense.c **** * Parameters:
1282:.\Generated_Source\PSoC4/capsense.c **** *  driveMode:  Drive mode definition.
1283:.\Generated_Source\PSoC4/capsense.c **** *  portNumber: contains port number (0, 1, 2).
1284:.\Generated_Source\PSoC4/capsense.c **** *  pinNumber: contains pin number (0, 1, 2, ... , 7).
1285:.\Generated_Source\PSoC4/capsense.c **** *
1286:.\Generated_Source\PSoC4/capsense.c **** * Return:
1287:.\Generated_Source\PSoC4/capsense.c **** *  None
1288:.\Generated_Source\PSoC4/capsense.c **** *
1289:.\Generated_Source\PSoC4/capsense.c **** * Global Variables:
1290:.\Generated_Source\PSoC4/capsense.c **** *  capsense_prtSelTbl[] - Contains pointers to the HSIOM
1291:.\Generated_Source\PSoC4/capsense.c **** *  registers for each port.
1292:.\Generated_Source\PSoC4/capsense.c **** *  capsense_prtCfgTb[] - Contains pointers to the port config
1293:.\Generated_Source\PSoC4/capsense.c **** *  registers for each port.
1294:.\Generated_Source\PSoC4/capsense.c **** *
1295:.\Generated_Source\PSoC4/capsense.c **** * Side Effects:
1296:.\Generated_Source\PSoC4/capsense.c **** *  This API is called only after CapSense component is stopped.
1297:.\Generated_Source\PSoC4/capsense.c **** *
1298:.\Generated_Source\PSoC4/capsense.c **** *******************************************************************************/
1299:.\Generated_Source\PSoC4/capsense.c **** void capsense_SetPinDriveMode(uint32 driveMode, uint32 pinNumber, uint32 portNumber)
1300:.\Generated_Source\PSoC4/capsense.c **** {
 605              		.loc 1 1300 0
 606              		.cfi_startproc
 607              	.LVL73:
 608 0000 10B5     		push	{r4, lr}
 609              		.cfi_def_cfa_offset 8
 610              		.cfi_offset 4, -8
 611              		.cfi_offset 14, -4
1301:.\Generated_Source\PSoC4/capsense.c ****     uint32  pinModeShift;
1302:.\Generated_Source\PSoC4/capsense.c ****     uint32 newRegisterValue;
1303:.\Generated_Source\PSoC4/capsense.c **** 
1304:.\Generated_Source\PSoC4/capsense.c ****     pinModeShift  = pinNumber * capsense_PC_PIN_CFG_SIZE;
 612              		.loc 1 1304 0
 613 0002 4B00     		lsl	r3, r1, #1
 614 0004 5918     		add	r1, r3, r1
 615              	.LVL74:
1305:.\Generated_Source\PSoC4/capsense.c **** 
1306:.\Generated_Source\PSoC4/capsense.c ****     newRegisterValue = *capsense_prtCfgTbl[portNumber];
 616              		.loc 1 1306 0
 617 0006 9200     		lsl	r2, r2, #2
 618              	.LVL75:
 619 0008 054B     		ldr	r3, .L39
 620 000a 9A18     		add	r2, r3, r2
 621 000c D46A     		ldr	r4, [r2, #44]
 622 000e 2368     		ldr	r3, [r4]
 623              	.LVL76:
1307:.\Generated_Source\PSoC4/capsense.c ****     newRegisterValue &= ~(capsense_CSD_PIN_MODE_MASK << pinModeShift);
 624              		.loc 1 1307 0
ARM GAS  C:\Users\Alan\AppData\Local\Temp\ccTIy4ty.s 			page 35


 625 0010 0722     		mov	r2, #7
 626 0012 8A40     		lsl	r2, r2, r1
 627 0014 9343     		bic	r3, r2
 628              	.LVL77:
1308:.\Generated_Source\PSoC4/capsense.c ****     newRegisterValue |=  (uint32)((uint32)driveMode << pinModeShift);
 629              		.loc 1 1308 0
 630 0016 8840     		lsl	r0, r0, r1
 631              	.LVL78:
 632 0018 1843     		orr	r0, r3
 633              	.LVL79:
1309:.\Generated_Source\PSoC4/capsense.c ****     *capsense_prtCfgTbl[portNumber] =  newRegisterValue;
 634              		.loc 1 1309 0
 635 001a 2060     		str	r0, [r4]
1310:.\Generated_Source\PSoC4/capsense.c **** }
 636              		.loc 1 1310 0
 637              		@ sp needed
 638 001c 10BD     		pop	{r4, pc}
 639              	.L40:
 640 001e C046     		.align	2
 641              	.L39:
 642 0020 00000000 		.word	.LANCHOR2
 643              		.cfi_endproc
 644              	.LFE54:
 645              		.size	capsense_SetPinDriveMode, .-capsense_SetPinDriveMode
 646              		.section	.text.capsense_SetDriveModeAllPins,"ax",%progbits
 647              		.align	2
 648              		.global	capsense_SetDriveModeAllPins
 649              		.code	16
 650              		.thumb_func
 651              		.type	capsense_SetDriveModeAllPins, %function
 652              	capsense_SetDriveModeAllPins:
 653              	.LFB52:
1175:.\Generated_Source\PSoC4/capsense.c ****     uint8 curSensor;
 654              		.loc 1 1175 0
 655              		.cfi_startproc
 656              	.LVL80:
 657 0000 38B5     		push	{r3, r4, r5, lr}
 658              		.cfi_def_cfa_offset 16
 659              		.cfi_offset 3, -16
 660              		.cfi_offset 4, -12
 661              		.cfi_offset 5, -8
 662              		.cfi_offset 14, -4
 663 0002 051C     		mov	r5, r0
 664              	.LVL81:
1184:.\Generated_Source\PSoC4/capsense.c ****     {
 665              		.loc 1 1184 0
 666 0004 0024     		mov	r4, #0
 667 0006 08E0     		b	.L42
 668              	.LVL82:
 669              	.L43:
1206:.\Generated_Source\PSoC4/capsense.c ****             pinNumberTmp = capsense_pinShiftTbl[curSensor];
 670              		.loc 1 1206 0 discriminator 3
 671 0008 084B     		ldr	r3, .L44
 672 000a 1A5D     		ldrb	r2, [r3, r4]
 673              	.LVL83:
1207:.\Generated_Source\PSoC4/capsense.c ****         #endif  /* capsense_IS_COMPLEX_SCANSLOTS */
 674              		.loc 1 1207 0 discriminator 3
ARM GAS  C:\Users\Alan\AppData\Local\Temp\ccTIy4ty.s 			page 36


 675 000c 1B19     		add	r3, r3, r4
 676 000e 197A     		ldrb	r1, [r3, #8]
 677              	.LVL84:
1210:.\Generated_Source\PSoC4/capsense.c ****     }
 678              		.loc 1 1210 0 discriminator 3
 679 0010 281C     		mov	r0, r5
 680 0012 FFF7FEFF 		bl	capsense_SetPinDriveMode
 681              	.LVL85:
1184:.\Generated_Source\PSoC4/capsense.c ****     {
 682              		.loc 1 1184 0 discriminator 3
 683 0016 0134     		add	r4, r4, #1
 684              	.LVL86:
 685 0018 E4B2     		uxtb	r4, r4
 686              	.LVL87:
 687              	.L42:
1184:.\Generated_Source\PSoC4/capsense.c ****     {
 688              		.loc 1 1184 0 is_stmt 0 discriminator 1
 689 001a 042C     		cmp	r4, #4
 690 001c F4D9     		bls	.L43
1213:.\Generated_Source\PSoC4/capsense.c **** 
 691              		.loc 1 1213 0 is_stmt 1
 692 001e 281C     		mov	r0, r5
 693 0020 0021     		mov	r1, #0
 694 0022 0422     		mov	r2, #4
 695 0024 FFF7FEFF 		bl	capsense_SetPinDriveMode
 696              	.LVL88:
1222:.\Generated_Source\PSoC4/capsense.c **** 
 697              		.loc 1 1222 0
 698              		@ sp needed
 699              	.LVL89:
 700              	.LVL90:
 701 0028 38BD     		pop	{r3, r4, r5, pc}
 702              	.L45:
 703 002a C046     		.align	2
 704              	.L44:
 705 002c 00000000 		.word	.LANCHOR2
 706              		.cfi_endproc
 707              	.LFE52:
 708              		.size	capsense_SetDriveModeAllPins, .-capsense_SetDriveModeAllPins
 709              		.section	.text.capsense_RestoreDriveModeAllPins,"ax",%progbits
 710              		.align	2
 711              		.global	capsense_RestoreDriveModeAllPins
 712              		.code	16
 713              		.thumb_func
 714              		.type	capsense_RestoreDriveModeAllPins, %function
 715              	capsense_RestoreDriveModeAllPins:
 716              	.LFB53:
1248:.\Generated_Source\PSoC4/capsense.c ****     uint32 newRegisterValue;
 717              		.loc 1 1248 0
 718              		.cfi_startproc
 719 0000 08B5     		push	{r3, lr}
 720              		.cfi_def_cfa_offset 8
 721              		.cfi_offset 3, -8
 722              		.cfi_offset 14, -4
1251:.\Generated_Source\PSoC4/capsense.c **** 
 723              		.loc 1 1251 0
 724 0002 0020     		mov	r0, #0
ARM GAS  C:\Users\Alan\AppData\Local\Temp\ccTIy4ty.s 			page 37


 725 0004 FFF7FEFF 		bl	capsense_SetDriveModeAllPins
 726              	.LVL91:
1253:.\Generated_Source\PSoC4/capsense.c ****     newRegisterValue &= ~(capsense_CSD_CMOD_CONNECTION_MASK);
 727              		.loc 1 1253 0
 728 0008 0349     		ldr	r1, .L47
 729 000a 0B68     		ldr	r3, [r1]
 730              	.LVL92:
1254:.\Generated_Source\PSoC4/capsense.c ****     newRegisterValue |= capsense_CSD_CMOD_TO_AMUXBUS_A;
 731              		.loc 1 1254 0
 732 000c 0F22     		mov	r2, #15
 733 000e 9343     		bic	r3, r2
 734              	.LVL93:
1255:.\Generated_Source\PSoC4/capsense.c ****     capsense_CMOD_CONNECTION_REG = newRegisterValue;
 735              		.loc 1 1255 0
 736 0010 093A     		sub	r2, r2, #9
 737 0012 1343     		orr	r3, r2
 738              	.LVL94:
1256:.\Generated_Source\PSoC4/capsense.c **** 
 739              		.loc 1 1256 0
 740 0014 0B60     		str	r3, [r1]
1271:.\Generated_Source\PSoC4/capsense.c **** 
 741              		.loc 1 1271 0
 742              		@ sp needed
 743 0016 08BD     		pop	{r3, pc}
 744              	.L48:
 745              		.align	2
 746              	.L47:
 747 0018 00040240 		.word	1073873920
 748              		.cfi_endproc
 749              	.LFE53:
 750              		.size	capsense_RestoreDriveModeAllPins, .-capsense_RestoreDriveModeAllPins
 751              		.section	.text.capsense_EnableShieldElectrode,"ax",%progbits
 752              		.align	2
 753              		.global	capsense_EnableShieldElectrode
 754              		.code	16
 755              		.thumb_func
 756              		.type	capsense_EnableShieldElectrode, %function
 757              	capsense_EnableShieldElectrode:
 758              	.LFB57:
1311:.\Generated_Source\PSoC4/capsense.c **** 
1312:.\Generated_Source\PSoC4/capsense.c **** 
1313:.\Generated_Source\PSoC4/capsense.c **** /*******************************************************************************
1314:.\Generated_Source\PSoC4/capsense.c **** * Function Name: capsense_PreScan
1315:.\Generated_Source\PSoC4/capsense.c **** ********************************************************************************
1316:.\Generated_Source\PSoC4/capsense.c **** *
1317:.\Generated_Source\PSoC4/capsense.c **** * Summary:
1318:.\Generated_Source\PSoC4/capsense.c **** *  Sets required settings, enables a sensor, removes Vref from AMUX and starts the
1319:.\Generated_Source\PSoC4/capsense.c **** *  scanning process of the sensor.
1320:.\Generated_Source\PSoC4/capsense.c **** *
1321:.\Generated_Source\PSoC4/capsense.c **** * Parameters:
1322:.\Generated_Source\PSoC4/capsense.c **** *  sensor:  Sensor number.
1323:.\Generated_Source\PSoC4/capsense.c **** *
1324:.\Generated_Source\PSoC4/capsense.c **** * Return:
1325:.\Generated_Source\PSoC4/capsense.c **** *  None
1326:.\Generated_Source\PSoC4/capsense.c **** *
1327:.\Generated_Source\PSoC4/capsense.c **** * Global Variables:
1328:.\Generated_Source\PSoC4/capsense.c **** * capsense_widgetNumber[] - This array contains numbers of widgets for each sensor.
ARM GAS  C:\Users\Alan\AppData\Local\Temp\ccTIy4ty.s 			page 38


1329:.\Generated_Source\PSoC4/capsense.c **** * capsense_widgetResolution[] - Contains the widget resolution.
1330:.\Generated_Source\PSoC4/capsense.c **** *
1331:.\Generated_Source\PSoC4/capsense.c **** * Side Effects:
1332:.\Generated_Source\PSoC4/capsense.c **** *  None
1333:.\Generated_Source\PSoC4/capsense.c **** *
1334:.\Generated_Source\PSoC4/capsense.c **** *******************************************************************************/
1335:.\Generated_Source\PSoC4/capsense.c **** void capsense_PreScan(uint32 sensor)
1336:.\Generated_Source\PSoC4/capsense.c **** {
1337:.\Generated_Source\PSoC4/capsense.c ****     uint8 widget;
1338:.\Generated_Source\PSoC4/capsense.c ****     uint8 interruptState;
1339:.\Generated_Source\PSoC4/capsense.c ****     uint32 newRegValue;
1340:.\Generated_Source\PSoC4/capsense.c ****     uint32 counterResolution;
1341:.\Generated_Source\PSoC4/capsense.c **** 
1342:.\Generated_Source\PSoC4/capsense.c ****     #if(capsense_PRS_OPTIONS == capsense__PRS_AUTO)
1343:.\Generated_Source\PSoC4/capsense.c ****         uint8 senseClkDivMath;
1344:.\Generated_Source\PSoC4/capsense.c ****         uint8 sampleClkDivMath;
1345:.\Generated_Source\PSoC4/capsense.c ****     #endif /* (capsense_PRS_OPTIONS == capsense__PRS_AUTO) */
1346:.\Generated_Source\PSoC4/capsense.c **** 
1347:.\Generated_Source\PSoC4/capsense.c ****     #if ((capsense_TUNING_METHOD == capsense__TUNING_AUTO) &&\
1348:.\Generated_Source\PSoC4/capsense.c ****          (0 != capsense_IS_OVERSAMPLING_EN))
1349:.\Generated_Source\PSoC4/capsense.c ****         uint32 oversamplingFactor;
1350:.\Generated_Source\PSoC4/capsense.c ****     #endif /* ((capsense_TUNING_METHOD == capsense__TUNING_AUTO) &&\
1351:.\Generated_Source\PSoC4/capsense.c ****                (0 != capsense_IS_OVERSAMPLING_EN)) */
1352:.\Generated_Source\PSoC4/capsense.c **** 
1353:.\Generated_Source\PSoC4/capsense.c ****     /* Define widget sensor belongs to */
1354:.\Generated_Source\PSoC4/capsense.c ****     widget = capsense_widgetNumber[sensor];
1355:.\Generated_Source\PSoC4/capsense.c **** 
1356:.\Generated_Source\PSoC4/capsense.c ****     /* Recalculate Counter Resolution to MSB 16 bits */
1357:.\Generated_Source\PSoC4/capsense.c ****     counterResolution = capsense_widgetResolution[widget];
1358:.\Generated_Source\PSoC4/capsense.c **** 
1359:.\Generated_Source\PSoC4/capsense.c ****     #if ((capsense_TUNING_METHOD == capsense__TUNING_AUTO) &&\
1360:.\Generated_Source\PSoC4/capsense.c ****          (0 != capsense_IS_OVERSAMPLING_EN))
1361:.\Generated_Source\PSoC4/capsense.c ****         oversamplingFactor = capsense_GetBitValue(capsense_scanSpeedTbl, sensor);
1362:.\Generated_Source\PSoC4/capsense.c **** 
1363:.\Generated_Source\PSoC4/capsense.c ****         if(counterResolution < capsense_RESOLUTION_16_BITS)
1364:.\Generated_Source\PSoC4/capsense.c ****         {
1365:.\Generated_Source\PSoC4/capsense.c ****             counterResolution <<= oversamplingFactor;
1366:.\Generated_Source\PSoC4/capsense.c ****             counterResolution |= (uint32)(capsense_RESOLUTION_8_BITS);
1367:.\Generated_Source\PSoC4/capsense.c ****         }
1368:.\Generated_Source\PSoC4/capsense.c ****     #endif /* ((capsense_TUNING_METHOD == capsense__TUNING_AUTO) &&\
1369:.\Generated_Source\PSoC4/capsense.c ****                (0 != capsense_IS_OVERSAMPLING_EN)) */
1370:.\Generated_Source\PSoC4/capsense.c **** 
1371:.\Generated_Source\PSoC4/capsense.c ****     #if (0u != capsense_IS_M0S8PERI_BLOCK)
1372:.\Generated_Source\PSoC4/capsense.c ****         capsense_SenseClk_Stop();
1373:.\Generated_Source\PSoC4/capsense.c ****         capsense_SampleClk_Stop();
1374:.\Generated_Source\PSoC4/capsense.c ****     #endif /* (0u != capsense_IS_M0S8PERI_BLOCK) */
1375:.\Generated_Source\PSoC4/capsense.c **** 
1376:.\Generated_Source\PSoC4/capsense.c ****     #if (0u != capsense_MULTIPLE_FREQUENCY_SET)
1377:.\Generated_Source\PSoC4/capsense.c ****         capsense_SampleClk_SetDividerValue((uint16)capsense_sampleClkDividerVal[sensor]);
1378:.\Generated_Source\PSoC4/capsense.c ****         capsense_SenseClk_SetDividerValue((uint16)capsense_senseClkDividerVal[sensor]);
1379:.\Generated_Source\PSoC4/capsense.c ****     #else
1380:.\Generated_Source\PSoC4/capsense.c ****         capsense_SampleClk_SetDividerValue((uint16)capsense_sampleClkDividerVal);
1381:.\Generated_Source\PSoC4/capsense.c ****         capsense_SenseClk_SetDividerValue((uint16)capsense_senseClkDividerVal);
1382:.\Generated_Source\PSoC4/capsense.c ****     #endif /* (0u != capsense_MULTIPLE_FREQUENCY_SET) */
1383:.\Generated_Source\PSoC4/capsense.c **** 
1384:.\Generated_Source\PSoC4/capsense.c ****     #if (0u != capsense_IS_M0S8PERI_BLOCK)
1385:.\Generated_Source\PSoC4/capsense.c ****         capsense_SampleClk_Start();
ARM GAS  C:\Users\Alan\AppData\Local\Temp\ccTIy4ty.s 			page 39


1386:.\Generated_Source\PSoC4/capsense.c ****         capsense_SenseClk_StartEx(capsense_SampleClk__DIV_ID);
1387:.\Generated_Source\PSoC4/capsense.c **** 
1388:.\Generated_Source\PSoC4/capsense.c ****         #if(capsense_PRS_OPTIONS == capsense__PRS_NONE)
1389:.\Generated_Source\PSoC4/capsense.c ****             CyIntDisable(capsense_ISR_NUMBER);
1390:.\Generated_Source\PSoC4/capsense.c ****             capsense_CSD_CNT_REG = capsense_ONE_CYCLE;
1391:.\Generated_Source\PSoC4/capsense.c ****             while(0u != (capsense_CSD_CNT_REG & capsense_RESOLUTION_16_BITS))
1392:.\Generated_Source\PSoC4/capsense.c ****             {
1393:.\Generated_Source\PSoC4/capsense.c ****             /* Wait until scanning is complete */
1394:.\Generated_Source\PSoC4/capsense.c ****             }
1395:.\Generated_Source\PSoC4/capsense.c ****             capsense_CSD_INTR_REG = 1u;
1396:.\Generated_Source\PSoC4/capsense.c ****             CyIntClearPending(capsense_ISR_NUMBER);
1397:.\Generated_Source\PSoC4/capsense.c ****             CyIntEnable(capsense_ISR_NUMBER);
1398:.\Generated_Source\PSoC4/capsense.c ****         #endif /* capsense_PRS_OPTIONS == capsense__PRS_NONE */
1399:.\Generated_Source\PSoC4/capsense.c ****     #endif /* (0u != capsense_IS_M0S8PERI_BLOCK) */
1400:.\Generated_Source\PSoC4/capsense.c **** 
1401:.\Generated_Source\PSoC4/capsense.c **** #if(capsense_PRS_OPTIONS != capsense__PRS_NONE)
1402:.\Generated_Source\PSoC4/capsense.c **** 
1403:.\Generated_Source\PSoC4/capsense.c ****     #if(capsense_TUNING_METHOD == capsense__TUNING_AUTO)
1404:.\Generated_Source\PSoC4/capsense.c ****         if(capsense_prescalersTuningDone != 0u)
1405:.\Generated_Source\PSoC4/capsense.c ****         {
1406:.\Generated_Source\PSoC4/capsense.c ****     #endif /* (capsense_TUNING_METHOD == capsense__TUNING_AUTO) */
1407:.\Generated_Source\PSoC4/capsense.c **** 
1408:.\Generated_Source\PSoC4/capsense.c ****             CyIntDisable(capsense_ISR_NUMBER);
1409:.\Generated_Source\PSoC4/capsense.c **** 
1410:.\Generated_Source\PSoC4/capsense.c ****             newRegValue = capsense_CSD_CFG_REG;
1411:.\Generated_Source\PSoC4/capsense.c ****             newRegValue |= capsense_CSD_CFG_PRS_SELECT;
1412:.\Generated_Source\PSoC4/capsense.c **** 
1413:.\Generated_Source\PSoC4/capsense.c ****             #if(capsense_PRS_OPTIONS == capsense__PRS_AUTO)
1414:.\Generated_Source\PSoC4/capsense.c **** 
1415:.\Generated_Source\PSoC4/capsense.c ****                 newRegValue &= ~(capsense_PRS_MODE_MASK);
1416:.\Generated_Source\PSoC4/capsense.c **** 
1417:.\Generated_Source\PSoC4/capsense.c ****                 #if (0u != capsense_MULTIPLE_FREQUENCY_SET)
1418:.\Generated_Source\PSoC4/capsense.c ****                     senseClkDivMath = capsense_senseClkDividerVal[sensor];
1419:.\Generated_Source\PSoC4/capsense.c ****                     sampleClkDivMath = capsense_sampleClkDividerVal[sensor];
1420:.\Generated_Source\PSoC4/capsense.c ****                 #else
1421:.\Generated_Source\PSoC4/capsense.c ****                     senseClkDivMath = capsense_senseClkDividerVal;
1422:.\Generated_Source\PSoC4/capsense.c ****                     sampleClkDivMath = capsense_sampleClkDividerVal;
1423:.\Generated_Source\PSoC4/capsense.c ****                 #endif /* ( capsense_MULTIPLE_FREQUENCY_SET) */
1424:.\Generated_Source\PSoC4/capsense.c **** 
1425:.\Generated_Source\PSoC4/capsense.c ****                 #if(0u == capsense_IS_M0S8PERI_BLOCK)
1426:.\Generated_Source\PSoC4/capsense.c ****                     senseClkDivMath *= sampleClkDivMath;
1427:.\Generated_Source\PSoC4/capsense.c ****                 #endif /* (0u == capsense_IS_M0S8PERI_BLOCK) */
1428:.\Generated_Source\PSoC4/capsense.c **** 
1429:.\Generated_Source\PSoC4/capsense.c ****                 if((senseClkDivMath * capsense_RESOLUTION_12_BITS) <
1430:.\Generated_Source\PSoC4/capsense.c ****                    (sampleClkDivMath * capsense_widgetResolution[widget]))
1431:.\Generated_Source\PSoC4/capsense.c ****                 {
1432:.\Generated_Source\PSoC4/capsense.c ****                     newRegValue |= capsense_CSD_PRS_12_BIT;
1433:.\Generated_Source\PSoC4/capsense.c ****                 }
1434:.\Generated_Source\PSoC4/capsense.c ****             #endif /* (capsense_PRS_OPTIONS == capsense__PRS_AUTO) */
1435:.\Generated_Source\PSoC4/capsense.c **** 
1436:.\Generated_Source\PSoC4/capsense.c ****             capsense_CSD_CFG_REG = newRegValue;
1437:.\Generated_Source\PSoC4/capsense.c **** 
1438:.\Generated_Source\PSoC4/capsense.c ****             CyIntEnable(capsense_ISR_NUMBER);
1439:.\Generated_Source\PSoC4/capsense.c **** 
1440:.\Generated_Source\PSoC4/capsense.c ****     #if(capsense_TUNING_METHOD == capsense__TUNING_AUTO)
1441:.\Generated_Source\PSoC4/capsense.c ****         }
1442:.\Generated_Source\PSoC4/capsense.c ****     #endif /* (capsense_PRS_OPTIONS != capsense__PRS_NONE) */
ARM GAS  C:\Users\Alan\AppData\Local\Temp\ccTIy4ty.s 			page 40


1443:.\Generated_Source\PSoC4/capsense.c **** 
1444:.\Generated_Source\PSoC4/capsense.c **** #endif /* (capsense_PRS_OPTIONS == capsense__PRS_NONE) */
1445:.\Generated_Source\PSoC4/capsense.c **** 
1446:.\Generated_Source\PSoC4/capsense.c ****     /* Set Idac Value */
1447:.\Generated_Source\PSoC4/capsense.c ****     CyIntDisable(capsense_ISR_NUMBER);
1448:.\Generated_Source\PSoC4/capsense.c ****     newRegValue = capsense_CSD_IDAC_REG;
1449:.\Generated_Source\PSoC4/capsense.c **** 
1450:.\Generated_Source\PSoC4/capsense.c **** #if (capsense_IDAC_CNT == 1u)
1451:.\Generated_Source\PSoC4/capsense.c ****     newRegValue &= ~(capsense_CSD_IDAC1_DATA_MASK);
1452:.\Generated_Source\PSoC4/capsense.c ****     newRegValue |= capsense_modulationIDAC[sensor];
1453:.\Generated_Source\PSoC4/capsense.c **** #else
1454:.\Generated_Source\PSoC4/capsense.c ****     newRegValue &= ~(capsense_CSD_IDAC1_DATA_MASK | capsense_CSD_IDAC2_DATA_MASK);
1455:.\Generated_Source\PSoC4/capsense.c ****     newRegValue |= (capsense_modulationIDAC[sensor] |
1456:.\Generated_Source\PSoC4/capsense.c ****                             (uint32)((uint32)capsense_compensationIDAC[sensor] <<
1457:.\Generated_Source\PSoC4/capsense.c ****                             capsense_CSD_IDAC2_DATA_OFFSET));
1458:.\Generated_Source\PSoC4/capsense.c **** #endif /* (capsense_IDAC_CNT == 1u) */
1459:.\Generated_Source\PSoC4/capsense.c **** 
1460:.\Generated_Source\PSoC4/capsense.c ****     capsense_CSD_IDAC_REG = newRegValue;
1461:.\Generated_Source\PSoC4/capsense.c **** 
1462:.\Generated_Source\PSoC4/capsense.c **** #if(capsense_CMOD_PREGARGE_OPTION == capsense__CAPPRIOBUF)
1463:.\Generated_Source\PSoC4/capsense.c ****     newRegValue = capsense_CMOD_CONNECTION_REG;
1464:.\Generated_Source\PSoC4/capsense.c ****     newRegValue &= ~(capsense_CSD_CMOD_CONNECTION_MASK);
1465:.\Generated_Source\PSoC4/capsense.c ****     newRegValue |= capsense_CSD_CMOD_TO_AMUXBUS_A;
1466:.\Generated_Source\PSoC4/capsense.c ****     capsense_CMOD_CONNECTION_REG = newRegValue;
1467:.\Generated_Source\PSoC4/capsense.c **** 
1468:.\Generated_Source\PSoC4/capsense.c ****     newRegValue = capsense_CMOD_PORT_PC_REG;
1469:.\Generated_Source\PSoC4/capsense.c ****     newRegValue &= ~(capsense_CSD_CMOD_PC_MASK);
1470:.\Generated_Source\PSoC4/capsense.c ****     newRegValue |= capsense_CMOD_PC_HIGH_Z_MODE;
1471:.\Generated_Source\PSoC4/capsense.c ****     capsense_CMOD_PORT_PC_REG = newRegValue;
1472:.\Generated_Source\PSoC4/capsense.c **** #endif /* (capsense_CMOD_PREGARGE_OPTION == capsense__CAPPRIOBUF) */
1473:.\Generated_Source\PSoC4/capsense.c **** 
1474:.\Generated_Source\PSoC4/capsense.c ****     /* Disconnect Vref Buffer from AMUX */
1475:.\Generated_Source\PSoC4/capsense.c ****     newRegValue = capsense_CSD_CFG_REG;
1476:.\Generated_Source\PSoC4/capsense.c ****     newRegValue &= ~(capsense_PRECHARGE_CONFIG_MASK);
1477:.\Generated_Source\PSoC4/capsense.c ****     newRegValue |= capsense_CTANK_PRECHARGE_CONFIG;
1478:.\Generated_Source\PSoC4/capsense.c **** 
1479:.\Generated_Source\PSoC4/capsense.c ****     CyIntEnable(capsense_ISR_NUMBER);
1480:.\Generated_Source\PSoC4/capsense.c **** 
1481:.\Generated_Source\PSoC4/capsense.c ****     /* Enable Sensor */
1482:.\Generated_Source\PSoC4/capsense.c ****     capsense_EnableScanSlot(sensor);
1483:.\Generated_Source\PSoC4/capsense.c **** 
1484:.\Generated_Source\PSoC4/capsense.c ****     interruptState = CyEnterCriticalSection();
1485:.\Generated_Source\PSoC4/capsense.c ****     capsense_CSD_CFG_REG = newRegValue;
1486:.\Generated_Source\PSoC4/capsense.c **** 
1487:.\Generated_Source\PSoC4/capsense.c ****     /* `#START capsense_PreSettlingDelay_Debug` */
1488:.\Generated_Source\PSoC4/capsense.c **** 
1489:.\Generated_Source\PSoC4/capsense.c ****     /* `#END` */
1490:.\Generated_Source\PSoC4/capsense.c ****     
1491:.\Generated_Source\PSoC4/capsense.c **** #ifdef capsense_PRE_SCAN_PRE_SETTLING_DELAY_DEBUG_CALLBACK
1492:.\Generated_Source\PSoC4/capsense.c ****     capsense_PreScan_Pre_SettlingDelay_Debug_Callback();
1493:.\Generated_Source\PSoC4/capsense.c **** #endif /* capsense_PRE_SCAN_PRE_SETTLING_DELAY_DEBUG_CALLBACK */
1494:.\Generated_Source\PSoC4/capsense.c **** 
1495:.\Generated_Source\PSoC4/capsense.c ****     CyDelayCycles(capsense_GLITCH_ELIMINATION_CYCLES);
1496:.\Generated_Source\PSoC4/capsense.c **** 
1497:.\Generated_Source\PSoC4/capsense.c ****     /* `#START capsense_PreScan_Debug` */
1498:.\Generated_Source\PSoC4/capsense.c **** 
1499:.\Generated_Source\PSoC4/capsense.c ****     /* `#END` */
ARM GAS  C:\Users\Alan\AppData\Local\Temp\ccTIy4ty.s 			page 41


1500:.\Generated_Source\PSoC4/capsense.c ****     
1501:.\Generated_Source\PSoC4/capsense.c **** #ifdef capsense_PRE_SCAN_DEBUG_CALLBACK
1502:.\Generated_Source\PSoC4/capsense.c ****     capsense_PreScan_Debug_Callback();
1503:.\Generated_Source\PSoC4/capsense.c **** #endif /* capsense_PRE_SCAN_DEBUG_CALLBACK */
1504:.\Generated_Source\PSoC4/capsense.c **** 
1505:.\Generated_Source\PSoC4/capsense.c ****     capsense_CSD_CNT_REG = counterResolution;
1506:.\Generated_Source\PSoC4/capsense.c ****     CyExitCriticalSection(interruptState);
1507:.\Generated_Source\PSoC4/capsense.c **** }
1508:.\Generated_Source\PSoC4/capsense.c **** 
1509:.\Generated_Source\PSoC4/capsense.c **** 
1510:.\Generated_Source\PSoC4/capsense.c **** /*******************************************************************************
1511:.\Generated_Source\PSoC4/capsense.c **** * Function Name: capsense_PostScan
1512:.\Generated_Source\PSoC4/capsense.c **** ********************************************************************************
1513:.\Generated_Source\PSoC4/capsense.c **** *
1514:.\Generated_Source\PSoC4/capsense.c **** * Summary:
1515:.\Generated_Source\PSoC4/capsense.c **** *  Stores the results of measurement in the capsense_sensorRaw[] array,
1516:.\Generated_Source\PSoC4/capsense.c **** *  sets the scanning sensor in the non-sampling state, turns off Idac(Current Source IDAC),
1517:.\Generated_Source\PSoC4/capsense.c **** *  disconnects the IDAC(Sink mode), and applies Vref on AMUX.
1518:.\Generated_Source\PSoC4/capsense.c **** *
1519:.\Generated_Source\PSoC4/capsense.c **** * Parameters:
1520:.\Generated_Source\PSoC4/capsense.c **** *  sensor:  Sensor number.
1521:.\Generated_Source\PSoC4/capsense.c **** *
1522:.\Generated_Source\PSoC4/capsense.c **** * Return:
1523:.\Generated_Source\PSoC4/capsense.c **** *  None
1524:.\Generated_Source\PSoC4/capsense.c **** *
1525:.\Generated_Source\PSoC4/capsense.c **** * Global Variables:
1526:.\Generated_Source\PSoC4/capsense.c **** *  capsense_sensorRaw[] - used to store sensors raw data.
1527:.\Generated_Source\PSoC4/capsense.c **** *
1528:.\Generated_Source\PSoC4/capsense.c **** * Side Effects:
1529:.\Generated_Source\PSoC4/capsense.c **** *  None
1530:.\Generated_Source\PSoC4/capsense.c **** *
1531:.\Generated_Source\PSoC4/capsense.c **** *******************************************************************************/
1532:.\Generated_Source\PSoC4/capsense.c **** void capsense_PostScan(uint32 sensor)
1533:.\Generated_Source\PSoC4/capsense.c **** {
1534:.\Generated_Source\PSoC4/capsense.c ****     uint32 newRegValue;
1535:.\Generated_Source\PSoC4/capsense.c **** #if ((capsense_TUNING_METHOD == capsense__TUNING_AUTO) &&\
1536:.\Generated_Source\PSoC4/capsense.c ****      (0 != capsense_IS_OVERSAMPLING_EN))
1537:.\Generated_Source\PSoC4/capsense.c ****     uint32 oversamplingFactor;
1538:.\Generated_Source\PSoC4/capsense.c ****     uint32 widget;
1539:.\Generated_Source\PSoC4/capsense.c **** #endif /* ((capsense_TUNING_METHOD == capsense__TUNING_AUTO) &&\
1540:.\Generated_Source\PSoC4/capsense.c ****            (0 != capsense_IS_OVERSAMPLING_EN)) */
1541:.\Generated_Source\PSoC4/capsense.c **** 
1542:.\Generated_Source\PSoC4/capsense.c ****     /* `#START capsense_PostScan_Debug` */
1543:.\Generated_Source\PSoC4/capsense.c **** 
1544:.\Generated_Source\PSoC4/capsense.c ****     /* `#END` */
1545:.\Generated_Source\PSoC4/capsense.c ****     
1546:.\Generated_Source\PSoC4/capsense.c **** #ifdef capsense_POST_SCAN_DEBUG_CALLBACK
1547:.\Generated_Source\PSoC4/capsense.c ****     capsense_PostScan_Debug_Callback();
1548:.\Generated_Source\PSoC4/capsense.c **** #endif /* capsense_POST_SCAN_DEBUG_Callback */
1549:.\Generated_Source\PSoC4/capsense.c **** 
1550:.\Generated_Source\PSoC4/capsense.c ****     /* Read SlotResult from Raw Counter */
1551:.\Generated_Source\PSoC4/capsense.c ****     capsense_sensorRaw[sensor]  = (uint16)capsense_CSD_CNT_REG;
1552:.\Generated_Source\PSoC4/capsense.c **** 
1553:.\Generated_Source\PSoC4/capsense.c **** #if ((capsense_TUNING_METHOD == capsense__TUNING_AUTO) &&\
1554:.\Generated_Source\PSoC4/capsense.c ****      (0 != capsense_IS_OVERSAMPLING_EN))
1555:.\Generated_Source\PSoC4/capsense.c ****     widget = capsense_widgetNumber[sensor];
1556:.\Generated_Source\PSoC4/capsense.c ****     if(capsense_widgetResolution[widget] < capsense_RESOLUTION_16_BITS)
ARM GAS  C:\Users\Alan\AppData\Local\Temp\ccTIy4ty.s 			page 42


1557:.\Generated_Source\PSoC4/capsense.c ****     {
1558:.\Generated_Source\PSoC4/capsense.c ****         oversamplingFactor = capsense_GetBitValue(capsense_scanSpeedTbl, sensor);
1559:.\Generated_Source\PSoC4/capsense.c ****         capsense_sensorRaw[sensor] >>= oversamplingFactor;
1560:.\Generated_Source\PSoC4/capsense.c ****     }
1561:.\Generated_Source\PSoC4/capsense.c **** #endif /* ((capsense_TUNING_METHOD == capsense__TUNING_AUTO) &&\
1562:.\Generated_Source\PSoC4/capsense.c ****            (0 != capsense_IS_OVERSAMPLING_EN)) */
1563:.\Generated_Source\PSoC4/capsense.c **** 
1564:.\Generated_Source\PSoC4/capsense.c ****     /* Disable Sensor */
1565:.\Generated_Source\PSoC4/capsense.c ****     capsense_DisableScanSlot(sensor);
1566:.\Generated_Source\PSoC4/capsense.c **** 
1567:.\Generated_Source\PSoC4/capsense.c ****     CyIntDisable(capsense_ISR_NUMBER);
1568:.\Generated_Source\PSoC4/capsense.c **** 
1569:.\Generated_Source\PSoC4/capsense.c **** #if(capsense_CMOD_PREGARGE_OPTION == capsense__CAPPRIOBUF)
1570:.\Generated_Source\PSoC4/capsense.c ****     newRegValue = capsense_CMOD_CONNECTION_REG;
1571:.\Generated_Source\PSoC4/capsense.c ****     newRegValue &= ~(capsense_CSD_CMOD_CONNECTION_MASK);
1572:.\Generated_Source\PSoC4/capsense.c ****     newRegValue |= capsense_CSD_CMOD_TO_AMUXBUS_B;
1573:.\Generated_Source\PSoC4/capsense.c ****     capsense_CMOD_CONNECTION_REG = newRegValue;
1574:.\Generated_Source\PSoC4/capsense.c **** 
1575:.\Generated_Source\PSoC4/capsense.c ****     newRegValue = capsense_CMOD_PORT_PC_REG;
1576:.\Generated_Source\PSoC4/capsense.c ****     newRegValue &= ~(capsense_CSD_CMOD_PC_MASK);
1577:.\Generated_Source\PSoC4/capsense.c ****     newRegValue |= capsense_CMOD_PC_STRONG_MODE;
1578:.\Generated_Source\PSoC4/capsense.c ****     capsense_CMOD_PORT_PC_REG = newRegValue;
1579:.\Generated_Source\PSoC4/capsense.c **** 
1580:.\Generated_Source\PSoC4/capsense.c ****     newRegValue = capsense_CMOD_PORT_DR_REG;
1581:.\Generated_Source\PSoC4/capsense.c ****     newRegValue &= ~(capsense_CMOD_DR_MASK);
1582:.\Generated_Source\PSoC4/capsense.c ****     newRegValue |= capsense_CMOD_DR_CONFIG;
1583:.\Generated_Source\PSoC4/capsense.c ****     capsense_CMOD_PORT_DR_REG = newRegValue;
1584:.\Generated_Source\PSoC4/capsense.c **** #endif /* (capsense_CMOD_PREGARGE_OPTION == capsense__CAPPRIOBUF) */
1585:.\Generated_Source\PSoC4/capsense.c **** 
1586:.\Generated_Source\PSoC4/capsense.c ****     /* Connect Vref Buffer to AMUX bus  */
1587:.\Generated_Source\PSoC4/capsense.c ****     newRegValue = capsense_CSD_CFG_REG;
1588:.\Generated_Source\PSoC4/capsense.c ****     newRegValue &= ~(capsense_PRECHARGE_CONFIG_MASK);
1589:.\Generated_Source\PSoC4/capsense.c ****     newRegValue |= capsense_CMOD_PRECHARGE_CONFIG;
1590:.\Generated_Source\PSoC4/capsense.c ****     capsense_CSD_CFG_REG = newRegValue;
1591:.\Generated_Source\PSoC4/capsense.c **** 
1592:.\Generated_Source\PSoC4/capsense.c ****     /* Set Idac Value = 0 */
1593:.\Generated_Source\PSoC4/capsense.c **** #if (capsense_IDAC_CNT == 1u)
1594:.\Generated_Source\PSoC4/capsense.c ****     capsense_CSD_IDAC_REG &= ~(capsense_CSD_IDAC1_DATA_MASK);
1595:.\Generated_Source\PSoC4/capsense.c **** #else
1596:.\Generated_Source\PSoC4/capsense.c ****     capsense_CSD_IDAC_REG &= ~(capsense_CSD_IDAC1_DATA_MASK | capsense_CSD_IDAC2_DATA_MASK);
1597:.\Generated_Source\PSoC4/capsense.c **** #endif /* (capsense_IDAC_CNT == 1u) */
1598:.\Generated_Source\PSoC4/capsense.c **** 
1599:.\Generated_Source\PSoC4/capsense.c ****     CyIntEnable(capsense_ISR_NUMBER);
1600:.\Generated_Source\PSoC4/capsense.c **** }
1601:.\Generated_Source\PSoC4/capsense.c **** 
1602:.\Generated_Source\PSoC4/capsense.c **** 
1603:.\Generated_Source\PSoC4/capsense.c **** /*******************************************************************************
1604:.\Generated_Source\PSoC4/capsense.c **** * Function Name: capsense_EnableShieldElectrode
1605:.\Generated_Source\PSoC4/capsense.c **** ********************************************************************************
1606:.\Generated_Source\PSoC4/capsense.c **** *
1607:.\Generated_Source\PSoC4/capsense.c **** * Summary:
1608:.\Generated_Source\PSoC4/capsense.c **** *  This API enables or disables the shield electrode on a specified port pin.
1609:.\Generated_Source\PSoC4/capsense.c **** *
1610:.\Generated_Source\PSoC4/capsense.c **** * Parameters:
1611:.\Generated_Source\PSoC4/capsense.c **** *  portNumber: contains the shield electrode port number (0, 1, 2).
1612:.\Generated_Source\PSoC4/capsense.c **** *  pinNumber: contains the shield electrode pin number (0, 1, 2, ... , 7).
1613:.\Generated_Source\PSoC4/capsense.c **** *
ARM GAS  C:\Users\Alan\AppData\Local\Temp\ccTIy4ty.s 			page 43


1614:.\Generated_Source\PSoC4/capsense.c **** * Return:
1615:.\Generated_Source\PSoC4/capsense.c **** *  None
1616:.\Generated_Source\PSoC4/capsense.c **** *
1617:.\Generated_Source\PSoC4/capsense.c **** * Global Variables:
1618:.\Generated_Source\PSoC4/capsense.c **** *  capsense_prtCfgTbl[] - Contains pointers to the port config registers for each port.
1619:.\Generated_Source\PSoC4/capsense.c **** *  capsense_prtSelTbl[] - Contains pointers to the HSIOM registers for each port.
1620:.\Generated_Source\PSoC4/capsense.c **** *
1621:.\Generated_Source\PSoC4/capsense.c **** * Side Effects:
1622:.\Generated_Source\PSoC4/capsense.c **** *  None
1623:.\Generated_Source\PSoC4/capsense.c **** *
1624:.\Generated_Source\PSoC4/capsense.c **** *******************************************************************************/
1625:.\Generated_Source\PSoC4/capsense.c **** void capsense_EnableShieldElectrode(uint32 pinNumber, uint32 portNumber)
1626:.\Generated_Source\PSoC4/capsense.c **** {
 759              		.loc 1 1626 0
 760              		.cfi_startproc
 761              	.LVL95:
 762 0000 30B5     		push	{r4, r5, lr}
 763              		.cfi_def_cfa_offset 12
 764              		.cfi_offset 4, -12
 765              		.cfi_offset 5, -8
 766              		.cfi_offset 14, -4
1627:.\Generated_Source\PSoC4/capsense.c ****     uint32 newRegValue;
1628:.\Generated_Source\PSoC4/capsense.c **** 
1629:.\Generated_Source\PSoC4/capsense.c ****     *capsense_prtCfgTbl[portNumber] &= ~(capsense_CSD_PIN_MODE_MASK << (pinNumber * capsense_PC_PIN
 767              		.loc 1 1629 0
 768 0002 8900     		lsl	r1, r1, #2
 769              	.LVL96:
 770 0004 0A4B     		ldr	r3, .L50
 771 0006 5918     		add	r1, r3, r1
 772 0008 CD6A     		ldr	r5, [r1, #44]
 773 000a 2B68     		ldr	r3, [r5]
 774 000c 4200     		lsl	r2, r0, #1
 775 000e 1218     		add	r2, r2, r0
 776 0010 0724     		mov	r4, #7
 777 0012 9440     		lsl	r4, r4, r2
 778 0014 A343     		bic	r3, r4
 779 0016 2B60     		str	r3, [r5]
1630:.\Generated_Source\PSoC4/capsense.c ****     newRegValue = *capsense_prtSelTbl[portNumber];
 780              		.loc 1 1630 0
 781 0018 0969     		ldr	r1, [r1, #16]
 782 001a 0B68     		ldr	r3, [r1]
 783              	.LVL97:
1631:.\Generated_Source\PSoC4/capsense.c ****     newRegValue &= ~(capsense_CSD_HSIOM_MASK << (pinNumber * capsense_HSIOM_PIN_CFG_SIZE));
 784              		.loc 1 1631 0
 785 001c 8000     		lsl	r0, r0, #2
 786              	.LVL98:
 787 001e 0F22     		mov	r2, #15
 788 0020 8240     		lsl	r2, r2, r0
 789 0022 9343     		bic	r3, r2
 790              	.LVL99:
1632:.\Generated_Source\PSoC4/capsense.c ****     newRegValue |= (capsense_CSD_SHIELD_PORT_MODE << (pinNumber * capsense_HSIOM_PIN_CFG_SIZE));
 791              		.loc 1 1632 0
 792 0024 0522     		mov	r2, #5
 793 0026 8240     		lsl	r2, r2, r0
 794 0028 101C     		mov	r0, r2
 795 002a 1843     		orr	r0, r3
 796              	.LVL100:
ARM GAS  C:\Users\Alan\AppData\Local\Temp\ccTIy4ty.s 			page 44


1633:.\Generated_Source\PSoC4/capsense.c ****     *capsense_prtSelTbl[portNumber] = newRegValue;
 797              		.loc 1 1633 0
 798 002c 0860     		str	r0, [r1]
1634:.\Generated_Source\PSoC4/capsense.c **** }
 799              		.loc 1 1634 0
 800              		@ sp needed
 801 002e 30BD     		pop	{r4, r5, pc}
 802              	.L51:
 803              		.align	2
 804              	.L50:
 805 0030 00000000 		.word	.LANCHOR2
 806              		.cfi_endproc
 807              	.LFE57:
 808              		.size	capsense_EnableShieldElectrode, .-capsense_EnableShieldElectrode
 809              		.section	.text.capsense_SetShieldDelay,"ax",%progbits
 810              		.align	2
 811              		.global	capsense_SetShieldDelay
 812              		.code	16
 813              		.thumb_func
 814              		.type	capsense_SetShieldDelay, %function
 815              	capsense_SetShieldDelay:
 816              	.LFB58:
1635:.\Generated_Source\PSoC4/capsense.c **** 
1636:.\Generated_Source\PSoC4/capsense.c **** 
1637:.\Generated_Source\PSoC4/capsense.c **** /*******************************************************************************
1638:.\Generated_Source\PSoC4/capsense.c **** * Function Name: capsense_SetShieldDelay
1639:.\Generated_Source\PSoC4/capsense.c **** ********************************************************************************
1640:.\Generated_Source\PSoC4/capsense.c **** *
1641:.\Generated_Source\PSoC4/capsense.c **** * Summary:
1642:.\Generated_Source\PSoC4/capsense.c **** *  This API sets a shield delay.
1643:.\Generated_Source\PSoC4/capsense.c **** *
1644:.\Generated_Source\PSoC4/capsense.c **** * Parameters:
1645:.\Generated_Source\PSoC4/capsense.c **** *  delay:  shield delay value:
1646:.\Generated_Source\PSoC4/capsense.c **** *                               0 - no delay
1647:.\Generated_Source\PSoC4/capsense.c **** *                               1 - 1 cycle delay
1648:.\Generated_Source\PSoC4/capsense.c **** *                               2 - 2 cycles delay
1649:.\Generated_Source\PSoC4/capsense.c **** *
1650:.\Generated_Source\PSoC4/capsense.c **** * Return:
1651:.\Generated_Source\PSoC4/capsense.c **** *  None
1652:.\Generated_Source\PSoC4/capsense.c **** *
1653:.\Generated_Source\PSoC4/capsense.c **** * Global Variables:
1654:.\Generated_Source\PSoC4/capsense.c **** *  None
1655:.\Generated_Source\PSoC4/capsense.c **** *
1656:.\Generated_Source\PSoC4/capsense.c **** * Side Effects:
1657:.\Generated_Source\PSoC4/capsense.c **** *  None
1658:.\Generated_Source\PSoC4/capsense.c **** *
1659:.\Generated_Source\PSoC4/capsense.c **** *******************************************************************************/
1660:.\Generated_Source\PSoC4/capsense.c **** void capsense_SetShieldDelay(uint32 delay)
1661:.\Generated_Source\PSoC4/capsense.c **** {
 817              		.loc 1 1661 0
 818              		.cfi_startproc
 819              	.LVL101:
1662:.\Generated_Source\PSoC4/capsense.c ****     uint32 newRegValue;
1663:.\Generated_Source\PSoC4/capsense.c **** 
1664:.\Generated_Source\PSoC4/capsense.c ****     delay &= 0x03u;
 820              		.loc 1 1664 0
 821 0000 0323     		mov	r3, #3
ARM GAS  C:\Users\Alan\AppData\Local\Temp\ccTIy4ty.s 			page 45


 822 0002 1840     		and	r0, r3
 823              	.LVL102:
1665:.\Generated_Source\PSoC4/capsense.c **** 
1666:.\Generated_Source\PSoC4/capsense.c ****     newRegValue = capsense_CSD_CFG_REG;
 824              		.loc 1 1666 0
 825 0004 024B     		ldr	r3, .L53
 826 0006 1A68     		ldr	r2, [r3]
 827              	.LVL103:
1667:.\Generated_Source\PSoC4/capsense.c ****     newRegValue &= (uint32)(~(uint32)capsense_SHIELD_DELAY);
1668:.\Generated_Source\PSoC4/capsense.c ****     newRegValue |= (delay << capsense_CSD_CFG_SHIELD_DELAY_POS);
 828              		.loc 1 1668 0
 829 0008 4002     		lsl	r0, r0, #9
 830              	.LVL104:
 831 000a 1043     		orr	r0, r2
 832              	.LVL105:
1669:.\Generated_Source\PSoC4/capsense.c ****     capsense_CSD_CFG_REG = newRegValue;
 833              		.loc 1 1669 0
 834 000c 1860     		str	r0, [r3]
1670:.\Generated_Source\PSoC4/capsense.c **** }
 835              		.loc 1 1670 0
 836              		@ sp needed
 837 000e 7047     		bx	lr
 838              	.L54:
 839              		.align	2
 840              	.L53:
 841 0010 04002840 		.word	1076363268
 842              		.cfi_endproc
 843              	.LFE58:
 844              		.size	capsense_SetShieldDelay, .-capsense_SetShieldDelay
 845              		.section	.text.capsense_Init,"ax",%progbits
 846              		.align	2
 847              		.global	capsense_Init
 848              		.code	16
 849              		.thumb_func
 850              		.type	capsense_Init, %function
 851              	capsense_Init:
 852              	.LFB35:
 168:.\Generated_Source\PSoC4/capsense.c ****     uint32 curSensor;
 853              		.loc 1 168 0
 854              		.cfi_startproc
 855 0000 08B5     		push	{r3, lr}
 856              		.cfi_def_cfa_offset 8
 857              		.cfi_offset 3, -8
 858              		.cfi_offset 14, -4
 859              	.LVL106:
 199:.\Generated_Source\PSoC4/capsense.c ****     {
 860              		.loc 1 199 0
 861 0002 0023     		mov	r3, #0
 862 0004 03E0     		b	.L56
 863              	.LVL107:
 864              	.L57:
 201:.\Generated_Source\PSoC4/capsense.c ****     }
 865              		.loc 1 201 0 discriminator 3
 866 0006 0021     		mov	r1, #0
 867 0008 064A     		ldr	r2, .L58
 868 000a D154     		strb	r1, [r2, r3]
 199:.\Generated_Source\PSoC4/capsense.c ****     {
ARM GAS  C:\Users\Alan\AppData\Local\Temp\ccTIy4ty.s 			page 46


 869              		.loc 1 199 0 discriminator 3
 870 000c 0133     		add	r3, r3, #1
 871              	.LVL108:
 872              	.L56:
 199:.\Generated_Source\PSoC4/capsense.c ****     {
 873              		.loc 1 199 0 is_stmt 0 discriminator 1
 874 000e 042B     		cmp	r3, #4
 875 0010 F9D9     		bls	.L57
 204:.\Generated_Source\PSoC4/capsense.c ****     capsense_SetShieldDelay(capsense_SHIELD_DELAY );
 876              		.loc 1 204 0 is_stmt 1
 877 0012 FFF7FEFF 		bl	capsense_CsdHwBlockInit
 878              	.LVL109:
 205:.\Generated_Source\PSoC4/capsense.c **** 
 879              		.loc 1 205 0
 880 0016 0020     		mov	r0, #0
 881 0018 FFF7FEFF 		bl	capsense_SetShieldDelay
 882              	.LVL110:
 208:.\Generated_Source\PSoC4/capsense.c **** }
 883              		.loc 1 208 0
 884 001c FFF7FEFF 		bl	capsense_ClearSensors
 885              	.LVL111:
 209:.\Generated_Source\PSoC4/capsense.c **** 
 886              		.loc 1 209 0
 887              		@ sp needed
 888 0020 08BD     		pop	{r3, pc}
 889              	.L59:
 890 0022 C046     		.align	2
 891              	.L58:
 892 0024 00000000 		.word	capsense_unscannedSnsDriveMode
 893              		.cfi_endproc
 894              	.LFE35:
 895              		.size	capsense_Init, .-capsense_Init
 896              		.section	.text.capsense_Start,"ax",%progbits
 897              		.align	2
 898              		.global	capsense_Start
 899              		.code	16
 900              		.thumb_func
 901              		.type	capsense_Start, %function
 902              	capsense_Start:
 903              	.LFB38:
 377:.\Generated_Source\PSoC4/capsense.c **** 
 904              		.loc 1 377 0
 905              		.cfi_startproc
 906 0000 08B5     		push	{r3, lr}
 907              		.cfi_def_cfa_offset 8
 908              		.cfi_offset 3, -8
 909              		.cfi_offset 14, -4
 387:.\Generated_Source\PSoC4/capsense.c ****     {
 910              		.loc 1 387 0
 911 0002 0B4B     		ldr	r3, .L62
 912 0004 9B7B     		ldrb	r3, [r3, #14]
 913 0006 002B     		cmp	r3, #0
 914 0008 04D1     		bne	.L61
 389:.\Generated_Source\PSoC4/capsense.c ****         capsense_initVar = 1u;
 915              		.loc 1 389 0
 916 000a FFF7FEFF 		bl	capsense_Init
 917              	.LVL112:
ARM GAS  C:\Users\Alan\AppData\Local\Temp\ccTIy4ty.s 			page 47


 390:.\Generated_Source\PSoC4/capsense.c ****     }
 918              		.loc 1 390 0
 919 000e 0122     		mov	r2, #1
 920 0010 074B     		ldr	r3, .L62
 921 0012 9A73     		strb	r2, [r3, #14]
 922              	.L61:
 392:.\Generated_Source\PSoC4/capsense.c **** 
 923              		.loc 1 392 0
 924 0014 FFF7FEFF 		bl	capsense_Enable
 925              	.LVL113:
 397:.\Generated_Source\PSoC4/capsense.c ****             capsense_lowLevelTuningDone = 1u;
 926              		.loc 1 397 0
 927 0018 FFF7FEFF 		bl	capsense_AutoTune
 928              	.LVL114:
 398:.\Generated_Source\PSoC4/capsense.c ****         #endif /* (0u != capsense_CSHL_API_GENERATE) */
 929              		.loc 1 398 0
 930 001c 0122     		mov	r2, #1
 931 001e 044B     		ldr	r3, .L62
 932 0020 DA73     		strb	r2, [r3, #15]
 441:.\Generated_Source\PSoC4/capsense.c **** }
 933              		.loc 1 441 0
 934 0022 044A     		ldr	r2, .L62+4
 935 0024 1368     		ldr	r3, [r2]
 936 0026 8021     		mov	r1, #128
 937 0028 C903     		lsl	r1, r1, #15
 938 002a 0B43     		orr	r3, r1
 939 002c 1360     		str	r3, [r2]
 442:.\Generated_Source\PSoC4/capsense.c **** 
 940              		.loc 1 442 0
 941              		@ sp needed
 942 002e 08BD     		pop	{r3, pc}
 943              	.L63:
 944              		.align	2
 945              	.L62:
 946 0030 00000000 		.word	.LANCHOR0
 947 0034 04002840 		.word	1076363268
 948              		.cfi_endproc
 949              	.LFE38:
 950              		.size	capsense_Start, .-capsense_Start
 951              		.section	.text.capsense_ReadCurrentScanningSensor,"ax",%progbits
 952              		.align	2
 953              		.global	capsense_ReadCurrentScanningSensor
 954              		.code	16
 955              		.thumb_func
 956              		.type	capsense_ReadCurrentScanningSensor, %function
 957              	capsense_ReadCurrentScanningSensor:
 958              	.LFB59:
1671:.\Generated_Source\PSoC4/capsense.c **** 
1672:.\Generated_Source\PSoC4/capsense.c **** 
1673:.\Generated_Source\PSoC4/capsense.c **** /*******************************************************************************
1674:.\Generated_Source\PSoC4/capsense.c **** * Function Name: capsense_ReadCurrentScanningSensor
1675:.\Generated_Source\PSoC4/capsense.c **** ********************************************************************************
1676:.\Generated_Source\PSoC4/capsense.c **** *
1677:.\Generated_Source\PSoC4/capsense.c **** * Summary:
1678:.\Generated_Source\PSoC4/capsense.c **** *  This API returns scanning sensor number when sensor scan is in progress.
1679:.\Generated_Source\PSoC4/capsense.c **** *  When sensor scan is completed the API returns
1680:.\Generated_Source\PSoC4/capsense.c **** *  $INSTANCE_NAME`_NOT_SENSOR (0xFFFFFFFF) (when no sensor is scanned).
ARM GAS  C:\Users\Alan\AppData\Local\Temp\ccTIy4ty.s 			page 48


1681:.\Generated_Source\PSoC4/capsense.c **** *
1682:.\Generated_Source\PSoC4/capsense.c **** * Parameters:
1683:.\Generated_Source\PSoC4/capsense.c **** *   None.
1684:.\Generated_Source\PSoC4/capsense.c **** *
1685:.\Generated_Source\PSoC4/capsense.c **** * Return:
1686:.\Generated_Source\PSoC4/capsense.c **** *  Returns Sensor number if sensor is being scanned and
1687:.\Generated_Source\PSoC4/capsense.c **** *  $INSTANCE_NAME`_NOT_SENSOR (0xFFFFFFFF) if scanning is complete.
1688:.\Generated_Source\PSoC4/capsense.c **** *
1689:.\Generated_Source\PSoC4/capsense.c **** * Global Variables:
1690:.\Generated_Source\PSoC4/capsense.c **** *  capsense_sensorIndex - the sensor number is being scanned.
1691:.\Generated_Source\PSoC4/capsense.c **** *
1692:.\Generated_Source\PSoC4/capsense.c **** * Side Effects:
1693:.\Generated_Source\PSoC4/capsense.c **** *  None
1694:.\Generated_Source\PSoC4/capsense.c **** *
1695:.\Generated_Source\PSoC4/capsense.c **** *******************************************************************************/
1696:.\Generated_Source\PSoC4/capsense.c **** uint32 capsense_ReadCurrentScanningSensor(void)
1697:.\Generated_Source\PSoC4/capsense.c **** {
 959              		.loc 1 1697 0
 960              		.cfi_startproc
1698:.\Generated_Source\PSoC4/capsense.c ****     return ((uint32)(( 0u != (capsense_csdStatusVar & capsense_SW_STS_BUSY)) ?
 961              		.loc 1 1698 0
 962 0000 054B     		ldr	r3, .L67
 963 0002 1B78     		ldrb	r3, [r3]
 964 0004 DB07     		lsl	r3, r3, #31
 965 0006 03D5     		bpl	.L66
 966              		.loc 1 1698 0 is_stmt 0 discriminator 1
 967 0008 034B     		ldr	r3, .L67
 968 000a 187C     		ldrb	r0, [r3, #16]
 969 000c C0B2     		uxtb	r0, r0
 970 000e 01E0     		b	.L65
 971              	.L66:
 972              		.loc 1 1698 0
 973 0010 0120     		mov	r0, #1
 974 0012 4042     		neg	r0, r0
 975              	.L65:
1699:.\Generated_Source\PSoC4/capsense.c ****                      capsense_sensorIndex : capsense_NOT_SENSOR));
1700:.\Generated_Source\PSoC4/capsense.c **** }
 976              		.loc 1 1700 0 is_stmt 1 discriminator 4
 977              		@ sp needed
 978 0014 7047     		bx	lr
 979              	.L68:
 980 0016 C046     		.align	2
 981              	.L67:
 982 0018 00000000 		.word	.LANCHOR0
 983              		.cfi_endproc
 984              	.LFE59:
 985              		.size	capsense_ReadCurrentScanningSensor, .-capsense_ReadCurrentScanningSensor
 986              		.section	.text.capsense_GetBitValue,"ax",%progbits
 987              		.align	2
 988              		.global	capsense_GetBitValue
 989              		.code	16
 990              		.thumb_func
 991              		.type	capsense_GetBitValue, %function
 992              	capsense_GetBitValue:
 993              	.LFB60:
1701:.\Generated_Source\PSoC4/capsense.c **** 
1702:.\Generated_Source\PSoC4/capsense.c **** 
ARM GAS  C:\Users\Alan\AppData\Local\Temp\ccTIy4ty.s 			page 49


1703:.\Generated_Source\PSoC4/capsense.c **** /*******************************************************************************
1704:.\Generated_Source\PSoC4/capsense.c **** * Function Name: capsense_GetBitValue
1705:.\Generated_Source\PSoC4/capsense.c **** ********************************************************************************
1706:.\Generated_Source\PSoC4/capsense.c **** *
1707:.\Generated_Source\PSoC4/capsense.c **** * Summary:
1708:.\Generated_Source\PSoC4/capsense.c **** *  The API returns a bit status of the bit in the table array which contains the masks.
1709:.\Generated_Source\PSoC4/capsense.c **** *
1710:.\Generated_Source\PSoC4/capsense.c **** * Parameters:
1711:.\Generated_Source\PSoC4/capsense.c **** *  table[] - array with bit masks.
1712:.\Generated_Source\PSoC4/capsense.c **** *  position - position of bit in the table[] array.
1713:.\Generated_Source\PSoC4/capsense.c **** *
1714:.\Generated_Source\PSoC4/capsense.c **** * Return:
1715:.\Generated_Source\PSoC4/capsense.c **** *  0 - bit is not set; 1 - bit is set.
1716:.\Generated_Source\PSoC4/capsense.c **** *
1717:.\Generated_Source\PSoC4/capsense.c **** * Global Variables:
1718:.\Generated_Source\PSoC4/capsense.c **** *  None
1719:.\Generated_Source\PSoC4/capsense.c **** *
1720:.\Generated_Source\PSoC4/capsense.c **** * Side Effects:
1721:.\Generated_Source\PSoC4/capsense.c **** *  None
1722:.\Generated_Source\PSoC4/capsense.c **** *
1723:.\Generated_Source\PSoC4/capsense.c **** *******************************************************************************/
1724:.\Generated_Source\PSoC4/capsense.c **** uint32 capsense_GetBitValue(const uint8 table[], uint32 position)
1725:.\Generated_Source\PSoC4/capsense.c **** {
 994              		.loc 1 1725 0
 995              		.cfi_startproc
 996              	.LVL115:
1726:.\Generated_Source\PSoC4/capsense.c ****     uint32 offset;
1727:.\Generated_Source\PSoC4/capsense.c ****     uint8 enMask;
1728:.\Generated_Source\PSoC4/capsense.c **** 
1729:.\Generated_Source\PSoC4/capsense.c ****     /* position is divided by 8 to calculate the element of the
1730:.\Generated_Source\PSoC4/capsense.c ****        table[] array that contains the enable bit
1731:.\Generated_Source\PSoC4/capsense.c ****        for an appropriate sensor.
1732:.\Generated_Source\PSoC4/capsense.c ****     */
1733:.\Generated_Source\PSoC4/capsense.c ****     offset = (position >> 3u);
 997              		.loc 1 1733 0
 998 0000 CA08     		lsr	r2, r1, #3
 999              	.LVL116:
1734:.\Generated_Source\PSoC4/capsense.c **** 
1735:.\Generated_Source\PSoC4/capsense.c ****     /* The enMask calculation for the appropriate sensor. Operation (position & 0x07u)
1736:.\Generated_Source\PSoC4/capsense.c ****        intends to calculate the enable bit offset for the 8-bit element of the
1737:.\Generated_Source\PSoC4/capsense.c ****        table[] array.
1738:.\Generated_Source\PSoC4/capsense.c ****     */
1739:.\Generated_Source\PSoC4/capsense.c ****     enMask = 0x01u << (position & 0x07u);
 1000              		.loc 1 1739 0
 1001 0002 0723     		mov	r3, #7
 1002 0004 1940     		and	r1, r3
 1003              	.LVL117:
 1004 0006 063B     		sub	r3, r3, #6
 1005 0008 8B40     		lsl	r3, r3, r1
 1006 000a 191C     		mov	r1, r3
 1007              	.LVL118:
1740:.\Generated_Source\PSoC4/capsense.c **** 
1741:.\Generated_Source\PSoC4/capsense.c ****     return ((0u !=(table[offset] & enMask)) ? 1Lu : 0Lu);
 1008              		.loc 1 1741 0
 1009 000c 835C     		ldrb	r3, [r0, r2]
 1010 000e 1942     		tst	r1, r3
 1011 0010 01D0     		beq	.L71
ARM GAS  C:\Users\Alan\AppData\Local\Temp\ccTIy4ty.s 			page 50


 1012 0012 0120     		mov	r0, #1
 1013              	.LVL119:
 1014 0014 00E0     		b	.L70
 1015              	.LVL120:
 1016              	.L71:
 1017 0016 0020     		mov	r0, #0
 1018              	.LVL121:
 1019              	.L70:
1742:.\Generated_Source\PSoC4/capsense.c **** }
 1020              		.loc 1 1742 0 discriminator 4
 1021              		@ sp needed
 1022 0018 7047     		bx	lr
 1023              		.cfi_endproc
 1024              	.LFE60:
 1025              		.size	capsense_GetBitValue, .-capsense_GetBitValue
 1026 001a C046     		.section	.text.capsense_FindNextSensor,"ax",%progbits
 1027              		.align	2
 1028              		.global	capsense_FindNextSensor
 1029              		.code	16
 1030              		.thumb_func
 1031              		.type	capsense_FindNextSensor, %function
 1032              	capsense_FindNextSensor:
 1033              	.LFB40:
 507:.\Generated_Source\PSoC4/capsense.c ****     uint32 enableFlag;
 1034              		.loc 1 507 0
 1035              		.cfi_startproc
 1036              	.LVL122:
 1037 0000 10B5     		push	{r4, lr}
 1038              		.cfi_def_cfa_offset 8
 1039              		.cfi_offset 4, -8
 1040              		.cfi_offset 14, -4
 1041 0002 041C     		mov	r4, r0
 1042              	.LVL123:
 1043              	.L74:
 514:.\Generated_Source\PSoC4/capsense.c ****         if(snsIndex == capsense_TOTAL_SENSOR_COUNT)
 1044              		.loc 1 514 0
 1045 0004 0134     		add	r4, r4, #1
 1046              	.LVL124:
 1047 0006 E4B2     		uxtb	r4, r4
 1048              	.LVL125:
 515:.\Generated_Source\PSoC4/capsense.c ****         {
 1049              		.loc 1 515 0
 1050 0008 052C     		cmp	r4, #5
 1051 000a 06D0     		beq	.L73
 519:.\Generated_Source\PSoC4/capsense.c ****     }
 1052              		.loc 1 519 0
 1053 000c 0448     		ldr	r0, .L75
 1054 000e 0430     		add	r0, r0, #4
 1055 0010 211C     		mov	r1, r4
 1056 0012 FFF7FEFF 		bl	capsense_GetBitValue
 1057              	.LVL126:
 521:.\Generated_Source\PSoC4/capsense.c **** 
 1058              		.loc 1 521 0
 1059 0016 0028     		cmp	r0, #0
 1060 0018 F4D0     		beq	.L74
 1061              	.LVL127:
 1062              	.L73:
ARM GAS  C:\Users\Alan\AppData\Local\Temp\ccTIy4ty.s 			page 51


 524:.\Generated_Source\PSoC4/capsense.c **** 
 1063              		.loc 1 524 0
 1064 001a 201C     		mov	r0, r4
 1065              		@ sp needed
 1066              	.LVL128:
 1067 001c 10BD     		pop	{r4, pc}
 1068              	.L76:
 1069 001e C046     		.align	2
 1070              	.L75:
 1071 0020 00000000 		.word	.LANCHOR1
 1072              		.cfi_endproc
 1073              	.LFE40:
 1074              		.size	capsense_FindNextSensor, .-capsense_FindNextSensor
 1075              		.section	.text.capsense_PreScan,"ax",%progbits
 1076              		.align	2
 1077              		.global	capsense_PreScan
 1078              		.code	16
 1079              		.thumb_func
 1080              		.type	capsense_PreScan, %function
 1081              	capsense_PreScan:
 1082              	.LFB55:
1336:.\Generated_Source\PSoC4/capsense.c ****     uint8 widget;
 1083              		.loc 1 1336 0
 1084              		.cfi_startproc
 1085              	.LVL129:
 1086 0000 F8B5     		push	{r3, r4, r5, r6, r7, lr}
 1087              		.cfi_def_cfa_offset 24
 1088              		.cfi_offset 3, -24
 1089              		.cfi_offset 4, -20
 1090              		.cfi_offset 5, -16
 1091              		.cfi_offset 6, -12
 1092              		.cfi_offset 7, -8
 1093              		.cfi_offset 14, -4
 1094 0002 041C     		mov	r4, r0
1354:.\Generated_Source\PSoC4/capsense.c **** 
 1095              		.loc 1 1354 0
 1096 0004 324B     		ldr	r3, .L80
 1097 0006 6433     		add	r3, r3, #100
 1098 0008 1B5C     		ldrb	r3, [r3, r0]
 1099              	.LVL130:
1357:.\Generated_Source\PSoC4/capsense.c **** 
 1100              		.loc 1 1357 0
 1101 000a 9B00     		lsl	r3, r3, #2
 1102              	.LVL131:
 1103 000c 314A     		ldr	r2, .L80+4
 1104 000e 9E58     		ldr	r6, [r3, r2]
 1105              	.LVL132:
1361:.\Generated_Source\PSoC4/capsense.c **** 
 1106              		.loc 1 1361 0
 1107 0010 3148     		ldr	r0, .L80+8
 1108              	.LVL133:
 1109 0012 211C     		mov	r1, r4
 1110 0014 FFF7FEFF 		bl	capsense_GetBitValue
 1111              	.LVL134:
1363:.\Generated_Source\PSoC4/capsense.c ****         {
 1112              		.loc 1 1363 0
 1113 0018 304B     		ldr	r3, .L80+12
ARM GAS  C:\Users\Alan\AppData\Local\Temp\ccTIy4ty.s 			page 52


 1114 001a 9E42     		cmp	r6, r3
 1115 001c 03D8     		bhi	.L78
1365:.\Generated_Source\PSoC4/capsense.c ****             counterResolution |= (uint32)(capsense_RESOLUTION_8_BITS);
 1116              		.loc 1 1365 0
 1117 001e 8640     		lsl	r6, r6, r0
 1118              	.LVL135:
1366:.\Generated_Source\PSoC4/capsense.c ****         }
 1119              		.loc 1 1366 0
 1120 0020 FF20     		mov	r0, #255
 1121              	.LVL136:
 1122 0022 0004     		lsl	r0, r0, #16
 1123 0024 0643     		orr	r6, r0
 1124              	.LVL137:
 1125              	.L78:
1372:.\Generated_Source\PSoC4/capsense.c ****         capsense_SampleClk_Stop();
 1126              		.loc 1 1372 0
 1127 0026 FFF7FEFF 		bl	capsense_SenseClk_Stop
 1128              	.LVL138:
1373:.\Generated_Source\PSoC4/capsense.c ****     #endif /* (0u != capsense_IS_M0S8PERI_BLOCK) */
 1129              		.loc 1 1373 0
 1130 002a FFF7FEFF 		bl	capsense_SampleClk_Stop
 1131              	.LVL139:
1377:.\Generated_Source\PSoC4/capsense.c ****         capsense_SenseClk_SetDividerValue((uint16)capsense_senseClkDividerVal[sensor]);
 1132              		.loc 1 1377 0
 1133 002e 2C4B     		ldr	r3, .L80+16
 1134 0030 185D     		ldrb	r0, [r3, r4]
 1135 0032 0138     		sub	r0, r0, #1
 1136 0034 80B2     		uxth	r0, r0
 1137 0036 0021     		mov	r1, #0
 1138 0038 FFF7FEFF 		bl	capsense_SampleClk_SetFractionalDividerRegister
 1139              	.LVL140:
1378:.\Generated_Source\PSoC4/capsense.c ****     #else
 1140              		.loc 1 1378 0
 1141 003c 294B     		ldr	r3, .L80+20
 1142 003e 185D     		ldrb	r0, [r3, r4]
 1143 0040 0138     		sub	r0, r0, #1
 1144 0042 80B2     		uxth	r0, r0
 1145 0044 0021     		mov	r1, #0
 1146 0046 FFF7FEFF 		bl	capsense_SenseClk_SetFractionalDividerRegister
 1147              	.LVL141:
1385:.\Generated_Source\PSoC4/capsense.c ****         capsense_SenseClk_StartEx(capsense_SampleClk__DIV_ID);
 1148              		.loc 1 1385 0
 1149 004a FF20     		mov	r0, #255
 1150 004c FFF7FEFF 		bl	capsense_SampleClk_StartEx
 1151              	.LVL142:
1386:.\Generated_Source\PSoC4/capsense.c **** 
 1152              		.loc 1 1386 0
 1153 0050 4020     		mov	r0, #64
 1154 0052 FFF7FEFF 		bl	capsense_SenseClk_StartEx
 1155              	.LVL143:
1389:.\Generated_Source\PSoC4/capsense.c ****             capsense_CSD_CNT_REG = capsense_ONE_CYCLE;
 1156              		.loc 1 1389 0
 1157 0056 1020     		mov	r0, #16
 1158 0058 FFF7FEFF 		bl	CyIntDisable
 1159              	.LVL144:
1390:.\Generated_Source\PSoC4/capsense.c ****             while(0u != (capsense_CSD_CNT_REG & capsense_RESOLUTION_16_BITS))
 1160              		.loc 1 1390 0
ARM GAS  C:\Users\Alan\AppData\Local\Temp\ccTIy4ty.s 			page 53


 1161 005c 8022     		mov	r2, #128
 1162 005e 5202     		lsl	r2, r2, #9
 1163 0060 214B     		ldr	r3, .L80+24
 1164 0062 1A60     		str	r2, [r3]
 1165              	.L79:
1391:.\Generated_Source\PSoC4/capsense.c ****             {
 1166              		.loc 1 1391 0 discriminator 1
 1167 0064 204B     		ldr	r3, .L80+24
 1168 0066 1B68     		ldr	r3, [r3]
 1169 0068 1B0C     		lsr	r3, r3, #16
 1170 006a FBD1     		bne	.L79
1395:.\Generated_Source\PSoC4/capsense.c ****             CyIntClearPending(capsense_ISR_NUMBER);
 1171              		.loc 1 1395 0
 1172 006c 0122     		mov	r2, #1
 1173 006e 1F4B     		ldr	r3, .L80+28
 1174 0070 1A60     		str	r2, [r3]
1396:.\Generated_Source\PSoC4/capsense.c ****             CyIntEnable(capsense_ISR_NUMBER);
 1175              		.loc 1 1396 0
 1176 0072 1020     		mov	r0, #16
 1177 0074 FFF7FEFF 		bl	CyIntClearPending
 1178              	.LVL145:
1397:.\Generated_Source\PSoC4/capsense.c ****         #endif /* capsense_PRS_OPTIONS == capsense__PRS_NONE */
 1179              		.loc 1 1397 0
 1180 0078 1020     		mov	r0, #16
 1181 007a FFF7FEFF 		bl	CyIntEnable
 1182              	.LVL146:
1447:.\Generated_Source\PSoC4/capsense.c ****     newRegValue = capsense_CSD_IDAC_REG;
 1183              		.loc 1 1447 0
 1184 007e 1020     		mov	r0, #16
 1185 0080 FFF7FEFF 		bl	CyIntDisable
 1186              	.LVL147:
1448:.\Generated_Source\PSoC4/capsense.c **** 
 1187              		.loc 1 1448 0
 1188 0084 1A49     		ldr	r1, .L80+32
 1189 0086 0A68     		ldr	r2, [r1]
 1190              	.LVL148:
1454:.\Generated_Source\PSoC4/capsense.c ****     newRegValue |= (capsense_modulationIDAC[sensor] |
 1191              		.loc 1 1454 0
 1192 0088 1A4B     		ldr	r3, .L80+36
 1193 008a 1A40     		and	r2, r3
 1194              	.LVL149:
1455:.\Generated_Source\PSoC4/capsense.c ****                             (uint32)((uint32)capsense_compensationIDAC[sensor] <<
 1195              		.loc 1 1455 0
 1196 008c 1A4B     		ldr	r3, .L80+40
 1197 008e 185D     		ldrb	r0, [r3, r4]
1456:.\Generated_Source\PSoC4/capsense.c ****                             capsense_CSD_IDAC2_DATA_OFFSET));
 1198              		.loc 1 1456 0
 1199 0090 1A4B     		ldr	r3, .L80+44
 1200 0092 1B5D     		ldrb	r3, [r3, r4]
 1201 0094 1B04     		lsl	r3, r3, #16
1455:.\Generated_Source\PSoC4/capsense.c ****                             (uint32)((uint32)capsense_compensationIDAC[sensor] <<
 1202              		.loc 1 1455 0
 1203 0096 0343     		orr	r3, r0
 1204 0098 1343     		orr	r3, r2
 1205              	.LVL150:
1460:.\Generated_Source\PSoC4/capsense.c **** 
 1206              		.loc 1 1460 0
ARM GAS  C:\Users\Alan\AppData\Local\Temp\ccTIy4ty.s 			page 54


 1207 009a 0B60     		str	r3, [r1]
1475:.\Generated_Source\PSoC4/capsense.c ****     newRegValue &= ~(capsense_PRECHARGE_CONFIG_MASK);
 1208              		.loc 1 1475 0
 1209 009c 184F     		ldr	r7, .L80+48
 1210 009e 3D68     		ldr	r5, [r7]
 1211              	.LVL151:
1476:.\Generated_Source\PSoC4/capsense.c ****     newRegValue |= capsense_CTANK_PRECHARGE_CONFIG;
 1212              		.loc 1 1476 0
 1213 00a0 184B     		ldr	r3, .L80+52
 1214 00a2 1D40     		and	r5, r3
 1215              	.LVL152:
1477:.\Generated_Source\PSoC4/capsense.c **** 
 1216              		.loc 1 1477 0
 1217 00a4 184B     		ldr	r3, .L80+56
 1218 00a6 1D43     		orr	r5, r3
 1219              	.LVL153:
1479:.\Generated_Source\PSoC4/capsense.c **** 
 1220              		.loc 1 1479 0
 1221 00a8 1020     		mov	r0, #16
 1222 00aa FFF7FEFF 		bl	CyIntEnable
 1223              	.LVL154:
1482:.\Generated_Source\PSoC4/capsense.c **** 
 1224              		.loc 1 1482 0
 1225 00ae 201C     		mov	r0, r4
 1226 00b0 FFF7FEFF 		bl	capsense_EnableSensor
 1227              	.LVL155:
1484:.\Generated_Source\PSoC4/capsense.c ****     capsense_CSD_CFG_REG = newRegValue;
 1228              		.loc 1 1484 0
 1229 00b4 FFF7FEFF 		bl	CyEnterCriticalSection
 1230              	.LVL156:
 1231 00b8 041C     		mov	r4, r0
 1232              	.LVL157:
1485:.\Generated_Source\PSoC4/capsense.c **** 
 1233              		.loc 1 1485 0
 1234 00ba 3D60     		str	r5, [r7]
1495:.\Generated_Source\PSoC4/capsense.c **** 
 1235              		.loc 1 1495 0
 1236 00bc 0020     		mov	r0, #0
 1237 00be FFF7FEFF 		bl	CyDelayCycles
 1238              	.LVL158:
1505:.\Generated_Source\PSoC4/capsense.c ****     CyExitCriticalSection(interruptState);
 1239              		.loc 1 1505 0
 1240 00c2 094B     		ldr	r3, .L80+24
 1241 00c4 1E60     		str	r6, [r3]
1506:.\Generated_Source\PSoC4/capsense.c **** }
 1242              		.loc 1 1506 0
 1243 00c6 201C     		mov	r0, r4
 1244 00c8 FFF7FEFF 		bl	CyExitCriticalSection
 1245              	.LVL159:
1507:.\Generated_Source\PSoC4/capsense.c **** 
 1246              		.loc 1 1507 0
 1247              		@ sp needed
 1248              	.LVL160:
 1249              	.LVL161:
 1250              	.LVL162:
 1251 00cc F8BD     		pop	{r3, r4, r5, r6, r7, pc}
 1252              	.L81:
ARM GAS  C:\Users\Alan\AppData\Local\Temp\ccTIy4ty.s 			page 55


 1253 00ce C046     		.align	2
 1254              	.L80:
 1255 00d0 00000000 		.word	.LANCHOR2
 1256 00d4 00000000 		.word	.LANCHOR1
 1257 00d8 00000000 		.word	capsense_scanSpeedTbl
 1258 00dc FFFFFEFF 		.word	-65537
 1259 00e0 00000000 		.word	capsense_sampleClkDividerVal
 1260 00e4 00000000 		.word	capsense_senseClkDividerVal
 1261 00e8 0C002840 		.word	1076363276
 1262 00ec 14002840 		.word	1076363284
 1263 00f0 08002840 		.word	1076363272
 1264 00f4 00FF80FF 		.word	-8323328
 1265 00f8 00000000 		.word	capsense_modulationIDAC
 1266 00fc 00000000 		.word	capsense_compensationIDAC
 1267 0100 04002840 		.word	1076363268
 1268 0104 FF1FDFFF 		.word	-2154497
 1269 0108 20E02000 		.word	2154528
 1270              		.cfi_endproc
 1271              	.LFE55:
 1272              		.size	capsense_PreScan, .-capsense_PreScan
 1273              		.section	.text.capsense_ScanSensor,"ax",%progbits
 1274              		.align	2
 1275              		.global	capsense_ScanSensor
 1276              		.code	16
 1277              		.thumb_func
 1278              		.type	capsense_ScanSensor, %function
 1279              	capsense_ScanSensor:
 1280              	.LFB41:
 555:.\Generated_Source\PSoC4/capsense.c ****     /* Clears status/control variable and set sensorIndex */
 1281              		.loc 1 555 0
 1282              		.cfi_startproc
 1283              	.LVL163:
 1284 0000 08B5     		push	{r3, lr}
 1285              		.cfi_def_cfa_offset 8
 1286              		.cfi_offset 3, -8
 1287              		.cfi_offset 14, -4
 557:.\Generated_Source\PSoC4/capsense.c ****     capsense_sensorIndex = (uint8)sensor;
 1288              		.loc 1 557 0
 1289 0002 054B     		ldr	r3, .L83
 1290 0004 0022     		mov	r2, #0
 1291 0006 1A70     		strb	r2, [r3]
 558:.\Generated_Source\PSoC4/capsense.c **** 
 1292              		.loc 1 558 0
 1293 0008 C2B2     		uxtb	r2, r0
 1294 000a 1A74     		strb	r2, [r3, #16]
 561:.\Generated_Source\PSoC4/capsense.c ****     capsense_PreScan(sensor);
 1295              		.loc 1 561 0
 1296 000c 8122     		mov	r2, #129
 1297 000e 1A70     		strb	r2, [r3]
 562:.\Generated_Source\PSoC4/capsense.c **** }
 1298              		.loc 1 562 0
 1299 0010 FFF7FEFF 		bl	capsense_PreScan
 1300              	.LVL164:
 563:.\Generated_Source\PSoC4/capsense.c **** 
 1301              		.loc 1 563 0
 1302              		@ sp needed
 1303 0014 08BD     		pop	{r3, pc}
ARM GAS  C:\Users\Alan\AppData\Local\Temp\ccTIy4ty.s 			page 56


 1304              	.L84:
 1305 0016 C046     		.align	2
 1306              	.L83:
 1307 0018 00000000 		.word	.LANCHOR0
 1308              		.cfi_endproc
 1309              	.LFE41:
 1310              		.size	capsense_ScanSensor, .-capsense_ScanSensor
 1311              		.section	.text.capsense_ScanEnabledWidgets,"ax",%progbits
 1312              		.align	2
 1313              		.global	capsense_ScanEnabledWidgets
 1314              		.code	16
 1315              		.thumb_func
 1316              		.type	capsense_ScanEnabledWidgets, %function
 1317              	capsense_ScanEnabledWidgets:
 1318              	.LFB43:
 679:.\Generated_Source\PSoC4/capsense.c ****     /* Clears status/control variable and set sensorIndex */
 1319              		.loc 1 679 0
 1320              		.cfi_startproc
 1321 0000 10B5     		push	{r4, lr}
 1322              		.cfi_def_cfa_offset 8
 1323              		.cfi_offset 4, -8
 1324              		.cfi_offset 14, -4
 681:.\Generated_Source\PSoC4/capsense.c ****     capsense_sensorIndex = 0xFFu;
 1325              		.loc 1 681 0
 1326 0002 0B4C     		ldr	r4, .L87
 1327 0004 0023     		mov	r3, #0
 1328 0006 2370     		strb	r3, [r4]
 682:.\Generated_Source\PSoC4/capsense.c **** 
 1329              		.loc 1 682 0
 1330 0008 FF33     		add	r3, r3, #255
 1331 000a 2374     		strb	r3, [r4, #16]
 685:.\Generated_Source\PSoC4/capsense.c **** 
 1332              		.loc 1 685 0
 1333 000c 207C     		ldrb	r0, [r4, #16]
 1334 000e C0B2     		uxtb	r0, r0
 1335 0010 FFF7FEFF 		bl	capsense_FindNextSensor
 1336              	.LVL165:
 1337 0014 2074     		strb	r0, [r4, #16]
 688:.\Generated_Source\PSoC4/capsense.c ****     {
 1338              		.loc 1 688 0
 1339 0016 237C     		ldrb	r3, [r4, #16]
 1340 0018 DBB2     		uxtb	r3, r3
 1341 001a 042B     		cmp	r3, #4
 1342 001c 07D8     		bhi	.L85
 690:.\Generated_Source\PSoC4/capsense.c ****         capsense_PreScan((uint32)capsense_sensorIndex);
 1343              		.loc 1 690 0
 1344 001e 2178     		ldrb	r1, [r4]
 1345 0020 0122     		mov	r2, #1
 1346 0022 0A43     		orr	r2, r1
 1347 0024 2270     		strb	r2, [r4]
 691:.\Generated_Source\PSoC4/capsense.c ****     }
 1348              		.loc 1 691 0
 1349 0026 207C     		ldrb	r0, [r4, #16]
 1350 0028 C0B2     		uxtb	r0, r0
 1351 002a FFF7FEFF 		bl	capsense_PreScan
 1352              	.LVL166:
 1353              	.L85:
ARM GAS  C:\Users\Alan\AppData\Local\Temp\ccTIy4ty.s 			page 57


 693:.\Generated_Source\PSoC4/capsense.c **** 
 1354              		.loc 1 693 0
 1355              		@ sp needed
 1356 002e 10BD     		pop	{r4, pc}
 1357              	.L88:
 1358              		.align	2
 1359              	.L87:
 1360 0030 00000000 		.word	.LANCHOR0
 1361              		.cfi_endproc
 1362              	.LFE43:
 1363              		.size	capsense_ScanEnabledWidgets, .-capsense_ScanEnabledWidgets
 1364              		.section	.text.capsense_PostScan,"ax",%progbits
 1365              		.align	2
 1366              		.global	capsense_PostScan
 1367              		.code	16
 1368              		.thumb_func
 1369              		.type	capsense_PostScan, %function
 1370              	capsense_PostScan:
 1371              	.LFB56:
1533:.\Generated_Source\PSoC4/capsense.c ****     uint32 newRegValue;
 1372              		.loc 1 1533 0
 1373              		.cfi_startproc
 1374              	.LVL167:
 1375 0000 38B5     		push	{r3, r4, r5, lr}
 1376              		.cfi_def_cfa_offset 16
 1377              		.cfi_offset 3, -16
 1378              		.cfi_offset 4, -12
 1379              		.cfi_offset 5, -8
 1380              		.cfi_offset 14, -4
 1381 0002 051C     		mov	r5, r0
1551:.\Generated_Source\PSoC4/capsense.c **** 
 1382              		.loc 1 1551 0
 1383 0004 174B     		ldr	r3, .L91
 1384 0006 1C68     		ldr	r4, [r3]
 1385 0008 A4B2     		uxth	r4, r4
 1386 000a 4300     		lsl	r3, r0, #1
 1387 000c 164A     		ldr	r2, .L91+4
 1388 000e D318     		add	r3, r2, r3
 1389 0010 9C80     		strh	r4, [r3, #4]
1555:.\Generated_Source\PSoC4/capsense.c ****     if(capsense_widgetResolution[widget] < capsense_RESOLUTION_16_BITS)
 1390              		.loc 1 1555 0
 1391 0012 164B     		ldr	r3, .L91+8
 1392 0014 6433     		add	r3, r3, #100
 1393 0016 1B5C     		ldrb	r3, [r3, r0]
 1394              	.LVL168:
1556:.\Generated_Source\PSoC4/capsense.c ****     {
 1395              		.loc 1 1556 0
 1396 0018 9B00     		lsl	r3, r3, #2
 1397              	.LVL169:
 1398 001a 154A     		ldr	r2, .L91+12
 1399 001c 9A58     		ldr	r2, [r3, r2]
 1400 001e 154B     		ldr	r3, .L91+16
 1401 0020 9A42     		cmp	r2, r3
 1402 0022 08D8     		bhi	.L90
1558:.\Generated_Source\PSoC4/capsense.c ****         capsense_sensorRaw[sensor] >>= oversamplingFactor;
 1403              		.loc 1 1558 0
 1404 0024 1448     		ldr	r0, .L91+20
ARM GAS  C:\Users\Alan\AppData\Local\Temp\ccTIy4ty.s 			page 58


 1405              	.LVL170:
 1406 0026 291C     		mov	r1, r5
 1407 0028 FFF7FEFF 		bl	capsense_GetBitValue
 1408              	.LVL171:
1559:.\Generated_Source\PSoC4/capsense.c ****     }
 1409              		.loc 1 1559 0
 1410 002c 6B00     		lsl	r3, r5, #1
 1411 002e 0E4A     		ldr	r2, .L91+4
 1412 0030 D318     		add	r3, r2, r3
 1413 0032 0441     		asr	r4, r4, r0
 1414 0034 9C80     		strh	r4, [r3, #4]
 1415              	.LVL172:
 1416              	.L90:
1565:.\Generated_Source\PSoC4/capsense.c **** 
 1417              		.loc 1 1565 0
 1418 0036 281C     		mov	r0, r5
 1419 0038 FFF7FEFF 		bl	capsense_DisableSensor
 1420              	.LVL173:
1567:.\Generated_Source\PSoC4/capsense.c **** 
 1421              		.loc 1 1567 0
 1422 003c 1020     		mov	r0, #16
 1423 003e FFF7FEFF 		bl	CyIntDisable
 1424              	.LVL174:
1587:.\Generated_Source\PSoC4/capsense.c ****     newRegValue &= ~(capsense_PRECHARGE_CONFIG_MASK);
 1425              		.loc 1 1587 0
 1426 0042 0E4A     		ldr	r2, .L91+24
 1427 0044 1168     		ldr	r1, [r2]
 1428              	.LVL175:
1588:.\Generated_Source\PSoC4/capsense.c ****     newRegValue |= capsense_CMOD_PRECHARGE_CONFIG;
 1429              		.loc 1 1588 0
 1430 0046 0E4B     		ldr	r3, .L91+28
 1431 0048 0B40     		and	r3, r1
 1432              	.LVL176:
1589:.\Generated_Source\PSoC4/capsense.c ****     capsense_CSD_CFG_REG = newRegValue;
 1433              		.loc 1 1589 0
 1434 004a A021     		mov	r1, #160
 1435 004c 0902     		lsl	r1, r1, #8
 1436 004e 0B43     		orr	r3, r1
 1437              	.LVL177:
1590:.\Generated_Source\PSoC4/capsense.c **** 
 1438              		.loc 1 1590 0
 1439 0050 1360     		str	r3, [r2]
1596:.\Generated_Source\PSoC4/capsense.c **** #endif /* (capsense_IDAC_CNT == 1u) */
 1440              		.loc 1 1596 0
 1441 0052 0C4A     		ldr	r2, .L91+32
 1442 0054 1168     		ldr	r1, [r2]
 1443 0056 0C4B     		ldr	r3, .L91+36
 1444              	.LVL178:
 1445 0058 0B40     		and	r3, r1
 1446 005a 1360     		str	r3, [r2]
 1447              	.LVL179:
1599:.\Generated_Source\PSoC4/capsense.c **** }
 1448              		.loc 1 1599 0
 1449 005c 1020     		mov	r0, #16
 1450 005e FFF7FEFF 		bl	CyIntEnable
 1451              	.LVL180:
1600:.\Generated_Source\PSoC4/capsense.c **** 
ARM GAS  C:\Users\Alan\AppData\Local\Temp\ccTIy4ty.s 			page 59


 1452              		.loc 1 1600 0
 1453              		@ sp needed
 1454              	.LVL181:
 1455 0062 38BD     		pop	{r3, r4, r5, pc}
 1456              	.L92:
 1457              		.align	2
 1458              	.L91:
 1459 0064 0C002840 		.word	1076363276
 1460 0068 00000000 		.word	.LANCHOR0
 1461 006c 00000000 		.word	.LANCHOR2
 1462 0070 00000000 		.word	.LANCHOR1
 1463 0074 FFFFFEFF 		.word	-65537
 1464 0078 00000000 		.word	capsense_scanSpeedTbl
 1465 007c 04002840 		.word	1076363268
 1466 0080 FF1FDFFF 		.word	-2154497
 1467 0084 08002840 		.word	1076363272
 1468 0088 00FF80FF 		.word	-8323328
 1469              		.cfi_endproc
 1470              	.LFE56:
 1471              		.size	capsense_PostScan, .-capsense_PostScan
 1472              		.section	.text.capsense_SetBitValue,"ax",%progbits
 1473              		.align	2
 1474              		.global	capsense_SetBitValue
 1475              		.code	16
 1476              		.thumb_func
 1477              		.type	capsense_SetBitValue, %function
 1478              	capsense_SetBitValue:
 1479              	.LFB61:
1743:.\Generated_Source\PSoC4/capsense.c **** 
1744:.\Generated_Source\PSoC4/capsense.c **** 
1745:.\Generated_Source\PSoC4/capsense.c **** /*******************************************************************************
1746:.\Generated_Source\PSoC4/capsense.c **** * Function Name: capsense_SetBitValue
1747:.\Generated_Source\PSoC4/capsense.c **** ********************************************************************************
1748:.\Generated_Source\PSoC4/capsense.c **** *
1749:.\Generated_Source\PSoC4/capsense.c **** * Summary:
1750:.\Generated_Source\PSoC4/capsense.c **** *  The API sets a bit status of the bit in the table array which contains masks.
1751:.\Generated_Source\PSoC4/capsense.c **** *
1752:.\Generated_Source\PSoC4/capsense.c **** * Parameters:
1753:.\Generated_Source\PSoC4/capsense.c **** *  table[] - array with bit masks.
1754:.\Generated_Source\PSoC4/capsense.c **** *  position - position of bit in the table[] array.
1755:.\Generated_Source\PSoC4/capsense.c **** *  value: 0 - bit is not set; 1 - bit is set.
1756:.\Generated_Source\PSoC4/capsense.c **** *
1757:.\Generated_Source\PSoC4/capsense.c **** * Return:
1758:.\Generated_Source\PSoC4/capsense.c **** *  None
1759:.\Generated_Source\PSoC4/capsense.c **** *
1760:.\Generated_Source\PSoC4/capsense.c **** * Global Variables:
1761:.\Generated_Source\PSoC4/capsense.c **** *  None
1762:.\Generated_Source\PSoC4/capsense.c **** *
1763:.\Generated_Source\PSoC4/capsense.c **** * Side Effects:
1764:.\Generated_Source\PSoC4/capsense.c **** *  None
1765:.\Generated_Source\PSoC4/capsense.c **** *
1766:.\Generated_Source\PSoC4/capsense.c **** *******************************************************************************/
1767:.\Generated_Source\PSoC4/capsense.c **** void capsense_SetBitValue(uint8 table[], uint32 position, uint32 value)
1768:.\Generated_Source\PSoC4/capsense.c **** {
 1480              		.loc 1 1768 0
 1481              		.cfi_startproc
 1482              	.LVL182:
ARM GAS  C:\Users\Alan\AppData\Local\Temp\ccTIy4ty.s 			page 60


 1483 0000 10B5     		push	{r4, lr}
 1484              		.cfi_def_cfa_offset 8
 1485              		.cfi_offset 4, -8
 1486              		.cfi_offset 14, -4
1769:.\Generated_Source\PSoC4/capsense.c ****     uint32 offset;
1770:.\Generated_Source\PSoC4/capsense.c ****     uint8 enMask;
1771:.\Generated_Source\PSoC4/capsense.c **** 
1772:.\Generated_Source\PSoC4/capsense.c ****     /* position is divided by 8 to calculate the element of the
1773:.\Generated_Source\PSoC4/capsense.c ****        table[] array that contains the enable bit
1774:.\Generated_Source\PSoC4/capsense.c ****        for an appropriate sensor.
1775:.\Generated_Source\PSoC4/capsense.c ****     */
1776:.\Generated_Source\PSoC4/capsense.c ****     offset = (position >> 3u);
 1487              		.loc 1 1776 0
 1488 0002 CC08     		lsr	r4, r1, #3
 1489              	.LVL183:
1777:.\Generated_Source\PSoC4/capsense.c **** 
1778:.\Generated_Source\PSoC4/capsense.c ****     /* The enMask calculation for the appropriate sensor. Operation (position & 0x07u)
1779:.\Generated_Source\PSoC4/capsense.c ****        intends to calculate the enable bit offset for the 8-bit element of the
1780:.\Generated_Source\PSoC4/capsense.c ****        table[] array.
1781:.\Generated_Source\PSoC4/capsense.c ****     */
1782:.\Generated_Source\PSoC4/capsense.c ****     enMask = 0x01u << (position & 0x07u);
 1490              		.loc 1 1782 0
 1491 0004 0723     		mov	r3, #7
 1492 0006 1940     		and	r1, r3
 1493              	.LVL184:
 1494 0008 063B     		sub	r3, r3, #6
 1495 000a 8B40     		lsl	r3, r3, r1
 1496 000c D9B2     		uxtb	r1, r3
 1497              	.LVL185:
1783:.\Generated_Source\PSoC4/capsense.c **** 
1784:.\Generated_Source\PSoC4/capsense.c ****     if(0u != value)
 1498              		.loc 1 1784 0
 1499 000e 002A     		cmp	r2, #0
 1500 0010 04D0     		beq	.L94
1785:.\Generated_Source\PSoC4/capsense.c ****     {
1786:.\Generated_Source\PSoC4/capsense.c ****         table[offset] |= enMask;
 1501              		.loc 1 1786 0
 1502 0012 0419     		add	r4, r0, r4
 1503              	.LVL186:
 1504 0014 2378     		ldrb	r3, [r4]
 1505 0016 1943     		orr	r1, r3
 1506              	.LVL187:
 1507 0018 2170     		strb	r1, [r4]
 1508 001a 03E0     		b	.L93
 1509              	.LVL188:
 1510              	.L94:
1787:.\Generated_Source\PSoC4/capsense.c ****     }
1788:.\Generated_Source\PSoC4/capsense.c ****     else
1789:.\Generated_Source\PSoC4/capsense.c ****     {
1790:.\Generated_Source\PSoC4/capsense.c ****         table[offset] &= (uint8)~(enMask);
 1511              		.loc 1 1790 0
 1512 001c 0419     		add	r4, r0, r4
 1513              	.LVL189:
 1514 001e 2378     		ldrb	r3, [r4]
 1515 0020 8B43     		bic	r3, r1
 1516 0022 2370     		strb	r3, [r4]
 1517              	.LVL190:
ARM GAS  C:\Users\Alan\AppData\Local\Temp\ccTIy4ty.s 			page 61


 1518              	.L93:
1791:.\Generated_Source\PSoC4/capsense.c ****     }
1792:.\Generated_Source\PSoC4/capsense.c **** }
 1519              		.loc 1 1792 0
 1520              		@ sp needed
 1521 0024 10BD     		pop	{r4, pc}
 1522              		.cfi_endproc
 1523              	.LFE61:
 1524              		.size	capsense_SetBitValue, .-capsense_SetBitValue
 1525 0026 C046     		.section	.text.capsense_ScanWidget,"ax",%progbits
 1526              		.align	2
 1527              		.global	capsense_ScanWidget
 1528              		.code	16
 1529              		.thumb_func
 1530              		.type	capsense_ScanWidget, %function
 1531              	capsense_ScanWidget:
 1532              	.LFB42:
 594:.\Generated_Source\PSoC4/capsense.c ****     uint32 sensorsPerWidget;
 1533              		.loc 1 594 0
 1534              		.cfi_startproc
 1535              	.LVL191:
 1536 0000 38B5     		push	{r3, r4, r5, lr}
 1537              		.cfi_def_cfa_offset 16
 1538              		.cfi_offset 3, -16
 1539              		.cfi_offset 4, -12
 1540              		.cfi_offset 5, -8
 1541              		.cfi_offset 14, -4
 600:.\Generated_Source\PSoC4/capsense.c **** 
 1542              		.loc 1 600 0
 1543 0002 1D4B     		ldr	r3, .L106
 1544 0004 1D5C     		ldrb	r5, [r3, r0]
 1545 0006 1D4B     		ldr	r3, .L106+4
 1546 0008 1D74     		strb	r5, [r3, #16]
 603:.\Generated_Source\PSoC4/capsense.c **** 
 1547              		.loc 1 603 0
 1548 000a 1D4B     		ldr	r3, .L106+8
 1549 000c 1B5C     		ldrb	r3, [r3, r0]
 1550              	.LVL192:
 606:.\Generated_Source\PSoC4/capsense.c ****     {
 1551              		.loc 1 606 0
 1552 000e 002B     		cmp	r3, #0
 1553 0010 00D1     		bne	.L97
 608:.\Generated_Source\PSoC4/capsense.c ****     }
 1554              		.loc 1 608 0
 1555 0012 0133     		add	r3, r3, #1
 1556              	.LVL193:
 1557              	.L97:
 612:.\Generated_Source\PSoC4/capsense.c **** 
 1558              		.loc 1 612 0
 1559 0014 ED18     		add	r5, r5, r3
 1560 0016 013D     		sub	r5, r5, #1
 1561              	.LVL194:
 615:.\Generated_Source\PSoC4/capsense.c ****     {
 1562              		.loc 1 615 0
 1563 0018 0023     		mov	r3, #0
 1564              	.LVL195:
 1565 001a 05E0     		b	.L98
ARM GAS  C:\Users\Alan\AppData\Local\Temp\ccTIy4ty.s 			page 62


 1566              	.LVL196:
 1567              	.L99:
 618:.\Generated_Source\PSoC4/capsense.c ****     }
 1568              		.loc 1 618 0 discriminator 3
 1569 001c 194A     		ldr	r2, .L106+12
 1570 001e D218     		add	r2, r2, r3
 1571 0020 1179     		ldrb	r1, [r2, #4]
 1572 0022 194A     		ldr	r2, .L106+16
 1573 0024 D154     		strb	r1, [r2, r3]
 615:.\Generated_Source\PSoC4/capsense.c ****     {
 1574              		.loc 1 615 0 discriminator 3
 1575 0026 0133     		add	r3, r3, #1
 1576              	.LVL197:
 1577              	.L98:
 615:.\Generated_Source\PSoC4/capsense.c ****     {
 1578              		.loc 1 615 0 is_stmt 0 discriminator 1
 1579 0028 002B     		cmp	r3, #0
 1580 002a F7D0     		beq	.L99
 1581 002c 0024     		mov	r4, #0
 1582 002e 14E0     		b	.L100
 1583              	.LVL198:
 1584              	.L103:
 625:.\Generated_Source\PSoC4/capsense.c ****         {
 1585              		.loc 1 625 0 is_stmt 1
 1586 0030 124B     		ldr	r3, .L106+4
 1587 0032 1B7C     		ldrb	r3, [r3, #16]
 1588 0034 DBB2     		uxtb	r3, r3
 1589 0036 A342     		cmp	r3, r4
 1590 0038 08D8     		bhi	.L101
 625:.\Generated_Source\PSoC4/capsense.c ****         {
 1591              		.loc 1 625 0 is_stmt 0 discriminator 1
 1592 003a AC42     		cmp	r4, r5
 1593 003c 06D8     		bhi	.L101
 628:.\Generated_Source\PSoC4/capsense.c ****         }
 1594              		.loc 1 628 0 is_stmt 1
 1595 003e 1148     		ldr	r0, .L106+12
 1596 0040 0430     		add	r0, r0, #4
 1597 0042 211C     		mov	r1, r4
 1598 0044 0122     		mov	r2, #1
 1599 0046 FFF7FEFF 		bl	capsense_SetBitValue
 1600              	.LVL199:
 1601 004a 05E0     		b	.L102
 1602              	.L101:
 633:.\Generated_Source\PSoC4/capsense.c ****         }
 1603              		.loc 1 633 0
 1604 004c 0D48     		ldr	r0, .L106+12
 1605 004e 0430     		add	r0, r0, #4
 1606 0050 211C     		mov	r1, r4
 1607 0052 0022     		mov	r2, #0
 1608 0054 FFF7FEFF 		bl	capsense_SetBitValue
 1609              	.LVL200:
 1610              	.L102:
 622:.\Generated_Source\PSoC4/capsense.c ****     {
 1611              		.loc 1 622 0 discriminator 2
 1612 0058 0134     		add	r4, r4, #1
 1613              	.LVL201:
 1614              	.L100:
ARM GAS  C:\Users\Alan\AppData\Local\Temp\ccTIy4ty.s 			page 63


 622:.\Generated_Source\PSoC4/capsense.c ****     {
 1615              		.loc 1 622 0 is_stmt 0 discriminator 1
 1616 005a 042C     		cmp	r4, #4
 1617 005c E8D9     		bls	.L103
 638:.\Generated_Source\PSoC4/capsense.c ****     {
 1618              		.loc 1 638 0 is_stmt 1
 1619 005e 074B     		ldr	r3, .L106+4
 1620 0060 1B7C     		ldrb	r3, [r3, #16]
 1621 0062 DBB2     		uxtb	r3, r3
 1622 0064 042B     		cmp	r3, #4
 1623 0066 06D8     		bhi	.L96
 641:.\Generated_Source\PSoC4/capsense.c ****         /* Scan first sensor of widget*/
 1624              		.loc 1 641 0
 1625 0068 044B     		ldr	r3, .L106+4
 1626 006a 4122     		mov	r2, #65
 1627 006c 1A70     		strb	r2, [r3]
 643:.\Generated_Source\PSoC4/capsense.c ****     }
 1628              		.loc 1 643 0
 1629 006e 187C     		ldrb	r0, [r3, #16]
 1630 0070 C0B2     		uxtb	r0, r0
 1631 0072 FFF7FEFF 		bl	capsense_PreScan
 1632              	.LVL202:
 1633              	.L96:
 645:.\Generated_Source\PSoC4/capsense.c **** #endif /* (0u != capsense_CSHL_API_GENERATE) */
 1634              		.loc 1 645 0
 1635              		@ sp needed
 1636              	.LVL203:
 1637              	.LVL204:
 1638 0076 38BD     		pop	{r3, r4, r5, pc}
 1639              	.L107:
 1640              		.align	2
 1641              	.L106:
 1642 0078 00000000 		.word	capsense_rawDataIndex
 1643 007c 00000000 		.word	.LANCHOR0
 1644 0080 00000000 		.word	capsense_numberOfSensors
 1645 0084 00000000 		.word	.LANCHOR1
 1646 0088 00000000 		.word	capsense_sensorEnableMaskBackup
 1647              		.cfi_endproc
 1648              	.LFE42:
 1649              		.size	capsense_ScanWidget, .-capsense_ScanWidget
 1650              		.section	.text.capsense_GetSenseClkDivider,"ax",%progbits
 1651              		.align	2
 1652              		.global	capsense_GetSenseClkDivider
 1653              		.code	16
 1654              		.thumb_func
 1655              		.type	capsense_GetSenseClkDivider, %function
 1656              	capsense_GetSenseClkDivider:
 1657              	.LFB62:
1793:.\Generated_Source\PSoC4/capsense.c **** 
1794:.\Generated_Source\PSoC4/capsense.c **** 
1795:.\Generated_Source\PSoC4/capsense.c **** 
1796:.\Generated_Source\PSoC4/capsense.c **** /*******************************************************************************
1797:.\Generated_Source\PSoC4/capsense.c **** * Function Name: capsense_GetSenseClkDivider
1798:.\Generated_Source\PSoC4/capsense.c **** ********************************************************************************
1799:.\Generated_Source\PSoC4/capsense.c **** *
1800:.\Generated_Source\PSoC4/capsense.c **** * Summary:
1801:.\Generated_Source\PSoC4/capsense.c **** *  This API returns a value of the sense clock divider for the  sensor.
ARM GAS  C:\Users\Alan\AppData\Local\Temp\ccTIy4ty.s 			page 64


1802:.\Generated_Source\PSoC4/capsense.c **** *
1803:.\Generated_Source\PSoC4/capsense.c **** * Parameters:
1804:.\Generated_Source\PSoC4/capsense.c **** *  sensor: sensor index. The index value can be
1805:.\Generated_Source\PSoC4/capsense.c **** *  from 0 to (capsense_TOTAL_SENSOR_COUNT-1).
1806:.\Generated_Source\PSoC4/capsense.c **** *
1807:.\Generated_Source\PSoC4/capsense.c **** * Return:
1808:.\Generated_Source\PSoC4/capsense.c **** *  This API returns the sense clock divider of the sensor.
1809:.\Generated_Source\PSoC4/capsense.c **** *
1810:.\Generated_Source\PSoC4/capsense.c **** * Global Variables:
1811:.\Generated_Source\PSoC4/capsense.c **** *  capsense_senseClkDividerVal[] - stores the sense clock divider values.
1812:.\Generated_Source\PSoC4/capsense.c **** *
1813:.\Generated_Source\PSoC4/capsense.c **** * Side Effects:
1814:.\Generated_Source\PSoC4/capsense.c **** *  None
1815:.\Generated_Source\PSoC4/capsense.c **** *
1816:.\Generated_Source\PSoC4/capsense.c **** *******************************************************************************/
1817:.\Generated_Source\PSoC4/capsense.c **** uint32 capsense_GetSenseClkDivider(uint32 sensor)
1818:.\Generated_Source\PSoC4/capsense.c **** {
 1658              		.loc 1 1818 0
 1659              		.cfi_startproc
 1660              	.LVL205:
1819:.\Generated_Source\PSoC4/capsense.c ****     #if(0u != capsense_MULTIPLE_FREQUENCY_SET)
1820:.\Generated_Source\PSoC4/capsense.c ****         return((uint32)capsense_senseClkDividerVal[sensor]);
 1661              		.loc 1 1820 0
 1662 0000 014B     		ldr	r3, .L109
 1663 0002 185C     		ldrb	r0, [r3, r0]
 1664              	.LVL206:
1821:.\Generated_Source\PSoC4/capsense.c ****     #else
1822:.\Generated_Source\PSoC4/capsense.c ****         return((uint32)capsense_senseClkDividerVal);
1823:.\Generated_Source\PSoC4/capsense.c ****     #endif /* (0u != capsense_MULTIPLE_FREQUENCY_SET) */
1824:.\Generated_Source\PSoC4/capsense.c **** }
 1665              		.loc 1 1824 0
 1666              		@ sp needed
 1667 0004 7047     		bx	lr
 1668              	.L110:
 1669 0006 C046     		.align	2
 1670              	.L109:
 1671 0008 00000000 		.word	capsense_senseClkDividerVal
 1672              		.cfi_endproc
 1673              	.LFE62:
 1674              		.size	capsense_GetSenseClkDivider, .-capsense_GetSenseClkDivider
 1675              		.section	.text.capsense_SetSenseClkDivider,"ax",%progbits
 1676              		.align	2
 1677              		.global	capsense_SetSenseClkDivider
 1678              		.code	16
 1679              		.thumb_func
 1680              		.type	capsense_SetSenseClkDivider, %function
 1681              	capsense_SetSenseClkDivider:
 1682              	.LFB63:
1825:.\Generated_Source\PSoC4/capsense.c **** 
1826:.\Generated_Source\PSoC4/capsense.c **** #if (capsense_TUNING_METHOD != capsense__TUNING_NONE)
1827:.\Generated_Source\PSoC4/capsense.c ****     /*******************************************************************************
1828:.\Generated_Source\PSoC4/capsense.c ****     * Function Name: capsense_SetSenseClkDivider
1829:.\Generated_Source\PSoC4/capsense.c ****     ********************************************************************************
1830:.\Generated_Source\PSoC4/capsense.c ****     *
1831:.\Generated_Source\PSoC4/capsense.c ****     * Summary:
1832:.\Generated_Source\PSoC4/capsense.c ****     *  This API sets a value of the sense clock divider for the  sensor.
1833:.\Generated_Source\PSoC4/capsense.c ****     *
ARM GAS  C:\Users\Alan\AppData\Local\Temp\ccTIy4ty.s 			page 65


1834:.\Generated_Source\PSoC4/capsense.c ****     * Parameters:
1835:.\Generated_Source\PSoC4/capsense.c ****     *  sensor:  Sensor index.
1836:.\Generated_Source\PSoC4/capsense.c ****     *  senseClk: represents the sense clock value.
1837:.\Generated_Source\PSoC4/capsense.c ****     *
1838:.\Generated_Source\PSoC4/capsense.c ****     * Return:
1839:.\Generated_Source\PSoC4/capsense.c ****     *  None.
1840:.\Generated_Source\PSoC4/capsense.c ****     *
1841:.\Generated_Source\PSoC4/capsense.c ****     * Global Variables:
1842:.\Generated_Source\PSoC4/capsense.c ****     *  capsense_senseClkDividerVal[] - stores the sense clock divider values.
1843:.\Generated_Source\PSoC4/capsense.c ****     *
1844:.\Generated_Source\PSoC4/capsense.c ****     * Side Effects:
1845:.\Generated_Source\PSoC4/capsense.c ****     *  None
1846:.\Generated_Source\PSoC4/capsense.c ****     *
1847:.\Generated_Source\PSoC4/capsense.c ****     *******************************************************************************/
1848:.\Generated_Source\PSoC4/capsense.c ****     void capsense_SetSenseClkDivider(uint32 sensor, uint32 senseClk)
1849:.\Generated_Source\PSoC4/capsense.c ****     {
 1683              		.loc 1 1849 0
 1684              		.cfi_startproc
 1685              	.LVL207:
1850:.\Generated_Source\PSoC4/capsense.c ****         #if(0u != capsense_MULTIPLE_FREQUENCY_SET)
1851:.\Generated_Source\PSoC4/capsense.c ****             capsense_senseClkDividerVal[sensor] = (uint8)senseClk;
 1686              		.loc 1 1851 0
 1687 0000 014B     		ldr	r3, .L112
 1688 0002 1954     		strb	r1, [r3, r0]
1852:.\Generated_Source\PSoC4/capsense.c ****         #else
1853:.\Generated_Source\PSoC4/capsense.c ****             capsense_senseClkDividerVal = (uint8)senseClk;
1854:.\Generated_Source\PSoC4/capsense.c ****         #endif /* (0u != capsense_MULTIPLE_FREQUENCY_SET) */
1855:.\Generated_Source\PSoC4/capsense.c ****     }
 1689              		.loc 1 1855 0
 1690              		@ sp needed
 1691 0004 7047     		bx	lr
 1692              	.L113:
 1693 0006 C046     		.align	2
 1694              	.L112:
 1695 0008 00000000 		.word	capsense_senseClkDividerVal
 1696              		.cfi_endproc
 1697              	.LFE63:
 1698              		.size	capsense_SetSenseClkDivider, .-capsense_SetSenseClkDivider
 1699              		.section	.text.capsense_GetModulatorClkDivider,"ax",%progbits
 1700              		.align	2
 1701              		.global	capsense_GetModulatorClkDivider
 1702              		.code	16
 1703              		.thumb_func
 1704              		.type	capsense_GetModulatorClkDivider, %function
 1705              	capsense_GetModulatorClkDivider:
 1706              	.LFB64:
1856:.\Generated_Source\PSoC4/capsense.c **** #endif /* (capsense_TUNING_METHOD != capsense__TUNING_NONE) */
1857:.\Generated_Source\PSoC4/capsense.c **** 
1858:.\Generated_Source\PSoC4/capsense.c **** 
1859:.\Generated_Source\PSoC4/capsense.c **** /*******************************************************************************
1860:.\Generated_Source\PSoC4/capsense.c **** * Function Name: capsense_GetModulatorClkDivider
1861:.\Generated_Source\PSoC4/capsense.c **** ********************************************************************************
1862:.\Generated_Source\PSoC4/capsense.c **** *
1863:.\Generated_Source\PSoC4/capsense.c **** * Summary:
1864:.\Generated_Source\PSoC4/capsense.c **** *  This API returns a value of the modulator sample clock divider for the  sensor.
1865:.\Generated_Source\PSoC4/capsense.c **** *
1866:.\Generated_Source\PSoC4/capsense.c **** * Parameters:
ARM GAS  C:\Users\Alan\AppData\Local\Temp\ccTIy4ty.s 			page 66


1867:.\Generated_Source\PSoC4/capsense.c **** *  sensor: sensor index. The value of index can be
1868:.\Generated_Source\PSoC4/capsense.c **** *  from 0 to (capsense_TOTAL_SENSOR_COUNT-1).
1869:.\Generated_Source\PSoC4/capsense.c **** *
1870:.\Generated_Source\PSoC4/capsense.c **** * Return:
1871:.\Generated_Source\PSoC4/capsense.c **** *  This API returns the modulator sample clock divider for the  sensor.
1872:.\Generated_Source\PSoC4/capsense.c **** *
1873:.\Generated_Source\PSoC4/capsense.c **** * Global Variables:
1874:.\Generated_Source\PSoC4/capsense.c **** *  capsense_sampleClkDividerVal[] - stores the modulator sample divider values.
1875:.\Generated_Source\PSoC4/capsense.c **** *
1876:.\Generated_Source\PSoC4/capsense.c **** * Side Effects:
1877:.\Generated_Source\PSoC4/capsense.c **** *  None
1878:.\Generated_Source\PSoC4/capsense.c **** *
1879:.\Generated_Source\PSoC4/capsense.c **** *******************************************************************************/
1880:.\Generated_Source\PSoC4/capsense.c **** uint32 capsense_GetModulatorClkDivider(uint32 sensor)
1881:.\Generated_Source\PSoC4/capsense.c **** {
 1707              		.loc 1 1881 0
 1708              		.cfi_startproc
 1709              	.LVL208:
1882:.\Generated_Source\PSoC4/capsense.c ****     #if(0u != capsense_MULTIPLE_FREQUENCY_SET)
1883:.\Generated_Source\PSoC4/capsense.c ****         return((uint32)capsense_sampleClkDividerVal[sensor]);
 1710              		.loc 1 1883 0
 1711 0000 014B     		ldr	r3, .L115
 1712 0002 185C     		ldrb	r0, [r3, r0]
 1713              	.LVL209:
1884:.\Generated_Source\PSoC4/capsense.c ****     #else
1885:.\Generated_Source\PSoC4/capsense.c ****         return((uint32)capsense_sampleClkDividerVal);
1886:.\Generated_Source\PSoC4/capsense.c ****     #endif /* (0u != capsense_MULTIPLE_FREQUENCY_SET) */
1887:.\Generated_Source\PSoC4/capsense.c **** }
 1714              		.loc 1 1887 0
 1715              		@ sp needed
 1716 0004 7047     		bx	lr
 1717              	.L116:
 1718 0006 C046     		.align	2
 1719              	.L115:
 1720 0008 00000000 		.word	capsense_sampleClkDividerVal
 1721              		.cfi_endproc
 1722              	.LFE64:
 1723              		.size	capsense_GetModulatorClkDivider, .-capsense_GetModulatorClkDivider
 1724              		.section	.text.capsense_SetModulatorClkDivider,"ax",%progbits
 1725              		.align	2
 1726              		.global	capsense_SetModulatorClkDivider
 1727              		.code	16
 1728              		.thumb_func
 1729              		.type	capsense_SetModulatorClkDivider, %function
 1730              	capsense_SetModulatorClkDivider:
 1731              	.LFB65:
1888:.\Generated_Source\PSoC4/capsense.c **** 
1889:.\Generated_Source\PSoC4/capsense.c **** #if (capsense_TUNING_METHOD != capsense__TUNING_NONE)
1890:.\Generated_Source\PSoC4/capsense.c ****     /*******************************************************************************
1891:.\Generated_Source\PSoC4/capsense.c ****     * Function Name: capsense_SetModulatorClkDivider
1892:.\Generated_Source\PSoC4/capsense.c ****     ********************************************************************************
1893:.\Generated_Source\PSoC4/capsense.c ****     *
1894:.\Generated_Source\PSoC4/capsense.c ****     * Summary:
1895:.\Generated_Source\PSoC4/capsense.c ****     *  This API sets a value of the modulator sample clock divider for the  sensor.
1896:.\Generated_Source\PSoC4/capsense.c ****     *
1897:.\Generated_Source\PSoC4/capsense.c ****     * Parameters:
1898:.\Generated_Source\PSoC4/capsense.c ****     *  sensor:  Sensor index.
ARM GAS  C:\Users\Alan\AppData\Local\Temp\ccTIy4ty.s 			page 67


1899:.\Generated_Source\PSoC4/capsense.c ****     *  modulatorClk: represents the modulator sample clock value.
1900:.\Generated_Source\PSoC4/capsense.c ****     *
1901:.\Generated_Source\PSoC4/capsense.c ****     * Return:
1902:.\Generated_Source\PSoC4/capsense.c ****     *  None.
1903:.\Generated_Source\PSoC4/capsense.c ****     *
1904:.\Generated_Source\PSoC4/capsense.c ****     * Global Variables:
1905:.\Generated_Source\PSoC4/capsense.c ****     *  capsense_sampleClkDividerVal[] - stores the modulator sample divider values.
1906:.\Generated_Source\PSoC4/capsense.c ****     *
1907:.\Generated_Source\PSoC4/capsense.c ****     * Side Effects:
1908:.\Generated_Source\PSoC4/capsense.c ****     *  None
1909:.\Generated_Source\PSoC4/capsense.c ****     *
1910:.\Generated_Source\PSoC4/capsense.c ****     *******************************************************************************/
1911:.\Generated_Source\PSoC4/capsense.c ****     void capsense_SetModulatorClkDivider(uint32 sensor, uint32 modulatorClk)
1912:.\Generated_Source\PSoC4/capsense.c ****     {
 1732              		.loc 1 1912 0
 1733              		.cfi_startproc
 1734              	.LVL210:
1913:.\Generated_Source\PSoC4/capsense.c ****         #if(0u != capsense_MULTIPLE_FREQUENCY_SET)
1914:.\Generated_Source\PSoC4/capsense.c ****             capsense_sampleClkDividerVal[sensor] = (uint8)modulatorClk;
 1735              		.loc 1 1914 0
 1736 0000 014B     		ldr	r3, .L118
 1737 0002 1954     		strb	r1, [r3, r0]
1915:.\Generated_Source\PSoC4/capsense.c ****         #else
1916:.\Generated_Source\PSoC4/capsense.c ****             capsense_sampleClkDividerVal = (uint8)modulatorClk;
1917:.\Generated_Source\PSoC4/capsense.c ****         #endif /* (0u != capsense_MULTIPLE_FREQUENCY_SET) */
1918:.\Generated_Source\PSoC4/capsense.c ****     }
 1738              		.loc 1 1918 0
 1739              		@ sp needed
 1740 0004 7047     		bx	lr
 1741              	.L119:
 1742 0006 C046     		.align	2
 1743              	.L118:
 1744 0008 00000000 		.word	capsense_sampleClkDividerVal
 1745              		.cfi_endproc
 1746              	.LFE65:
 1747              		.size	capsense_SetModulatorClkDivider, .-capsense_SetModulatorClkDivider
 1748              		.section	.text.capsense_GetModulationIDAC,"ax",%progbits
 1749              		.align	2
 1750              		.global	capsense_GetModulationIDAC
 1751              		.code	16
 1752              		.thumb_func
 1753              		.type	capsense_GetModulationIDAC, %function
 1754              	capsense_GetModulationIDAC:
 1755              	.LFB66:
1919:.\Generated_Source\PSoC4/capsense.c **** #endif /* (capsense_TUNING_METHOD != capsense__TUNING_NONE) */
1920:.\Generated_Source\PSoC4/capsense.c **** 
1921:.\Generated_Source\PSoC4/capsense.c **** /*******************************************************************************
1922:.\Generated_Source\PSoC4/capsense.c **** * Function Name: capsense_GetModulationIDAC
1923:.\Generated_Source\PSoC4/capsense.c **** ********************************************************************************
1924:.\Generated_Source\PSoC4/capsense.c **** *
1925:.\Generated_Source\PSoC4/capsense.c **** * Summary:
1926:.\Generated_Source\PSoC4/capsense.c **** *  This API returns a value of the modulation IDAC for the  sensor.
1927:.\Generated_Source\PSoC4/capsense.c **** *
1928:.\Generated_Source\PSoC4/capsense.c **** * Parameters:
1929:.\Generated_Source\PSoC4/capsense.c **** *  sensor: sensor index. The index value can be
1930:.\Generated_Source\PSoC4/capsense.c **** *  from 0 to (capsense_TOTAL_SENSOR_COUNT-1).
1931:.\Generated_Source\PSoC4/capsense.c **** *
ARM GAS  C:\Users\Alan\AppData\Local\Temp\ccTIy4ty.s 			page 68


1932:.\Generated_Source\PSoC4/capsense.c **** * Return:
1933:.\Generated_Source\PSoC4/capsense.c **** *  This API returns the modulation IDAC of the sensor.
1934:.\Generated_Source\PSoC4/capsense.c **** *
1935:.\Generated_Source\PSoC4/capsense.c **** * Global Variables:
1936:.\Generated_Source\PSoC4/capsense.c **** *  capsense_modulationIDAC[] - stores modulation IDAC values.
1937:.\Generated_Source\PSoC4/capsense.c **** *
1938:.\Generated_Source\PSoC4/capsense.c **** * Side Effects:
1939:.\Generated_Source\PSoC4/capsense.c **** *  None
1940:.\Generated_Source\PSoC4/capsense.c **** *
1941:.\Generated_Source\PSoC4/capsense.c **** *******************************************************************************/
1942:.\Generated_Source\PSoC4/capsense.c **** uint32 capsense_GetModulationIDAC(uint32 sensor)
1943:.\Generated_Source\PSoC4/capsense.c **** {
 1756              		.loc 1 1943 0
 1757              		.cfi_startproc
 1758              	.LVL211:
1944:.\Generated_Source\PSoC4/capsense.c ****         return((uint32)capsense_modulationIDAC[sensor]);
 1759              		.loc 1 1944 0
 1760 0000 014B     		ldr	r3, .L121
 1761 0002 185C     		ldrb	r0, [r3, r0]
 1762              	.LVL212:
1945:.\Generated_Source\PSoC4/capsense.c **** }
 1763              		.loc 1 1945 0
 1764              		@ sp needed
 1765 0004 7047     		bx	lr
 1766              	.L122:
 1767 0006 C046     		.align	2
 1768              	.L121:
 1769 0008 00000000 		.word	capsense_modulationIDAC
 1770              		.cfi_endproc
 1771              	.LFE66:
 1772              		.size	capsense_GetModulationIDAC, .-capsense_GetModulationIDAC
 1773              		.section	.text.capsense_SetModulationIDAC,"ax",%progbits
 1774              		.align	2
 1775              		.global	capsense_SetModulationIDAC
 1776              		.code	16
 1777              		.thumb_func
 1778              		.type	capsense_SetModulationIDAC, %function
 1779              	capsense_SetModulationIDAC:
 1780              	.LFB67:
1946:.\Generated_Source\PSoC4/capsense.c **** 
1947:.\Generated_Source\PSoC4/capsense.c **** #if (capsense_TUNING_METHOD != capsense__TUNING_NONE)
1948:.\Generated_Source\PSoC4/capsense.c ****     /*******************************************************************************
1949:.\Generated_Source\PSoC4/capsense.c ****     * Function Name: capsense_SetModulationIDAC
1950:.\Generated_Source\PSoC4/capsense.c ****     ********************************************************************************
1951:.\Generated_Source\PSoC4/capsense.c ****     *
1952:.\Generated_Source\PSoC4/capsense.c ****     * Summary:
1953:.\Generated_Source\PSoC4/capsense.c ****     *  This API sets a value of the modulation IDAC for the  sensor.
1954:.\Generated_Source\PSoC4/capsense.c ****     *
1955:.\Generated_Source\PSoC4/capsense.c ****     * Parameters:
1956:.\Generated_Source\PSoC4/capsense.c ****     *  sensor:  Sensor index.
1957:.\Generated_Source\PSoC4/capsense.c ****     *  compIdacValue: represents the modulation IDAC data register value.
1958:.\Generated_Source\PSoC4/capsense.c ****     *
1959:.\Generated_Source\PSoC4/capsense.c ****     * Return:
1960:.\Generated_Source\PSoC4/capsense.c ****     *  None.
1961:.\Generated_Source\PSoC4/capsense.c ****     *
1962:.\Generated_Source\PSoC4/capsense.c ****     * Global Variables:
1963:.\Generated_Source\PSoC4/capsense.c ****     *  capsense_modulationIDAC[] - array with modulation IDAC values
ARM GAS  C:\Users\Alan\AppData\Local\Temp\ccTIy4ty.s 			page 69


1964:.\Generated_Source\PSoC4/capsense.c ****     *
1965:.\Generated_Source\PSoC4/capsense.c ****     * Side Effects:
1966:.\Generated_Source\PSoC4/capsense.c ****     *  None
1967:.\Generated_Source\PSoC4/capsense.c ****     *
1968:.\Generated_Source\PSoC4/capsense.c ****     *******************************************************************************/
1969:.\Generated_Source\PSoC4/capsense.c ****     void capsense_SetModulationIDAC(uint32 sensor, uint32 modIdacValue)
1970:.\Generated_Source\PSoC4/capsense.c ****     {
 1781              		.loc 1 1970 0
 1782              		.cfi_startproc
 1783              	.LVL213:
1971:.\Generated_Source\PSoC4/capsense.c ****         capsense_modulationIDAC[sensor] = (uint8)modIdacValue;
 1784              		.loc 1 1971 0
 1785 0000 014B     		ldr	r3, .L124
 1786 0002 1954     		strb	r1, [r3, r0]
1972:.\Generated_Source\PSoC4/capsense.c ****     }
 1787              		.loc 1 1972 0
 1788              		@ sp needed
 1789 0004 7047     		bx	lr
 1790              	.L125:
 1791 0006 C046     		.align	2
 1792              	.L124:
 1793 0008 00000000 		.word	capsense_modulationIDAC
 1794              		.cfi_endproc
 1795              	.LFE67:
 1796              		.size	capsense_SetModulationIDAC, .-capsense_SetModulationIDAC
 1797              		.section	.text.capsense_GetCompensationIDAC,"ax",%progbits
 1798              		.align	2
 1799              		.global	capsense_GetCompensationIDAC
 1800              		.code	16
 1801              		.thumb_func
 1802              		.type	capsense_GetCompensationIDAC, %function
 1803              	capsense_GetCompensationIDAC:
 1804              	.LFB68:
1973:.\Generated_Source\PSoC4/capsense.c **** #endif /* (capsense_TUNING_METHOD != capsense__TUNING_NONE) */
1974:.\Generated_Source\PSoC4/capsense.c **** 
1975:.\Generated_Source\PSoC4/capsense.c **** 
1976:.\Generated_Source\PSoC4/capsense.c **** #if(capsense_IDAC_CNT > 1u)
1977:.\Generated_Source\PSoC4/capsense.c ****     /*******************************************************************************
1978:.\Generated_Source\PSoC4/capsense.c ****     * Function Name: capsense_GetCompensationIDAC
1979:.\Generated_Source\PSoC4/capsense.c ****     ********************************************************************************
1980:.\Generated_Source\PSoC4/capsense.c ****     *
1981:.\Generated_Source\PSoC4/capsense.c ****     * Summary:
1982:.\Generated_Source\PSoC4/capsense.c ****     *  This API returns a value of the compensation IDAC for the  sensor.
1983:.\Generated_Source\PSoC4/capsense.c ****     *
1984:.\Generated_Source\PSoC4/capsense.c ****     * Parameters:
1985:.\Generated_Source\PSoC4/capsense.c ****     *  sensor: sensor index. The index value can be
1986:.\Generated_Source\PSoC4/capsense.c ****     *  from 0 to (capsense_TOTAL_SENSOR_COUNT-1).
1987:.\Generated_Source\PSoC4/capsense.c ****     *
1988:.\Generated_Source\PSoC4/capsense.c ****     * Return:
1989:.\Generated_Source\PSoC4/capsense.c ****     *  This API returns the compensation IDAC of the sensor.
1990:.\Generated_Source\PSoC4/capsense.c ****     *
1991:.\Generated_Source\PSoC4/capsense.c ****     * Global Variables:
1992:.\Generated_Source\PSoC4/capsense.c ****     *  capsense_compensationIDAC[] - stores the compensation IDAC values.
1993:.\Generated_Source\PSoC4/capsense.c ****     *
1994:.\Generated_Source\PSoC4/capsense.c ****     * Side Effects:
1995:.\Generated_Source\PSoC4/capsense.c ****     *  None
1996:.\Generated_Source\PSoC4/capsense.c ****     *
ARM GAS  C:\Users\Alan\AppData\Local\Temp\ccTIy4ty.s 			page 70


1997:.\Generated_Source\PSoC4/capsense.c ****     *******************************************************************************/
1998:.\Generated_Source\PSoC4/capsense.c ****     uint32 capsense_GetCompensationIDAC(uint32 sensor)
1999:.\Generated_Source\PSoC4/capsense.c ****     {
 1805              		.loc 1 1999 0
 1806              		.cfi_startproc
 1807              	.LVL214:
2000:.\Generated_Source\PSoC4/capsense.c ****         return((uint32)capsense_compensationIDAC[sensor]);
 1808              		.loc 1 2000 0
 1809 0000 014B     		ldr	r3, .L127
 1810 0002 185C     		ldrb	r0, [r3, r0]
 1811              	.LVL215:
2001:.\Generated_Source\PSoC4/capsense.c ****     }
 1812              		.loc 1 2001 0
 1813              		@ sp needed
 1814 0004 7047     		bx	lr
 1815              	.L128:
 1816 0006 C046     		.align	2
 1817              	.L127:
 1818 0008 00000000 		.word	capsense_compensationIDAC
 1819              		.cfi_endproc
 1820              	.LFE68:
 1821              		.size	capsense_GetCompensationIDAC, .-capsense_GetCompensationIDAC
 1822              		.section	.text.capsense_SetCompensationIDAC,"ax",%progbits
 1823              		.align	2
 1824              		.global	capsense_SetCompensationIDAC
 1825              		.code	16
 1826              		.thumb_func
 1827              		.type	capsense_SetCompensationIDAC, %function
 1828              	capsense_SetCompensationIDAC:
 1829              	.LFB69:
2002:.\Generated_Source\PSoC4/capsense.c **** #endif /* (capsense_IDAC_CNT > 1u) */
2003:.\Generated_Source\PSoC4/capsense.c **** 
2004:.\Generated_Source\PSoC4/capsense.c **** 
2005:.\Generated_Source\PSoC4/capsense.c **** #if((capsense_TUNING_METHOD != capsense__TUNING_NONE) && (capsense_IDAC_CNT > 1u))
2006:.\Generated_Source\PSoC4/capsense.c ****     /*******************************************************************************
2007:.\Generated_Source\PSoC4/capsense.c ****     * Function Name: capsense_SetCompensationIDAC
2008:.\Generated_Source\PSoC4/capsense.c ****     ********************************************************************************
2009:.\Generated_Source\PSoC4/capsense.c ****     *
2010:.\Generated_Source\PSoC4/capsense.c ****     * Summary:
2011:.\Generated_Source\PSoC4/capsense.c ****     *  This API sets a value of compensation IDAC for the  sensor.
2012:.\Generated_Source\PSoC4/capsense.c ****     *
2013:.\Generated_Source\PSoC4/capsense.c ****     * Parameters:
2014:.\Generated_Source\PSoC4/capsense.c ****     *  sensor:  Sensor index.
2015:.\Generated_Source\PSoC4/capsense.c ****     *  compIdacValue: represents the compensation IDAC data register value.
2016:.\Generated_Source\PSoC4/capsense.c ****     *
2017:.\Generated_Source\PSoC4/capsense.c ****     * Return:
2018:.\Generated_Source\PSoC4/capsense.c ****     *  None.
2019:.\Generated_Source\PSoC4/capsense.c ****     *
2020:.\Generated_Source\PSoC4/capsense.c ****     * Global Variables:
2021:.\Generated_Source\PSoC4/capsense.c ****     *  capsense_compensationIDAC[] - an array with compensation IDAC values
2022:.\Generated_Source\PSoC4/capsense.c ****     *
2023:.\Generated_Source\PSoC4/capsense.c ****     * Side Effects:
2024:.\Generated_Source\PSoC4/capsense.c ****     *  None
2025:.\Generated_Source\PSoC4/capsense.c ****     *
2026:.\Generated_Source\PSoC4/capsense.c ****     *******************************************************************************/
2027:.\Generated_Source\PSoC4/capsense.c ****     void capsense_SetCompensationIDAC(uint32 sensor, uint32 compIdacValue)
2028:.\Generated_Source\PSoC4/capsense.c ****     {
ARM GAS  C:\Users\Alan\AppData\Local\Temp\ccTIy4ty.s 			page 71


 1830              		.loc 1 2028 0
 1831              		.cfi_startproc
 1832              	.LVL216:
2029:.\Generated_Source\PSoC4/capsense.c ****         capsense_compensationIDAC[sensor] = (uint8)compIdacValue;
 1833              		.loc 1 2029 0
 1834 0000 014B     		ldr	r3, .L130
 1835 0002 1954     		strb	r1, [r3, r0]
2030:.\Generated_Source\PSoC4/capsense.c ****     }
 1836              		.loc 1 2030 0
 1837              		@ sp needed
 1838 0004 7047     		bx	lr
 1839              	.L131:
 1840 0006 C046     		.align	2
 1841              	.L130:
 1842 0008 00000000 		.word	capsense_compensationIDAC
 1843              		.cfi_endproc
 1844              	.LFE69:
 1845              		.size	capsense_SetCompensationIDAC, .-capsense_SetCompensationIDAC
 1846              		.section	.text.capsense_GetIDACRange,"ax",%progbits
 1847              		.align	2
 1848              		.global	capsense_GetIDACRange
 1849              		.code	16
 1850              		.thumb_func
 1851              		.type	capsense_GetIDACRange, %function
 1852              	capsense_GetIDACRange:
 1853              	.LFB70:
2031:.\Generated_Source\PSoC4/capsense.c **** #endif /* ((capsense_TUNING_METHOD != capsense__TUNING_NONE) && (capsense_IDAC_CNT > 1u)) */
2032:.\Generated_Source\PSoC4/capsense.c **** 
2033:.\Generated_Source\PSoC4/capsense.c **** /*******************************************************************************
2034:.\Generated_Source\PSoC4/capsense.c **** * Function Name: capsense_GetIDACRange
2035:.\Generated_Source\PSoC4/capsense.c **** ********************************************************************************
2036:.\Generated_Source\PSoC4/capsense.c **** *
2037:.\Generated_Source\PSoC4/capsense.c **** * Summary:
2038:.\Generated_Source\PSoC4/capsense.c **** *  This API returns a value that indicates the IDAC range used by the
2039:.\Generated_Source\PSoC4/capsense.c **** *  component to scan sensors. The IDAC range is common for all the sensors.
2040:.\Generated_Source\PSoC4/capsense.c **** *
2041:.\Generated_Source\PSoC4/capsense.c **** * Parameters:
2042:.\Generated_Source\PSoC4/capsense.c **** *  None
2043:.\Generated_Source\PSoC4/capsense.c **** *
2044:.\Generated_Source\PSoC4/capsense.c **** * Return:
2045:.\Generated_Source\PSoC4/capsense.c **** *  This API Returns a value that indicates the IDAC range:
2046:.\Generated_Source\PSoC4/capsense.c **** *      0 - IDAC range set to 4x
2047:.\Generated_Source\PSoC4/capsense.c **** *      1 - IDAC range set to 8x
2048:.\Generated_Source\PSoC4/capsense.c **** *
2049:.\Generated_Source\PSoC4/capsense.c **** * Global Variables:
2050:.\Generated_Source\PSoC4/capsense.c **** *  None
2051:.\Generated_Source\PSoC4/capsense.c **** *
2052:.\Generated_Source\PSoC4/capsense.c **** * Side Effects:
2053:.\Generated_Source\PSoC4/capsense.c **** *  None
2054:.\Generated_Source\PSoC4/capsense.c **** *
2055:.\Generated_Source\PSoC4/capsense.c **** *******************************************************************************/
2056:.\Generated_Source\PSoC4/capsense.c **** uint32 capsense_GetIDACRange(void)
2057:.\Generated_Source\PSoC4/capsense.c **** {
 1854              		.loc 1 2057 0
 1855              		.cfi_startproc
2058:.\Generated_Source\PSoC4/capsense.c ****     return((0u != (capsense_CSD_IDAC_REG & capsense_CSD_IDAC1_RANGE_8X)) ? 1uL : 0uL);
 1856              		.loc 1 2058 0
ARM GAS  C:\Users\Alan\AppData\Local\Temp\ccTIy4ty.s 			page 72


 1857 0000 034B     		ldr	r3, .L134
 1858 0002 1868     		ldr	r0, [r3]
 1859 0004 8023     		mov	r3, #128
 1860 0006 DB00     		lsl	r3, r3, #3
 1861 0008 1840     		and	r0, r3
 1862 000a 00D0     		beq	.L133
 1863 000c 0120     		mov	r0, #1
 1864              	.L133:
2059:.\Generated_Source\PSoC4/capsense.c **** }
 1865              		.loc 1 2059 0 discriminator 4
 1866              		@ sp needed
 1867 000e 7047     		bx	lr
 1868              	.L135:
 1869              		.align	2
 1870              	.L134:
 1871 0010 08002840 		.word	1076363272
 1872              		.cfi_endproc
 1873              	.LFE70:
 1874              		.size	capsense_GetIDACRange, .-capsense_GetIDACRange
 1875              		.section	.text.capsense_SetIDACRange,"ax",%progbits
 1876              		.align	2
 1877              		.global	capsense_SetIDACRange
 1878              		.code	16
 1879              		.thumb_func
 1880              		.type	capsense_SetIDACRange, %function
 1881              	capsense_SetIDACRange:
 1882              	.LFB71:
2060:.\Generated_Source\PSoC4/capsense.c **** 
2061:.\Generated_Source\PSoC4/capsense.c **** #if (capsense_TUNING_METHOD != capsense__TUNING_NONE)
2062:.\Generated_Source\PSoC4/capsense.c ****     /*******************************************************************************
2063:.\Generated_Source\PSoC4/capsense.c ****     * Function Name: capsense_SetIDACRange
2064:.\Generated_Source\PSoC4/capsense.c ****     ********************************************************************************
2065:.\Generated_Source\PSoC4/capsense.c ****     *
2066:.\Generated_Source\PSoC4/capsense.c ****     * Summary:
2067:.\Generated_Source\PSoC4/capsense.c ****     *  This API sets the IDAC range to the 4x (1.2uA/bit) or 8x (2.4uA/bit) mode.
2068:.\Generated_Source\PSoC4/capsense.c ****     *  The IDAC range is common for all the sensors and common for the modulation and
2069:.\Generated_Source\PSoC4/capsense.c ****     *  compensation IDACs.
2070:.\Generated_Source\PSoC4/capsense.c ****     *
2071:.\Generated_Source\PSoC4/capsense.c ****     * Parameters:
2072:.\Generated_Source\PSoC4/capsense.c ****     *  iDacRange:  represents value for IDAC range
2073:.\Generated_Source\PSoC4/capsense.c ****     *  0 -  IDAC range set to 4x (1.2uA/bit)
2074:.\Generated_Source\PSoC4/capsense.c ****     *  1 or >1 - IDAC range set to 8x (2.4uA/bit)
2075:.\Generated_Source\PSoC4/capsense.c ****     *
2076:.\Generated_Source\PSoC4/capsense.c ****     * Return:
2077:.\Generated_Source\PSoC4/capsense.c ****     *  None.
2078:.\Generated_Source\PSoC4/capsense.c ****     *
2079:.\Generated_Source\PSoC4/capsense.c ****     * Global Variables:
2080:.\Generated_Source\PSoC4/capsense.c ****     *  None
2081:.\Generated_Source\PSoC4/capsense.c ****     *
2082:.\Generated_Source\PSoC4/capsense.c ****     * Side Effects:
2083:.\Generated_Source\PSoC4/capsense.c ****     *  None
2084:.\Generated_Source\PSoC4/capsense.c ****     *
2085:.\Generated_Source\PSoC4/capsense.c ****     *******************************************************************************/
2086:.\Generated_Source\PSoC4/capsense.c ****     void capsense_SetIDACRange(uint32 iDacRange)
2087:.\Generated_Source\PSoC4/capsense.c ****     {
 1883              		.loc 1 2087 0
 1884              		.cfi_startproc
ARM GAS  C:\Users\Alan\AppData\Local\Temp\ccTIy4ty.s 			page 73


 1885              	.LVL217:
2088:.\Generated_Source\PSoC4/capsense.c ****         if(iDacRange != 0u)
 1886              		.loc 1 2088 0
 1887 0000 0028     		cmp	r0, #0
 1888 0002 05D0     		beq	.L137
2089:.\Generated_Source\PSoC4/capsense.c ****         {
2090:.\Generated_Source\PSoC4/capsense.c ****             /*  IDAC range = 8x (2.4uA/bit) */
2091:.\Generated_Source\PSoC4/capsense.c ****             capsense_CSD_IDAC_REG |= (capsense_CSD_IDAC1_RANGE_8X |\
 1889              		.loc 1 2091 0
 1890 0004 054A     		ldr	r2, .L139
 1891 0006 1368     		ldr	r3, [r2]
 1892 0008 0549     		ldr	r1, .L139+4
 1893 000a 0B43     		orr	r3, r1
 1894 000c 1360     		str	r3, [r2]
 1895 000e 04E0     		b	.L136
 1896              	.L137:
2092:.\Generated_Source\PSoC4/capsense.c ****                                               capsense_CSD_IDAC2_RANGE_8X);
2093:.\Generated_Source\PSoC4/capsense.c ****         }
2094:.\Generated_Source\PSoC4/capsense.c ****         else
2095:.\Generated_Source\PSoC4/capsense.c ****         {
2096:.\Generated_Source\PSoC4/capsense.c ****             /*  IDAC range = 4x (1.2uA/bit) */
2097:.\Generated_Source\PSoC4/capsense.c ****             /*  IDAC range = 8x (2.4uA/bit) */
2098:.\Generated_Source\PSoC4/capsense.c ****             capsense_CSD_IDAC_REG &= ~(capsense_CSD_IDAC1_RANGE_8X |\
 1897              		.loc 1 2098 0
 1898 0010 024A     		ldr	r2, .L139
 1899 0012 1168     		ldr	r1, [r2]
 1900 0014 034B     		ldr	r3, .L139+8
 1901 0016 0B40     		and	r3, r1
 1902 0018 1360     		str	r3, [r2]
 1903              	.L136:
2099:.\Generated_Source\PSoC4/capsense.c ****                                                capsense_CSD_IDAC2_RANGE_8X);
2100:.\Generated_Source\PSoC4/capsense.c ****         }
2101:.\Generated_Source\PSoC4/capsense.c ****     }
 1904              		.loc 1 2101 0
 1905              		@ sp needed
 1906 001a 7047     		bx	lr
 1907              	.L140:
 1908              		.align	2
 1909              	.L139:
 1910 001c 08002840 		.word	1076363272
 1911 0020 00040004 		.word	67109888
 1912 0024 FFFBFFFB 		.word	-67109889
 1913              		.cfi_endproc
 1914              	.LFE71:
 1915              		.size	capsense_SetIDACRange, .-capsense_SetIDACRange
 1916              		.section	.text.capsense_GetSensorRaw,"ax",%progbits
 1917              		.align	2
 1918              		.global	capsense_GetSensorRaw
 1919              		.code	16
 1920              		.thumb_func
 1921              		.type	capsense_GetSensorRaw, %function
 1922              	capsense_GetSensorRaw:
 1923              	.LFB72:
2102:.\Generated_Source\PSoC4/capsense.c **** #endif /* (capsense_TUNING_METHOD != capsense__TUNING_NONE) */
2103:.\Generated_Source\PSoC4/capsense.c **** 
2104:.\Generated_Source\PSoC4/capsense.c **** 
2105:.\Generated_Source\PSoC4/capsense.c **** #if((0u != capsense_AUTOCALIBRATION_ENABLE) || (capsense_TUNING_METHOD == capsense__TUNING_AUTO))
ARM GAS  C:\Users\Alan\AppData\Local\Temp\ccTIy4ty.s 			page 74


2106:.\Generated_Source\PSoC4/capsense.c ****     /*******************************************************************************
2107:.\Generated_Source\PSoC4/capsense.c ****     * Function Name: capsense_GetSensorRaw
2108:.\Generated_Source\PSoC4/capsense.c ****     ********************************************************************************
2109:.\Generated_Source\PSoC4/capsense.c ****     *
2110:.\Generated_Source\PSoC4/capsense.c ****     * Summary:
2111:.\Generated_Source\PSoC4/capsense.c ****     *  The API updates and gets uprated raw data from the sensor.
2112:.\Generated_Source\PSoC4/capsense.c ****     *
2113:.\Generated_Source\PSoC4/capsense.c ****     * Parameters:
2114:.\Generated_Source\PSoC4/capsense.c ****     *  sensor - Sensor number.
2115:.\Generated_Source\PSoC4/capsense.c ****     *
2116:.\Generated_Source\PSoC4/capsense.c ****     * Return:
2117:.\Generated_Source\PSoC4/capsense.c ****     *  Returns the current raw data value for a defined sensor number.
2118:.\Generated_Source\PSoC4/capsense.c ****     *
2119:.\Generated_Source\PSoC4/capsense.c ****     * Global Variables:
2120:.\Generated_Source\PSoC4/capsense.c ****     *  None
2121:.\Generated_Source\PSoC4/capsense.c ****     *
2122:.\Generated_Source\PSoC4/capsense.c ****     * Side Effects:
2123:.\Generated_Source\PSoC4/capsense.c ****     *  None
2124:.\Generated_Source\PSoC4/capsense.c ****     *
2125:.\Generated_Source\PSoC4/capsense.c ****     *******************************************************************************/
2126:.\Generated_Source\PSoC4/capsense.c ****     uint16  capsense_GetSensorRaw(uint32 sensor)
2127:.\Generated_Source\PSoC4/capsense.c ****     {
 1924              		.loc 1 2127 0
 1925              		.cfi_startproc
 1926              	.LVL218:
 1927 0000 70B5     		push	{r4, r5, r6, lr}
 1928              		.cfi_def_cfa_offset 16
 1929              		.cfi_offset 4, -16
 1930              		.cfi_offset 5, -12
 1931              		.cfi_offset 6, -8
 1932              		.cfi_offset 14, -4
 1933 0002 061C     		mov	r6, r0
 1934              	.LVL219:
2128:.\Generated_Source\PSoC4/capsense.c ****         uint32 curSample;
2129:.\Generated_Source\PSoC4/capsense.c ****         uint32 avgVal = 0u;
 1935              		.loc 1 2129 0
 1936 0004 0024     		mov	r4, #0
2130:.\Generated_Source\PSoC4/capsense.c **** 
2131:.\Generated_Source\PSoC4/capsense.c ****         for(curSample = 0u; curSample < capsense_AVG_SAMPLES_NUM; curSample++)
 1937              		.loc 1 2131 0
 1938 0006 0025     		mov	r5, #0
 1939 0008 0BE0     		b	.L142
 1940              	.LVL220:
 1941              	.L144:
2132:.\Generated_Source\PSoC4/capsense.c ****         {
2133:.\Generated_Source\PSoC4/capsense.c **** 
2134:.\Generated_Source\PSoC4/capsense.c ****             capsense_ScanSensor((uint32)sensor);
 1942              		.loc 1 2134 0
 1943 000a 301C     		mov	r0, r6
 1944 000c FFF7FEFF 		bl	capsense_ScanSensor
 1945              	.LVL221:
 1946              	.L143:
2135:.\Generated_Source\PSoC4/capsense.c ****             while(capsense_IsBusy() == 1u)
 1947              		.loc 1 2135 0 discriminator 1
 1948 0010 FFF7FEFF 		bl	capsense_IsBusy
 1949              	.LVL222:
 1950 0014 0128     		cmp	r0, #1
ARM GAS  C:\Users\Alan\AppData\Local\Temp\ccTIy4ty.s 			page 75


 1951 0016 FBD0     		beq	.L143
2136:.\Generated_Source\PSoC4/capsense.c ****             {
2137:.\Generated_Source\PSoC4/capsense.c ****                 /* Wait while sensor is busy */
2138:.\Generated_Source\PSoC4/capsense.c ****             }
2139:.\Generated_Source\PSoC4/capsense.c ****             avgVal += capsense_ReadSensorRaw((uint32)sensor);
 1952              		.loc 1 2139 0 discriminator 2
 1953 0018 301C     		mov	r0, r6
 1954 001a FFF7FEFF 		bl	capsense_ReadSensorRaw
 1955              	.LVL223:
 1956 001e 2418     		add	r4, r4, r0
 1957              	.LVL224:
2131:.\Generated_Source\PSoC4/capsense.c ****         {
 1958              		.loc 1 2131 0 discriminator 2
 1959 0020 0135     		add	r5, r5, #1
 1960              	.LVL225:
 1961              	.L142:
2131:.\Generated_Source\PSoC4/capsense.c ****         {
 1962              		.loc 1 2131 0 is_stmt 0 discriminator 1
 1963 0022 002D     		cmp	r5, #0
 1964 0024 F1D0     		beq	.L144
2140:.\Generated_Source\PSoC4/capsense.c ****         }
2141:.\Generated_Source\PSoC4/capsense.c **** 
2142:.\Generated_Source\PSoC4/capsense.c ****         return((uint16)(avgVal / capsense_AVG_SAMPLES_NUM));
 1965              		.loc 1 2142 0 is_stmt 1
 1966 0026 A0B2     		uxth	r0, r4
2143:.\Generated_Source\PSoC4/capsense.c ****     }
 1967              		.loc 1 2143 0
 1968              		@ sp needed
 1969              	.LVL226:
 1970              	.LVL227:
 1971              	.LVL228:
 1972 0028 70BD     		pop	{r4, r5, r6, pc}
 1973              		.cfi_endproc
 1974              	.LFE72:
 1975              		.size	capsense_GetSensorRaw, .-capsense_GetSensorRaw
 1976 002a C046     		.section	.text.capsense_SetUnscannedSensorState,"ax",%progbits
 1977              		.align	2
 1978              		.global	capsense_SetUnscannedSensorState
 1979              		.code	16
 1980              		.thumb_func
 1981              		.type	capsense_SetUnscannedSensorState, %function
 1982              	capsense_SetUnscannedSensorState:
 1983              	.LFB73:
2144:.\Generated_Source\PSoC4/capsense.c **** #endif /* ((0u != capsense_AUTOCALIBRATION_ENABLE) && (capsense_TUNING_METHOD == capsense__TUNING_A
2145:.\Generated_Source\PSoC4/capsense.c **** 
2146:.\Generated_Source\PSoC4/capsense.c **** 
2147:.\Generated_Source\PSoC4/capsense.c **** #if((0u != capsense_AUTOCALIBRATION_ENABLE) && (capsense_TUNING_METHOD != capsense__TUNING_AUTO))
2148:.\Generated_Source\PSoC4/capsense.c ****     /*******************************************************************************
2149:.\Generated_Source\PSoC4/capsense.c ****     * Function Name: capsense_CalibrateSensor
2150:.\Generated_Source\PSoC4/capsense.c ****     ********************************************************************************
2151:.\Generated_Source\PSoC4/capsense.c ****     *
2152:.\Generated_Source\PSoC4/capsense.c ****     * Summary:
2153:.\Generated_Source\PSoC4/capsense.c ****     *  Computes the one sensor IDAC value, which provides the raw signal on
2154:.\Generated_Source\PSoC4/capsense.c ****     *  a specified level, with a specified prescaler, speed, and resolution.
2155:.\Generated_Source\PSoC4/capsense.c ****     *
2156:.\Generated_Source\PSoC4/capsense.c ****     * Parameters:
2157:.\Generated_Source\PSoC4/capsense.c ****     *  sensor - Sensor Number.
ARM GAS  C:\Users\Alan\AppData\Local\Temp\ccTIy4ty.s 			page 76


2158:.\Generated_Source\PSoC4/capsense.c ****     *
2159:.\Generated_Source\PSoC4/capsense.c ****     *  rawLevel -  Raw data level which should be reached during the calibration
2160:.\Generated_Source\PSoC4/capsense.c ****     *              procedure.
2161:.\Generated_Source\PSoC4/capsense.c ****     *
2162:.\Generated_Source\PSoC4/capsense.c ****     *  idacLevelsTbl - Pointer to the modulatorIdac data register configuration table.
2163:.\Generated_Source\PSoC4/capsense.c ****     *
2164:.\Generated_Source\PSoC4/capsense.c ****     * Return:
2165:.\Generated_Source\PSoC4/capsense.c ****     *  None
2166:.\Generated_Source\PSoC4/capsense.c ****     *
2167:.\Generated_Source\PSoC4/capsense.c ****     *******************************************************************************/
2168:.\Generated_Source\PSoC4/capsense.c ****     void capsense_CalibrateSensor(uint32 sensor, uint32 rawLevel, uint8 idacLevelsTbl[])
2169:.\Generated_Source\PSoC4/capsense.c ****     {
2170:.\Generated_Source\PSoC4/capsense.c ****         uint8 mask;
2171:.\Generated_Source\PSoC4/capsense.c ****         uint16 rawData;
2172:.\Generated_Source\PSoC4/capsense.c **** 
2173:.\Generated_Source\PSoC4/capsense.c ****         rawData = 0u;
2174:.\Generated_Source\PSoC4/capsense.c **** 
2175:.\Generated_Source\PSoC4/capsense.c ****         mask = 0x80u;
2176:.\Generated_Source\PSoC4/capsense.c ****         /* Init IDAC for null Channel */
2177:.\Generated_Source\PSoC4/capsense.c ****         idacLevelsTbl[sensor] = 0x00u;
2178:.\Generated_Source\PSoC4/capsense.c **** 
2179:.\Generated_Source\PSoC4/capsense.c ****         do
2180:.\Generated_Source\PSoC4/capsense.c ****         {
2181:.\Generated_Source\PSoC4/capsense.c ****             /* Set bit for null Channel */
2182:.\Generated_Source\PSoC4/capsense.c ****             idacLevelsTbl[sensor] |= mask;
2183:.\Generated_Source\PSoC4/capsense.c **** 
2184:.\Generated_Source\PSoC4/capsense.c ****             /* Scan null Channel and get Rawdata */
2185:.\Generated_Source\PSoC4/capsense.c ****             rawData = capsense_GetSensorRaw(sensor);
2186:.\Generated_Source\PSoC4/capsense.c **** 
2187:.\Generated_Source\PSoC4/capsense.c ****             /* Decrease IDAC until Rawdata reaches rawLevel */
2188:.\Generated_Source\PSoC4/capsense.c ****             if(rawData < rawLevel)
2189:.\Generated_Source\PSoC4/capsense.c ****             {
2190:.\Generated_Source\PSoC4/capsense.c ****                 /* Reset bit for null Channel  */
2191:.\Generated_Source\PSoC4/capsense.c ****                 idacLevelsTbl[sensor] &= (uint8)~mask;
2192:.\Generated_Source\PSoC4/capsense.c ****             }
2193:.\Generated_Source\PSoC4/capsense.c **** 
2194:.\Generated_Source\PSoC4/capsense.c ****             mask >>= 1u;
2195:.\Generated_Source\PSoC4/capsense.c ****         }
2196:.\Generated_Source\PSoC4/capsense.c ****         while(mask > 0u);
2197:.\Generated_Source\PSoC4/capsense.c **** 
2198:.\Generated_Source\PSoC4/capsense.c ****     }
2199:.\Generated_Source\PSoC4/capsense.c **** #endif /* ((0u != capsense_AUTOCALIBRATION_ENABLE) && (capsense_TUNING_METHOD != capsense__TUNING_A
2200:.\Generated_Source\PSoC4/capsense.c **** 
2201:.\Generated_Source\PSoC4/capsense.c **** 
2202:.\Generated_Source\PSoC4/capsense.c **** /*******************************************************************************
2203:.\Generated_Source\PSoC4/capsense.c **** * Function Name: capsense_SetUnscannedSensorState
2204:.\Generated_Source\PSoC4/capsense.c **** ********************************************************************************
2205:.\Generated_Source\PSoC4/capsense.c **** *
2206:.\Generated_Source\PSoC4/capsense.c **** * Summary:
2207:.\Generated_Source\PSoC4/capsense.c **** *  This API sets a state for un-scanned sensors.
2208:.\Generated_Source\PSoC4/capsense.c **** *  It is possible to set the state to Ground, High-Z, or the shield electrode.
2209:.\Generated_Source\PSoC4/capsense.c **** *  The un-scanned sensor can be connected to a shield electrode only if the shield is
2210:.\Generated_Source\PSoC4/capsense.c **** *  enabled. If the shield is disabled and this API is called with the parameter which
2211:.\Generated_Source\PSoC4/capsense.c **** *  indicates the shield state, the un-scanned sensor will be connected to Ground.
2212:.\Generated_Source\PSoC4/capsense.c **** *
2213:.\Generated_Source\PSoC4/capsense.c **** * Parameters:
2214:.\Generated_Source\PSoC4/capsense.c **** *  sensor - Sensor Number.
ARM GAS  C:\Users\Alan\AppData\Local\Temp\ccTIy4ty.s 			page 77


2215:.\Generated_Source\PSoC4/capsense.c **** *  sensorState: This parameter indicates un-scanned sensor state:
2216:.\Generated_Source\PSoC4/capsense.c **** *
2217:.\Generated_Source\PSoC4/capsense.c **** *     capsense__GROUND 0
2218:.\Generated_Source\PSoC4/capsense.c **** *     capsense__HIZ_ANALOG 1
2219:.\Generated_Source\PSoC4/capsense.c **** *     capsense__SHIELD 2
2220:.\Generated_Source\PSoC4/capsense.c **** *
2221:.\Generated_Source\PSoC4/capsense.c **** * Return:
2222:.\Generated_Source\PSoC4/capsense.c **** *  None.
2223:.\Generated_Source\PSoC4/capsense.c **** *
2224:.\Generated_Source\PSoC4/capsense.c **** * Global Variables:
2225:.\Generated_Source\PSoC4/capsense.c **** *  capsense_unscannedSnsDriveMode[] - used to store the state for
2226:.\Generated_Source\PSoC4/capsense.c **** *  un-scanned sensors.
2227:.\Generated_Source\PSoC4/capsense.c **** *
2228:.\Generated_Source\PSoC4/capsense.c **** * Side Effects:
2229:.\Generated_Source\PSoC4/capsense.c **** *  None
2230:.\Generated_Source\PSoC4/capsense.c **** *
2231:.\Generated_Source\PSoC4/capsense.c **** *******************************************************************************/
2232:.\Generated_Source\PSoC4/capsense.c **** void capsense_SetUnscannedSensorState(uint32 sensor, uint32 sensorState)
2233:.\Generated_Source\PSoC4/capsense.c **** {
 1984              		.loc 1 2233 0
 1985              		.cfi_startproc
 1986              	.LVL229:
2234:.\Generated_Source\PSoC4/capsense.c ****     capsense_unscannedSnsDriveMode[sensor] = (uint8)sensorState;
 1987              		.loc 1 2234 0
 1988 0000 014B     		ldr	r3, .L146
 1989 0002 1954     		strb	r1, [r3, r0]
2235:.\Generated_Source\PSoC4/capsense.c **** }
 1990              		.loc 1 2235 0
 1991              		@ sp needed
 1992 0004 7047     		bx	lr
 1993              	.L147:
 1994 0006 C046     		.align	2
 1995              	.L146:
 1996 0008 00000000 		.word	capsense_unscannedSnsDriveMode
 1997              		.cfi_endproc
 1998              	.LFE73:
 1999              		.size	capsense_SetUnscannedSensorState, .-capsense_SetUnscannedSensorState
 2000              		.section	.text.capsense_NormalizeWidgets,"ax",%progbits
 2001              		.align	2
 2002              		.global	capsense_NormalizeWidgets
 2003              		.code	16
 2004              		.thumb_func
 2005              		.type	capsense_NormalizeWidgets, %function
 2006              	capsense_NormalizeWidgets:
 2007              	.LFB74:
2236:.\Generated_Source\PSoC4/capsense.c **** 
2237:.\Generated_Source\PSoC4/capsense.c **** #if(0u != capsense_TOTAL_CENTROIDS_COUNT)
2238:.\Generated_Source\PSoC4/capsense.c **** /*******************************************************************************
2239:.\Generated_Source\PSoC4/capsense.c **** * Function Name: capsense_NormalizeWidgets
2240:.\Generated_Source\PSoC4/capsense.c **** ********************************************************************************
2241:.\Generated_Source\PSoC4/capsense.c **** *
2242:.\Generated_Source\PSoC4/capsense.c **** * Summary:
2243:.\Generated_Source\PSoC4/capsense.c **** *  This API aligns all the parameters of the widget to the maximum parameter.
2244:.\Generated_Source\PSoC4/capsense.c **** *
2245:.\Generated_Source\PSoC4/capsense.c **** * Parameters:
2246:.\Generated_Source\PSoC4/capsense.c **** *  uint32 widgetsNum: Number of widgets.
2247:.\Generated_Source\PSoC4/capsense.c **** *  uint8 *dataPrt: pointer to array with widget parameters.
ARM GAS  C:\Users\Alan\AppData\Local\Temp\ccTIy4ty.s 			page 78


2248:.\Generated_Source\PSoC4/capsense.c **** *
2249:.\Generated_Source\PSoC4/capsense.c **** * Return:
2250:.\Generated_Source\PSoC4/capsense.c **** *  None
2251:.\Generated_Source\PSoC4/capsense.c **** *
2252:.\Generated_Source\PSoC4/capsense.c **** * Global Variables:
2253:.\Generated_Source\PSoC4/capsense.c **** *  capsense_numberOfSensors[] - Number of sensors in the widget.
2254:.\Generated_Source\PSoC4/capsense.c **** *  capsense_rawDataIndex[currentWidget] - Contains the  1st sensor
2255:.\Generated_Source\PSoC4/capsense.c **** *  position in the widget.
2256:.\Generated_Source\PSoC4/capsense.c **** *
2257:.\Generated_Source\PSoC4/capsense.c **** * Side Effects:
2258:.\Generated_Source\PSoC4/capsense.c **** *  None
2259:.\Generated_Source\PSoC4/capsense.c **** *
2260:.\Generated_Source\PSoC4/capsense.c **** *******************************************************************************/
2261:.\Generated_Source\PSoC4/capsense.c **** void capsense_NormalizeWidgets(uint32 widgetsNum, uint8 dataPtr[])
2262:.\Generated_Source\PSoC4/capsense.c **** {
 2008              		.loc 1 2262 0
 2009              		.cfi_startproc
 2010              	.LVL230:
 2011 0000 F0B5     		push	{r4, r5, r6, r7, lr}
 2012              		.cfi_def_cfa_offset 20
 2013              		.cfi_offset 4, -20
 2014              		.cfi_offset 5, -16
 2015              		.cfi_offset 6, -12
 2016              		.cfi_offset 7, -8
 2017              		.cfi_offset 14, -4
 2018              	.LVL231:
2263:.\Generated_Source\PSoC4/capsense.c ****     uint32 currentWidget;
2264:.\Generated_Source\PSoC4/capsense.c ****     uint32 currentSensor;
2265:.\Generated_Source\PSoC4/capsense.c ****     uint32 lastSensor;
2266:.\Generated_Source\PSoC4/capsense.c ****     uint32 sensorsPerWidget;
2267:.\Generated_Source\PSoC4/capsense.c ****     uint32 maxPerWidget;
2268:.\Generated_Source\PSoC4/capsense.c **** 
2269:.\Generated_Source\PSoC4/capsense.c ****     for(currentWidget = 0u; currentWidget < widgetsNum; currentWidget++)
 2019              		.loc 1 2269 0
 2020 0002 0027     		mov	r7, #0
 2021 0004 14E0     		b	.L149
 2022              	.LVL232:
 2023              	.L155:
2270:.\Generated_Source\PSoC4/capsense.c ****     {
2271:.\Generated_Source\PSoC4/capsense.c ****         maxPerWidget = 0u;
2272:.\Generated_Source\PSoC4/capsense.c **** 
2273:.\Generated_Source\PSoC4/capsense.c ****         sensorsPerWidget = capsense_numberOfSensors[currentWidget];
 2024              		.loc 1 2273 0
 2025 0006 0C4B     		ldr	r3, .L157
 2026 0008 DE5D     		ldrb	r6, [r3, r7]
 2027              	.LVL233:
2274:.\Generated_Source\PSoC4/capsense.c ****         currentSensor = capsense_rawDataIndex[currentWidget];
 2028              		.loc 1 2274 0
 2029 000a 0C4B     		ldr	r3, .L157+4
 2030 000c DB5D     		ldrb	r3, [r3, r7]
 2031              	.LVL234:
2275:.\Generated_Source\PSoC4/capsense.c ****         lastSensor = currentSensor + sensorsPerWidget;
 2032              		.loc 1 2275 0
 2033 000e 9E19     		add	r6, r3, r6
 2034              	.LVL235:
2274:.\Generated_Source\PSoC4/capsense.c ****         currentSensor = capsense_rawDataIndex[currentWidget];
 2035              		.loc 1 2274 0
ARM GAS  C:\Users\Alan\AppData\Local\Temp\ccTIy4ty.s 			page 79


 2036 0010 1A1C     		mov	r2, r3
2271:.\Generated_Source\PSoC4/capsense.c **** 
 2037              		.loc 1 2271 0
 2038 0012 0024     		mov	r4, #0
2276:.\Generated_Source\PSoC4/capsense.c **** 
2277:.\Generated_Source\PSoC4/capsense.c ****         while(currentSensor < lastSensor)
 2039              		.loc 1 2277 0
 2040 0014 04E0     		b	.L150
 2041              	.LVL236:
 2042              	.L152:
2278:.\Generated_Source\PSoC4/capsense.c ****         {
2279:.\Generated_Source\PSoC4/capsense.c ****             if(maxPerWidget < dataPtr[currentSensor])
 2043              		.loc 1 2279 0
 2044 0016 8D5C     		ldrb	r5, [r1, r2]
 2045 0018 A542     		cmp	r5, r4
 2046 001a 00D9     		bls	.L151
2280:.\Generated_Source\PSoC4/capsense.c ****             {
2281:.\Generated_Source\PSoC4/capsense.c ****                 maxPerWidget = dataPtr[currentSensor];
 2047              		.loc 1 2281 0
 2048 001c 2C1C     		mov	r4, r5
 2049              	.LVL237:
 2050              	.L151:
2282:.\Generated_Source\PSoC4/capsense.c ****             }
2283:.\Generated_Source\PSoC4/capsense.c ****             currentSensor++;
 2051              		.loc 1 2283 0
 2052 001e 0132     		add	r2, r2, #1
 2053              	.LVL238:
 2054              	.L150:
2277:.\Generated_Source\PSoC4/capsense.c ****         {
 2055              		.loc 1 2277 0
 2056 0020 B242     		cmp	r2, r6
 2057 0022 F8D3     		bcc	.L152
 2058 0024 01E0     		b	.L153
 2059              	.LVL239:
 2060              	.L154:
2284:.\Generated_Source\PSoC4/capsense.c ****         }
2285:.\Generated_Source\PSoC4/capsense.c **** 
2286:.\Generated_Source\PSoC4/capsense.c ****         currentSensor = capsense_rawDataIndex[currentWidget];
2287:.\Generated_Source\PSoC4/capsense.c **** 
2288:.\Generated_Source\PSoC4/capsense.c ****         while(currentSensor < lastSensor)
2289:.\Generated_Source\PSoC4/capsense.c ****         {
2290:.\Generated_Source\PSoC4/capsense.c ****             dataPtr[currentSensor] = (uint8)maxPerWidget;
 2061              		.loc 1 2290 0
 2062 0026 CC54     		strb	r4, [r1, r3]
2291:.\Generated_Source\PSoC4/capsense.c ****             currentSensor++;
 2063              		.loc 1 2291 0
 2064 0028 0133     		add	r3, r3, #1
 2065              	.LVL240:
 2066              	.L153:
2288:.\Generated_Source\PSoC4/capsense.c ****         {
 2067              		.loc 1 2288 0
 2068 002a B342     		cmp	r3, r6
 2069 002c FBD3     		bcc	.L154
2269:.\Generated_Source\PSoC4/capsense.c ****     {
 2070              		.loc 1 2269 0 discriminator 2
 2071 002e 0137     		add	r7, r7, #1
 2072              	.LVL241:
ARM GAS  C:\Users\Alan\AppData\Local\Temp\ccTIy4ty.s 			page 80


 2073              	.L149:
2269:.\Generated_Source\PSoC4/capsense.c ****     {
 2074              		.loc 1 2269 0 is_stmt 0 discriminator 1
 2075 0030 8742     		cmp	r7, r0
 2076 0032 E8D3     		bcc	.L155
2292:.\Generated_Source\PSoC4/capsense.c ****         }
2293:.\Generated_Source\PSoC4/capsense.c ****     }
2294:.\Generated_Source\PSoC4/capsense.c **** }
 2077              		.loc 1 2294 0 is_stmt 1
 2078              		@ sp needed
 2079              	.LVL242:
 2080 0034 F0BD     		pop	{r4, r5, r6, r7, pc}
 2081              	.L158:
 2082 0036 C046     		.align	2
 2083              	.L157:
 2084 0038 00000000 		.word	capsense_numberOfSensors
 2085 003c 00000000 		.word	capsense_rawDataIndex
 2086              		.cfi_endproc
 2087              	.LFE74:
 2088              		.size	capsense_NormalizeWidgets, .-capsense_NormalizeWidgets
 2089              		.global	capsense_prtDRTbl
 2090              		.global	capsense_prtCfgTbl
 2091              		.global	capsense_prtSelTbl
 2092              		.global	capsense_widgetNumber
 2093              		.comm	capsense_sampleClkDividerVal,5,4
 2094              		.comm	capsense_senseClkDividerVal,5,4
 2095              		.global	capsense_widgetResolution
 2096              		.comm	capsense_compensationIDAC,5,4
 2097              		.comm	capsense_modulationIDAC,5,4
 2098              		.global	capsense_pinShiftTbl
 2099              		.global	capsense_maskTable
 2100              		.global	capsense_portTable
 2101              		.global	capsense_pcTable
 2102              		.global	capsense_sensorEnableMask
 2103              		.comm	capsense_sensorEnableMaskBackup,1,4
 2104              		.comm	capsense_unscannedSnsDriveMode,5,4
 2105              		.comm	capsense_csdTrim1,1,1
 2106              		.global	capsense_sensorRaw
 2107              		.global	capsense_sensorIndex
 2108              		.global	capsense_csdStatusVar
 2109              		.comm	capsense_scanSpeedTbl,1,4
 2110              		.global	capsense_lowLevelTuningDone
 2111              		.section	.rodata
 2112              		.align	2
 2113              		.set	.LANCHOR2,. + 0
 2114              		.type	capsense_portTable, %object
 2115              		.size	capsense_portTable, 5
 2116              	capsense_portTable:
 2117 0000 02       		.byte	2
 2118 0001 02       		.byte	2
 2119 0002 02       		.byte	2
 2120 0003 02       		.byte	2
 2121 0004 02       		.byte	2
 2122 0005 000000   		.space	3
 2123              		.type	capsense_pinShiftTbl, %object
 2124              		.size	capsense_pinShiftTbl, 5
 2125              	capsense_pinShiftTbl:
ARM GAS  C:\Users\Alan\AppData\Local\Temp\ccTIy4ty.s 			page 81


 2126 0008 01       		.byte	1
 2127 0009 02       		.byte	2
 2128 000a 03       		.byte	3
 2129 000b 04       		.byte	4
 2130 000c 05       		.byte	5
 2131 000d 000000   		.space	3
 2132              		.type	capsense_prtSelTbl, %object
 2133              		.size	capsense_prtSelTbl, 28
 2134              	capsense_prtSelTbl:
 2135 0010 00000240 		.word	1073872896
 2136 0014 00010240 		.word	1073873152
 2137 0018 00020240 		.word	1073873408
 2138 001c 00030240 		.word	1073873664
 2139 0020 00040240 		.word	1073873920
 2140 0024 00050240 		.word	1073874176
 2141 0028 00060240 		.word	1073874432
 2142              		.type	capsense_prtCfgTbl, %object
 2143              		.size	capsense_prtCfgTbl, 28
 2144              	capsense_prtCfgTbl:
 2145 002c 08000440 		.word	1074003976
 2146 0030 08010440 		.word	1074004232
 2147 0034 08020440 		.word	1074004488
 2148 0038 08030440 		.word	1074004744
 2149 003c 08040440 		.word	1074005000
 2150 0040 08050440 		.word	1074005256
 2151 0044 08060440 		.word	1074005512
 2152              		.type	capsense_prtDRTbl, %object
 2153              		.size	capsense_prtDRTbl, 28
 2154              	capsense_prtDRTbl:
 2155 0048 00000440 		.word	1074003968
 2156 004c 00010440 		.word	1074004224
 2157 0050 00020440 		.word	1074004480
 2158 0054 00030440 		.word	1074004736
 2159 0058 00040440 		.word	1074004992
 2160 005c 00050440 		.word	1074005248
 2161 0060 00060440 		.word	1074005504
 2162              		.type	capsense_widgetNumber, %object
 2163              		.size	capsense_widgetNumber, 5
 2164              	capsense_widgetNumber:
 2165 0064 00000000 		.space	5
 2165      00
 2166 0069 000000   		.space	3
 2167              		.type	capsense_maskTable, %object
 2168              		.size	capsense_maskTable, 20
 2169              	capsense_maskTable:
 2170 006c 02000000 		.word	2
 2171 0070 04000000 		.word	4
 2172 0074 08000000 		.word	8
 2173 0078 10000000 		.word	16
 2174 007c 20000000 		.word	32
 2175              		.data
 2176              		.align	2
 2177              		.set	.LANCHOR1,. + 0
 2178              		.type	capsense_widgetResolution, %object
 2179              		.size	capsense_widgetResolution, 4
 2180              	capsense_widgetResolution:
 2181 0000 0000FF0F 		.word	268369920
ARM GAS  C:\Users\Alan\AppData\Local\Temp\ccTIy4ty.s 			page 82


 2182              		.type	capsense_sensorEnableMask, %object
 2183              		.size	capsense_sensorEnableMask, 1
 2184              	capsense_sensorEnableMask:
 2185 0004 1F       		.byte	31
 2186 0005 000000   		.space	3
 2187              		.type	capsense_pcTable, %object
 2188              		.size	capsense_pcTable, 20
 2189              	capsense_pcTable:
 2190 0008 08020440 		.word	1074004488
 2191 000c 08020440 		.word	1074004488
 2192 0010 08020440 		.word	1074004488
 2193 0014 08020440 		.word	1074004488
 2194 0018 08020440 		.word	1074004488
 2195              		.bss
 2196              		.align	2
 2197              		.set	.LANCHOR0,. + 0
 2198              		.type	capsense_csdStatusVar, %object
 2199              		.size	capsense_csdStatusVar, 1
 2200              	capsense_csdStatusVar:
 2201 0000 00       		.space	1
 2202 0001 000000   		.space	3
 2203              		.type	capsense_sensorRaw, %object
 2204              		.size	capsense_sensorRaw, 10
 2205              	capsense_sensorRaw:
 2206 0004 00000000 		.space	10
 2206      00000000 
 2206      0000
 2207              		.type	capsense_initVar.5282, %object
 2208              		.size	capsense_initVar.5282, 1
 2209              	capsense_initVar.5282:
 2210 000e 00       		.space	1
 2211              		.type	capsense_lowLevelTuningDone, %object
 2212              		.size	capsense_lowLevelTuningDone, 1
 2213              	capsense_lowLevelTuningDone:
 2214 000f 00       		.space	1
 2215              		.type	capsense_sensorIndex, %object
 2216              		.size	capsense_sensorIndex, 1
 2217              	capsense_sensorIndex:
 2218 0010 00       		.space	1
 2219 0011 000000   		.text
 2220              	.Letext0:
 2221              		.file 2 ".\\Generated_Source\\PSoC4\\cytypes.h"
 2222              		.file 3 ".\\Generated_Source\\PSoC4\\capsense_CSHL.h"
 2223              		.file 4 ".\\Generated_Source\\PSoC4\\CyLib.h"
 2224              		.file 5 ".\\Generated_Source\\PSoC4\\capsense_SenseClk.h"
 2225              		.file 6 ".\\Generated_Source\\PSoC4\\capsense_SampleClk.h"
 2226              		.file 7 ".\\Generated_Source\\PSoC4\\capsense.h"
 2227              		.section	.debug_info,"",%progbits
 2228              	.Ldebug_info0:
 2229 0000 1E110000 		.4byte	0x111e
 2230 0004 0400     		.2byte	0x4
 2231 0006 00000000 		.4byte	.Ldebug_abbrev0
 2232 000a 04       		.byte	0x4
 2233 000b 01       		.uleb128 0x1
 2234 000c 89060000 		.4byte	.LASF137
 2235 0010 01       		.byte	0x1
 2236 0011 93050000 		.4byte	.LASF138
ARM GAS  C:\Users\Alan\AppData\Local\Temp\ccTIy4ty.s 			page 83


 2237 0015 1F000000 		.4byte	.LASF139
 2238 0019 00000000 		.4byte	.Ldebug_ranges0+0
 2239 001d 00000000 		.4byte	0
 2240 0021 00000000 		.4byte	.Ldebug_line0
 2241 0025 02       		.uleb128 0x2
 2242 0026 01       		.byte	0x1
 2243 0027 06       		.byte	0x6
 2244 0028 A8090000 		.4byte	.LASF0
 2245 002c 02       		.uleb128 0x2
 2246 002d 01       		.byte	0x1
 2247 002e 08       		.byte	0x8
 2248 002f 9F080000 		.4byte	.LASF1
 2249 0033 02       		.uleb128 0x2
 2250 0034 02       		.byte	0x2
 2251 0035 05       		.byte	0x5
 2252 0036 24060000 		.4byte	.LASF2
 2253 003a 02       		.uleb128 0x2
 2254 003b 02       		.byte	0x2
 2255 003c 07       		.byte	0x7
 2256 003d BC090000 		.4byte	.LASF3
 2257 0041 02       		.uleb128 0x2
 2258 0042 04       		.byte	0x4
 2259 0043 05       		.byte	0x5
 2260 0044 2E060000 		.4byte	.LASF4
 2261 0048 02       		.uleb128 0x2
 2262 0049 04       		.byte	0x4
 2263 004a 07       		.byte	0x7
 2264 004b 10080000 		.4byte	.LASF5
 2265 004f 02       		.uleb128 0x2
 2266 0050 08       		.byte	0x8
 2267 0051 05       		.byte	0x5
 2268 0052 2F040000 		.4byte	.LASF6
 2269 0056 02       		.uleb128 0x2
 2270 0057 08       		.byte	0x8
 2271 0058 07       		.byte	0x7
 2272 0059 37020000 		.4byte	.LASF7
 2273 005d 03       		.uleb128 0x3
 2274 005e 04       		.byte	0x4
 2275 005f 05       		.byte	0x5
 2276 0060 696E7400 		.ascii	"int\000"
 2277 0064 02       		.uleb128 0x2
 2278 0065 04       		.byte	0x4
 2279 0066 07       		.byte	0x7
 2280 0067 B2000000 		.4byte	.LASF8
 2281 006b 04       		.uleb128 0x4
 2282 006c 290A0000 		.4byte	.LASF9
 2283 0070 02       		.byte	0x2
 2284 0071 C2       		.byte	0xc2
 2285 0072 2C000000 		.4byte	0x2c
 2286 0076 04       		.uleb128 0x4
 2287 0077 E2030000 		.4byte	.LASF10
 2288 007b 02       		.byte	0x2
 2289 007c C3       		.byte	0xc3
 2290 007d 3A000000 		.4byte	0x3a
 2291 0081 04       		.uleb128 0x4
 2292 0082 C5040000 		.4byte	.LASF11
 2293 0086 02       		.byte	0x2
ARM GAS  C:\Users\Alan\AppData\Local\Temp\ccTIy4ty.s 			page 84


 2294 0087 C4       		.byte	0xc4
 2295 0088 48000000 		.4byte	0x48
 2296 008c 02       		.uleb128 0x2
 2297 008d 04       		.byte	0x4
 2298 008e 04       		.byte	0x4
 2299 008f 16020000 		.4byte	.LASF12
 2300 0093 02       		.uleb128 0x2
 2301 0094 08       		.byte	0x8
 2302 0095 04       		.byte	0x4
 2303 0096 2F0A0000 		.4byte	.LASF13
 2304 009a 02       		.uleb128 0x2
 2305 009b 01       		.byte	0x1
 2306 009c 08       		.byte	0x8
 2307 009d 7F030000 		.4byte	.LASF14
 2308 00a1 05       		.uleb128 0x5
 2309 00a2 0F010000 		.4byte	.LASF15
 2310 00a6 02       		.byte	0x2
 2311 00a7 6C01     		.2byte	0x16c
 2312 00a9 AD000000 		.4byte	0xad
 2313 00ad 06       		.uleb128 0x6
 2314 00ae 6B000000 		.4byte	0x6b
 2315 00b2 05       		.uleb128 0x5
 2316 00b3 B7050000 		.4byte	.LASF16
 2317 00b7 02       		.byte	0x2
 2318 00b8 6E01     		.2byte	0x16e
 2319 00ba BE000000 		.4byte	0xbe
 2320 00be 06       		.uleb128 0x6
 2321 00bf 81000000 		.4byte	0x81
 2322 00c3 05       		.uleb128 0x5
 2323 00c4 9C040000 		.4byte	.LASF17
 2324 00c8 02       		.byte	0x2
 2325 00c9 7E01     		.2byte	0x17e
 2326 00cb CF000000 		.4byte	0xcf
 2327 00cf 07       		.uleb128 0x7
 2328 00d0 04       		.byte	0x4
 2329 00d1 D5000000 		.4byte	0xd5
 2330 00d5 08       		.uleb128 0x8
 2331 00d6 02       		.uleb128 0x2
 2332 00d7 04       		.byte	0x4
 2333 00d8 07       		.byte	0x7
 2334 00d9 07080000 		.4byte	.LASF18
 2335 00dd 07       		.uleb128 0x7
 2336 00de 04       		.byte	0x4
 2337 00df 6B000000 		.4byte	0x6b
 2338 00e3 07       		.uleb128 0x7
 2339 00e4 04       		.byte	0x4
 2340 00e5 E9000000 		.4byte	0xe9
 2341 00e9 09       		.uleb128 0x9
 2342 00ea 6B000000 		.4byte	0x6b
 2343 00ee 0A       		.uleb128 0xa
 2344 00ef 6D080000 		.4byte	.LASF19
 2345 00f3 01       		.byte	0x1
 2346 00f4 E8       		.byte	0xe8
 2347 00f5 00000000 		.4byte	.LFB36
 2348 00f9 80000000 		.4byte	.LFE36-.LFB36
 2349 00fd 01       		.uleb128 0x1
 2350 00fe 9C       		.byte	0x9c
ARM GAS  C:\Users\Alan\AppData\Local\Temp\ccTIy4ty.s 			page 85


 2351 00ff 4D010000 		.4byte	0x14d
 2352 0103 0B       		.uleb128 0xb
 2353 0104 030A0000 		.4byte	.LASF21
 2354 0108 01       		.byte	0x1
 2355 0109 EA       		.byte	0xea
 2356 010a 81000000 		.4byte	0x81
 2357 010e 00000000 		.4byte	.LLST0
 2358 0112 0C       		.uleb128 0xc
 2359 0113 48000000 		.4byte	.LVL12
 2360 0117 31100000 		.4byte	0x1031
 2361 011b 25010000 		.4byte	0x125
 2362 011f 0D       		.uleb128 0xd
 2363 0120 01       		.uleb128 0x1
 2364 0121 50       		.byte	0x50
 2365 0122 01       		.uleb128 0x1
 2366 0123 40       		.byte	0x40
 2367 0124 00       		.byte	0
 2368 0125 0C       		.uleb128 0xc
 2369 0126 50000000 		.4byte	.LVL13
 2370 012a 42100000 		.4byte	0x1042
 2371 012e 38010000 		.4byte	0x138
 2372 0132 0D       		.uleb128 0xd
 2373 0133 01       		.uleb128 0x1
 2374 0134 50       		.byte	0x50
 2375 0135 01       		.uleb128 0x1
 2376 0136 40       		.byte	0x40
 2377 0137 00       		.byte	0
 2378 0138 0E       		.uleb128 0xe
 2379 0139 58000000 		.4byte	.LVL14
 2380 013d 5C100000 		.4byte	0x105c
 2381 0141 0D       		.uleb128 0xd
 2382 0142 01       		.uleb128 0x1
 2383 0143 51       		.byte	0x51
 2384 0144 01       		.uleb128 0x1
 2385 0145 33       		.byte	0x33
 2386 0146 0D       		.uleb128 0xd
 2387 0147 01       		.uleb128 0x1
 2388 0148 50       		.byte	0x50
 2389 0149 01       		.uleb128 0x1
 2390 014a 40       		.byte	0x40
 2391 014b 00       		.byte	0
 2392 014c 00       		.byte	0
 2393 014d 0F       		.uleb128 0xf
 2394 014e 3D080000 		.4byte	.LASF20
 2395 0152 01       		.byte	0x1
 2396 0153 3D01     		.2byte	0x13d
 2397 0155 00000000 		.4byte	.LFB37
 2398 0159 40000000 		.4byte	.LFE37-.LFB37
 2399 015d 01       		.uleb128 0x1
 2400 015e 9C       		.byte	0x9c
 2401 015f ED010000 		.4byte	0x1ed
 2402 0163 10       		.uleb128 0x10
 2403 0164 030A0000 		.4byte	.LASF21
 2404 0168 01       		.byte	0x1
 2405 0169 3F01     		.2byte	0x13f
 2406 016b 81000000 		.4byte	0x81
 2407 016f 56000000 		.4byte	.LLST1
ARM GAS  C:\Users\Alan\AppData\Local\Temp\ccTIy4ty.s 			page 86


 2408 0173 11       		.uleb128 0x11
 2409 0174 06000000 		.4byte	.LVL15
 2410 0178 72100000 		.4byte	0x1072
 2411 017c 11       		.uleb128 0x11
 2412 017d 0A000000 		.4byte	.LVL16
 2413 0181 79100000 		.4byte	0x1079
 2414 0185 0C       		.uleb128 0xc
 2415 0186 12000000 		.4byte	.LVL17
 2416 018a 80100000 		.4byte	0x1080
 2417 018e 9D010000 		.4byte	0x19d
 2418 0192 0D       		.uleb128 0xd
 2419 0193 01       		.uleb128 0x1
 2420 0194 51       		.byte	0x51
 2421 0195 01       		.uleb128 0x1
 2422 0196 30       		.byte	0x30
 2423 0197 0D       		.uleb128 0xd
 2424 0198 01       		.uleb128 0x1
 2425 0199 50       		.byte	0x50
 2426 019a 01       		.uleb128 0x1
 2427 019b 30       		.byte	0x30
 2428 019c 00       		.byte	0
 2429 019d 0C       		.uleb128 0xc
 2430 019e 1A000000 		.4byte	.LVL18
 2431 01a2 96100000 		.4byte	0x1096
 2432 01a6 B5010000 		.4byte	0x1b5
 2433 01aa 0D       		.uleb128 0xd
 2434 01ab 01       		.uleb128 0x1
 2435 01ac 51       		.byte	0x51
 2436 01ad 01       		.uleb128 0x1
 2437 01ae 30       		.byte	0x30
 2438 01af 0D       		.uleb128 0xd
 2439 01b0 01       		.uleb128 0x1
 2440 01b1 50       		.byte	0x50
 2441 01b2 01       		.uleb128 0x1
 2442 01b3 30       		.byte	0x30
 2443 01b4 00       		.byte	0
 2444 01b5 0C       		.uleb128 0xc
 2445 01b6 20000000 		.4byte	.LVL19
 2446 01ba AC100000 		.4byte	0x10ac
 2447 01be C9010000 		.4byte	0x1c9
 2448 01c2 0D       		.uleb128 0xd
 2449 01c3 01       		.uleb128 0x1
 2450 01c4 50       		.byte	0x50
 2451 01c5 02       		.uleb128 0x2
 2452 01c6 08       		.byte	0x8
 2453 01c7 FF       		.byte	0xff
 2454 01c8 00       		.byte	0
 2455 01c9 0C       		.uleb128 0xc
 2456 01ca 26000000 		.4byte	.LVL20
 2457 01ce BD100000 		.4byte	0x10bd
 2458 01d2 DD010000 		.4byte	0x1dd
 2459 01d6 0D       		.uleb128 0xd
 2460 01d7 01       		.uleb128 0x1
 2461 01d8 50       		.byte	0x50
 2462 01d9 02       		.uleb128 0x2
 2463 01da 08       		.byte	0x8
 2464 01db 40       		.byte	0x40
ARM GAS  C:\Users\Alan\AppData\Local\Temp\ccTIy4ty.s 			page 87


 2465 01dc 00       		.byte	0
 2466 01dd 0E       		.uleb128 0xe
 2467 01de 36000000 		.4byte	.LVL23
 2468 01e2 CE100000 		.4byte	0x10ce
 2469 01e6 0D       		.uleb128 0xd
 2470 01e7 01       		.uleb128 0x1
 2471 01e8 50       		.byte	0x50
 2472 01e9 01       		.uleb128 0x1
 2473 01ea 40       		.byte	0x40
 2474 01eb 00       		.byte	0
 2475 01ec 00       		.byte	0
 2476 01ed 0F       		.uleb128 0xf
 2477 01ee E2040000 		.4byte	.LASF22
 2478 01f2 01       		.byte	0x1
 2479 01f3 D401     		.2byte	0x1d4
 2480 01f5 00000000 		.4byte	.LFB39
 2481 01f9 2C000000 		.4byte	.LFE39-.LFB39
 2482 01fd 01       		.uleb128 0x1
 2483 01fe 9C       		.byte	0x9c
 2484 01ff 29020000 		.4byte	0x229
 2485 0203 0C       		.uleb128 0xc
 2486 0204 08000000 		.4byte	.LVL24
 2487 0208 31100000 		.4byte	0x1031
 2488 020c 16020000 		.4byte	0x216
 2489 0210 0D       		.uleb128 0xd
 2490 0211 01       		.uleb128 0x1
 2491 0212 50       		.byte	0x50
 2492 0213 01       		.uleb128 0x1
 2493 0214 40       		.byte	0x40
 2494 0215 00       		.byte	0
 2495 0216 11       		.uleb128 0x11
 2496 0217 1E000000 		.4byte	.LVL25
 2497 021b 72100000 		.4byte	0x1072
 2498 021f 11       		.uleb128 0x11
 2499 0220 22000000 		.4byte	.LVL26
 2500 0224 79100000 		.4byte	0x1079
 2501 0228 00       		.byte	0
 2502 0229 12       		.uleb128 0x12
 2503 022a 76040000 		.4byte	.LASF57
 2504 022e 01       		.byte	0x1
 2505 022f CF02     		.2byte	0x2cf
 2506 0231 81000000 		.4byte	0x81
 2507 0235 00000000 		.4byte	.LFB44
 2508 0239 10000000 		.4byte	.LFE44-.LFB44
 2509 023d 01       		.uleb128 0x1
 2510 023e 9C       		.byte	0x9c
 2511 023f 13       		.uleb128 0x13
 2512 0240 CF090000 		.4byte	.LASF29
 2513 0244 01       		.byte	0x1
 2514 0245 ED02     		.2byte	0x2ed
 2515 0247 76000000 		.4byte	0x76
 2516 024b 00000000 		.4byte	.LFB45
 2517 024f 10000000 		.4byte	.LFE45-.LFB45
 2518 0253 01       		.uleb128 0x1
 2519 0254 9C       		.byte	0x9c
 2520 0255 6A020000 		.4byte	0x26a
 2521 0259 14       		.uleb128 0x14
ARM GAS  C:\Users\Alan\AppData\Local\Temp\ccTIy4ty.s 			page 88


 2522 025a 60030000 		.4byte	.LASF24
 2523 025e 01       		.byte	0x1
 2524 025f ED02     		.2byte	0x2ed
 2525 0261 81000000 		.4byte	0x81
 2526 0265 69000000 		.4byte	.LLST2
 2527 0269 00       		.byte	0
 2528 026a 0F       		.uleb128 0xf
 2529 026b 6E000000 		.4byte	.LASF23
 2530 026f 01       		.byte	0x1
 2531 0270 0803     		.2byte	0x308
 2532 0272 00000000 		.4byte	.LFB46
 2533 0276 10000000 		.4byte	.LFE46-.LFB46
 2534 027a 01       		.uleb128 0x1
 2535 027b 9C       		.byte	0x9c
 2536 027c 9F020000 		.4byte	0x29f
 2537 0280 14       		.uleb128 0x14
 2538 0281 60030000 		.4byte	.LASF24
 2539 0285 01       		.byte	0x1
 2540 0286 0803     		.2byte	0x308
 2541 0288 81000000 		.4byte	0x81
 2542 028c 8A000000 		.4byte	.LLST3
 2543 0290 15       		.uleb128 0x15
 2544 0291 99020000 		.4byte	.LASF25
 2545 0295 01       		.byte	0x1
 2546 0296 0803     		.2byte	0x308
 2547 0298 76000000 		.4byte	0x76
 2548 029c 01       		.uleb128 0x1
 2549 029d 51       		.byte	0x51
 2550 029e 00       		.byte	0
 2551 029f 0F       		.uleb128 0xf
 2552 02a0 7E020000 		.4byte	.LASF26
 2553 02a4 01       		.byte	0x1
 2554 02a5 3203     		.2byte	0x332
 2555 02a7 00000000 		.4byte	.LFB47
 2556 02ab 0C000000 		.4byte	.LFE47-.LFB47
 2557 02af 01       		.uleb128 0x1
 2558 02b0 9C       		.byte	0x9c
 2559 02b1 D4020000 		.4byte	0x2d4
 2560 02b5 14       		.uleb128 0x14
 2561 02b6 65020000 		.4byte	.LASF27
 2562 02ba 01       		.byte	0x1
 2563 02bb 3203     		.2byte	0x332
 2564 02bd 81000000 		.4byte	0x81
 2565 02c1 AB000000 		.4byte	.LLST4
 2566 02c5 15       		.uleb128 0x15
 2567 02c6 F8030000 		.4byte	.LASF28
 2568 02ca 01       		.byte	0x1
 2569 02cb 3203     		.2byte	0x332
 2570 02cd 81000000 		.4byte	0x81
 2571 02d1 01       		.uleb128 0x1
 2572 02d2 51       		.byte	0x51
 2573 02d3 00       		.byte	0
 2574 02d4 13       		.uleb128 0x13
 2575 02d5 1C020000 		.4byte	.LASF30
 2576 02d9 01       		.byte	0x1
 2577 02da 5B03     		.2byte	0x35b
 2578 02dc 81000000 		.4byte	0x81
ARM GAS  C:\Users\Alan\AppData\Local\Temp\ccTIy4ty.s 			page 89


 2579 02e0 00000000 		.4byte	.LFB48
 2580 02e4 0C000000 		.4byte	.LFE48-.LFB48
 2581 02e8 01       		.uleb128 0x1
 2582 02e9 9C       		.byte	0x9c
 2583 02ea FF020000 		.4byte	0x2ff
 2584 02ee 14       		.uleb128 0x14
 2585 02ef 65020000 		.4byte	.LASF27
 2586 02f3 01       		.byte	0x1
 2587 02f4 5B03     		.2byte	0x35b
 2588 02f6 81000000 		.4byte	0x81
 2589 02fa CC000000 		.4byte	.LLST5
 2590 02fe 00       		.byte	0
 2591 02ff 0F       		.uleb128 0xf
 2592 0300 86000000 		.4byte	.LASF31
 2593 0304 01       		.byte	0x1
 2594 0305 1404     		.2byte	0x414
 2595 0307 00000000 		.4byte	.LFB50
 2596 030b 48000000 		.4byte	.LFE50-.LFB50
 2597 030f 01       		.uleb128 0x1
 2598 0310 9C       		.byte	0x9c
 2599 0311 88030000 		.4byte	0x388
 2600 0315 14       		.uleb128 0x14
 2601 0316 60030000 		.4byte	.LASF24
 2602 031a 01       		.byte	0x1
 2603 031b 1404     		.2byte	0x414
 2604 031d 81000000 		.4byte	0x81
 2605 0321 ED000000 		.4byte	.LLST6
 2606 0325 10       		.uleb128 0x10
 2607 0326 86010000 		.4byte	.LASF32
 2608 032a 01       		.byte	0x1
 2609 032b 1604     		.2byte	0x416
 2610 032d 6B000000 		.4byte	0x6b
 2611 0331 0E010000 		.4byte	.LLST7
 2612 0335 10       		.uleb128 0x10
 2613 0336 32010000 		.4byte	.LASF33
 2614 033a 01       		.byte	0x1
 2615 033b 1704     		.2byte	0x417
 2616 033d 6B000000 		.4byte	0x6b
 2617 0341 73010000 		.4byte	.LLST8
 2618 0345 10       		.uleb128 0x10
 2619 0346 00010000 		.4byte	.LASF34
 2620 034a 01       		.byte	0x1
 2621 034b 1804     		.2byte	0x418
 2622 034d 6B000000 		.4byte	0x6b
 2623 0351 B5010000 		.4byte	.LLST9
 2624 0355 10       		.uleb128 0x10
 2625 0356 CF020000 		.4byte	.LASF35
 2626 035a 01       		.byte	0x1
 2627 035b 1904     		.2byte	0x419
 2628 035d 81000000 		.4byte	0x81
 2629 0361 C8010000 		.4byte	.LLST10
 2630 0365 10       		.uleb128 0x10
 2631 0366 68080000 		.4byte	.LASF36
 2632 036a 01       		.byte	0x1
 2633 036b 1A04     		.2byte	0x41a
 2634 036d 81000000 		.4byte	0x81
 2635 0371 F1010000 		.4byte	.LLST11
ARM GAS  C:\Users\Alan\AppData\Local\Temp\ccTIy4ty.s 			page 90


 2636 0375 11       		.uleb128 0x11
 2637 0376 18000000 		.4byte	.LVL40
 2638 037a DF100000 		.4byte	0x10df
 2639 037e 11       		.uleb128 0x11
 2640 037f 40000000 		.4byte	.LVL47
 2641 0383 EA100000 		.4byte	0x10ea
 2642 0387 00       		.byte	0
 2643 0388 0F       		.uleb128 0xf
 2644 0389 4E020000 		.4byte	.LASF37
 2645 038d 01       		.byte	0x1
 2646 038e 4904     		.2byte	0x449
 2647 0390 00000000 		.4byte	.LFB51
 2648 0394 70000000 		.4byte	.LFE51-.LFB51
 2649 0398 01       		.uleb128 0x1
 2650 0399 9C       		.byte	0x9c
 2651 039a 31040000 		.4byte	0x431
 2652 039e 14       		.uleb128 0x14
 2653 039f 60030000 		.4byte	.LASF24
 2654 03a3 01       		.byte	0x1
 2655 03a4 4904     		.2byte	0x449
 2656 03a6 81000000 		.4byte	0x81
 2657 03aa 33020000 		.4byte	.LLST12
 2658 03ae 10       		.uleb128 0x10
 2659 03af 00010000 		.4byte	.LASF34
 2660 03b3 01       		.byte	0x1
 2661 03b4 4B04     		.2byte	0x44b
 2662 03b6 6B000000 		.4byte	0x6b
 2663 03ba 54020000 		.4byte	.LLST13
 2664 03be 10       		.uleb128 0x10
 2665 03bf CF020000 		.4byte	.LASF35
 2666 03c3 01       		.byte	0x1
 2667 03c4 4C04     		.2byte	0x44c
 2668 03c6 81000000 		.4byte	0x81
 2669 03ca 67020000 		.4byte	.LLST14
 2670 03ce 10       		.uleb128 0x10
 2671 03cf 68080000 		.4byte	.LASF36
 2672 03d3 01       		.byte	0x1
 2673 03d4 4E04     		.2byte	0x44e
 2674 03d6 81000000 		.4byte	0x81
 2675 03da 90020000 		.4byte	.LLST15
 2676 03de 10       		.uleb128 0x10
 2677 03df 32010000 		.4byte	.LASF33
 2678 03e3 01       		.byte	0x1
 2679 03e4 4F04     		.2byte	0x44f
 2680 03e6 6B000000 		.4byte	0x6b
 2681 03ea EB020000 		.4byte	.LLST16
 2682 03ee 10       		.uleb128 0x10
 2683 03ef 86010000 		.4byte	.LASF32
 2684 03f3 01       		.byte	0x1
 2685 03f4 5004     		.2byte	0x450
 2686 03f6 6B000000 		.4byte	0x6b
 2687 03fa 25030000 		.4byte	.LLST17
 2688 03fe 10       		.uleb128 0x10
 2689 03ff D7010000 		.4byte	.LASF38
 2690 0403 01       		.byte	0x1
 2691 0404 5204     		.2byte	0x452
 2692 0406 81000000 		.4byte	0x81
ARM GAS  C:\Users\Alan\AppData\Local\Temp\ccTIy4ty.s 			page 91


 2693 040a 74030000 		.4byte	.LLST18
 2694 040e 10       		.uleb128 0x10
 2695 040f E0020000 		.4byte	.LASF39
 2696 0413 01       		.byte	0x1
 2697 0414 5304     		.2byte	0x453
 2698 0416 81000000 		.4byte	0x81
 2699 041a 93030000 		.4byte	.LLST19
 2700 041e 11       		.uleb128 0x11
 2701 041f 3C000000 		.4byte	.LVL57
 2702 0423 DF100000 		.4byte	0x10df
 2703 0427 11       		.uleb128 0x11
 2704 0428 5A000000 		.4byte	.LVL64
 2705 042c EA100000 		.4byte	0x10ea
 2706 0430 00       		.byte	0
 2707 0431 0F       		.uleb128 0xf
 2708 0432 17070000 		.4byte	.LASF40
 2709 0436 01       		.byte	0x1
 2710 0437 7603     		.2byte	0x376
 2711 0439 00000000 		.4byte	.LFB49
 2712 043d 14000000 		.4byte	.LFE49-.LFB49
 2713 0441 01       		.uleb128 0x1
 2714 0442 9C       		.byte	0x9c
 2715 0443 68040000 		.4byte	0x468
 2716 0447 10       		.uleb128 0x10
 2717 0448 42050000 		.4byte	.LASF41
 2718 044c 01       		.byte	0x1
 2719 044d 7803     		.2byte	0x378
 2720 044f 81000000 		.4byte	0x81
 2721 0453 A6030000 		.4byte	.LLST20
 2722 0457 0E       		.uleb128 0xe
 2723 0458 0C000000 		.4byte	.LVL70
 2724 045c 88030000 		.4byte	0x388
 2725 0460 0D       		.uleb128 0xd
 2726 0461 01       		.uleb128 0x1
 2727 0462 50       		.byte	0x50
 2728 0463 02       		.uleb128 0x2
 2729 0464 74       		.byte	0x74
 2730 0465 00       		.sleb128 0
 2731 0466 00       		.byte	0
 2732 0467 00       		.byte	0
 2733 0468 0F       		.uleb128 0xf
 2734 0469 800A0000 		.4byte	.LASF42
 2735 046d 01       		.byte	0x1
 2736 046e 1305     		.2byte	0x513
 2737 0470 00000000 		.4byte	.LFB54
 2738 0474 24000000 		.4byte	.LFE54-.LFB54
 2739 0478 01       		.uleb128 0x1
 2740 0479 9C       		.byte	0x9c
 2741 047a CD040000 		.4byte	0x4cd
 2742 047e 14       		.uleb128 0x14
 2743 047f AC0A0000 		.4byte	.LASF43
 2744 0483 01       		.byte	0x1
 2745 0484 1305     		.2byte	0x513
 2746 0486 81000000 		.4byte	0x81
 2747 048a C5030000 		.4byte	.LLST21
 2748 048e 14       		.uleb128 0x14
 2749 048f 17050000 		.4byte	.LASF44
ARM GAS  C:\Users\Alan\AppData\Local\Temp\ccTIy4ty.s 			page 92


 2750 0493 01       		.byte	0x1
 2751 0494 1305     		.2byte	0x513
 2752 0496 81000000 		.4byte	0x81
 2753 049a E6030000 		.4byte	.LLST22
 2754 049e 14       		.uleb128 0x14
 2755 049f D7050000 		.4byte	.LASF45
 2756 04a3 01       		.byte	0x1
 2757 04a4 1305     		.2byte	0x513
 2758 04a6 81000000 		.4byte	0x81
 2759 04aa 07040000 		.4byte	.LLST23
 2760 04ae 16       		.uleb128 0x16
 2761 04af 86010000 		.4byte	.LASF32
 2762 04b3 01       		.byte	0x1
 2763 04b4 1505     		.2byte	0x515
 2764 04b6 81000000 		.4byte	0x81
 2765 04ba 01       		.uleb128 0x1
 2766 04bb 51       		.byte	0x51
 2767 04bc 10       		.uleb128 0x10
 2768 04bd CF020000 		.4byte	.LASF35
 2769 04c1 01       		.byte	0x1
 2770 04c2 1605     		.2byte	0x516
 2771 04c4 81000000 		.4byte	0x81
 2772 04c8 28040000 		.4byte	.LLST24
 2773 04cc 00       		.byte	0
 2774 04cd 0F       		.uleb128 0xf
 2775 04ce 2D070000 		.4byte	.LASF46
 2776 04d2 01       		.byte	0x1
 2777 04d3 9604     		.2byte	0x496
 2778 04d5 00000000 		.4byte	.LFB52
 2779 04d9 30000000 		.4byte	.LFE52-.LFB52
 2780 04dd 01       		.uleb128 0x1
 2781 04de 9C       		.byte	0x9c
 2782 04df 74050000 		.4byte	0x574
 2783 04e3 14       		.uleb128 0x14
 2784 04e4 AC0A0000 		.4byte	.LASF43
 2785 04e8 01       		.byte	0x1
 2786 04e9 9604     		.2byte	0x496
 2787 04eb 81000000 		.4byte	0x81
 2788 04ef 46040000 		.4byte	.LLST25
 2789 04f3 10       		.uleb128 0x10
 2790 04f4 760A0000 		.4byte	.LASF47
 2791 04f8 01       		.byte	0x1
 2792 04f9 9804     		.2byte	0x498
 2793 04fb 6B000000 		.4byte	0x6b
 2794 04ff 72040000 		.4byte	.LLST26
 2795 0503 10       		.uleb128 0x10
 2796 0504 13030000 		.4byte	.LASF48
 2797 0508 01       		.byte	0x1
 2798 0509 9D04     		.2byte	0x49d
 2799 050b 81000000 		.4byte	0x81
 2800 050f 9C040000 		.4byte	.LLST27
 2801 0513 10       		.uleb128 0x10
 2802 0514 03040000 		.4byte	.LASF49
 2803 0518 01       		.byte	0x1
 2804 0519 9E04     		.2byte	0x49e
 2805 051b 81000000 		.4byte	0x81
 2806 051f DF040000 		.4byte	.LLST28
ARM GAS  C:\Users\Alan\AppData\Local\Temp\ccTIy4ty.s 			page 93


 2807 0523 0C       		.uleb128 0xc
 2808 0524 16000000 		.4byte	.LVL85
 2809 0528 68040000 		.4byte	0x468
 2810 052c 59050000 		.4byte	0x559
 2811 0530 0D       		.uleb128 0xd
 2812 0531 01       		.uleb128 0x1
 2813 0532 52       		.byte	0x52
 2814 0533 0D       		.uleb128 0xd
 2815 0534 74       		.byte	0x74
 2816 0535 00       		.sleb128 0
 2817 0536 03       		.byte	0x3
 2818 0537 00000000 		.4byte	.LANCHOR2
 2819 053b 22       		.byte	0x22
 2820 053c 94       		.byte	0x94
 2821 053d 01       		.byte	0x1
 2822 053e 08       		.byte	0x8
 2823 053f FF       		.byte	0xff
 2824 0540 1A       		.byte	0x1a
 2825 0541 0D       		.uleb128 0xd
 2826 0542 01       		.uleb128 0x1
 2827 0543 51       		.byte	0x51
 2828 0544 0D       		.uleb128 0xd
 2829 0545 74       		.byte	0x74
 2830 0546 00       		.sleb128 0
 2831 0547 03       		.byte	0x3
 2832 0548 08000000 		.4byte	.LANCHOR2+8
 2833 054c 22       		.byte	0x22
 2834 054d 94       		.byte	0x94
 2835 054e 01       		.byte	0x1
 2836 054f 08       		.byte	0x8
 2837 0550 FF       		.byte	0xff
 2838 0551 1A       		.byte	0x1a
 2839 0552 0D       		.uleb128 0xd
 2840 0553 01       		.uleb128 0x1
 2841 0554 50       		.byte	0x50
 2842 0555 02       		.uleb128 0x2
 2843 0556 75       		.byte	0x75
 2844 0557 00       		.sleb128 0
 2845 0558 00       		.byte	0
 2846 0559 0E       		.uleb128 0xe
 2847 055a 28000000 		.4byte	.LVL88
 2848 055e 68040000 		.4byte	0x468
 2849 0562 0D       		.uleb128 0xd
 2850 0563 01       		.uleb128 0x1
 2851 0564 52       		.byte	0x52
 2852 0565 01       		.uleb128 0x1
 2853 0566 34       		.byte	0x34
 2854 0567 0D       		.uleb128 0xd
 2855 0568 01       		.uleb128 0x1
 2856 0569 51       		.byte	0x51
 2857 056a 01       		.uleb128 0x1
 2858 056b 30       		.byte	0x30
 2859 056c 0D       		.uleb128 0xd
 2860 056d 01       		.uleb128 0x1
 2861 056e 50       		.byte	0x50
 2862 056f 02       		.uleb128 0x2
 2863 0570 75       		.byte	0x75
ARM GAS  C:\Users\Alan\AppData\Local\Temp\ccTIy4ty.s 			page 94


 2864 0571 00       		.sleb128 0
 2865 0572 00       		.byte	0
 2866 0573 00       		.byte	0
 2867 0574 0F       		.uleb128 0xf
 2868 0575 4B050000 		.4byte	.LASF50
 2869 0579 01       		.byte	0x1
 2870 057a DF04     		.2byte	0x4df
 2871 057c 00000000 		.4byte	.LFB53
 2872 0580 1C000000 		.4byte	.LFE53-.LFB53
 2873 0584 01       		.uleb128 0x1
 2874 0585 9C       		.byte	0x9c
 2875 0586 A8050000 		.4byte	0x5a8
 2876 058a 16       		.uleb128 0x16
 2877 058b CF020000 		.4byte	.LASF35
 2878 058f 01       		.byte	0x1
 2879 0590 E104     		.2byte	0x4e1
 2880 0592 81000000 		.4byte	0x81
 2881 0596 01       		.uleb128 0x1
 2882 0597 53       		.byte	0x53
 2883 0598 0E       		.uleb128 0xe
 2884 0599 08000000 		.4byte	.LVL91
 2885 059d CD040000 		.4byte	0x4cd
 2886 05a1 0D       		.uleb128 0xd
 2887 05a2 01       		.uleb128 0x1
 2888 05a3 50       		.byte	0x50
 2889 05a4 01       		.uleb128 0x1
 2890 05a5 30       		.byte	0x30
 2891 05a6 00       		.byte	0
 2892 05a7 00       		.byte	0
 2893 05a8 0F       		.uleb128 0xf
 2894 05a9 10040000 		.4byte	.LASF51
 2895 05ad 01       		.byte	0x1
 2896 05ae 5906     		.2byte	0x659
 2897 05b0 00000000 		.4byte	.LFB57
 2898 05b4 34000000 		.4byte	.LFE57-.LFB57
 2899 05b8 01       		.uleb128 0x1
 2900 05b9 9C       		.byte	0x9c
 2901 05ba EF050000 		.4byte	0x5ef
 2902 05be 14       		.uleb128 0x14
 2903 05bf 17050000 		.4byte	.LASF44
 2904 05c3 01       		.byte	0x1
 2905 05c4 5906     		.2byte	0x659
 2906 05c6 81000000 		.4byte	0x81
 2907 05ca 22050000 		.4byte	.LLST29
 2908 05ce 14       		.uleb128 0x14
 2909 05cf D7050000 		.4byte	.LASF45
 2910 05d3 01       		.byte	0x1
 2911 05d4 5906     		.2byte	0x659
 2912 05d6 81000000 		.4byte	0x81
 2913 05da 43050000 		.4byte	.LLST30
 2914 05de 10       		.uleb128 0x10
 2915 05df 030A0000 		.4byte	.LASF21
 2916 05e3 01       		.byte	0x1
 2917 05e4 5B06     		.2byte	0x65b
 2918 05e6 81000000 		.4byte	0x81
 2919 05ea 64050000 		.4byte	.LLST31
 2920 05ee 00       		.byte	0
ARM GAS  C:\Users\Alan\AppData\Local\Temp\ccTIy4ty.s 			page 95


 2921 05ef 0F       		.uleb128 0xf
 2922 05f0 40090000 		.4byte	.LASF52
 2923 05f4 01       		.byte	0x1
 2924 05f5 7C06     		.2byte	0x67c
 2925 05f7 00000000 		.4byte	.LFB58
 2926 05fb 14000000 		.4byte	.LFE58-.LFB58
 2927 05ff 01       		.uleb128 0x1
 2928 0600 9C       		.byte	0x9c
 2929 0601 26060000 		.4byte	0x626
 2930 0605 14       		.uleb128 0x14
 2931 0606 37060000 		.4byte	.LASF53
 2932 060a 01       		.byte	0x1
 2933 060b 7C06     		.2byte	0x67c
 2934 060d 81000000 		.4byte	0x81
 2935 0611 82050000 		.4byte	.LLST32
 2936 0615 10       		.uleb128 0x10
 2937 0616 030A0000 		.4byte	.LASF21
 2938 061a 01       		.byte	0x1
 2939 061b 7E06     		.2byte	0x67e
 2940 061d 81000000 		.4byte	0x81
 2941 0621 B0050000 		.4byte	.LLST33
 2942 0625 00       		.byte	0
 2943 0626 0A       		.uleb128 0xa
 2944 0627 11000000 		.4byte	.LASF54
 2945 062b 01       		.byte	0x1
 2946 062c A7       		.byte	0xa7
 2947 062d 00000000 		.4byte	.LFB35
 2948 0631 28000000 		.4byte	.LFE35-.LFB35
 2949 0635 01       		.uleb128 0x1
 2950 0636 9C       		.byte	0x9c
 2951 0637 70060000 		.4byte	0x670
 2952 063b 0B       		.uleb128 0xb
 2953 063c 760A0000 		.4byte	.LASF47
 2954 0640 01       		.byte	0x1
 2955 0641 A9       		.byte	0xa9
 2956 0642 81000000 		.4byte	0x81
 2957 0646 CE050000 		.4byte	.LLST34
 2958 064a 11       		.uleb128 0x11
 2959 064b 16000000 		.4byte	.LVL109
 2960 064f EE000000 		.4byte	0xee
 2961 0653 0C       		.uleb128 0xc
 2962 0654 1C000000 		.4byte	.LVL110
 2963 0658 EF050000 		.4byte	0x5ef
 2964 065c 66060000 		.4byte	0x666
 2965 0660 0D       		.uleb128 0xd
 2966 0661 01       		.uleb128 0x1
 2967 0662 50       		.byte	0x50
 2968 0663 01       		.uleb128 0x1
 2969 0664 30       		.byte	0x30
 2970 0665 00       		.byte	0
 2971 0666 11       		.uleb128 0x11
 2972 0667 20000000 		.4byte	.LVL111
 2973 066b 31040000 		.4byte	0x431
 2974 066f 00       		.byte	0
 2975 0670 0F       		.uleb128 0xf
 2976 0671 DC000000 		.4byte	.LASF55
 2977 0675 01       		.byte	0x1
ARM GAS  C:\Users\Alan\AppData\Local\Temp\ccTIy4ty.s 			page 96


 2978 0676 7801     		.2byte	0x178
 2979 0678 00000000 		.4byte	.LFB38
 2980 067c 38000000 		.4byte	.LFE38-.LFB38
 2981 0680 01       		.uleb128 0x1
 2982 0681 9C       		.byte	0x9c
 2983 0682 B4060000 		.4byte	0x6b4
 2984 0686 16       		.uleb128 0x16
 2985 0687 0D090000 		.4byte	.LASF56
 2986 068b 01       		.byte	0x1
 2987 068c 7B01     		.2byte	0x17b
 2988 068e 6B000000 		.4byte	0x6b
 2989 0692 05       		.uleb128 0x5
 2990 0693 03       		.byte	0x3
 2991 0694 0E000000 		.4byte	capsense_initVar.5282
 2992 0698 11       		.uleb128 0x11
 2993 0699 0E000000 		.4byte	.LVL112
 2994 069d 26060000 		.4byte	0x626
 2995 06a1 11       		.uleb128 0x11
 2996 06a2 18000000 		.4byte	.LVL113
 2997 06a6 4D010000 		.4byte	0x14d
 2998 06aa 11       		.uleb128 0x11
 2999 06ab 1C000000 		.4byte	.LVL114
 3000 06af FB100000 		.4byte	0x10fb
 3001 06b3 00       		.byte	0
 3002 06b4 12       		.uleb128 0x12
 3003 06b5 66070000 		.4byte	.LASF58
 3004 06b9 01       		.byte	0x1
 3005 06ba A006     		.2byte	0x6a0
 3006 06bc 81000000 		.4byte	0x81
 3007 06c0 00000000 		.4byte	.LFB59
 3008 06c4 1C000000 		.4byte	.LFE59-.LFB59
 3009 06c8 01       		.uleb128 0x1
 3010 06c9 9C       		.byte	0x9c
 3011 06ca 13       		.uleb128 0x13
 3012 06cb 01020000 		.4byte	.LASF59
 3013 06cf 01       		.byte	0x1
 3014 06d0 BC06     		.2byte	0x6bc
 3015 06d2 81000000 		.4byte	0x81
 3016 06d6 00000000 		.4byte	.LFB60
 3017 06da 1A000000 		.4byte	.LFE60-.LFB60
 3018 06de 01       		.uleb128 0x1
 3019 06df 9C       		.byte	0x9c
 3020 06e0 21070000 		.4byte	0x721
 3021 06e4 14       		.uleb128 0x14
 3022 06e5 DC030000 		.4byte	.LASF60
 3023 06e9 01       		.byte	0x1
 3024 06ea BC06     		.2byte	0x6bc
 3025 06ec E3000000 		.4byte	0xe3
 3026 06f0 ED050000 		.4byte	.LLST35
 3027 06f4 14       		.uleb128 0x14
 3028 06f5 EC0A0000 		.4byte	.LASF61
 3029 06f9 01       		.byte	0x1
 3030 06fa BC06     		.2byte	0x6bc
 3031 06fc 81000000 		.4byte	0x81
 3032 0700 27060000 		.4byte	.LLST36
 3033 0704 16       		.uleb128 0x16
 3034 0705 EC020000 		.4byte	.LASF62
ARM GAS  C:\Users\Alan\AppData\Local\Temp\ccTIy4ty.s 			page 97


 3035 0709 01       		.byte	0x1
 3036 070a BE06     		.2byte	0x6be
 3037 070c 81000000 		.4byte	0x81
 3038 0710 01       		.uleb128 0x1
 3039 0711 52       		.byte	0x52
 3040 0712 16       		.uleb128 0x16
 3041 0713 85080000 		.4byte	.LASF63
 3042 0717 01       		.byte	0x1
 3043 0718 BF06     		.2byte	0x6bf
 3044 071a 6B000000 		.4byte	0x6b
 3045 071e 01       		.uleb128 0x1
 3046 071f 51       		.byte	0x51
 3047 0720 00       		.byte	0
 3048 0721 13       		.uleb128 0x13
 3049 0722 BF010000 		.4byte	.LASF64
 3050 0726 01       		.byte	0x1
 3051 0727 FA01     		.2byte	0x1fa
 3052 0729 6B000000 		.4byte	0x6b
 3053 072d 00000000 		.4byte	.LFB40
 3054 0731 24000000 		.4byte	.LFE40-.LFB40
 3055 0735 01       		.uleb128 0x1
 3056 0736 9C       		.byte	0x9c
 3057 0737 75070000 		.4byte	0x775
 3058 073b 14       		.uleb128 0x14
 3059 073c 42050000 		.4byte	.LASF41
 3060 0740 01       		.byte	0x1
 3061 0741 FA01     		.2byte	0x1fa
 3062 0743 6B000000 		.4byte	0x6b
 3063 0747 48060000 		.4byte	.LLST37
 3064 074b 10       		.uleb128 0x10
 3065 074c 5D040000 		.4byte	.LASF65
 3066 0750 01       		.byte	0x1
 3067 0751 FC01     		.2byte	0x1fc
 3068 0753 81000000 		.4byte	0x81
 3069 0757 7C060000 		.4byte	.LLST38
 3070 075b 0E       		.uleb128 0xe
 3071 075c 16000000 		.4byte	.LVL126
 3072 0760 CA060000 		.4byte	0x6ca
 3073 0764 0D       		.uleb128 0xd
 3074 0765 01       		.uleb128 0x1
 3075 0766 51       		.byte	0x51
 3076 0767 02       		.uleb128 0x2
 3077 0768 74       		.byte	0x74
 3078 0769 00       		.sleb128 0
 3079 076a 0D       		.uleb128 0xd
 3080 076b 01       		.uleb128 0x1
 3081 076c 50       		.byte	0x50
 3082 076d 05       		.uleb128 0x5
 3083 076e 03       		.byte	0x3
 3084 076f 04000000 		.4byte	.LANCHOR1+4
 3085 0773 00       		.byte	0
 3086 0774 00       		.byte	0
 3087 0775 0F       		.uleb128 0xf
 3088 0776 BF080000 		.4byte	.LASF66
 3089 077a 01       		.byte	0x1
 3090 077b 3705     		.2byte	0x537
 3091 077d 00000000 		.4byte	.LFB55
ARM GAS  C:\Users\Alan\AppData\Local\Temp\ccTIy4ty.s 			page 98


 3092 0781 0C010000 		.4byte	.LFE55-.LFB55
 3093 0785 01       		.uleb128 0x1
 3094 0786 9C       		.byte	0x9c
 3095 0787 08090000 		.4byte	0x908
 3096 078b 14       		.uleb128 0x14
 3097 078c 60030000 		.4byte	.LASF24
 3098 0790 01       		.byte	0x1
 3099 0791 3705     		.2byte	0x537
 3100 0793 81000000 		.4byte	0x81
 3101 0797 8F060000 		.4byte	.LLST39
 3102 079b 10       		.uleb128 0x10
 3103 079c 65020000 		.4byte	.LASF27
 3104 07a0 01       		.byte	0x1
 3105 07a1 3905     		.2byte	0x539
 3106 07a3 6B000000 		.4byte	0x6b
 3107 07a7 BB060000 		.4byte	.LLST40
 3108 07ab 10       		.uleb128 0x10
 3109 07ac 00010000 		.4byte	.LASF34
 3110 07b0 01       		.byte	0x1
 3111 07b1 3A05     		.2byte	0x53a
 3112 07b3 6B000000 		.4byte	0x6b
 3113 07b7 05070000 		.4byte	.LLST41
 3114 07bb 10       		.uleb128 0x10
 3115 07bc 030A0000 		.4byte	.LASF21
 3116 07c0 01       		.byte	0x1
 3117 07c1 3B05     		.2byte	0x53b
 3118 07c3 81000000 		.4byte	0x81
 3119 07c7 18070000 		.4byte	.LLST42
 3120 07cb 10       		.uleb128 0x10
 3121 07cc AD080000 		.4byte	.LASF67
 3122 07d0 01       		.byte	0x1
 3123 07d1 3C05     		.2byte	0x53c
 3124 07d3 81000000 		.4byte	0x81
 3125 07d7 41070000 		.4byte	.LLST43
 3126 07db 10       		.uleb128 0x10
 3127 07dc 990A0000 		.4byte	.LASF68
 3128 07e0 01       		.byte	0x1
 3129 07e1 4505     		.2byte	0x545
 3130 07e3 81000000 		.4byte	0x81
 3131 07e7 54070000 		.4byte	.LLST44
 3132 07eb 0C       		.uleb128 0xc
 3133 07ec 18000000 		.4byte	.LVL134
 3134 07f0 CA060000 		.4byte	0x6ca
 3135 07f4 08080000 		.4byte	0x808
 3136 07f8 0D       		.uleb128 0xd
 3137 07f9 01       		.uleb128 0x1
 3138 07fa 51       		.byte	0x51
 3139 07fb 02       		.uleb128 0x2
 3140 07fc 74       		.byte	0x74
 3141 07fd 00       		.sleb128 0
 3142 07fe 0D       		.uleb128 0xd
 3143 07ff 01       		.uleb128 0x1
 3144 0800 50       		.byte	0x50
 3145 0801 05       		.uleb128 0x5
 3146 0802 03       		.byte	0x3
 3147 0803 00000000 		.4byte	capsense_scanSpeedTbl
 3148 0807 00       		.byte	0
ARM GAS  C:\Users\Alan\AppData\Local\Temp\ccTIy4ty.s 			page 99


 3149 0808 11       		.uleb128 0x11
 3150 0809 2A000000 		.4byte	.LVL138
 3151 080d 72100000 		.4byte	0x1072
 3152 0811 11       		.uleb128 0x11
 3153 0812 2E000000 		.4byte	.LVL139
 3154 0816 79100000 		.4byte	0x1079
 3155 081a 0C       		.uleb128 0xc
 3156 081b 3C000000 		.4byte	.LVL140
 3157 081f 80100000 		.4byte	0x1080
 3158 0823 2D080000 		.4byte	0x82d
 3159 0827 0D       		.uleb128 0xd
 3160 0828 01       		.uleb128 0x1
 3161 0829 51       		.byte	0x51
 3162 082a 01       		.uleb128 0x1
 3163 082b 30       		.byte	0x30
 3164 082c 00       		.byte	0
 3165 082d 0C       		.uleb128 0xc
 3166 082e 4A000000 		.4byte	.LVL141
 3167 0832 96100000 		.4byte	0x1096
 3168 0836 40080000 		.4byte	0x840
 3169 083a 0D       		.uleb128 0xd
 3170 083b 01       		.uleb128 0x1
 3171 083c 51       		.byte	0x51
 3172 083d 01       		.uleb128 0x1
 3173 083e 30       		.byte	0x30
 3174 083f 00       		.byte	0
 3175 0840 0C       		.uleb128 0xc
 3176 0841 50000000 		.4byte	.LVL142
 3177 0845 AC100000 		.4byte	0x10ac
 3178 0849 54080000 		.4byte	0x854
 3179 084d 0D       		.uleb128 0xd
 3180 084e 01       		.uleb128 0x1
 3181 084f 50       		.byte	0x50
 3182 0850 02       		.uleb128 0x2
 3183 0851 08       		.byte	0x8
 3184 0852 FF       		.byte	0xff
 3185 0853 00       		.byte	0
 3186 0854 0C       		.uleb128 0xc
 3187 0855 56000000 		.4byte	.LVL143
 3188 0859 BD100000 		.4byte	0x10bd
 3189 085d 68080000 		.4byte	0x868
 3190 0861 0D       		.uleb128 0xd
 3191 0862 01       		.uleb128 0x1
 3192 0863 50       		.byte	0x50
 3193 0864 02       		.uleb128 0x2
 3194 0865 08       		.byte	0x8
 3195 0866 40       		.byte	0x40
 3196 0867 00       		.byte	0
 3197 0868 0C       		.uleb128 0xc
 3198 0869 5C000000 		.4byte	.LVL144
 3199 086d 31100000 		.4byte	0x1031
 3200 0871 7B080000 		.4byte	0x87b
 3201 0875 0D       		.uleb128 0xd
 3202 0876 01       		.uleb128 0x1
 3203 0877 50       		.byte	0x50
 3204 0878 01       		.uleb128 0x1
 3205 0879 40       		.byte	0x40
ARM GAS  C:\Users\Alan\AppData\Local\Temp\ccTIy4ty.s 			page 100


 3206 087a 00       		.byte	0
 3207 087b 0C       		.uleb128 0xc
 3208 087c 78000000 		.4byte	.LVL145
 3209 0880 03110000 		.4byte	0x1103
 3210 0884 8E080000 		.4byte	0x88e
 3211 0888 0D       		.uleb128 0xd
 3212 0889 01       		.uleb128 0x1
 3213 088a 50       		.byte	0x50
 3214 088b 01       		.uleb128 0x1
 3215 088c 40       		.byte	0x40
 3216 088d 00       		.byte	0
 3217 088e 0C       		.uleb128 0xc
 3218 088f 7E000000 		.4byte	.LVL146
 3219 0893 CE100000 		.4byte	0x10ce
 3220 0897 A1080000 		.4byte	0x8a1
 3221 089b 0D       		.uleb128 0xd
 3222 089c 01       		.uleb128 0x1
 3223 089d 50       		.byte	0x50
 3224 089e 01       		.uleb128 0x1
 3225 089f 40       		.byte	0x40
 3226 08a0 00       		.byte	0
 3227 08a1 0C       		.uleb128 0xc
 3228 08a2 84000000 		.4byte	.LVL147
 3229 08a6 31100000 		.4byte	0x1031
 3230 08aa B4080000 		.4byte	0x8b4
 3231 08ae 0D       		.uleb128 0xd
 3232 08af 01       		.uleb128 0x1
 3233 08b0 50       		.byte	0x50
 3234 08b1 01       		.uleb128 0x1
 3235 08b2 40       		.byte	0x40
 3236 08b3 00       		.byte	0
 3237 08b4 0C       		.uleb128 0xc
 3238 08b5 AE000000 		.4byte	.LVL154
 3239 08b9 CE100000 		.4byte	0x10ce
 3240 08bd C7080000 		.4byte	0x8c7
 3241 08c1 0D       		.uleb128 0xd
 3242 08c2 01       		.uleb128 0x1
 3243 08c3 50       		.byte	0x50
 3244 08c4 01       		.uleb128 0x1
 3245 08c5 40       		.byte	0x40
 3246 08c6 00       		.byte	0
 3247 08c7 0C       		.uleb128 0xc
 3248 08c8 B4000000 		.4byte	.LVL155
 3249 08cc FF020000 		.4byte	0x2ff
 3250 08d0 DB080000 		.4byte	0x8db
 3251 08d4 0D       		.uleb128 0xd
 3252 08d5 01       		.uleb128 0x1
 3253 08d6 50       		.byte	0x50
 3254 08d7 02       		.uleb128 0x2
 3255 08d8 74       		.byte	0x74
 3256 08d9 00       		.sleb128 0
 3257 08da 00       		.byte	0
 3258 08db 11       		.uleb128 0x11
 3259 08dc B8000000 		.4byte	.LVL156
 3260 08e0 DF100000 		.4byte	0x10df
 3261 08e4 0C       		.uleb128 0xc
 3262 08e5 C2000000 		.4byte	.LVL158
ARM GAS  C:\Users\Alan\AppData\Local\Temp\ccTIy4ty.s 			page 101


 3263 08e9 14110000 		.4byte	0x1114
 3264 08ed F7080000 		.4byte	0x8f7
 3265 08f1 0D       		.uleb128 0xd
 3266 08f2 01       		.uleb128 0x1
 3267 08f3 50       		.byte	0x50
 3268 08f4 01       		.uleb128 0x1
 3269 08f5 30       		.byte	0x30
 3270 08f6 00       		.byte	0
 3271 08f7 0E       		.uleb128 0xe
 3272 08f8 CC000000 		.4byte	.LVL159
 3273 08fc EA100000 		.4byte	0x10ea
 3274 0900 0D       		.uleb128 0xd
 3275 0901 01       		.uleb128 0x1
 3276 0902 50       		.byte	0x50
 3277 0903 02       		.uleb128 0x2
 3278 0904 74       		.byte	0x74
 3279 0905 00       		.sleb128 0
 3280 0906 00       		.byte	0
 3281 0907 00       		.byte	0
 3282 0908 0F       		.uleb128 0xf
 3283 0909 C8030000 		.4byte	.LASF69
 3284 090d 01       		.byte	0x1
 3285 090e 2A02     		.2byte	0x22a
 3286 0910 00000000 		.4byte	.LFB41
 3287 0914 1C000000 		.4byte	.LFE41-.LFB41
 3288 0918 01       		.uleb128 0x1
 3289 0919 9C       		.byte	0x9c
 3290 091a 40090000 		.4byte	0x940
 3291 091e 14       		.uleb128 0x14
 3292 091f 60030000 		.4byte	.LASF24
 3293 0923 01       		.byte	0x1
 3294 0924 2A02     		.2byte	0x22a
 3295 0926 81000000 		.4byte	0x81
 3296 092a 67070000 		.4byte	.LLST45
 3297 092e 0E       		.uleb128 0xe
 3298 092f 14000000 		.4byte	.LVL164
 3299 0933 75070000 		.4byte	0x775
 3300 0937 0D       		.uleb128 0xd
 3301 0938 01       		.uleb128 0x1
 3302 0939 50       		.byte	0x50
 3303 093a 03       		.uleb128 0x3
 3304 093b F3       		.byte	0xf3
 3305 093c 01       		.uleb128 0x1
 3306 093d 50       		.byte	0x50
 3307 093e 00       		.byte	0
 3308 093f 00       		.byte	0
 3309 0940 0F       		.uleb128 0xf
 3310 0941 6F090000 		.4byte	.LASF70
 3311 0945 01       		.byte	0x1
 3312 0946 A602     		.2byte	0x2a6
 3313 0948 00000000 		.4byte	.LFB43
 3314 094c 34000000 		.4byte	.LFE43-.LFB43
 3315 0950 01       		.uleb128 0x1
 3316 0951 9C       		.byte	0x9c
 3317 0952 69090000 		.4byte	0x969
 3318 0956 11       		.uleb128 0x11
 3319 0957 14000000 		.4byte	.LVL165
ARM GAS  C:\Users\Alan\AppData\Local\Temp\ccTIy4ty.s 			page 102


 3320 095b 21070000 		.4byte	0x721
 3321 095f 11       		.uleb128 0x11
 3322 0960 2E000000 		.4byte	.LVL166
 3323 0964 75070000 		.4byte	0x775
 3324 0968 00       		.byte	0
 3325 0969 0F       		.uleb128 0xf
 3326 096a F0040000 		.4byte	.LASF71
 3327 096e 01       		.byte	0x1
 3328 096f FC05     		.2byte	0x5fc
 3329 0971 00000000 		.4byte	.LFB56
 3330 0975 8C000000 		.4byte	.LFE56-.LFB56
 3331 0979 01       		.uleb128 0x1
 3332 097a 9C       		.byte	0x9c
 3333 097b 130A0000 		.4byte	0xa13
 3334 097f 14       		.uleb128 0x14
 3335 0980 60030000 		.4byte	.LASF24
 3336 0984 01       		.byte	0x1
 3337 0985 FC05     		.2byte	0x5fc
 3338 0987 81000000 		.4byte	0x81
 3339 098b 88070000 		.4byte	.LLST46
 3340 098f 10       		.uleb128 0x10
 3341 0990 030A0000 		.4byte	.LASF21
 3342 0994 01       		.byte	0x1
 3343 0995 FE05     		.2byte	0x5fe
 3344 0997 81000000 		.4byte	0x81
 3345 099b B4070000 		.4byte	.LLST47
 3346 099f 10       		.uleb128 0x10
 3347 09a0 990A0000 		.4byte	.LASF68
 3348 09a4 01       		.byte	0x1
 3349 09a5 0106     		.2byte	0x601
 3350 09a7 81000000 		.4byte	0x81
 3351 09ab E1070000 		.4byte	.LLST48
 3352 09af 10       		.uleb128 0x10
 3353 09b0 65020000 		.4byte	.LASF27
 3354 09b4 01       		.byte	0x1
 3355 09b5 0206     		.2byte	0x602
 3356 09b7 81000000 		.4byte	0x81
 3357 09bb F4070000 		.4byte	.LLST49
 3358 09bf 0C       		.uleb128 0xc
 3359 09c0 2C000000 		.4byte	.LVL171
 3360 09c4 CA060000 		.4byte	0x6ca
 3361 09c8 DC090000 		.4byte	0x9dc
 3362 09cc 0D       		.uleb128 0xd
 3363 09cd 01       		.uleb128 0x1
 3364 09ce 51       		.byte	0x51
 3365 09cf 02       		.uleb128 0x2
 3366 09d0 75       		.byte	0x75
 3367 09d1 00       		.sleb128 0
 3368 09d2 0D       		.uleb128 0xd
 3369 09d3 01       		.uleb128 0x1
 3370 09d4 50       		.byte	0x50
 3371 09d5 05       		.uleb128 0x5
 3372 09d6 03       		.byte	0x3
 3373 09d7 00000000 		.4byte	capsense_scanSpeedTbl
 3374 09db 00       		.byte	0
 3375 09dc 0C       		.uleb128 0xc
 3376 09dd 3C000000 		.4byte	.LVL173
ARM GAS  C:\Users\Alan\AppData\Local\Temp\ccTIy4ty.s 			page 103


 3377 09e1 88030000 		.4byte	0x388
 3378 09e5 F0090000 		.4byte	0x9f0
 3379 09e9 0D       		.uleb128 0xd
 3380 09ea 01       		.uleb128 0x1
 3381 09eb 50       		.byte	0x50
 3382 09ec 02       		.uleb128 0x2
 3383 09ed 75       		.byte	0x75
 3384 09ee 00       		.sleb128 0
 3385 09ef 00       		.byte	0
 3386 09f0 0C       		.uleb128 0xc
 3387 09f1 42000000 		.4byte	.LVL174
 3388 09f5 31100000 		.4byte	0x1031
 3389 09f9 030A0000 		.4byte	0xa03
 3390 09fd 0D       		.uleb128 0xd
 3391 09fe 01       		.uleb128 0x1
 3392 09ff 50       		.byte	0x50
 3393 0a00 01       		.uleb128 0x1
 3394 0a01 40       		.byte	0x40
 3395 0a02 00       		.byte	0
 3396 0a03 0E       		.uleb128 0xe
 3397 0a04 62000000 		.4byte	.LVL180
 3398 0a08 CE100000 		.4byte	0x10ce
 3399 0a0c 0D       		.uleb128 0xd
 3400 0a0d 01       		.uleb128 0x1
 3401 0a0e 50       		.byte	0x50
 3402 0a0f 01       		.uleb128 0x1
 3403 0a10 40       		.byte	0x40
 3404 0a11 00       		.byte	0
 3405 0a12 00       		.byte	0
 3406 0a13 0F       		.uleb128 0xf
 3407 0a14 EB000000 		.4byte	.LASF72
 3408 0a18 01       		.byte	0x1
 3409 0a19 E706     		.2byte	0x6e7
 3410 0a1b 00000000 		.4byte	.LFB61
 3411 0a1f 26000000 		.4byte	.LFE61-.LFB61
 3412 0a23 01       		.uleb128 0x1
 3413 0a24 9C       		.byte	0x9c
 3414 0a25 760A0000 		.4byte	0xa76
 3415 0a29 15       		.uleb128 0x15
 3416 0a2a DC030000 		.4byte	.LASF60
 3417 0a2e 01       		.byte	0x1
 3418 0a2f E706     		.2byte	0x6e7
 3419 0a31 DD000000 		.4byte	0xdd
 3420 0a35 01       		.uleb128 0x1
 3421 0a36 50       		.byte	0x50
 3422 0a37 14       		.uleb128 0x14
 3423 0a38 EC0A0000 		.4byte	.LASF61
 3424 0a3c 01       		.byte	0x1
 3425 0a3d E706     		.2byte	0x6e7
 3426 0a3f 81000000 		.4byte	0x81
 3427 0a43 50080000 		.4byte	.LLST50
 3428 0a47 15       		.uleb128 0x15
 3429 0a48 99020000 		.4byte	.LASF25
 3430 0a4c 01       		.byte	0x1
 3431 0a4d E706     		.2byte	0x6e7
 3432 0a4f 81000000 		.4byte	0x81
 3433 0a53 01       		.uleb128 0x1
ARM GAS  C:\Users\Alan\AppData\Local\Temp\ccTIy4ty.s 			page 104


 3434 0a54 52       		.byte	0x52
 3435 0a55 10       		.uleb128 0x10
 3436 0a56 EC020000 		.4byte	.LASF62
 3437 0a5a 01       		.byte	0x1
 3438 0a5b E906     		.2byte	0x6e9
 3439 0a5d 81000000 		.4byte	0x81
 3440 0a61 71080000 		.4byte	.LLST51
 3441 0a65 10       		.uleb128 0x10
 3442 0a66 85080000 		.4byte	.LASF63
 3443 0a6a 01       		.byte	0x1
 3444 0a6b EA06     		.2byte	0x6ea
 3445 0a6d 6B000000 		.4byte	0x6b
 3446 0a71 AF080000 		.4byte	.LLST52
 3447 0a75 00       		.byte	0
 3448 0a76 0F       		.uleb128 0xf
 3449 0a77 9F020000 		.4byte	.LASF73
 3450 0a7b 01       		.byte	0x1
 3451 0a7c 5102     		.2byte	0x251
 3452 0a7e 00000000 		.4byte	.LFB42
 3453 0a82 8C000000 		.4byte	.LFE42-.LFB42
 3454 0a86 01       		.uleb128 0x1
 3455 0a87 9C       		.byte	0x9c
 3456 0a88 1A0B0000 		.4byte	0xb1a
 3457 0a8c 14       		.uleb128 0x14
 3458 0a8d 65020000 		.4byte	.LASF27
 3459 0a91 01       		.byte	0x1
 3460 0a92 5102     		.2byte	0x251
 3461 0a94 81000000 		.4byte	0x81
 3462 0a98 F1080000 		.4byte	.LLST53
 3463 0a9c 10       		.uleb128 0x10
 3464 0a9d 20030000 		.4byte	.LASF74
 3465 0aa1 01       		.byte	0x1
 3466 0aa2 5302     		.2byte	0x253
 3467 0aa4 81000000 		.4byte	0x81
 3468 0aa8 12090000 		.4byte	.LLST54
 3469 0aac 10       		.uleb128 0x10
 3470 0aad 88050000 		.4byte	.LASF75
 3471 0ab1 01       		.byte	0x1
 3472 0ab2 5402     		.2byte	0x254
 3473 0ab4 81000000 		.4byte	0x81
 3474 0ab8 25090000 		.4byte	.LLST55
 3475 0abc 10       		.uleb128 0x10
 3476 0abd 42050000 		.4byte	.LASF41
 3477 0ac1 01       		.byte	0x1
 3478 0ac2 5502     		.2byte	0x255
 3479 0ac4 81000000 		.4byte	0x81
 3480 0ac8 38090000 		.4byte	.LLST56
 3481 0acc 0C       		.uleb128 0xc
 3482 0acd 4A000000 		.4byte	.LVL199
 3483 0ad1 130A0000 		.4byte	0xa13
 3484 0ad5 EE0A0000 		.4byte	0xaee
 3485 0ad9 0D       		.uleb128 0xd
 3486 0ada 01       		.uleb128 0x1
 3487 0adb 52       		.byte	0x52
 3488 0adc 01       		.uleb128 0x1
 3489 0add 31       		.byte	0x31
 3490 0ade 0D       		.uleb128 0xd
ARM GAS  C:\Users\Alan\AppData\Local\Temp\ccTIy4ty.s 			page 105


 3491 0adf 01       		.uleb128 0x1
 3492 0ae0 51       		.byte	0x51
 3493 0ae1 02       		.uleb128 0x2
 3494 0ae2 74       		.byte	0x74
 3495 0ae3 00       		.sleb128 0
 3496 0ae4 0D       		.uleb128 0xd
 3497 0ae5 01       		.uleb128 0x1
 3498 0ae6 50       		.byte	0x50
 3499 0ae7 05       		.uleb128 0x5
 3500 0ae8 03       		.byte	0x3
 3501 0ae9 04000000 		.4byte	.LANCHOR1+4
 3502 0aed 00       		.byte	0
 3503 0aee 0C       		.uleb128 0xc
 3504 0aef 58000000 		.4byte	.LVL200
 3505 0af3 130A0000 		.4byte	0xa13
 3506 0af7 100B0000 		.4byte	0xb10
 3507 0afb 0D       		.uleb128 0xd
 3508 0afc 01       		.uleb128 0x1
 3509 0afd 52       		.byte	0x52
 3510 0afe 01       		.uleb128 0x1
 3511 0aff 30       		.byte	0x30
 3512 0b00 0D       		.uleb128 0xd
 3513 0b01 01       		.uleb128 0x1
 3514 0b02 51       		.byte	0x51
 3515 0b03 02       		.uleb128 0x2
 3516 0b04 74       		.byte	0x74
 3517 0b05 00       		.sleb128 0
 3518 0b06 0D       		.uleb128 0xd
 3519 0b07 01       		.uleb128 0x1
 3520 0b08 50       		.byte	0x50
 3521 0b09 05       		.uleb128 0x5
 3522 0b0a 03       		.byte	0x3
 3523 0b0b 04000000 		.4byte	.LANCHOR1+4
 3524 0b0f 00       		.byte	0
 3525 0b10 11       		.uleb128 0x11
 3526 0b11 76000000 		.4byte	.LVL202
 3527 0b15 75070000 		.4byte	0x775
 3528 0b19 00       		.byte	0
 3529 0b1a 13       		.uleb128 0x13
 3530 0b1b D00A0000 		.4byte	.LASF76
 3531 0b1f 01       		.byte	0x1
 3532 0b20 1907     		.2byte	0x719
 3533 0b22 81000000 		.4byte	0x81
 3534 0b26 00000000 		.4byte	.LFB62
 3535 0b2a 0C000000 		.4byte	.LFE62-.LFB62
 3536 0b2e 01       		.uleb128 0x1
 3537 0b2f 9C       		.byte	0x9c
 3538 0b30 450B0000 		.4byte	0xb45
 3539 0b34 14       		.uleb128 0x14
 3540 0b35 60030000 		.4byte	.LASF24
 3541 0b39 01       		.byte	0x1
 3542 0b3a 1907     		.2byte	0x719
 3543 0b3c 81000000 		.4byte	0x81
 3544 0b40 62090000 		.4byte	.LLST57
 3545 0b44 00       		.byte	0
 3546 0b45 0F       		.uleb128 0xf
 3547 0b46 A9040000 		.4byte	.LASF77
ARM GAS  C:\Users\Alan\AppData\Local\Temp\ccTIy4ty.s 			page 106


 3548 0b4a 01       		.byte	0x1
 3549 0b4b 3807     		.2byte	0x738
 3550 0b4d 00000000 		.4byte	.LFB63
 3551 0b51 0C000000 		.4byte	.LFE63-.LFB63
 3552 0b55 01       		.uleb128 0x1
 3553 0b56 9C       		.byte	0x9c
 3554 0b57 780B0000 		.4byte	0xb78
 3555 0b5b 15       		.uleb128 0x15
 3556 0b5c 60030000 		.4byte	.LASF24
 3557 0b60 01       		.byte	0x1
 3558 0b61 3807     		.2byte	0x738
 3559 0b63 81000000 		.4byte	0x81
 3560 0b67 01       		.uleb128 0x1
 3561 0b68 50       		.byte	0x50
 3562 0b69 15       		.uleb128 0x15
 3563 0b6a 1B060000 		.4byte	.LASF78
 3564 0b6e 01       		.byte	0x1
 3565 0b6f 3807     		.2byte	0x738
 3566 0b71 81000000 		.4byte	0x81
 3567 0b75 01       		.uleb128 0x1
 3568 0b76 51       		.byte	0x51
 3569 0b77 00       		.byte	0
 3570 0b78 13       		.uleb128 0x13
 3571 0b79 A8030000 		.4byte	.LASF79
 3572 0b7d 01       		.byte	0x1
 3573 0b7e 5807     		.2byte	0x758
 3574 0b80 81000000 		.4byte	0x81
 3575 0b84 00000000 		.4byte	.LFB64
 3576 0b88 0C000000 		.4byte	.LFE64-.LFB64
 3577 0b8c 01       		.uleb128 0x1
 3578 0b8d 9C       		.byte	0x9c
 3579 0b8e A30B0000 		.4byte	0xba3
 3580 0b92 14       		.uleb128 0x14
 3581 0b93 60030000 		.4byte	.LASF24
 3582 0b97 01       		.byte	0x1
 3583 0b98 5807     		.2byte	0x758
 3584 0b9a 81000000 		.4byte	0x81
 3585 0b9e 83090000 		.4byte	.LLST58
 3586 0ba2 00       		.byte	0
 3587 0ba3 0F       		.uleb128 0xf
 3588 0ba4 F3020000 		.4byte	.LASF80
 3589 0ba8 01       		.byte	0x1
 3590 0ba9 7707     		.2byte	0x777
 3591 0bab 00000000 		.4byte	.LFB65
 3592 0baf 0C000000 		.4byte	.LFE65-.LFB65
 3593 0bb3 01       		.uleb128 0x1
 3594 0bb4 9C       		.byte	0x9c
 3595 0bb5 D60B0000 		.4byte	0xbd6
 3596 0bb9 15       		.uleb128 0x15
 3597 0bba 60030000 		.4byte	.LASF24
 3598 0bbe 01       		.byte	0x1
 3599 0bbf 7707     		.2byte	0x777
 3600 0bc1 81000000 		.4byte	0x81
 3601 0bc5 01       		.uleb128 0x1
 3602 0bc6 50       		.byte	0x50
 3603 0bc7 15       		.uleb128 0x15
 3604 0bc8 00090000 		.4byte	.LASF81
ARM GAS  C:\Users\Alan\AppData\Local\Temp\ccTIy4ty.s 			page 107


 3605 0bcc 01       		.byte	0x1
 3606 0bcd 7707     		.2byte	0x777
 3607 0bcf 81000000 		.4byte	0x81
 3608 0bd3 01       		.uleb128 0x1
 3609 0bd4 51       		.byte	0x51
 3610 0bd5 00       		.byte	0
 3611 0bd6 13       		.uleb128 0x13
 3612 0bd7 D0080000 		.4byte	.LASF82
 3613 0bdb 01       		.byte	0x1
 3614 0bdc 9607     		.2byte	0x796
 3615 0bde 81000000 		.4byte	0x81
 3616 0be2 00000000 		.4byte	.LFB66
 3617 0be6 0C000000 		.4byte	.LFE66-.LFB66
 3618 0bea 01       		.uleb128 0x1
 3619 0beb 9C       		.byte	0x9c
 3620 0bec 010C0000 		.4byte	0xc01
 3621 0bf0 14       		.uleb128 0x14
 3622 0bf1 60030000 		.4byte	.LASF24
 3623 0bf5 01       		.byte	0x1
 3624 0bf6 9607     		.2byte	0x796
 3625 0bf8 81000000 		.4byte	0x81
 3626 0bfc A4090000 		.4byte	.LLST59
 3627 0c00 00       		.byte	0
 3628 0c01 0F       		.uleb128 0xf
 3629 0c02 22080000 		.4byte	.LASF83
 3630 0c06 01       		.byte	0x1
 3631 0c07 B107     		.2byte	0x7b1
 3632 0c09 00000000 		.4byte	.LFB67
 3633 0c0d 0C000000 		.4byte	.LFE67-.LFB67
 3634 0c11 01       		.uleb128 0x1
 3635 0c12 9C       		.byte	0x9c
 3636 0c13 340C0000 		.4byte	0xc34
 3637 0c17 15       		.uleb128 0x15
 3638 0c18 60030000 		.4byte	.LASF24
 3639 0c1c 01       		.byte	0x1
 3640 0c1d B107     		.2byte	0x7b1
 3641 0c1f 81000000 		.4byte	0x81
 3642 0c23 01       		.uleb128 0x1
 3643 0c24 50       		.byte	0x50
 3644 0c25 15       		.uleb128 0x15
 3645 0c26 B7070000 		.4byte	.LASF84
 3646 0c2a 01       		.byte	0x1
 3647 0c2b B107     		.2byte	0x7b1
 3648 0c2d 81000000 		.4byte	0x81
 3649 0c31 01       		.uleb128 0x1
 3650 0c32 51       		.byte	0x51
 3651 0c33 00       		.byte	0
 3652 0c34 13       		.uleb128 0x13
 3653 0c35 8B090000 		.4byte	.LASF85
 3654 0c39 01       		.byte	0x1
 3655 0c3a CE07     		.2byte	0x7ce
 3656 0c3c 81000000 		.4byte	0x81
 3657 0c40 00000000 		.4byte	.LFB68
 3658 0c44 0C000000 		.4byte	.LFE68-.LFB68
 3659 0c48 01       		.uleb128 0x1
 3660 0c49 9C       		.byte	0x9c
 3661 0c4a 5F0C0000 		.4byte	0xc5f
ARM GAS  C:\Users\Alan\AppData\Local\Temp\ccTIy4ty.s 			page 108


 3662 0c4e 14       		.uleb128 0x14
 3663 0c4f 60030000 		.4byte	.LASF24
 3664 0c53 01       		.byte	0x1
 3665 0c54 CE07     		.2byte	0x7ce
 3666 0c56 81000000 		.4byte	0x81
 3667 0c5a C5090000 		.4byte	.LLST60
 3668 0c5e 00       		.byte	0
 3669 0c5f 0F       		.uleb128 0xf
 3670 0c60 BF000000 		.4byte	.LASF86
 3671 0c64 01       		.byte	0x1
 3672 0c65 EB07     		.2byte	0x7eb
 3673 0c67 00000000 		.4byte	.LFB69
 3674 0c6b 0C000000 		.4byte	.LFE69-.LFB69
 3675 0c6f 01       		.uleb128 0x1
 3676 0c70 9C       		.byte	0x9c
 3677 0c71 920C0000 		.4byte	0xc92
 3678 0c75 15       		.uleb128 0x15
 3679 0c76 60030000 		.4byte	.LASF24
 3680 0c7a 01       		.byte	0x1
 3681 0c7b EB07     		.2byte	0x7eb
 3682 0c7d 81000000 		.4byte	0x81
 3683 0c81 01       		.uleb128 0x1
 3684 0c82 50       		.byte	0x50
 3685 0c83 15       		.uleb128 0x15
 3686 0c84 A9070000 		.4byte	.LASF87
 3687 0c88 01       		.byte	0x1
 3688 0c89 EB07     		.2byte	0x7eb
 3689 0c8b 81000000 		.4byte	0x81
 3690 0c8f 01       		.uleb128 0x1
 3691 0c90 51       		.byte	0x51
 3692 0c91 00       		.byte	0
 3693 0c92 12       		.uleb128 0x12
 3694 0c93 2A090000 		.4byte	.LASF88
 3695 0c97 01       		.byte	0x1
 3696 0c98 0808     		.2byte	0x808
 3697 0c9a 81000000 		.4byte	0x81
 3698 0c9e 00000000 		.4byte	.LFB70
 3699 0ca2 14000000 		.4byte	.LFE70-.LFB70
 3700 0ca6 01       		.uleb128 0x1
 3701 0ca7 9C       		.byte	0x9c
 3702 0ca8 0F       		.uleb128 0xf
 3703 0ca9 A9010000 		.4byte	.LASF89
 3704 0cad 01       		.byte	0x1
 3705 0cae 2608     		.2byte	0x826
 3706 0cb0 00000000 		.4byte	.LFB71
 3707 0cb4 28000000 		.4byte	.LFE71-.LFB71
 3708 0cb8 01       		.uleb128 0x1
 3709 0cb9 9C       		.byte	0x9c
 3710 0cba CD0C0000 		.4byte	0xccd
 3711 0cbe 15       		.uleb128 0x15
 3712 0cbf 4A070000 		.4byte	.LASF90
 3713 0cc3 01       		.byte	0x1
 3714 0cc4 2608     		.2byte	0x826
 3715 0cc6 81000000 		.4byte	0x81
 3716 0cca 01       		.uleb128 0x1
 3717 0ccb 50       		.byte	0x50
 3718 0ccc 00       		.byte	0
ARM GAS  C:\Users\Alan\AppData\Local\Temp\ccTIy4ty.s 			page 109


 3719 0ccd 13       		.uleb128 0x13
 3720 0cce 9C000000 		.4byte	.LASF91
 3721 0cd2 01       		.byte	0x1
 3722 0cd3 4E08     		.2byte	0x84e
 3723 0cd5 76000000 		.4byte	0x76
 3724 0cd9 00000000 		.4byte	.LFB72
 3725 0cdd 2A000000 		.4byte	.LFE72-.LFB72
 3726 0ce1 01       		.uleb128 0x1
 3727 0ce2 9C       		.byte	0x9c
 3728 0ce3 450D0000 		.4byte	0xd45
 3729 0ce7 14       		.uleb128 0x14
 3730 0ce8 60030000 		.4byte	.LASF24
 3731 0cec 01       		.byte	0x1
 3732 0ced 4E08     		.2byte	0x84e
 3733 0cef 81000000 		.4byte	0x81
 3734 0cf3 E6090000 		.4byte	.LLST61
 3735 0cf7 10       		.uleb128 0x10
 3736 0cf8 31030000 		.4byte	.LASF92
 3737 0cfc 01       		.byte	0x1
 3738 0cfd 5008     		.2byte	0x850
 3739 0cff 81000000 		.4byte	0x81
 3740 0d03 120A0000 		.4byte	.LLST62
 3741 0d07 10       		.uleb128 0x10
 3742 0d08 65010000 		.4byte	.LASF93
 3743 0d0c 01       		.byte	0x1
 3744 0d0d 5108     		.2byte	0x851
 3745 0d0f 81000000 		.4byte	0x81
 3746 0d13 310A0000 		.4byte	.LLST63
 3747 0d17 0C       		.uleb128 0xc
 3748 0d18 10000000 		.4byte	.LVL221
 3749 0d1c 08090000 		.4byte	0x908
 3750 0d20 2B0D0000 		.4byte	0xd2b
 3751 0d24 0D       		.uleb128 0xd
 3752 0d25 01       		.uleb128 0x1
 3753 0d26 50       		.byte	0x50
 3754 0d27 02       		.uleb128 0x2
 3755 0d28 76       		.byte	0x76
 3756 0d29 00       		.sleb128 0
 3757 0d2a 00       		.byte	0
 3758 0d2b 11       		.uleb128 0x11
 3759 0d2c 14000000 		.4byte	.LVL222
 3760 0d30 29020000 		.4byte	0x229
 3761 0d34 0E       		.uleb128 0xe
 3762 0d35 1E000000 		.4byte	.LVL223
 3763 0d39 3F020000 		.4byte	0x23f
 3764 0d3d 0D       		.uleb128 0xd
 3765 0d3e 01       		.uleb128 0x1
 3766 0d3f 50       		.byte	0x50
 3767 0d40 02       		.uleb128 0x2
 3768 0d41 76       		.byte	0x76
 3769 0d42 00       		.sleb128 0
 3770 0d43 00       		.byte	0
 3771 0d44 00       		.byte	0
 3772 0d45 0F       		.uleb128 0xf
 3773 0d46 21050000 		.4byte	.LASF94
 3774 0d4a 01       		.byte	0x1
 3775 0d4b B808     		.2byte	0x8b8
ARM GAS  C:\Users\Alan\AppData\Local\Temp\ccTIy4ty.s 			page 110


 3776 0d4d 00000000 		.4byte	.LFB73
 3777 0d51 0C000000 		.4byte	.LFE73-.LFB73
 3778 0d55 01       		.uleb128 0x1
 3779 0d56 9C       		.byte	0x9c
 3780 0d57 780D0000 		.4byte	0xd78
 3781 0d5b 15       		.uleb128 0x15
 3782 0d5c 60030000 		.4byte	.LASF24
 3783 0d60 01       		.byte	0x1
 3784 0d61 B808     		.2byte	0x8b8
 3785 0d63 81000000 		.4byte	0x81
 3786 0d67 01       		.uleb128 0x1
 3787 0d68 50       		.byte	0x50
 3788 0d69 15       		.uleb128 0x15
 3789 0d6a E0020000 		.4byte	.LASF39
 3790 0d6e 01       		.byte	0x1
 3791 0d6f B808     		.2byte	0x8b8
 3792 0d71 81000000 		.4byte	0x81
 3793 0d75 01       		.uleb128 0x1
 3794 0d76 51       		.byte	0x51
 3795 0d77 00       		.byte	0
 3796 0d78 0F       		.uleb128 0xf
 3797 0d79 B60A0000 		.4byte	.LASF95
 3798 0d7d 01       		.byte	0x1
 3799 0d7e D508     		.2byte	0x8d5
 3800 0d80 00000000 		.4byte	.LFB74
 3801 0d84 40000000 		.4byte	.LFE74-.LFB74
 3802 0d88 01       		.uleb128 0x1
 3803 0d89 9C       		.byte	0x9c
 3804 0d8a FB0D0000 		.4byte	0xdfb
 3805 0d8e 15       		.uleb128 0x15
 3806 0d8f 27010000 		.4byte	.LASF96
 3807 0d93 01       		.byte	0x1
 3808 0d94 D508     		.2byte	0x8d5
 3809 0d96 81000000 		.4byte	0x81
 3810 0d9a 01       		.uleb128 0x1
 3811 0d9b 50       		.byte	0x50
 3812 0d9c 15       		.uleb128 0x15
 3813 0d9d B4090000 		.4byte	.LASF97
 3814 0da1 01       		.byte	0x1
 3815 0da2 D508     		.2byte	0x8d5
 3816 0da4 DD000000 		.4byte	0xdd
 3817 0da8 01       		.uleb128 0x1
 3818 0da9 51       		.byte	0x51
 3819 0daa 10       		.uleb128 0x10
 3820 0dab 68040000 		.4byte	.LASF98
 3821 0daf 01       		.byte	0x1
 3822 0db0 D708     		.2byte	0x8d7
 3823 0db2 81000000 		.4byte	0x81
 3824 0db6 500A0000 		.4byte	.LLST64
 3825 0dba 10       		.uleb128 0x10
 3826 0dbb 89070000 		.4byte	.LASF99
 3827 0dbf 01       		.byte	0x1
 3828 0dc0 D808     		.2byte	0x8d8
 3829 0dc2 81000000 		.4byte	0x81
 3830 0dc6 6F0A0000 		.4byte	.LLST65
 3831 0dca 10       		.uleb128 0x10
 3832 0dcb 88050000 		.4byte	.LASF75
ARM GAS  C:\Users\Alan\AppData\Local\Temp\ccTIy4ty.s 			page 111


 3833 0dcf 01       		.byte	0x1
 3834 0dd0 D908     		.2byte	0x8d9
 3835 0dd2 81000000 		.4byte	0x81
 3836 0dd6 980A0000 		.4byte	.LLST66
 3837 0dda 10       		.uleb128 0x10
 3838 0ddb 20030000 		.4byte	.LASF74
 3839 0ddf 01       		.byte	0x1
 3840 0de0 DA08     		.2byte	0x8da
 3841 0de2 81000000 		.4byte	0x81
 3842 0de6 AB0A0000 		.4byte	.LLST67
 3843 0dea 10       		.uleb128 0x10
 3844 0deb E2050000 		.4byte	.LASF100
 3845 0def 01       		.byte	0x1
 3846 0df0 DB08     		.2byte	0x8db
 3847 0df2 81000000 		.4byte	0x81
 3848 0df6 BE0A0000 		.4byte	.LLST68
 3849 0dfa 00       		.byte	0
 3850 0dfb 17       		.uleb128 0x17
 3851 0dfc B3020000 		.4byte	.LASF101
 3852 0e00 01       		.byte	0x1
 3853 0e01 24       		.byte	0x24
 3854 0e02 6B000000 		.4byte	0x6b
 3855 0e06 05       		.uleb128 0x5
 3856 0e07 03       		.byte	0x3
 3857 0e08 00000000 		.4byte	capsense_lowLevelTuningDone
 3858 0e0c 18       		.uleb128 0x18
 3859 0e0d 6B000000 		.4byte	0x6b
 3860 0e11 1C0E0000 		.4byte	0xe1c
 3861 0e15 19       		.uleb128 0x19
 3862 0e16 D6000000 		.4byte	0xd6
 3863 0e1a 00       		.byte	0
 3864 0e1b 00       		.byte	0
 3865 0e1c 17       		.uleb128 0x17
 3866 0e1d 86040000 		.4byte	.LASF102
 3867 0e21 01       		.byte	0x1
 3868 0e22 25       		.byte	0x25
 3869 0e23 0C0E0000 		.4byte	0xe0c
 3870 0e27 05       		.uleb128 0x5
 3871 0e28 03       		.byte	0x3
 3872 0e29 00000000 		.4byte	capsense_scanSpeedTbl
 3873 0e2d 17       		.uleb128 0x17
 3874 0e2e CC040000 		.4byte	.LASF103
 3875 0e32 01       		.byte	0x1
 3876 0e33 2D       		.byte	0x2d
 3877 0e34 AD000000 		.4byte	0xad
 3878 0e38 05       		.uleb128 0x5
 3879 0e39 03       		.byte	0x3
 3880 0e3a 00000000 		.4byte	capsense_csdStatusVar
 3881 0e3e 17       		.uleb128 0x17
 3882 0e3f 02050000 		.4byte	.LASF104
 3883 0e43 01       		.byte	0x1
 3884 0e44 2E       		.byte	0x2e
 3885 0e45 AD000000 		.4byte	0xad
 3886 0e49 05       		.uleb128 0x5
 3887 0e4a 03       		.byte	0x3
 3888 0e4b 00000000 		.4byte	capsense_sensorIndex
 3889 0e4f 18       		.uleb128 0x18
ARM GAS  C:\Users\Alan\AppData\Local\Temp\ccTIy4ty.s 			page 112


 3890 0e50 76000000 		.4byte	0x76
 3891 0e54 5F0E0000 		.4byte	0xe5f
 3892 0e58 19       		.uleb128 0x19
 3893 0e59 D6000000 		.4byte	0xd6
 3894 0e5d 04       		.byte	0x4
 3895 0e5e 00       		.byte	0
 3896 0e5f 17       		.uleb128 0x17
 3897 0e60 3B030000 		.4byte	.LASF105
 3898 0e64 01       		.byte	0x1
 3899 0e65 31       		.byte	0x31
 3900 0e66 4F0E0000 		.4byte	0xe4f
 3901 0e6a 05       		.uleb128 0x5
 3902 0e6b 03       		.byte	0x3
 3903 0e6c 00000000 		.4byte	capsense_sensorRaw
 3904 0e70 18       		.uleb128 0x18
 3905 0e71 6B000000 		.4byte	0x6b
 3906 0e75 800E0000 		.4byte	0xe80
 3907 0e79 19       		.uleb128 0x19
 3908 0e7a D6000000 		.4byte	0xd6
 3909 0e7e 04       		.byte	0x4
 3910 0e7f 00       		.byte	0
 3911 0e80 17       		.uleb128 0x17
 3912 0e81 53060000 		.4byte	.LASF106
 3913 0e85 01       		.byte	0x1
 3914 0e86 3B       		.byte	0x3b
 3915 0e87 700E0000 		.4byte	0xe70
 3916 0e8b 05       		.uleb128 0x5
 3917 0e8c 03       		.byte	0x3
 3918 0e8d 00000000 		.4byte	capsense_unscannedSnsDriveMode
 3919 0e91 17       		.uleb128 0x17
 3920 0e92 3D040000 		.4byte	.LASF107
 3921 0e96 01       		.byte	0x1
 3922 0e97 3E       		.byte	0x3e
 3923 0e98 0C0E0000 		.4byte	0xe0c
 3924 0e9c 05       		.uleb128 0x5
 3925 0e9d 03       		.byte	0x3
 3926 0e9e 00000000 		.4byte	capsense_sensorEnableMaskBackup
 3927 0ea2 17       		.uleb128 0x17
 3928 0ea3 0F0A0000 		.4byte	.LASF108
 3929 0ea7 01       		.byte	0x1
 3930 0ea8 41       		.byte	0x41
 3931 0ea9 0C0E0000 		.4byte	0xe0c
 3932 0ead 05       		.uleb128 0x5
 3933 0eae 03       		.byte	0x3
 3934 0eaf 00000000 		.4byte	capsense_sensorEnableMask
 3935 0eb3 17       		.uleb128 0x17
 3936 0eb4 40010000 		.4byte	.LASF109
 3937 0eb8 01       		.byte	0x1
 3938 0eb9 64       		.byte	0x64
 3939 0eba 700E0000 		.4byte	0xe70
 3940 0ebe 05       		.uleb128 0x5
 3941 0ebf 03       		.byte	0x3
 3942 0ec0 00000000 		.4byte	capsense_modulationIDAC
 3943 0ec4 17       		.uleb128 0x17
 3944 0ec5 BD050000 		.4byte	.LASF110
 3945 0ec9 01       		.byte	0x1
 3946 0eca 65       		.byte	0x65
ARM GAS  C:\Users\Alan\AppData\Local\Temp\ccTIy4ty.s 			page 113


 3947 0ecb 700E0000 		.4byte	0xe70
 3948 0ecf 05       		.uleb128 0x5
 3949 0ed0 03       		.byte	0x3
 3950 0ed1 00000000 		.4byte	capsense_compensationIDAC
 3951 0ed5 18       		.uleb128 0x18
 3952 0ed6 81000000 		.4byte	0x81
 3953 0eda E50E0000 		.4byte	0xee5
 3954 0ede 19       		.uleb128 0x19
 3955 0edf D6000000 		.4byte	0xd6
 3956 0ee3 00       		.byte	0
 3957 0ee4 00       		.byte	0
 3958 0ee5 17       		.uleb128 0x17
 3959 0ee6 6C010000 		.4byte	.LASF111
 3960 0eea 01       		.byte	0x1
 3961 0eeb 67       		.byte	0x67
 3962 0eec D50E0000 		.4byte	0xed5
 3963 0ef0 05       		.uleb128 0x5
 3964 0ef1 03       		.byte	0x3
 3965 0ef2 00000000 		.4byte	capsense_widgetResolution
 3966 0ef6 17       		.uleb128 0x17
 3967 0ef7 6C050000 		.4byte	.LASF112
 3968 0efb 01       		.byte	0x1
 3969 0efc 6B       		.byte	0x6b
 3970 0efd 700E0000 		.4byte	0xe70
 3971 0f01 05       		.uleb128 0x5
 3972 0f02 03       		.byte	0x3
 3973 0f03 00000000 		.4byte	capsense_senseClkDividerVal
 3974 0f07 17       		.uleb128 0x17
 3975 0f08 E6090000 		.4byte	.LASF113
 3976 0f0c 01       		.byte	0x1
 3977 0f0d 6C       		.byte	0x6c
 3978 0f0e 700E0000 		.4byte	0xe70
 3979 0f12 05       		.uleb128 0x5
 3980 0f13 03       		.byte	0x3
 3981 0f14 00000000 		.4byte	capsense_sampleClkDividerVal
 3982 0f18 17       		.uleb128 0x17
 3983 0f19 93010000 		.4byte	.LASF114
 3984 0f1d 01       		.byte	0x1
 3985 0f1e 6E       		.byte	0x6e
 3986 0f1f 290F0000 		.4byte	0xf29
 3987 0f23 05       		.uleb128 0x5
 3988 0f24 03       		.byte	0x3
 3989 0f25 00000000 		.4byte	capsense_widgetNumber
 3990 0f29 09       		.uleb128 0x9
 3991 0f2a 700E0000 		.4byte	0xe70
 3992 0f2e 18       		.uleb128 0x18
 3993 0f2f 3E0F0000 		.4byte	0xf3e
 3994 0f33 3E0F0000 		.4byte	0xf3e
 3995 0f37 19       		.uleb128 0x19
 3996 0f38 D6000000 		.4byte	0xd6
 3997 0f3c 06       		.byte	0x6
 3998 0f3d 00       		.byte	0
 3999 0f3e 07       		.uleb128 0x7
 4000 0f3f 04       		.byte	0x4
 4001 0f40 440F0000 		.4byte	0xf44
 4002 0f44 06       		.uleb128 0x6
 4003 0f45 48000000 		.4byte	0x48
ARM GAS  C:\Users\Alan\AppData\Local\Temp\ccTIy4ty.s 			page 114


 4004 0f49 17       		.uleb128 0x17
 4005 0f4a 14010000 		.4byte	.LASF115
 4006 0f4e 01       		.byte	0x1
 4007 0f4f 72       		.byte	0x72
 4008 0f50 5A0F0000 		.4byte	0xf5a
 4009 0f54 05       		.uleb128 0x5
 4010 0f55 03       		.byte	0x3
 4011 0f56 00000000 		.4byte	capsense_prtSelTbl
 4012 0f5a 09       		.uleb128 0x9
 4013 0f5b 2E0F0000 		.4byte	0xf2e
 4014 0f5f 17       		.uleb128 0x17
 4015 0f60 8C080000 		.4byte	.LASF116
 4016 0f64 01       		.byte	0x1
 4017 0f65 7C       		.byte	0x7c
 4018 0f66 700F0000 		.4byte	0xf70
 4019 0f6a 05       		.uleb128 0x5
 4020 0f6b 03       		.byte	0x3
 4021 0f6c 00000000 		.4byte	capsense_prtCfgTbl
 4022 0f70 09       		.uleb128 0x9
 4023 0f71 2E0F0000 		.4byte	0xf2e
 4024 0f75 17       		.uleb128 0x17
 4025 0f76 97070000 		.4byte	.LASF117
 4026 0f7a 01       		.byte	0x1
 4027 0f7b 86       		.byte	0x86
 4028 0f7c 860F0000 		.4byte	0xf86
 4029 0f80 05       		.uleb128 0x5
 4030 0f81 03       		.byte	0x3
 4031 0f82 00000000 		.4byte	capsense_prtDRTbl
 4032 0f86 09       		.uleb128 0x9
 4033 0f87 2E0F0000 		.4byte	0xf2e
 4034 0f8b 18       		.uleb128 0x18
 4035 0f8c 3E0F0000 		.4byte	0xf3e
 4036 0f90 9B0F0000 		.4byte	0xf9b
 4037 0f94 19       		.uleb128 0x19
 4038 0f95 D6000000 		.4byte	0xd6
 4039 0f99 04       		.byte	0x4
 4040 0f9a 00       		.byte	0
 4041 0f9b 17       		.uleb128 0x17
 4042 0f9c 360A0000 		.4byte	.LASF118
 4043 0fa0 01       		.byte	0x1
 4044 0fa1 44       		.byte	0x44
 4045 0fa2 8B0F0000 		.4byte	0xf8b
 4046 0fa6 05       		.uleb128 0x5
 4047 0fa7 03       		.byte	0x3
 4048 0fa8 00000000 		.4byte	capsense_pcTable
 4049 0fac 17       		.uleb128 0x17
 4050 0fad EF050000 		.4byte	.LASF119
 4051 0fb1 01       		.byte	0x1
 4052 0fb2 4C       		.byte	0x4c
 4053 0fb3 BD0F0000 		.4byte	0xfbd
 4054 0fb7 05       		.uleb128 0x5
 4055 0fb8 03       		.byte	0x3
 4056 0fb9 00000000 		.4byte	capsense_portTable
 4057 0fbd 09       		.uleb128 0x9
 4058 0fbe 700E0000 		.4byte	0xe70
 4059 0fc2 18       		.uleb128 0x18
 4060 0fc3 81000000 		.4byte	0x81
ARM GAS  C:\Users\Alan\AppData\Local\Temp\ccTIy4ty.s 			page 115


 4061 0fc7 D20F0000 		.4byte	0xfd2
 4062 0fcb 19       		.uleb128 0x19
 4063 0fcc D6000000 		.4byte	0xd6
 4064 0fd0 04       		.byte	0x4
 4065 0fd1 00       		.byte	0
 4066 0fd2 17       		.uleb128 0x17
 4067 0fd3 C4070000 		.4byte	.LASF120
 4068 0fd7 01       		.byte	0x1
 4069 0fd8 54       		.byte	0x54
 4070 0fd9 E30F0000 		.4byte	0xfe3
 4071 0fdd 05       		.uleb128 0x5
 4072 0fde 03       		.byte	0x3
 4073 0fdf 00000000 		.4byte	capsense_maskTable
 4074 0fe3 09       		.uleb128 0x9
 4075 0fe4 C20F0000 		.4byte	0xfc2
 4076 0fe8 17       		.uleb128 0x17
 4077 0fe9 EB080000 		.4byte	.LASF121
 4078 0fed 01       		.byte	0x1
 4079 0fee 5C       		.byte	0x5c
 4080 0fef F90F0000 		.4byte	0xff9
 4081 0ff3 05       		.uleb128 0x5
 4082 0ff4 03       		.byte	0x3
 4083 0ff5 00000000 		.4byte	capsense_pinShiftTbl
 4084 0ff9 09       		.uleb128 0x9
 4085 0ffa 700E0000 		.4byte	0xe70
 4086 0ffe 1A       		.uleb128 0x1a
 4087 0fff 3D060000 		.4byte	.LASF122
 4088 1003 03       		.byte	0x3
 4089 1004 3A01     		.2byte	0x13a
 4090 1006 0A100000 		.4byte	0x100a
 4091 100a 09       		.uleb128 0x9
 4092 100b 0C0E0000 		.4byte	0xe0c
 4093 100f 1A       		.uleb128 0x1a
 4094 1010 02060000 		.4byte	.LASF123
 4095 1014 03       		.byte	0x3
 4096 1015 3B01     		.2byte	0x13b
 4097 1017 1B100000 		.4byte	0x101b
 4098 101b 09       		.uleb128 0x9
 4099 101c 0C0E0000 		.4byte	0xe0c
 4100 1020 17       		.uleb128 0x17
 4101 1021 54070000 		.4byte	.LASF124
 4102 1025 01       		.byte	0x1
 4103 1026 37       		.byte	0x37
 4104 1027 6B000000 		.4byte	0x6b
 4105 102b 05       		.uleb128 0x5
 4106 102c 03       		.byte	0x3
 4107 102d 00000000 		.4byte	capsense_csdTrim1
 4108 1031 1B       		.uleb128 0x1b
 4109 1032 58010000 		.4byte	.LASF125
 4110 1036 04       		.byte	0x4
 4111 1037 4E       		.byte	0x4e
 4112 1038 42100000 		.4byte	0x1042
 4113 103c 1C       		.uleb128 0x1c
 4114 103d 6B000000 		.4byte	0x6b
 4115 1041 00       		.byte	0
 4116 1042 1D       		.uleb128 0x1d
 4117 1043 E9030000 		.4byte	.LASF140
ARM GAS  C:\Users\Alan\AppData\Local\Temp\ccTIy4ty.s 			page 116


 4118 1047 04       		.byte	0x4
 4119 1048 46       		.byte	0x46
 4120 1049 C3000000 		.4byte	0xc3
 4121 104d 5C100000 		.4byte	0x105c
 4122 1051 1C       		.uleb128 0x1c
 4123 1052 6B000000 		.4byte	0x6b
 4124 1056 1C       		.uleb128 0x1c
 4125 1057 C3000000 		.4byte	0xc3
 4126 105b 00       		.byte	0
 4127 105c 1B       		.uleb128 0x1b
 4128 105d 00000000 		.4byte	.LASF126
 4129 1061 04       		.byte	0x4
 4130 1062 49       		.byte	0x49
 4131 1063 72100000 		.4byte	0x1072
 4132 1067 1C       		.uleb128 0x1c
 4133 1068 6B000000 		.4byte	0x6b
 4134 106c 1C       		.uleb128 0x1c
 4135 106d 6B000000 		.4byte	0x6b
 4136 1071 00       		.byte	0
 4137 1072 1E       		.uleb128 0x1e
 4138 1073 72060000 		.4byte	.LASF127
 4139 1077 05       		.byte	0x5
 4140 1078 27       		.byte	0x27
 4141 1079 1E       		.uleb128 0x1e
 4142 107a 67030000 		.4byte	.LASF128
 4143 107e 06       		.byte	0x6
 4144 107f 27       		.byte	0x27
 4145 1080 1B       		.uleb128 0x1b
 4146 1081 D7070000 		.4byte	.LASF129
 4147 1085 06       		.byte	0x6
 4148 1086 29       		.byte	0x29
 4149 1087 96100000 		.4byte	0x1096
 4150 108b 1C       		.uleb128 0x1c
 4151 108c 76000000 		.4byte	0x76
 4152 1090 1C       		.uleb128 0x1c
 4153 1091 6B000000 		.4byte	0x6b
 4154 1095 00       		.byte	0
 4155 1096 1B       		.uleb128 0x1b
 4156 1097 470A0000 		.4byte	.LASF130
 4157 109b 05       		.byte	0x5
 4158 109c 29       		.byte	0x29
 4159 109d AC100000 		.4byte	0x10ac
 4160 10a1 1C       		.uleb128 0x1c
 4161 10a2 76000000 		.4byte	0x76
 4162 10a6 1C       		.uleb128 0x1c
 4163 10a7 6B000000 		.4byte	0x6b
 4164 10ab 00       		.byte	0
 4165 10ac 1B       		.uleb128 0x1b
 4166 10ad 4D080000 		.4byte	.LASF131
 4167 10b1 06       		.byte	0x6
 4168 10b2 1D       		.byte	0x1d
 4169 10b3 BD100000 		.4byte	0x10bd
 4170 10b7 1C       		.uleb128 0x1c
 4171 10b8 81000000 		.4byte	0x81
 4172 10bc 00       		.byte	0
 4173 10bd 1B       		.uleb128 0x1b
 4174 10be E7010000 		.4byte	.LASF132
ARM GAS  C:\Users\Alan\AppData\Local\Temp\ccTIy4ty.s 			page 117


 4175 10c2 05       		.byte	0x5
 4176 10c3 1D       		.byte	0x1d
 4177 10c4 CE100000 		.4byte	0x10ce
 4178 10c8 1C       		.uleb128 0x1c
 4179 10c9 81000000 		.4byte	0x81
 4180 10cd 00       		.byte	0
 4181 10ce 1B       		.uleb128 0x1b
 4182 10cf 1E090000 		.4byte	.LASF133
 4183 10d3 04       		.byte	0x4
 4184 10d4 4C       		.byte	0x4c
 4185 10d5 DF100000 		.4byte	0x10df
 4186 10d9 1C       		.uleb128 0x1c
 4187 10da 6B000000 		.4byte	0x6b
 4188 10de 00       		.byte	0
 4189 10df 1F       		.uleb128 0x1f
 4190 10e0 58090000 		.4byte	.LASF141
 4191 10e4 04       		.byte	0x4
 4192 10e5 5E       		.byte	0x5e
 4193 10e6 6B000000 		.4byte	0x6b
 4194 10ea 1B       		.uleb128 0x1b
 4195 10eb 84030000 		.4byte	.LASF134
 4196 10ef 04       		.byte	0x4
 4197 10f0 5F       		.byte	0x5f
 4198 10f1 FB100000 		.4byte	0x10fb
 4199 10f5 1C       		.uleb128 0x1c
 4200 10f6 6B000000 		.4byte	0x6b
 4201 10fa 00       		.byte	0
 4202 10fb 20       		.uleb128 0x20
 4203 10fc 4E030000 		.4byte	.LASF135
 4204 1100 07       		.byte	0x7
 4205 1101 CF02     		.2byte	0x2cf
 4206 1103 1B       		.uleb128 0x1b
 4207 1104 6C020000 		.4byte	.LASF136
 4208 1108 04       		.byte	0x4
 4209 1109 51       		.byte	0x51
 4210 110a 14110000 		.4byte	0x1114
 4211 110e 1C       		.uleb128 0x1c
 4212 110f 6B000000 		.4byte	0x6b
 4213 1113 00       		.byte	0
 4214 1114 21       		.uleb128 0x21
 4215 1115 9A030000 		.4byte	.LASF142
 4216 1119 04       		.byte	0x4
 4217 111a 5A       		.byte	0x5a
 4218 111b 1C       		.uleb128 0x1c
 4219 111c 81000000 		.4byte	0x81
 4220 1120 00       		.byte	0
 4221 1121 00       		.byte	0
 4222              		.section	.debug_abbrev,"",%progbits
 4223              	.Ldebug_abbrev0:
 4224 0000 01       		.uleb128 0x1
 4225 0001 11       		.uleb128 0x11
 4226 0002 01       		.byte	0x1
 4227 0003 25       		.uleb128 0x25
 4228 0004 0E       		.uleb128 0xe
 4229 0005 13       		.uleb128 0x13
 4230 0006 0B       		.uleb128 0xb
 4231 0007 03       		.uleb128 0x3
ARM GAS  C:\Users\Alan\AppData\Local\Temp\ccTIy4ty.s 			page 118


 4232 0008 0E       		.uleb128 0xe
 4233 0009 1B       		.uleb128 0x1b
 4234 000a 0E       		.uleb128 0xe
 4235 000b 55       		.uleb128 0x55
 4236 000c 17       		.uleb128 0x17
 4237 000d 11       		.uleb128 0x11
 4238 000e 01       		.uleb128 0x1
 4239 000f 10       		.uleb128 0x10
 4240 0010 17       		.uleb128 0x17
 4241 0011 00       		.byte	0
 4242 0012 00       		.byte	0
 4243 0013 02       		.uleb128 0x2
 4244 0014 24       		.uleb128 0x24
 4245 0015 00       		.byte	0
 4246 0016 0B       		.uleb128 0xb
 4247 0017 0B       		.uleb128 0xb
 4248 0018 3E       		.uleb128 0x3e
 4249 0019 0B       		.uleb128 0xb
 4250 001a 03       		.uleb128 0x3
 4251 001b 0E       		.uleb128 0xe
 4252 001c 00       		.byte	0
 4253 001d 00       		.byte	0
 4254 001e 03       		.uleb128 0x3
 4255 001f 24       		.uleb128 0x24
 4256 0020 00       		.byte	0
 4257 0021 0B       		.uleb128 0xb
 4258 0022 0B       		.uleb128 0xb
 4259 0023 3E       		.uleb128 0x3e
 4260 0024 0B       		.uleb128 0xb
 4261 0025 03       		.uleb128 0x3
 4262 0026 08       		.uleb128 0x8
 4263 0027 00       		.byte	0
 4264 0028 00       		.byte	0
 4265 0029 04       		.uleb128 0x4
 4266 002a 16       		.uleb128 0x16
 4267 002b 00       		.byte	0
 4268 002c 03       		.uleb128 0x3
 4269 002d 0E       		.uleb128 0xe
 4270 002e 3A       		.uleb128 0x3a
 4271 002f 0B       		.uleb128 0xb
 4272 0030 3B       		.uleb128 0x3b
 4273 0031 0B       		.uleb128 0xb
 4274 0032 49       		.uleb128 0x49
 4275 0033 13       		.uleb128 0x13
 4276 0034 00       		.byte	0
 4277 0035 00       		.byte	0
 4278 0036 05       		.uleb128 0x5
 4279 0037 16       		.uleb128 0x16
 4280 0038 00       		.byte	0
 4281 0039 03       		.uleb128 0x3
 4282 003a 0E       		.uleb128 0xe
 4283 003b 3A       		.uleb128 0x3a
 4284 003c 0B       		.uleb128 0xb
 4285 003d 3B       		.uleb128 0x3b
 4286 003e 05       		.uleb128 0x5
 4287 003f 49       		.uleb128 0x49
 4288 0040 13       		.uleb128 0x13
ARM GAS  C:\Users\Alan\AppData\Local\Temp\ccTIy4ty.s 			page 119


 4289 0041 00       		.byte	0
 4290 0042 00       		.byte	0
 4291 0043 06       		.uleb128 0x6
 4292 0044 35       		.uleb128 0x35
 4293 0045 00       		.byte	0
 4294 0046 49       		.uleb128 0x49
 4295 0047 13       		.uleb128 0x13
 4296 0048 00       		.byte	0
 4297 0049 00       		.byte	0
 4298 004a 07       		.uleb128 0x7
 4299 004b 0F       		.uleb128 0xf
 4300 004c 00       		.byte	0
 4301 004d 0B       		.uleb128 0xb
 4302 004e 0B       		.uleb128 0xb
 4303 004f 49       		.uleb128 0x49
 4304 0050 13       		.uleb128 0x13
 4305 0051 00       		.byte	0
 4306 0052 00       		.byte	0
 4307 0053 08       		.uleb128 0x8
 4308 0054 15       		.uleb128 0x15
 4309 0055 00       		.byte	0
 4310 0056 27       		.uleb128 0x27
 4311 0057 19       		.uleb128 0x19
 4312 0058 00       		.byte	0
 4313 0059 00       		.byte	0
 4314 005a 09       		.uleb128 0x9
 4315 005b 26       		.uleb128 0x26
 4316 005c 00       		.byte	0
 4317 005d 49       		.uleb128 0x49
 4318 005e 13       		.uleb128 0x13
 4319 005f 00       		.byte	0
 4320 0060 00       		.byte	0
 4321 0061 0A       		.uleb128 0xa
 4322 0062 2E       		.uleb128 0x2e
 4323 0063 01       		.byte	0x1
 4324 0064 3F       		.uleb128 0x3f
 4325 0065 19       		.uleb128 0x19
 4326 0066 03       		.uleb128 0x3
 4327 0067 0E       		.uleb128 0xe
 4328 0068 3A       		.uleb128 0x3a
 4329 0069 0B       		.uleb128 0xb
 4330 006a 3B       		.uleb128 0x3b
 4331 006b 0B       		.uleb128 0xb
 4332 006c 27       		.uleb128 0x27
 4333 006d 19       		.uleb128 0x19
 4334 006e 11       		.uleb128 0x11
 4335 006f 01       		.uleb128 0x1
 4336 0070 12       		.uleb128 0x12
 4337 0071 06       		.uleb128 0x6
 4338 0072 40       		.uleb128 0x40
 4339 0073 18       		.uleb128 0x18
 4340 0074 9742     		.uleb128 0x2117
 4341 0076 19       		.uleb128 0x19
 4342 0077 01       		.uleb128 0x1
 4343 0078 13       		.uleb128 0x13
 4344 0079 00       		.byte	0
 4345 007a 00       		.byte	0
ARM GAS  C:\Users\Alan\AppData\Local\Temp\ccTIy4ty.s 			page 120


 4346 007b 0B       		.uleb128 0xb
 4347 007c 34       		.uleb128 0x34
 4348 007d 00       		.byte	0
 4349 007e 03       		.uleb128 0x3
 4350 007f 0E       		.uleb128 0xe
 4351 0080 3A       		.uleb128 0x3a
 4352 0081 0B       		.uleb128 0xb
 4353 0082 3B       		.uleb128 0x3b
 4354 0083 0B       		.uleb128 0xb
 4355 0084 49       		.uleb128 0x49
 4356 0085 13       		.uleb128 0x13
 4357 0086 02       		.uleb128 0x2
 4358 0087 17       		.uleb128 0x17
 4359 0088 00       		.byte	0
 4360 0089 00       		.byte	0
 4361 008a 0C       		.uleb128 0xc
 4362 008b 898201   		.uleb128 0x4109
 4363 008e 01       		.byte	0x1
 4364 008f 11       		.uleb128 0x11
 4365 0090 01       		.uleb128 0x1
 4366 0091 31       		.uleb128 0x31
 4367 0092 13       		.uleb128 0x13
 4368 0093 01       		.uleb128 0x1
 4369 0094 13       		.uleb128 0x13
 4370 0095 00       		.byte	0
 4371 0096 00       		.byte	0
 4372 0097 0D       		.uleb128 0xd
 4373 0098 8A8201   		.uleb128 0x410a
 4374 009b 00       		.byte	0
 4375 009c 02       		.uleb128 0x2
 4376 009d 18       		.uleb128 0x18
 4377 009e 9142     		.uleb128 0x2111
 4378 00a0 18       		.uleb128 0x18
 4379 00a1 00       		.byte	0
 4380 00a2 00       		.byte	0
 4381 00a3 0E       		.uleb128 0xe
 4382 00a4 898201   		.uleb128 0x4109
 4383 00a7 01       		.byte	0x1
 4384 00a8 11       		.uleb128 0x11
 4385 00a9 01       		.uleb128 0x1
 4386 00aa 31       		.uleb128 0x31
 4387 00ab 13       		.uleb128 0x13
 4388 00ac 00       		.byte	0
 4389 00ad 00       		.byte	0
 4390 00ae 0F       		.uleb128 0xf
 4391 00af 2E       		.uleb128 0x2e
 4392 00b0 01       		.byte	0x1
 4393 00b1 3F       		.uleb128 0x3f
 4394 00b2 19       		.uleb128 0x19
 4395 00b3 03       		.uleb128 0x3
 4396 00b4 0E       		.uleb128 0xe
 4397 00b5 3A       		.uleb128 0x3a
 4398 00b6 0B       		.uleb128 0xb
 4399 00b7 3B       		.uleb128 0x3b
 4400 00b8 05       		.uleb128 0x5
 4401 00b9 27       		.uleb128 0x27
 4402 00ba 19       		.uleb128 0x19
ARM GAS  C:\Users\Alan\AppData\Local\Temp\ccTIy4ty.s 			page 121


 4403 00bb 11       		.uleb128 0x11
 4404 00bc 01       		.uleb128 0x1
 4405 00bd 12       		.uleb128 0x12
 4406 00be 06       		.uleb128 0x6
 4407 00bf 40       		.uleb128 0x40
 4408 00c0 18       		.uleb128 0x18
 4409 00c1 9742     		.uleb128 0x2117
 4410 00c3 19       		.uleb128 0x19
 4411 00c4 01       		.uleb128 0x1
 4412 00c5 13       		.uleb128 0x13
 4413 00c6 00       		.byte	0
 4414 00c7 00       		.byte	0
 4415 00c8 10       		.uleb128 0x10
 4416 00c9 34       		.uleb128 0x34
 4417 00ca 00       		.byte	0
 4418 00cb 03       		.uleb128 0x3
 4419 00cc 0E       		.uleb128 0xe
 4420 00cd 3A       		.uleb128 0x3a
 4421 00ce 0B       		.uleb128 0xb
 4422 00cf 3B       		.uleb128 0x3b
 4423 00d0 05       		.uleb128 0x5
 4424 00d1 49       		.uleb128 0x49
 4425 00d2 13       		.uleb128 0x13
 4426 00d3 02       		.uleb128 0x2
 4427 00d4 17       		.uleb128 0x17
 4428 00d5 00       		.byte	0
 4429 00d6 00       		.byte	0
 4430 00d7 11       		.uleb128 0x11
 4431 00d8 898201   		.uleb128 0x4109
 4432 00db 00       		.byte	0
 4433 00dc 11       		.uleb128 0x11
 4434 00dd 01       		.uleb128 0x1
 4435 00de 31       		.uleb128 0x31
 4436 00df 13       		.uleb128 0x13
 4437 00e0 00       		.byte	0
 4438 00e1 00       		.byte	0
 4439 00e2 12       		.uleb128 0x12
 4440 00e3 2E       		.uleb128 0x2e
 4441 00e4 00       		.byte	0
 4442 00e5 3F       		.uleb128 0x3f
 4443 00e6 19       		.uleb128 0x19
 4444 00e7 03       		.uleb128 0x3
 4445 00e8 0E       		.uleb128 0xe
 4446 00e9 3A       		.uleb128 0x3a
 4447 00ea 0B       		.uleb128 0xb
 4448 00eb 3B       		.uleb128 0x3b
 4449 00ec 05       		.uleb128 0x5
 4450 00ed 27       		.uleb128 0x27
 4451 00ee 19       		.uleb128 0x19
 4452 00ef 49       		.uleb128 0x49
 4453 00f0 13       		.uleb128 0x13
 4454 00f1 11       		.uleb128 0x11
 4455 00f2 01       		.uleb128 0x1
 4456 00f3 12       		.uleb128 0x12
 4457 00f4 06       		.uleb128 0x6
 4458 00f5 40       		.uleb128 0x40
 4459 00f6 18       		.uleb128 0x18
ARM GAS  C:\Users\Alan\AppData\Local\Temp\ccTIy4ty.s 			page 122


 4460 00f7 9742     		.uleb128 0x2117
 4461 00f9 19       		.uleb128 0x19
 4462 00fa 00       		.byte	0
 4463 00fb 00       		.byte	0
 4464 00fc 13       		.uleb128 0x13
 4465 00fd 2E       		.uleb128 0x2e
 4466 00fe 01       		.byte	0x1
 4467 00ff 3F       		.uleb128 0x3f
 4468 0100 19       		.uleb128 0x19
 4469 0101 03       		.uleb128 0x3
 4470 0102 0E       		.uleb128 0xe
 4471 0103 3A       		.uleb128 0x3a
 4472 0104 0B       		.uleb128 0xb
 4473 0105 3B       		.uleb128 0x3b
 4474 0106 05       		.uleb128 0x5
 4475 0107 27       		.uleb128 0x27
 4476 0108 19       		.uleb128 0x19
 4477 0109 49       		.uleb128 0x49
 4478 010a 13       		.uleb128 0x13
 4479 010b 11       		.uleb128 0x11
 4480 010c 01       		.uleb128 0x1
 4481 010d 12       		.uleb128 0x12
 4482 010e 06       		.uleb128 0x6
 4483 010f 40       		.uleb128 0x40
 4484 0110 18       		.uleb128 0x18
 4485 0111 9742     		.uleb128 0x2117
 4486 0113 19       		.uleb128 0x19
 4487 0114 01       		.uleb128 0x1
 4488 0115 13       		.uleb128 0x13
 4489 0116 00       		.byte	0
 4490 0117 00       		.byte	0
 4491 0118 14       		.uleb128 0x14
 4492 0119 05       		.uleb128 0x5
 4493 011a 00       		.byte	0
 4494 011b 03       		.uleb128 0x3
 4495 011c 0E       		.uleb128 0xe
 4496 011d 3A       		.uleb128 0x3a
 4497 011e 0B       		.uleb128 0xb
 4498 011f 3B       		.uleb128 0x3b
 4499 0120 05       		.uleb128 0x5
 4500 0121 49       		.uleb128 0x49
 4501 0122 13       		.uleb128 0x13
 4502 0123 02       		.uleb128 0x2
 4503 0124 17       		.uleb128 0x17
 4504 0125 00       		.byte	0
 4505 0126 00       		.byte	0
 4506 0127 15       		.uleb128 0x15
 4507 0128 05       		.uleb128 0x5
 4508 0129 00       		.byte	0
 4509 012a 03       		.uleb128 0x3
 4510 012b 0E       		.uleb128 0xe
 4511 012c 3A       		.uleb128 0x3a
 4512 012d 0B       		.uleb128 0xb
 4513 012e 3B       		.uleb128 0x3b
 4514 012f 05       		.uleb128 0x5
 4515 0130 49       		.uleb128 0x49
 4516 0131 13       		.uleb128 0x13
ARM GAS  C:\Users\Alan\AppData\Local\Temp\ccTIy4ty.s 			page 123


 4517 0132 02       		.uleb128 0x2
 4518 0133 18       		.uleb128 0x18
 4519 0134 00       		.byte	0
 4520 0135 00       		.byte	0
 4521 0136 16       		.uleb128 0x16
 4522 0137 34       		.uleb128 0x34
 4523 0138 00       		.byte	0
 4524 0139 03       		.uleb128 0x3
 4525 013a 0E       		.uleb128 0xe
 4526 013b 3A       		.uleb128 0x3a
 4527 013c 0B       		.uleb128 0xb
 4528 013d 3B       		.uleb128 0x3b
 4529 013e 05       		.uleb128 0x5
 4530 013f 49       		.uleb128 0x49
 4531 0140 13       		.uleb128 0x13
 4532 0141 02       		.uleb128 0x2
 4533 0142 18       		.uleb128 0x18
 4534 0143 00       		.byte	0
 4535 0144 00       		.byte	0
 4536 0145 17       		.uleb128 0x17
 4537 0146 34       		.uleb128 0x34
 4538 0147 00       		.byte	0
 4539 0148 03       		.uleb128 0x3
 4540 0149 0E       		.uleb128 0xe
 4541 014a 3A       		.uleb128 0x3a
 4542 014b 0B       		.uleb128 0xb
 4543 014c 3B       		.uleb128 0x3b
 4544 014d 0B       		.uleb128 0xb
 4545 014e 49       		.uleb128 0x49
 4546 014f 13       		.uleb128 0x13
 4547 0150 3F       		.uleb128 0x3f
 4548 0151 19       		.uleb128 0x19
 4549 0152 02       		.uleb128 0x2
 4550 0153 18       		.uleb128 0x18
 4551 0154 00       		.byte	0
 4552 0155 00       		.byte	0
 4553 0156 18       		.uleb128 0x18
 4554 0157 01       		.uleb128 0x1
 4555 0158 01       		.byte	0x1
 4556 0159 49       		.uleb128 0x49
 4557 015a 13       		.uleb128 0x13
 4558 015b 01       		.uleb128 0x1
 4559 015c 13       		.uleb128 0x13
 4560 015d 00       		.byte	0
 4561 015e 00       		.byte	0
 4562 015f 19       		.uleb128 0x19
 4563 0160 21       		.uleb128 0x21
 4564 0161 00       		.byte	0
 4565 0162 49       		.uleb128 0x49
 4566 0163 13       		.uleb128 0x13
 4567 0164 2F       		.uleb128 0x2f
 4568 0165 0B       		.uleb128 0xb
 4569 0166 00       		.byte	0
 4570 0167 00       		.byte	0
 4571 0168 1A       		.uleb128 0x1a
 4572 0169 34       		.uleb128 0x34
 4573 016a 00       		.byte	0
ARM GAS  C:\Users\Alan\AppData\Local\Temp\ccTIy4ty.s 			page 124


 4574 016b 03       		.uleb128 0x3
 4575 016c 0E       		.uleb128 0xe
 4576 016d 3A       		.uleb128 0x3a
 4577 016e 0B       		.uleb128 0xb
 4578 016f 3B       		.uleb128 0x3b
 4579 0170 05       		.uleb128 0x5
 4580 0171 49       		.uleb128 0x49
 4581 0172 13       		.uleb128 0x13
 4582 0173 3F       		.uleb128 0x3f
 4583 0174 19       		.uleb128 0x19
 4584 0175 3C       		.uleb128 0x3c
 4585 0176 19       		.uleb128 0x19
 4586 0177 00       		.byte	0
 4587 0178 00       		.byte	0
 4588 0179 1B       		.uleb128 0x1b
 4589 017a 2E       		.uleb128 0x2e
 4590 017b 01       		.byte	0x1
 4591 017c 3F       		.uleb128 0x3f
 4592 017d 19       		.uleb128 0x19
 4593 017e 03       		.uleb128 0x3
 4594 017f 0E       		.uleb128 0xe
 4595 0180 3A       		.uleb128 0x3a
 4596 0181 0B       		.uleb128 0xb
 4597 0182 3B       		.uleb128 0x3b
 4598 0183 0B       		.uleb128 0xb
 4599 0184 27       		.uleb128 0x27
 4600 0185 19       		.uleb128 0x19
 4601 0186 3C       		.uleb128 0x3c
 4602 0187 19       		.uleb128 0x19
 4603 0188 01       		.uleb128 0x1
 4604 0189 13       		.uleb128 0x13
 4605 018a 00       		.byte	0
 4606 018b 00       		.byte	0
 4607 018c 1C       		.uleb128 0x1c
 4608 018d 05       		.uleb128 0x5
 4609 018e 00       		.byte	0
 4610 018f 49       		.uleb128 0x49
 4611 0190 13       		.uleb128 0x13
 4612 0191 00       		.byte	0
 4613 0192 00       		.byte	0
 4614 0193 1D       		.uleb128 0x1d
 4615 0194 2E       		.uleb128 0x2e
 4616 0195 01       		.byte	0x1
 4617 0196 3F       		.uleb128 0x3f
 4618 0197 19       		.uleb128 0x19
 4619 0198 03       		.uleb128 0x3
 4620 0199 0E       		.uleb128 0xe
 4621 019a 3A       		.uleb128 0x3a
 4622 019b 0B       		.uleb128 0xb
 4623 019c 3B       		.uleb128 0x3b
 4624 019d 0B       		.uleb128 0xb
 4625 019e 27       		.uleb128 0x27
 4626 019f 19       		.uleb128 0x19
 4627 01a0 49       		.uleb128 0x49
 4628 01a1 13       		.uleb128 0x13
 4629 01a2 3C       		.uleb128 0x3c
 4630 01a3 19       		.uleb128 0x19
ARM GAS  C:\Users\Alan\AppData\Local\Temp\ccTIy4ty.s 			page 125


 4631 01a4 01       		.uleb128 0x1
 4632 01a5 13       		.uleb128 0x13
 4633 01a6 00       		.byte	0
 4634 01a7 00       		.byte	0
 4635 01a8 1E       		.uleb128 0x1e
 4636 01a9 2E       		.uleb128 0x2e
 4637 01aa 00       		.byte	0
 4638 01ab 3F       		.uleb128 0x3f
 4639 01ac 19       		.uleb128 0x19
 4640 01ad 03       		.uleb128 0x3
 4641 01ae 0E       		.uleb128 0xe
 4642 01af 3A       		.uleb128 0x3a
 4643 01b0 0B       		.uleb128 0xb
 4644 01b1 3B       		.uleb128 0x3b
 4645 01b2 0B       		.uleb128 0xb
 4646 01b3 27       		.uleb128 0x27
 4647 01b4 19       		.uleb128 0x19
 4648 01b5 3C       		.uleb128 0x3c
 4649 01b6 19       		.uleb128 0x19
 4650 01b7 00       		.byte	0
 4651 01b8 00       		.byte	0
 4652 01b9 1F       		.uleb128 0x1f
 4653 01ba 2E       		.uleb128 0x2e
 4654 01bb 00       		.byte	0
 4655 01bc 3F       		.uleb128 0x3f
 4656 01bd 19       		.uleb128 0x19
 4657 01be 03       		.uleb128 0x3
 4658 01bf 0E       		.uleb128 0xe
 4659 01c0 3A       		.uleb128 0x3a
 4660 01c1 0B       		.uleb128 0xb
 4661 01c2 3B       		.uleb128 0x3b
 4662 01c3 0B       		.uleb128 0xb
 4663 01c4 27       		.uleb128 0x27
 4664 01c5 19       		.uleb128 0x19
 4665 01c6 49       		.uleb128 0x49
 4666 01c7 13       		.uleb128 0x13
 4667 01c8 3C       		.uleb128 0x3c
 4668 01c9 19       		.uleb128 0x19
 4669 01ca 00       		.byte	0
 4670 01cb 00       		.byte	0
 4671 01cc 20       		.uleb128 0x20
 4672 01cd 2E       		.uleb128 0x2e
 4673 01ce 00       		.byte	0
 4674 01cf 3F       		.uleb128 0x3f
 4675 01d0 19       		.uleb128 0x19
 4676 01d1 03       		.uleb128 0x3
 4677 01d2 0E       		.uleb128 0xe
 4678 01d3 3A       		.uleb128 0x3a
 4679 01d4 0B       		.uleb128 0xb
 4680 01d5 3B       		.uleb128 0x3b
 4681 01d6 05       		.uleb128 0x5
 4682 01d7 27       		.uleb128 0x27
 4683 01d8 19       		.uleb128 0x19
 4684 01d9 3C       		.uleb128 0x3c
 4685 01da 19       		.uleb128 0x19
 4686 01db 00       		.byte	0
 4687 01dc 00       		.byte	0
ARM GAS  C:\Users\Alan\AppData\Local\Temp\ccTIy4ty.s 			page 126


 4688 01dd 21       		.uleb128 0x21
 4689 01de 2E       		.uleb128 0x2e
 4690 01df 01       		.byte	0x1
 4691 01e0 3F       		.uleb128 0x3f
 4692 01e1 19       		.uleb128 0x19
 4693 01e2 03       		.uleb128 0x3
 4694 01e3 0E       		.uleb128 0xe
 4695 01e4 3A       		.uleb128 0x3a
 4696 01e5 0B       		.uleb128 0xb
 4697 01e6 3B       		.uleb128 0x3b
 4698 01e7 0B       		.uleb128 0xb
 4699 01e8 27       		.uleb128 0x27
 4700 01e9 19       		.uleb128 0x19
 4701 01ea 3C       		.uleb128 0x3c
 4702 01eb 19       		.uleb128 0x19
 4703 01ec 00       		.byte	0
 4704 01ed 00       		.byte	0
 4705 01ee 00       		.byte	0
 4706              		.section	.debug_loc,"",%progbits
 4707              	.Ldebug_loc0:
 4708              	.LLST0:
 4709 0000 0C000000 		.4byte	.LVL0
 4710 0004 10000000 		.4byte	.LVL1
 4711 0008 0100     		.2byte	0x1
 4712 000a 53       		.byte	0x53
 4713 000b 12000000 		.4byte	.LVL2
 4714 000f 1C000000 		.4byte	.LVL3
 4715 0013 0100     		.2byte	0x1
 4716 0015 51       		.byte	0x51
 4717 0016 1C000000 		.4byte	.LVL3
 4718 001a 20000000 		.4byte	.LVL4
 4719 001e 0100     		.2byte	0x1
 4720 0020 53       		.byte	0x53
 4721 0021 22000000 		.4byte	.LVL5
 4722 0025 28000000 		.4byte	.LVL6
 4723 0029 0100     		.2byte	0x1
 4724 002b 52       		.byte	0x52
 4725 002c 28000000 		.4byte	.LVL6
 4726 0030 2E000000 		.4byte	.LVL7
 4727 0034 0100     		.2byte	0x1
 4728 0036 53       		.byte	0x53
 4729 0037 2E000000 		.4byte	.LVL7
 4730 003b 30000000 		.4byte	.LVL8
 4731 003f 0200     		.2byte	0x2
 4732 0041 74       		.byte	0x74
 4733 0042 00       		.sleb128 0
 4734 0043 3A000000 		.4byte	.LVL9
 4735 0047 47000000 		.4byte	.LVL12-1
 4736 004b 0100     		.2byte	0x1
 4737 004d 53       		.byte	0x53
 4738 004e 00000000 		.4byte	0
 4739 0052 00000000 		.4byte	0
 4740              	.LLST1:
 4741 0056 2A000000 		.4byte	.LVL21
 4742 005a 35000000 		.4byte	.LVL23-1
 4743 005e 0100     		.2byte	0x1
 4744 0060 53       		.byte	0x53
ARM GAS  C:\Users\Alan\AppData\Local\Temp\ccTIy4ty.s 			page 127


 4745 0061 00000000 		.4byte	0
 4746 0065 00000000 		.4byte	0
 4747              	.LLST2:
 4748 0069 00000000 		.4byte	.LVL27
 4749 006d 02000000 		.4byte	.LVL28
 4750 0071 0100     		.2byte	0x1
 4751 0073 50       		.byte	0x50
 4752 0074 02000000 		.4byte	.LVL28
 4753 0078 10000000 		.4byte	.LFE45
 4754 007c 0400     		.2byte	0x4
 4755 007e F3       		.byte	0xf3
 4756 007f 01       		.uleb128 0x1
 4757 0080 50       		.byte	0x50
 4758 0081 9F       		.byte	0x9f
 4759 0082 00000000 		.4byte	0
 4760 0086 00000000 		.4byte	0
 4761              	.LLST3:
 4762 008a 00000000 		.4byte	.LVL29
 4763 008e 02000000 		.4byte	.LVL30
 4764 0092 0100     		.2byte	0x1
 4765 0094 50       		.byte	0x50
 4766 0095 02000000 		.4byte	.LVL30
 4767 0099 10000000 		.4byte	.LFE46
 4768 009d 0400     		.2byte	0x4
 4769 009f F3       		.byte	0xf3
 4770 00a0 01       		.uleb128 0x1
 4771 00a1 50       		.byte	0x50
 4772 00a2 9F       		.byte	0x9f
 4773 00a3 00000000 		.4byte	0
 4774 00a7 00000000 		.4byte	0
 4775              	.LLST4:
 4776 00ab 00000000 		.4byte	.LVL31
 4777 00af 02000000 		.4byte	.LVL32
 4778 00b3 0100     		.2byte	0x1
 4779 00b5 50       		.byte	0x50
 4780 00b6 02000000 		.4byte	.LVL32
 4781 00ba 0C000000 		.4byte	.LFE47
 4782 00be 0400     		.2byte	0x4
 4783 00c0 F3       		.byte	0xf3
 4784 00c1 01       		.uleb128 0x1
 4785 00c2 50       		.byte	0x50
 4786 00c3 9F       		.byte	0x9f
 4787 00c4 00000000 		.4byte	0
 4788 00c8 00000000 		.4byte	0
 4789              	.LLST5:
 4790 00cc 00000000 		.4byte	.LVL33
 4791 00d0 02000000 		.4byte	.LVL34
 4792 00d4 0100     		.2byte	0x1
 4793 00d6 50       		.byte	0x50
 4794 00d7 02000000 		.4byte	.LVL34
 4795 00db 0C000000 		.4byte	.LFE48
 4796 00df 0400     		.2byte	0x4
 4797 00e1 F3       		.byte	0xf3
 4798 00e2 01       		.uleb128 0x1
 4799 00e3 50       		.byte	0x50
 4800 00e4 9F       		.byte	0x9f
 4801 00e5 00000000 		.4byte	0
ARM GAS  C:\Users\Alan\AppData\Local\Temp\ccTIy4ty.s 			page 128


 4802 00e9 00000000 		.4byte	0
 4803              	.LLST6:
 4804 00ed 00000000 		.4byte	.LVL35
 4805 00f1 08000000 		.4byte	.LVL37
 4806 00f5 0100     		.2byte	0x1
 4807 00f7 50       		.byte	0x50
 4808 00f8 08000000 		.4byte	.LVL37
 4809 00fc 48000000 		.4byte	.LFE50
 4810 0100 0400     		.2byte	0x4
 4811 0102 F3       		.byte	0xf3
 4812 0103 01       		.uleb128 0x1
 4813 0104 50       		.byte	0x50
 4814 0105 9F       		.byte	0x9f
 4815 0106 00000000 		.4byte	0
 4816 010a 00000000 		.4byte	0
 4817              	.LLST7:
 4818 010e 10000000 		.4byte	.LVL38
 4819 0112 40000000 		.4byte	.LVL48
 4820 0116 0100     		.2byte	0x1
 4821 0118 55       		.byte	0x55
 4822 0119 40000000 		.4byte	.LVL48
 4823 011d 40000000 		.4byte	.LVL49
 4824 0121 1E00     		.2byte	0x1e
 4825 0123 77       		.byte	0x77
 4826 0124 00       		.sleb128 0
 4827 0125 F3       		.byte	0xf3
 4828 0126 01       		.uleb128 0x1
 4829 0127 50       		.byte	0x50
 4830 0128 22       		.byte	0x22
 4831 0129 23       		.byte	0x23
 4832 012a 08       		.uleb128 0x8
 4833 012b 94       		.byte	0x94
 4834 012c 01       		.byte	0x1
 4835 012d 08       		.byte	0x8
 4836 012e FF       		.byte	0xff
 4837 012f 1A       		.byte	0x1a
 4838 0130 31       		.byte	0x31
 4839 0131 24       		.byte	0x24
 4840 0132 77       		.byte	0x77
 4841 0133 00       		.sleb128 0
 4842 0134 F3       		.byte	0xf3
 4843 0135 01       		.uleb128 0x1
 4844 0136 50       		.byte	0x50
 4845 0137 22       		.byte	0x22
 4846 0138 23       		.byte	0x23
 4847 0139 08       		.uleb128 0x8
 4848 013a 94       		.byte	0x94
 4849 013b 01       		.byte	0x1
 4850 013c 08       		.byte	0x8
 4851 013d FF       		.byte	0xff
 4852 013e 1A       		.byte	0x1a
 4853 013f 22       		.byte	0x22
 4854 0140 9F       		.byte	0x9f
 4855 0141 40000000 		.4byte	.LVL49
 4856 0145 48000000 		.4byte	.LFE50
 4857 0149 2000     		.2byte	0x20
 4858 014b F3       		.byte	0xf3
ARM GAS  C:\Users\Alan\AppData\Local\Temp\ccTIy4ty.s 			page 129


 4859 014c 01       		.uleb128 0x1
 4860 014d 50       		.byte	0x50
 4861 014e 03       		.byte	0x3
 4862 014f 08000000 		.4byte	.LANCHOR2+8
 4863 0153 22       		.byte	0x22
 4864 0154 94       		.byte	0x94
 4865 0155 01       		.byte	0x1
 4866 0156 08       		.byte	0x8
 4867 0157 FF       		.byte	0xff
 4868 0158 1A       		.byte	0x1a
 4869 0159 31       		.byte	0x31
 4870 015a 24       		.byte	0x24
 4871 015b F3       		.byte	0xf3
 4872 015c 01       		.uleb128 0x1
 4873 015d 50       		.byte	0x50
 4874 015e 03       		.byte	0x3
 4875 015f 08000000 		.4byte	.LANCHOR2+8
 4876 0163 22       		.byte	0x22
 4877 0164 94       		.byte	0x94
 4878 0165 01       		.byte	0x1
 4879 0166 08       		.byte	0x8
 4880 0167 FF       		.byte	0xff
 4881 0168 1A       		.byte	0x1a
 4882 0169 22       		.byte	0x22
 4883 016a 9F       		.byte	0x9f
 4884 016b 00000000 		.4byte	0
 4885 016f 00000000 		.4byte	0
 4886              	.LLST8:
 4887 0173 14000000 		.4byte	.LVL39
 4888 0177 30000000 		.4byte	.LVL46
 4889 017b 0100     		.2byte	0x1
 4890 017d 56       		.byte	0x56
 4891 017e 30000000 		.4byte	.LVL46
 4892 0182 40000000 		.4byte	.LVL49
 4893 0186 0D00     		.2byte	0xd
 4894 0188 77       		.byte	0x77
 4895 0189 00       		.sleb128 0
 4896 018a F3       		.byte	0xf3
 4897 018b 01       		.uleb128 0x1
 4898 018c 50       		.byte	0x50
 4899 018d 22       		.byte	0x22
 4900 018e 23       		.byte	0x23
 4901 018f 08       		.uleb128 0x8
 4902 0190 94       		.byte	0x94
 4903 0191 01       		.byte	0x1
 4904 0192 32       		.byte	0x32
 4905 0193 24       		.byte	0x24
 4906 0194 9F       		.byte	0x9f
 4907 0195 40000000 		.4byte	.LVL49
 4908 0199 48000000 		.4byte	.LFE50
 4909 019d 0E00     		.2byte	0xe
 4910 019f F3       		.byte	0xf3
 4911 01a0 01       		.uleb128 0x1
 4912 01a1 50       		.byte	0x50
 4913 01a2 03       		.byte	0x3
 4914 01a3 08000000 		.4byte	.LANCHOR2+8
 4915 01a7 22       		.byte	0x22
ARM GAS  C:\Users\Alan\AppData\Local\Temp\ccTIy4ty.s 			page 130


 4916 01a8 94       		.byte	0x94
 4917 01a9 01       		.byte	0x1
 4918 01aa 32       		.byte	0x32
 4919 01ab 24       		.byte	0x24
 4920 01ac 9F       		.byte	0x9f
 4921 01ad 00000000 		.4byte	0
 4922 01b1 00000000 		.4byte	0
 4923              	.LLST9:
 4924 01b5 18000000 		.4byte	.LVL40
 4925 01b9 3F000000 		.4byte	.LVL47-1
 4926 01bd 0100     		.2byte	0x1
 4927 01bf 50       		.byte	0x50
 4928 01c0 00000000 		.4byte	0
 4929 01c4 00000000 		.4byte	0
 4930              	.LLST10:
 4931 01c8 20000000 		.4byte	.LVL42
 4932 01cc 26000000 		.4byte	.LVL43
 4933 01d0 0100     		.2byte	0x1
 4934 01d2 52       		.byte	0x52
 4935 01d3 28000000 		.4byte	.LVL44
 4936 01d7 2E000000 		.4byte	.LVL45
 4937 01db 0100     		.2byte	0x1
 4938 01dd 51       		.byte	0x51
 4939 01de 2E000000 		.4byte	.LVL45
 4940 01e2 3F000000 		.4byte	.LVL47-1
 4941 01e6 0100     		.2byte	0x1
 4942 01e8 52       		.byte	0x52
 4943 01e9 00000000 		.4byte	0
 4944 01ed 00000000 		.4byte	0
 4945              	.LLST11:
 4946 01f1 06000000 		.4byte	.LVL36
 4947 01f5 1A000000 		.4byte	.LVL41
 4948 01f9 0100     		.2byte	0x1
 4949 01fb 54       		.byte	0x54
 4950 01fc 1A000000 		.4byte	.LVL41
 4951 0200 40000000 		.4byte	.LVL49
 4952 0204 0C00     		.2byte	0xc
 4953 0206 77       		.byte	0x77
 4954 0207 00       		.sleb128 0
 4955 0208 F3       		.byte	0xf3
 4956 0209 01       		.uleb128 0x1
 4957 020a 50       		.byte	0x50
 4958 020b 22       		.byte	0x22
 4959 020c 94       		.byte	0x94
 4960 020d 01       		.byte	0x1
 4961 020e 08       		.byte	0x8
 4962 020f FF       		.byte	0xff
 4963 0210 1A       		.byte	0x1a
 4964 0211 9F       		.byte	0x9f
 4965 0212 40000000 		.4byte	.LVL49
 4966 0216 48000000 		.4byte	.LFE50
 4967 021a 0F00     		.2byte	0xf
 4968 021c F3       		.byte	0xf3
 4969 021d 01       		.uleb128 0x1
 4970 021e 50       		.byte	0x50
 4971 021f 03       		.byte	0x3
 4972 0220 00000000 		.4byte	.LANCHOR2
ARM GAS  C:\Users\Alan\AppData\Local\Temp\ccTIy4ty.s 			page 131


 4973 0224 22       		.byte	0x22
 4974 0225 94       		.byte	0x94
 4975 0226 01       		.byte	0x1
 4976 0227 08       		.byte	0x8
 4977 0228 FF       		.byte	0xff
 4978 0229 1A       		.byte	0x1a
 4979 022a 9F       		.byte	0x9f
 4980 022b 00000000 		.4byte	0
 4981 022f 00000000 		.4byte	0
 4982              	.LLST12:
 4983 0233 00000000 		.4byte	.LVL50
 4984 0237 18000000 		.4byte	.LVL54
 4985 023b 0100     		.2byte	0x1
 4986 023d 50       		.byte	0x50
 4987 023e 18000000 		.4byte	.LVL54
 4988 0242 70000000 		.4byte	.LFE51
 4989 0246 0400     		.2byte	0x4
 4990 0248 F3       		.byte	0xf3
 4991 0249 01       		.uleb128 0x1
 4992 024a 50       		.byte	0x50
 4993 024b 9F       		.byte	0x9f
 4994 024c 00000000 		.4byte	0
 4995 0250 00000000 		.4byte	0
 4996              	.LLST13:
 4997 0254 3C000000 		.4byte	.LVL57
 4998 0258 59000000 		.4byte	.LVL64-1
 4999 025c 0100     		.2byte	0x1
 5000 025e 50       		.byte	0x50
 5001 025f 00000000 		.4byte	0
 5002 0263 00000000 		.4byte	0
 5003              	.LLST14:
 5004 0267 46000000 		.4byte	.LVL60
 5005 026b 4C000000 		.4byte	.LVL61
 5006 026f 0100     		.2byte	0x1
 5007 0271 53       		.byte	0x53
 5008 0272 4E000000 		.4byte	.LVL62
 5009 0276 54000000 		.4byte	.LVL63
 5010 027a 0100     		.2byte	0x1
 5011 027c 52       		.byte	0x52
 5012 027d 54000000 		.4byte	.LVL63
 5013 0281 59000000 		.4byte	.LVL64-1
 5014 0285 0100     		.2byte	0x1
 5015 0287 53       		.byte	0x53
 5016 0288 00000000 		.4byte	0
 5017 028c 00000000 		.4byte	0
 5018              	.LLST15:
 5019 0290 06000000 		.4byte	.LVL51
 5020 0294 3E000000 		.4byte	.LVL58
 5021 0298 0100     		.2byte	0x1
 5022 029a 54       		.byte	0x54
 5023 029b 3E000000 		.4byte	.LVL58
 5024 029f 40000000 		.4byte	.LVL59
 5025 02a3 0F00     		.2byte	0xf
 5026 02a5 F3       		.byte	0xf3
 5027 02a6 01       		.uleb128 0x1
 5028 02a7 50       		.byte	0x50
 5029 02a8 03       		.byte	0x3
ARM GAS  C:\Users\Alan\AppData\Local\Temp\ccTIy4ty.s 			page 132


 5030 02a9 00000000 		.4byte	.LANCHOR2
 5031 02ad 22       		.byte	0x22
 5032 02ae 94       		.byte	0x94
 5033 02af 01       		.byte	0x1
 5034 02b0 08       		.byte	0x8
 5035 02b1 FF       		.byte	0xff
 5036 02b2 1A       		.byte	0x1a
 5037 02b3 9F       		.byte	0x9f
 5038 02b4 40000000 		.4byte	.LVL59
 5039 02b8 46000000 		.4byte	.LVL60
 5040 02bc 0C00     		.2byte	0xc
 5041 02be 73       		.byte	0x73
 5042 02bf 00       		.sleb128 0
 5043 02c0 F3       		.byte	0xf3
 5044 02c1 01       		.uleb128 0x1
 5045 02c2 50       		.byte	0x50
 5046 02c3 22       		.byte	0x22
 5047 02c4 94       		.byte	0x94
 5048 02c5 01       		.byte	0x1
 5049 02c6 08       		.byte	0x8
 5050 02c7 FF       		.byte	0xff
 5051 02c8 1A       		.byte	0x1a
 5052 02c9 9F       		.byte	0x9f
 5053 02ca 46000000 		.4byte	.LVL60
 5054 02ce 70000000 		.4byte	.LFE51
 5055 02d2 0F00     		.2byte	0xf
 5056 02d4 F3       		.byte	0xf3
 5057 02d5 01       		.uleb128 0x1
 5058 02d6 50       		.byte	0x50
 5059 02d7 03       		.byte	0x3
 5060 02d8 00000000 		.4byte	.LANCHOR2
 5061 02dc 22       		.byte	0x22
 5062 02dd 94       		.byte	0x94
 5063 02de 01       		.byte	0x1
 5064 02df 08       		.byte	0x8
 5065 02e0 FF       		.byte	0xff
 5066 02e1 1A       		.byte	0x1a
 5067 02e2 9F       		.byte	0x9f
 5068 02e3 00000000 		.4byte	0
 5069 02e7 00000000 		.4byte	0
 5070              	.LLST16:
 5071 02eb 0E000000 		.4byte	.LVL52
 5072 02ef 3B000000 		.4byte	.LVL57-1
 5073 02f3 0100     		.2byte	0x1
 5074 02f5 52       		.byte	0x52
 5075 02f6 3B000000 		.4byte	.LVL57-1
 5076 02fa 66000000 		.4byte	.LVL66
 5077 02fe 0500     		.2byte	0x5
 5078 0300 76       		.byte	0x76
 5079 0301 00       		.sleb128 0
 5080 0302 32       		.byte	0x32
 5081 0303 24       		.byte	0x24
 5082 0304 9F       		.byte	0x9f
 5083 0305 66000000 		.4byte	.LVL66
 5084 0309 70000000 		.4byte	.LFE51
 5085 030d 0E00     		.2byte	0xe
 5086 030f F3       		.byte	0xf3
ARM GAS  C:\Users\Alan\AppData\Local\Temp\ccTIy4ty.s 			page 133


 5087 0310 01       		.uleb128 0x1
 5088 0311 50       		.byte	0x50
 5089 0312 03       		.byte	0x3
 5090 0313 08000000 		.4byte	.LANCHOR2+8
 5091 0317 22       		.byte	0x22
 5092 0318 94       		.byte	0x94
 5093 0319 01       		.byte	0x1
 5094 031a 32       		.byte	0x32
 5095 031b 24       		.byte	0x24
 5096 031c 9F       		.byte	0x9f
 5097 031d 00000000 		.4byte	0
 5098 0321 00000000 		.4byte	0
 5099              	.LLST17:
 5100 0325 14000000 		.4byte	.LVL53
 5101 0329 66000000 		.4byte	.LVL65
 5102 032d 0100     		.2byte	0x1
 5103 032f 55       		.byte	0x55
 5104 0330 66000000 		.4byte	.LVL65
 5105 0334 66000000 		.4byte	.LVL66
 5106 0338 0800     		.2byte	0x8
 5107 033a 76       		.byte	0x76
 5108 033b 00       		.sleb128 0
 5109 033c 31       		.byte	0x31
 5110 033d 24       		.byte	0x24
 5111 033e 76       		.byte	0x76
 5112 033f 00       		.sleb128 0
 5113 0340 22       		.byte	0x22
 5114 0341 9F       		.byte	0x9f
 5115 0342 66000000 		.4byte	.LVL66
 5116 0346 70000000 		.4byte	.LFE51
 5117 034a 2000     		.2byte	0x20
 5118 034c F3       		.byte	0xf3
 5119 034d 01       		.uleb128 0x1
 5120 034e 50       		.byte	0x50
 5121 034f 03       		.byte	0x3
 5122 0350 08000000 		.4byte	.LANCHOR2+8
 5123 0354 22       		.byte	0x22
 5124 0355 94       		.byte	0x94
 5125 0356 01       		.byte	0x1
 5126 0357 08       		.byte	0x8
 5127 0358 FF       		.byte	0xff
 5128 0359 1A       		.byte	0x1a
 5129 035a 31       		.byte	0x31
 5130 035b 24       		.byte	0x24
 5131 035c F3       		.byte	0xf3
 5132 035d 01       		.uleb128 0x1
 5133 035e 50       		.byte	0x50
 5134 035f 03       		.byte	0x3
 5135 0360 08000000 		.4byte	.LANCHOR2+8
 5136 0364 22       		.byte	0x22
 5137 0365 94       		.byte	0x94
 5138 0366 01       		.byte	0x1
 5139 0367 08       		.byte	0x8
 5140 0368 FF       		.byte	0xff
 5141 0369 1A       		.byte	0x1a
 5142 036a 22       		.byte	0x22
 5143 036b 9F       		.byte	0x9f
ARM GAS  C:\Users\Alan\AppData\Local\Temp\ccTIy4ty.s 			page 134


 5144 036c 00000000 		.4byte	0
 5145 0370 00000000 		.4byte	0
 5146              	.LLST18:
 5147 0374 14000000 		.4byte	.LVL53
 5148 0378 38000000 		.4byte	.LVL56
 5149 037c 0200     		.2byte	0x2
 5150 037e 30       		.byte	0x30
 5151 037f 9F       		.byte	0x9f
 5152 0380 38000000 		.4byte	.LVL56
 5153 0384 66000000 		.4byte	.LVL67
 5154 0388 0100     		.2byte	0x1
 5155 038a 57       		.byte	0x57
 5156 038b 00000000 		.4byte	0
 5157 038f 00000000 		.4byte	0
 5158              	.LLST19:
 5159 0393 18000000 		.4byte	.LVL54
 5160 0397 3B000000 		.4byte	.LVL57-1
 5161 039b 0100     		.2byte	0x1
 5162 039d 50       		.byte	0x50
 5163 039e 00000000 		.4byte	0
 5164 03a2 00000000 		.4byte	0
 5165              	.LLST20:
 5166 03a6 02000000 		.4byte	.LVL68
 5167 03aa 06000000 		.4byte	.LVL69
 5168 03ae 0200     		.2byte	0x2
 5169 03b0 30       		.byte	0x30
 5170 03b1 9F       		.byte	0x9f
 5171 03b2 06000000 		.4byte	.LVL69
 5172 03b6 12000000 		.4byte	.LVL72
 5173 03ba 0100     		.2byte	0x1
 5174 03bc 54       		.byte	0x54
 5175 03bd 00000000 		.4byte	0
 5176 03c1 00000000 		.4byte	0
 5177              	.LLST21:
 5178 03c5 00000000 		.4byte	.LVL73
 5179 03c9 18000000 		.4byte	.LVL78
 5180 03cd 0100     		.2byte	0x1
 5181 03cf 50       		.byte	0x50
 5182 03d0 18000000 		.4byte	.LVL78
 5183 03d4 24000000 		.4byte	.LFE54
 5184 03d8 0400     		.2byte	0x4
 5185 03da F3       		.byte	0xf3
 5186 03db 01       		.uleb128 0x1
 5187 03dc 50       		.byte	0x50
 5188 03dd 9F       		.byte	0x9f
 5189 03de 00000000 		.4byte	0
 5190 03e2 00000000 		.4byte	0
 5191              	.LLST22:
 5192 03e6 00000000 		.4byte	.LVL73
 5193 03ea 06000000 		.4byte	.LVL74
 5194 03ee 0100     		.2byte	0x1
 5195 03f0 51       		.byte	0x51
 5196 03f1 06000000 		.4byte	.LVL74
 5197 03f5 24000000 		.4byte	.LFE54
 5198 03f9 0400     		.2byte	0x4
 5199 03fb F3       		.byte	0xf3
 5200 03fc 01       		.uleb128 0x1
ARM GAS  C:\Users\Alan\AppData\Local\Temp\ccTIy4ty.s 			page 135


 5201 03fd 51       		.byte	0x51
 5202 03fe 9F       		.byte	0x9f
 5203 03ff 00000000 		.4byte	0
 5204 0403 00000000 		.4byte	0
 5205              	.LLST23:
 5206 0407 00000000 		.4byte	.LVL73
 5207 040b 08000000 		.4byte	.LVL75
 5208 040f 0100     		.2byte	0x1
 5209 0411 52       		.byte	0x52
 5210 0412 08000000 		.4byte	.LVL75
 5211 0416 24000000 		.4byte	.LFE54
 5212 041a 0400     		.2byte	0x4
 5213 041c F3       		.byte	0xf3
 5214 041d 01       		.uleb128 0x1
 5215 041e 52       		.byte	0x52
 5216 041f 9F       		.byte	0x9f
 5217 0420 00000000 		.4byte	0
 5218 0424 00000000 		.4byte	0
 5219              	.LLST24:
 5220 0428 10000000 		.4byte	.LVL76
 5221 042c 1A000000 		.4byte	.LVL79
 5222 0430 0100     		.2byte	0x1
 5223 0432 53       		.byte	0x53
 5224 0433 1A000000 		.4byte	.LVL79
 5225 0437 24000000 		.4byte	.LFE54
 5226 043b 0100     		.2byte	0x1
 5227 043d 50       		.byte	0x50
 5228 043e 00000000 		.4byte	0
 5229 0442 00000000 		.4byte	0
 5230              	.LLST25:
 5231 0446 00000000 		.4byte	.LVL80
 5232 044a 08000000 		.4byte	.LVL82
 5233 044e 0100     		.2byte	0x1
 5234 0450 50       		.byte	0x50
 5235 0451 08000000 		.4byte	.LVL82
 5236 0455 28000000 		.4byte	.LVL90
 5237 0459 0100     		.2byte	0x1
 5238 045b 55       		.byte	0x55
 5239 045c 28000000 		.4byte	.LVL90
 5240 0460 30000000 		.4byte	.LFE52
 5241 0464 0400     		.2byte	0x4
 5242 0466 F3       		.byte	0xf3
 5243 0467 01       		.uleb128 0x1
 5244 0468 50       		.byte	0x50
 5245 0469 9F       		.byte	0x9f
 5246 046a 00000000 		.4byte	0
 5247 046e 00000000 		.4byte	0
 5248              	.LLST26:
 5249 0472 04000000 		.4byte	.LVL81
 5250 0476 08000000 		.4byte	.LVL82
 5251 047a 0200     		.2byte	0x2
 5252 047c 30       		.byte	0x30
 5253 047d 9F       		.byte	0x9f
 5254 047e 08000000 		.4byte	.LVL82
 5255 0482 18000000 		.4byte	.LVL86
 5256 0486 0100     		.2byte	0x1
 5257 0488 54       		.byte	0x54
ARM GAS  C:\Users\Alan\AppData\Local\Temp\ccTIy4ty.s 			page 136


 5258 0489 1A000000 		.4byte	.LVL87
 5259 048d 28000000 		.4byte	.LVL89
 5260 0491 0100     		.2byte	0x1
 5261 0493 54       		.byte	0x54
 5262 0494 00000000 		.4byte	0
 5263 0498 00000000 		.4byte	0
 5264              	.LLST27:
 5265 049c 0C000000 		.4byte	.LVL83
 5266 04a0 15000000 		.4byte	.LVL85-1
 5267 04a4 0100     		.2byte	0x1
 5268 04a6 52       		.byte	0x52
 5269 04a7 15000000 		.4byte	.LVL85-1
 5270 04ab 18000000 		.4byte	.LVL86
 5271 04af 0E00     		.2byte	0xe
 5272 04b1 74       		.byte	0x74
 5273 04b2 00       		.sleb128 0
 5274 04b3 03       		.byte	0x3
 5275 04b4 00000000 		.4byte	.LANCHOR2
 5276 04b8 22       		.byte	0x22
 5277 04b9 94       		.byte	0x94
 5278 04ba 01       		.byte	0x1
 5279 04bb 08       		.byte	0x8
 5280 04bc FF       		.byte	0xff
 5281 04bd 1A       		.byte	0x1a
 5282 04be 9F       		.byte	0x9f
 5283 04bf 18000000 		.4byte	.LVL86
 5284 04c3 1A000000 		.4byte	.LVL87
 5285 04c7 0E00     		.2byte	0xe
 5286 04c9 74       		.byte	0x74
 5287 04ca 00       		.sleb128 0
 5288 04cb 03       		.byte	0x3
 5289 04cc FFFFFFFF 		.4byte	.LANCHOR2-1
 5290 04d0 22       		.byte	0x22
 5291 04d1 94       		.byte	0x94
 5292 04d2 01       		.byte	0x1
 5293 04d3 08       		.byte	0x8
 5294 04d4 FF       		.byte	0xff
 5295 04d5 1A       		.byte	0x1a
 5296 04d6 9F       		.byte	0x9f
 5297 04d7 00000000 		.4byte	0
 5298 04db 00000000 		.4byte	0
 5299              	.LLST28:
 5300 04df 10000000 		.4byte	.LVL84
 5301 04e3 15000000 		.4byte	.LVL85-1
 5302 04e7 0100     		.2byte	0x1
 5303 04e9 51       		.byte	0x51
 5304 04ea 15000000 		.4byte	.LVL85-1
 5305 04ee 18000000 		.4byte	.LVL86
 5306 04f2 0E00     		.2byte	0xe
 5307 04f4 74       		.byte	0x74
 5308 04f5 00       		.sleb128 0
 5309 04f6 03       		.byte	0x3
 5310 04f7 08000000 		.4byte	.LANCHOR2+8
 5311 04fb 22       		.byte	0x22
 5312 04fc 94       		.byte	0x94
 5313 04fd 01       		.byte	0x1
 5314 04fe 08       		.byte	0x8
ARM GAS  C:\Users\Alan\AppData\Local\Temp\ccTIy4ty.s 			page 137


 5315 04ff FF       		.byte	0xff
 5316 0500 1A       		.byte	0x1a
 5317 0501 9F       		.byte	0x9f
 5318 0502 18000000 		.4byte	.LVL86
 5319 0506 1A000000 		.4byte	.LVL87
 5320 050a 0E00     		.2byte	0xe
 5321 050c 74       		.byte	0x74
 5322 050d 00       		.sleb128 0
 5323 050e 03       		.byte	0x3
 5324 050f 07000000 		.4byte	.LANCHOR2+7
 5325 0513 22       		.byte	0x22
 5326 0514 94       		.byte	0x94
 5327 0515 01       		.byte	0x1
 5328 0516 08       		.byte	0x8
 5329 0517 FF       		.byte	0xff
 5330 0518 1A       		.byte	0x1a
 5331 0519 9F       		.byte	0x9f
 5332 051a 00000000 		.4byte	0
 5333 051e 00000000 		.4byte	0
 5334              	.LLST29:
 5335 0522 00000000 		.4byte	.LVL95
 5336 0526 1E000000 		.4byte	.LVL98
 5337 052a 0100     		.2byte	0x1
 5338 052c 50       		.byte	0x50
 5339 052d 1E000000 		.4byte	.LVL98
 5340 0531 34000000 		.4byte	.LFE57
 5341 0535 0400     		.2byte	0x4
 5342 0537 F3       		.byte	0xf3
 5343 0538 01       		.uleb128 0x1
 5344 0539 50       		.byte	0x50
 5345 053a 9F       		.byte	0x9f
 5346 053b 00000000 		.4byte	0
 5347 053f 00000000 		.4byte	0
 5348              	.LLST30:
 5349 0543 00000000 		.4byte	.LVL95
 5350 0547 04000000 		.4byte	.LVL96
 5351 054b 0100     		.2byte	0x1
 5352 054d 51       		.byte	0x51
 5353 054e 04000000 		.4byte	.LVL96
 5354 0552 34000000 		.4byte	.LFE57
 5355 0556 0400     		.2byte	0x4
 5356 0558 F3       		.byte	0xf3
 5357 0559 01       		.uleb128 0x1
 5358 055a 51       		.byte	0x51
 5359 055b 9F       		.byte	0x9f
 5360 055c 00000000 		.4byte	0
 5361 0560 00000000 		.4byte	0
 5362              	.LLST31:
 5363 0564 1C000000 		.4byte	.LVL97
 5364 0568 2C000000 		.4byte	.LVL100
 5365 056c 0100     		.2byte	0x1
 5366 056e 53       		.byte	0x53
 5367 056f 2C000000 		.4byte	.LVL100
 5368 0573 34000000 		.4byte	.LFE57
 5369 0577 0100     		.2byte	0x1
 5370 0579 50       		.byte	0x50
 5371 057a 00000000 		.4byte	0
ARM GAS  C:\Users\Alan\AppData\Local\Temp\ccTIy4ty.s 			page 138


 5372 057e 00000000 		.4byte	0
 5373              	.LLST32:
 5374 0582 00000000 		.4byte	.LVL101
 5375 0586 04000000 		.4byte	.LVL102
 5376 058a 0100     		.2byte	0x1
 5377 058c 50       		.byte	0x50
 5378 058d 04000000 		.4byte	.LVL102
 5379 0591 0A000000 		.4byte	.LVL104
 5380 0595 0100     		.2byte	0x1
 5381 0597 50       		.byte	0x50
 5382 0598 0A000000 		.4byte	.LVL104
 5383 059c 14000000 		.4byte	.LFE58
 5384 05a0 0600     		.2byte	0x6
 5385 05a2 F3       		.byte	0xf3
 5386 05a3 01       		.uleb128 0x1
 5387 05a4 50       		.byte	0x50
 5388 05a5 33       		.byte	0x33
 5389 05a6 1A       		.byte	0x1a
 5390 05a7 9F       		.byte	0x9f
 5391 05a8 00000000 		.4byte	0
 5392 05ac 00000000 		.4byte	0
 5393              	.LLST33:
 5394 05b0 08000000 		.4byte	.LVL103
 5395 05b4 0C000000 		.4byte	.LVL105
 5396 05b8 0100     		.2byte	0x1
 5397 05ba 52       		.byte	0x52
 5398 05bb 0C000000 		.4byte	.LVL105
 5399 05bf 14000000 		.4byte	.LFE58
 5400 05c3 0100     		.2byte	0x1
 5401 05c5 50       		.byte	0x50
 5402 05c6 00000000 		.4byte	0
 5403 05ca 00000000 		.4byte	0
 5404              	.LLST34:
 5405 05ce 02000000 		.4byte	.LVL106
 5406 05d2 06000000 		.4byte	.LVL107
 5407 05d6 0200     		.2byte	0x2
 5408 05d8 30       		.byte	0x30
 5409 05d9 9F       		.byte	0x9f
 5410 05da 06000000 		.4byte	.LVL107
 5411 05de 15000000 		.4byte	.LVL109-1
 5412 05e2 0100     		.2byte	0x1
 5413 05e4 53       		.byte	0x53
 5414 05e5 00000000 		.4byte	0
 5415 05e9 00000000 		.4byte	0
 5416              	.LLST35:
 5417 05ed 00000000 		.4byte	.LVL115
 5418 05f1 14000000 		.4byte	.LVL119
 5419 05f5 0100     		.2byte	0x1
 5420 05f7 50       		.byte	0x50
 5421 05f8 14000000 		.4byte	.LVL119
 5422 05fc 16000000 		.4byte	.LVL120
 5423 0600 0400     		.2byte	0x4
 5424 0602 F3       		.byte	0xf3
 5425 0603 01       		.uleb128 0x1
 5426 0604 50       		.byte	0x50
 5427 0605 9F       		.byte	0x9f
 5428 0606 16000000 		.4byte	.LVL120
ARM GAS  C:\Users\Alan\AppData\Local\Temp\ccTIy4ty.s 			page 139


 5429 060a 18000000 		.4byte	.LVL121
 5430 060e 0100     		.2byte	0x1
 5431 0610 50       		.byte	0x50
 5432 0611 18000000 		.4byte	.LVL121
 5433 0615 1A000000 		.4byte	.LFE60
 5434 0619 0400     		.2byte	0x4
 5435 061b F3       		.byte	0xf3
 5436 061c 01       		.uleb128 0x1
 5437 061d 50       		.byte	0x50
 5438 061e 9F       		.byte	0x9f
 5439 061f 00000000 		.4byte	0
 5440 0623 00000000 		.4byte	0
 5441              	.LLST36:
 5442 0627 00000000 		.4byte	.LVL115
 5443 062b 06000000 		.4byte	.LVL117
 5444 062f 0100     		.2byte	0x1
 5445 0631 51       		.byte	0x51
 5446 0632 06000000 		.4byte	.LVL117
 5447 0636 1A000000 		.4byte	.LFE60
 5448 063a 0400     		.2byte	0x4
 5449 063c F3       		.byte	0xf3
 5450 063d 01       		.uleb128 0x1
 5451 063e 51       		.byte	0x51
 5452 063f 9F       		.byte	0x9f
 5453 0640 00000000 		.4byte	0
 5454 0644 00000000 		.4byte	0
 5455              	.LLST37:
 5456 0648 00000000 		.4byte	.LVL122
 5457 064c 04000000 		.4byte	.LVL123
 5458 0650 0100     		.2byte	0x1
 5459 0652 50       		.byte	0x50
 5460 0653 04000000 		.4byte	.LVL123
 5461 0657 06000000 		.4byte	.LVL124
 5462 065b 0100     		.2byte	0x1
 5463 065d 54       		.byte	0x54
 5464 065e 08000000 		.4byte	.LVL125
 5465 0662 1C000000 		.4byte	.LVL128
 5466 0666 0100     		.2byte	0x1
 5467 0668 54       		.byte	0x54
 5468 0669 1C000000 		.4byte	.LVL128
 5469 066d 24000000 		.4byte	.LFE40
 5470 0671 0100     		.2byte	0x1
 5471 0673 50       		.byte	0x50
 5472 0674 00000000 		.4byte	0
 5473 0678 00000000 		.4byte	0
 5474              	.LLST38:
 5475 067c 16000000 		.4byte	.LVL126
 5476 0680 1A000000 		.4byte	.LVL127
 5477 0684 0100     		.2byte	0x1
 5478 0686 50       		.byte	0x50
 5479 0687 00000000 		.4byte	0
 5480 068b 00000000 		.4byte	0
 5481              	.LLST39:
 5482 068f 00000000 		.4byte	.LVL129
 5483 0693 12000000 		.4byte	.LVL133
 5484 0697 0100     		.2byte	0x1
 5485 0699 50       		.byte	0x50
ARM GAS  C:\Users\Alan\AppData\Local\Temp\ccTIy4ty.s 			page 140


 5486 069a 12000000 		.4byte	.LVL133
 5487 069e BA000000 		.4byte	.LVL157
 5488 06a2 0100     		.2byte	0x1
 5489 06a4 54       		.byte	0x54
 5490 06a5 BA000000 		.4byte	.LVL157
 5491 06a9 0C010000 		.4byte	.LFE55
 5492 06ad 0400     		.2byte	0x4
 5493 06af F3       		.byte	0xf3
 5494 06b0 01       		.uleb128 0x1
 5495 06b1 50       		.byte	0x50
 5496 06b2 9F       		.byte	0x9f
 5497 06b3 00000000 		.4byte	0
 5498 06b7 00000000 		.4byte	0
 5499              	.LLST40:
 5500 06bb 0A000000 		.4byte	.LVL130
 5501 06bf 0C000000 		.4byte	.LVL131
 5502 06c3 0100     		.2byte	0x1
 5503 06c5 53       		.byte	0x53
 5504 06c6 0C000000 		.4byte	.LVL131
 5505 06ca 12000000 		.4byte	.LVL133
 5506 06ce 0800     		.2byte	0x8
 5507 06d0 70       		.byte	0x70
 5508 06d1 00       		.sleb128 0
 5509 06d2 03       		.byte	0x3
 5510 06d3 64000000 		.4byte	.LANCHOR2+100
 5511 06d7 22       		.byte	0x22
 5512 06d8 12000000 		.4byte	.LVL133
 5513 06dc BA000000 		.4byte	.LVL157
 5514 06e0 0800     		.2byte	0x8
 5515 06e2 74       		.byte	0x74
 5516 06e3 00       		.sleb128 0
 5517 06e4 03       		.byte	0x3
 5518 06e5 64000000 		.4byte	.LANCHOR2+100
 5519 06e9 22       		.byte	0x22
 5520 06ea BA000000 		.4byte	.LVL157
 5521 06ee 0C010000 		.4byte	.LFE55
 5522 06f2 0900     		.2byte	0x9
 5523 06f4 F3       		.byte	0xf3
 5524 06f5 01       		.uleb128 0x1
 5525 06f6 50       		.byte	0x50
 5526 06f7 03       		.byte	0x3
 5527 06f8 64000000 		.4byte	.LANCHOR2+100
 5528 06fc 22       		.byte	0x22
 5529 06fd 00000000 		.4byte	0
 5530 0701 00000000 		.4byte	0
 5531              	.LLST41:
 5532 0705 BA000000 		.4byte	.LVL157
 5533 0709 CC000000 		.4byte	.LVL160
 5534 070d 0100     		.2byte	0x1
 5535 070f 54       		.byte	0x54
 5536 0710 00000000 		.4byte	0
 5537 0714 00000000 		.4byte	0
 5538              	.LLST42:
 5539 0718 88000000 		.4byte	.LVL148
 5540 071c 9A000000 		.4byte	.LVL150
 5541 0720 0100     		.2byte	0x1
 5542 0722 52       		.byte	0x52
ARM GAS  C:\Users\Alan\AppData\Local\Temp\ccTIy4ty.s 			page 141


 5543 0723 9A000000 		.4byte	.LVL150
 5544 0727 A0000000 		.4byte	.LVL151
 5545 072b 0100     		.2byte	0x1
 5546 072d 53       		.byte	0x53
 5547 072e A0000000 		.4byte	.LVL151
 5548 0732 CC000000 		.4byte	.LVL161
 5549 0736 0100     		.2byte	0x1
 5550 0738 55       		.byte	0x55
 5551 0739 00000000 		.4byte	0
 5552 073d 00000000 		.4byte	0
 5553              	.LLST43:
 5554 0741 10000000 		.4byte	.LVL132
 5555 0745 CC000000 		.4byte	.LVL162
 5556 0749 0100     		.2byte	0x1
 5557 074b 56       		.byte	0x56
 5558 074c 00000000 		.4byte	0
 5559 0750 00000000 		.4byte	0
 5560              	.LLST44:
 5561 0754 18000000 		.4byte	.LVL134
 5562 0758 22000000 		.4byte	.LVL136
 5563 075c 0100     		.2byte	0x1
 5564 075e 50       		.byte	0x50
 5565 075f 00000000 		.4byte	0
 5566 0763 00000000 		.4byte	0
 5567              	.LLST45:
 5568 0767 00000000 		.4byte	.LVL163
 5569 076b 13000000 		.4byte	.LVL164-1
 5570 076f 0100     		.2byte	0x1
 5571 0771 50       		.byte	0x50
 5572 0772 13000000 		.4byte	.LVL164-1
 5573 0776 1C000000 		.4byte	.LFE41
 5574 077a 0400     		.2byte	0x4
 5575 077c F3       		.byte	0xf3
 5576 077d 01       		.uleb128 0x1
 5577 077e 50       		.byte	0x50
 5578 077f 9F       		.byte	0x9f
 5579 0780 00000000 		.4byte	0
 5580 0784 00000000 		.4byte	0
 5581              	.LLST46:
 5582 0788 00000000 		.4byte	.LVL167
 5583 078c 26000000 		.4byte	.LVL170
 5584 0790 0100     		.2byte	0x1
 5585 0792 50       		.byte	0x50
 5586 0793 26000000 		.4byte	.LVL170
 5587 0797 62000000 		.4byte	.LVL181
 5588 079b 0100     		.2byte	0x1
 5589 079d 55       		.byte	0x55
 5590 079e 62000000 		.4byte	.LVL181
 5591 07a2 8C000000 		.4byte	.LFE56
 5592 07a6 0400     		.2byte	0x4
 5593 07a8 F3       		.byte	0xf3
 5594 07a9 01       		.uleb128 0x1
 5595 07aa 50       		.byte	0x50
 5596 07ab 9F       		.byte	0x9f
 5597 07ac 00000000 		.4byte	0
 5598 07b0 00000000 		.4byte	0
 5599              	.LLST47:
ARM GAS  C:\Users\Alan\AppData\Local\Temp\ccTIy4ty.s 			page 142


 5600 07b4 46000000 		.4byte	.LVL175
 5601 07b8 4A000000 		.4byte	.LVL176
 5602 07bc 0100     		.2byte	0x1
 5603 07be 51       		.byte	0x51
 5604 07bf 4A000000 		.4byte	.LVL176
 5605 07c3 58000000 		.4byte	.LVL178
 5606 07c7 0100     		.2byte	0x1
 5607 07c9 53       		.byte	0x53
 5608 07ca 58000000 		.4byte	.LVL178
 5609 07ce 5C000000 		.4byte	.LVL179
 5610 07d2 0500     		.2byte	0x5
 5611 07d4 0C       		.byte	0xc
 5612 07d5 04002840 		.4byte	0x40280004
 5613 07d9 00000000 		.4byte	0
 5614 07dd 00000000 		.4byte	0
 5615              	.LLST48:
 5616 07e1 2C000000 		.4byte	.LVL171
 5617 07e5 36000000 		.4byte	.LVL172
 5618 07e9 0100     		.2byte	0x1
 5619 07eb 50       		.byte	0x50
 5620 07ec 00000000 		.4byte	0
 5621 07f0 00000000 		.4byte	0
 5622              	.LLST49:
 5623 07f4 18000000 		.4byte	.LVL168
 5624 07f8 1A000000 		.4byte	.LVL169
 5625 07fc 0100     		.2byte	0x1
 5626 07fe 53       		.byte	0x53
 5627 07ff 1A000000 		.4byte	.LVL169
 5628 0803 26000000 		.4byte	.LVL170
 5629 0807 0E00     		.2byte	0xe
 5630 0809 70       		.byte	0x70
 5631 080a 00       		.sleb128 0
 5632 080b 03       		.byte	0x3
 5633 080c 64000000 		.4byte	.LANCHOR2+100
 5634 0810 22       		.byte	0x22
 5635 0811 94       		.byte	0x94
 5636 0812 01       		.byte	0x1
 5637 0813 08       		.byte	0x8
 5638 0814 FF       		.byte	0xff
 5639 0815 1A       		.byte	0x1a
 5640 0816 9F       		.byte	0x9f
 5641 0817 26000000 		.4byte	.LVL170
 5642 081b 62000000 		.4byte	.LVL181
 5643 081f 0E00     		.2byte	0xe
 5644 0821 75       		.byte	0x75
 5645 0822 00       		.sleb128 0
 5646 0823 03       		.byte	0x3
 5647 0824 64000000 		.4byte	.LANCHOR2+100
 5648 0828 22       		.byte	0x22
 5649 0829 94       		.byte	0x94
 5650 082a 01       		.byte	0x1
 5651 082b 08       		.byte	0x8
 5652 082c FF       		.byte	0xff
 5653 082d 1A       		.byte	0x1a
 5654 082e 9F       		.byte	0x9f
 5655 082f 62000000 		.4byte	.LVL181
 5656 0833 8C000000 		.4byte	.LFE56
ARM GAS  C:\Users\Alan\AppData\Local\Temp\ccTIy4ty.s 			page 143


 5657 0837 0F00     		.2byte	0xf
 5658 0839 F3       		.byte	0xf3
 5659 083a 01       		.uleb128 0x1
 5660 083b 50       		.byte	0x50
 5661 083c 03       		.byte	0x3
 5662 083d 64000000 		.4byte	.LANCHOR2+100
 5663 0841 22       		.byte	0x22
 5664 0842 94       		.byte	0x94
 5665 0843 01       		.byte	0x1
 5666 0844 08       		.byte	0x8
 5667 0845 FF       		.byte	0xff
 5668 0846 1A       		.byte	0x1a
 5669 0847 9F       		.byte	0x9f
 5670 0848 00000000 		.4byte	0
 5671 084c 00000000 		.4byte	0
 5672              	.LLST50:
 5673 0850 00000000 		.4byte	.LVL182
 5674 0854 08000000 		.4byte	.LVL184
 5675 0858 0100     		.2byte	0x1
 5676 085a 51       		.byte	0x51
 5677 085b 08000000 		.4byte	.LVL184
 5678 085f 26000000 		.4byte	.LFE61
 5679 0863 0400     		.2byte	0x4
 5680 0865 F3       		.byte	0xf3
 5681 0866 01       		.uleb128 0x1
 5682 0867 51       		.byte	0x51
 5683 0868 9F       		.byte	0x9f
 5684 0869 00000000 		.4byte	0
 5685 086d 00000000 		.4byte	0
 5686              	.LLST51:
 5687 0871 04000000 		.4byte	.LVL183
 5688 0875 14000000 		.4byte	.LVL186
 5689 0879 0100     		.2byte	0x1
 5690 087b 54       		.byte	0x54
 5691 087c 14000000 		.4byte	.LVL186
 5692 0880 1C000000 		.4byte	.LVL188
 5693 0884 0600     		.2byte	0x6
 5694 0886 F3       		.byte	0xf3
 5695 0887 01       		.uleb128 0x1
 5696 0888 51       		.byte	0x51
 5697 0889 33       		.byte	0x33
 5698 088a 25       		.byte	0x25
 5699 088b 9F       		.byte	0x9f
 5700 088c 1C000000 		.4byte	.LVL188
 5701 0890 1E000000 		.4byte	.LVL189
 5702 0894 0100     		.2byte	0x1
 5703 0896 54       		.byte	0x54
 5704 0897 1E000000 		.4byte	.LVL189
 5705 089b 26000000 		.4byte	.LFE61
 5706 089f 0600     		.2byte	0x6
 5707 08a1 F3       		.byte	0xf3
 5708 08a2 01       		.uleb128 0x1
 5709 08a3 51       		.byte	0x51
 5710 08a4 33       		.byte	0x33
 5711 08a5 25       		.byte	0x25
 5712 08a6 9F       		.byte	0x9f
 5713 08a7 00000000 		.4byte	0
ARM GAS  C:\Users\Alan\AppData\Local\Temp\ccTIy4ty.s 			page 144


 5714 08ab 00000000 		.4byte	0
 5715              	.LLST52:
 5716 08af 0E000000 		.4byte	.LVL185
 5717 08b3 18000000 		.4byte	.LVL187
 5718 08b7 0100     		.2byte	0x1
 5719 08b9 51       		.byte	0x51
 5720 08ba 18000000 		.4byte	.LVL187
 5721 08be 1C000000 		.4byte	.LVL188
 5722 08c2 0800     		.2byte	0x8
 5723 08c4 31       		.byte	0x31
 5724 08c5 F3       		.byte	0xf3
 5725 08c6 01       		.uleb128 0x1
 5726 08c7 51       		.byte	0x51
 5727 08c8 37       		.byte	0x37
 5728 08c9 1A       		.byte	0x1a
 5729 08ca 24       		.byte	0x24
 5730 08cb 9F       		.byte	0x9f
 5731 08cc 1C000000 		.4byte	.LVL188
 5732 08d0 24000000 		.4byte	.LVL190
 5733 08d4 0100     		.2byte	0x1
 5734 08d6 51       		.byte	0x51
 5735 08d7 24000000 		.4byte	.LVL190
 5736 08db 26000000 		.4byte	.LFE61
 5737 08df 0800     		.2byte	0x8
 5738 08e1 31       		.byte	0x31
 5739 08e2 F3       		.byte	0xf3
 5740 08e3 01       		.uleb128 0x1
 5741 08e4 51       		.byte	0x51
 5742 08e5 37       		.byte	0x37
 5743 08e6 1A       		.byte	0x1a
 5744 08e7 24       		.byte	0x24
 5745 08e8 9F       		.byte	0x9f
 5746 08e9 00000000 		.4byte	0
 5747 08ed 00000000 		.4byte	0
 5748              	.LLST53:
 5749 08f1 00000000 		.4byte	.LVL191
 5750 08f5 30000000 		.4byte	.LVL198
 5751 08f9 0100     		.2byte	0x1
 5752 08fb 50       		.byte	0x50
 5753 08fc 30000000 		.4byte	.LVL198
 5754 0900 8C000000 		.4byte	.LFE42
 5755 0904 0400     		.2byte	0x4
 5756 0906 F3       		.byte	0xf3
 5757 0907 01       		.uleb128 0x1
 5758 0908 50       		.byte	0x50
 5759 0909 9F       		.byte	0x9f
 5760 090a 00000000 		.4byte	0
 5761 090e 00000000 		.4byte	0
 5762              	.LLST54:
 5763 0912 0E000000 		.4byte	.LVL192
 5764 0916 1A000000 		.4byte	.LVL195
 5765 091a 0100     		.2byte	0x1
 5766 091c 53       		.byte	0x53
 5767 091d 00000000 		.4byte	0
 5768 0921 00000000 		.4byte	0
 5769              	.LLST55:
 5770 0925 18000000 		.4byte	.LVL194
ARM GAS  C:\Users\Alan\AppData\Local\Temp\ccTIy4ty.s 			page 145


 5771 0929 76000000 		.4byte	.LVL204
 5772 092d 0100     		.2byte	0x1
 5773 092f 55       		.byte	0x55
 5774 0930 00000000 		.4byte	0
 5775 0934 00000000 		.4byte	0
 5776              	.LLST56:
 5777 0938 18000000 		.4byte	.LVL194
 5778 093c 1C000000 		.4byte	.LVL196
 5779 0940 0200     		.2byte	0x2
 5780 0942 30       		.byte	0x30
 5781 0943 9F       		.byte	0x9f
 5782 0944 1C000000 		.4byte	.LVL196
 5783 0948 30000000 		.4byte	.LVL198
 5784 094c 0100     		.2byte	0x1
 5785 094e 53       		.byte	0x53
 5786 094f 30000000 		.4byte	.LVL198
 5787 0953 76000000 		.4byte	.LVL203
 5788 0957 0100     		.2byte	0x1
 5789 0959 54       		.byte	0x54
 5790 095a 00000000 		.4byte	0
 5791 095e 00000000 		.4byte	0
 5792              	.LLST57:
 5793 0962 00000000 		.4byte	.LVL205
 5794 0966 04000000 		.4byte	.LVL206
 5795 096a 0100     		.2byte	0x1
 5796 096c 50       		.byte	0x50
 5797 096d 04000000 		.4byte	.LVL206
 5798 0971 0C000000 		.4byte	.LFE62
 5799 0975 0400     		.2byte	0x4
 5800 0977 F3       		.byte	0xf3
 5801 0978 01       		.uleb128 0x1
 5802 0979 50       		.byte	0x50
 5803 097a 9F       		.byte	0x9f
 5804 097b 00000000 		.4byte	0
 5805 097f 00000000 		.4byte	0
 5806              	.LLST58:
 5807 0983 00000000 		.4byte	.LVL208
 5808 0987 04000000 		.4byte	.LVL209
 5809 098b 0100     		.2byte	0x1
 5810 098d 50       		.byte	0x50
 5811 098e 04000000 		.4byte	.LVL209
 5812 0992 0C000000 		.4byte	.LFE64
 5813 0996 0400     		.2byte	0x4
 5814 0998 F3       		.byte	0xf3
 5815 0999 01       		.uleb128 0x1
 5816 099a 50       		.byte	0x50
 5817 099b 9F       		.byte	0x9f
 5818 099c 00000000 		.4byte	0
 5819 09a0 00000000 		.4byte	0
 5820              	.LLST59:
 5821 09a4 00000000 		.4byte	.LVL211
 5822 09a8 04000000 		.4byte	.LVL212
 5823 09ac 0100     		.2byte	0x1
 5824 09ae 50       		.byte	0x50
 5825 09af 04000000 		.4byte	.LVL212
 5826 09b3 0C000000 		.4byte	.LFE66
 5827 09b7 0400     		.2byte	0x4
ARM GAS  C:\Users\Alan\AppData\Local\Temp\ccTIy4ty.s 			page 146


 5828 09b9 F3       		.byte	0xf3
 5829 09ba 01       		.uleb128 0x1
 5830 09bb 50       		.byte	0x50
 5831 09bc 9F       		.byte	0x9f
 5832 09bd 00000000 		.4byte	0
 5833 09c1 00000000 		.4byte	0
 5834              	.LLST60:
 5835 09c5 00000000 		.4byte	.LVL214
 5836 09c9 04000000 		.4byte	.LVL215
 5837 09cd 0100     		.2byte	0x1
 5838 09cf 50       		.byte	0x50
 5839 09d0 04000000 		.4byte	.LVL215
 5840 09d4 0C000000 		.4byte	.LFE68
 5841 09d8 0400     		.2byte	0x4
 5842 09da F3       		.byte	0xf3
 5843 09db 01       		.uleb128 0x1
 5844 09dc 50       		.byte	0x50
 5845 09dd 9F       		.byte	0x9f
 5846 09de 00000000 		.4byte	0
 5847 09e2 00000000 		.4byte	0
 5848              	.LLST61:
 5849 09e6 00000000 		.4byte	.LVL218
 5850 09ea 0A000000 		.4byte	.LVL220
 5851 09ee 0100     		.2byte	0x1
 5852 09f0 50       		.byte	0x50
 5853 09f1 0A000000 		.4byte	.LVL220
 5854 09f5 28000000 		.4byte	.LVL228
 5855 09f9 0100     		.2byte	0x1
 5856 09fb 56       		.byte	0x56
 5857 09fc 28000000 		.4byte	.LVL228
 5858 0a00 2A000000 		.4byte	.LFE72
 5859 0a04 0400     		.2byte	0x4
 5860 0a06 F3       		.byte	0xf3
 5861 0a07 01       		.uleb128 0x1
 5862 0a08 50       		.byte	0x50
 5863 0a09 9F       		.byte	0x9f
 5864 0a0a 00000000 		.4byte	0
 5865 0a0e 00000000 		.4byte	0
 5866              	.LLST62:
 5867 0a12 04000000 		.4byte	.LVL219
 5868 0a16 0A000000 		.4byte	.LVL220
 5869 0a1a 0200     		.2byte	0x2
 5870 0a1c 30       		.byte	0x30
 5871 0a1d 9F       		.byte	0x9f
 5872 0a1e 0A000000 		.4byte	.LVL220
 5873 0a22 28000000 		.4byte	.LVL227
 5874 0a26 0100     		.2byte	0x1
 5875 0a28 55       		.byte	0x55
 5876 0a29 00000000 		.4byte	0
 5877 0a2d 00000000 		.4byte	0
 5878              	.LLST63:
 5879 0a31 04000000 		.4byte	.LVL219
 5880 0a35 0A000000 		.4byte	.LVL220
 5881 0a39 0200     		.2byte	0x2
 5882 0a3b 30       		.byte	0x30
 5883 0a3c 9F       		.byte	0x9f
 5884 0a3d 0A000000 		.4byte	.LVL220
ARM GAS  C:\Users\Alan\AppData\Local\Temp\ccTIy4ty.s 			page 147


 5885 0a41 28000000 		.4byte	.LVL226
 5886 0a45 0100     		.2byte	0x1
 5887 0a47 54       		.byte	0x54
 5888 0a48 00000000 		.4byte	0
 5889 0a4c 00000000 		.4byte	0
 5890              	.LLST64:
 5891 0a50 02000000 		.4byte	.LVL231
 5892 0a54 06000000 		.4byte	.LVL232
 5893 0a58 0200     		.2byte	0x2
 5894 0a5a 30       		.byte	0x30
 5895 0a5b 9F       		.byte	0x9f
 5896 0a5c 06000000 		.4byte	.LVL232
 5897 0a60 34000000 		.4byte	.LVL242
 5898 0a64 0100     		.2byte	0x1
 5899 0a66 57       		.byte	0x57
 5900 0a67 00000000 		.4byte	0
 5901 0a6b 00000000 		.4byte	0
 5902              	.LLST65:
 5903 0a6f 0E000000 		.4byte	.LVL234
 5904 0a73 16000000 		.4byte	.LVL236
 5905 0a77 0100     		.2byte	0x1
 5906 0a79 53       		.byte	0x53
 5907 0a7a 16000000 		.4byte	.LVL236
 5908 0a7e 26000000 		.4byte	.LVL239
 5909 0a82 0100     		.2byte	0x1
 5910 0a84 52       		.byte	0x52
 5911 0a85 26000000 		.4byte	.LVL239
 5912 0a89 30000000 		.4byte	.LVL241
 5913 0a8d 0100     		.2byte	0x1
 5914 0a8f 53       		.byte	0x53
 5915 0a90 00000000 		.4byte	0
 5916 0a94 00000000 		.4byte	0
 5917              	.LLST66:
 5918 0a98 10000000 		.4byte	.LVL235
 5919 0a9c 30000000 		.4byte	.LVL241
 5920 0aa0 0100     		.2byte	0x1
 5921 0aa2 56       		.byte	0x56
 5922 0aa3 00000000 		.4byte	0
 5923 0aa7 00000000 		.4byte	0
 5924              	.LLST67:
 5925 0aab 0A000000 		.4byte	.LVL233
 5926 0aaf 10000000 		.4byte	.LVL235
 5927 0ab3 0100     		.2byte	0x1
 5928 0ab5 56       		.byte	0x56
 5929 0ab6 00000000 		.4byte	0
 5930 0aba 00000000 		.4byte	0
 5931              	.LLST68:
 5932 0abe 06000000 		.4byte	.LVL232
 5933 0ac2 16000000 		.4byte	.LVL236
 5934 0ac6 0200     		.2byte	0x2
 5935 0ac8 30       		.byte	0x30
 5936 0ac9 9F       		.byte	0x9f
 5937 0aca 16000000 		.4byte	.LVL236
 5938 0ace 30000000 		.4byte	.LVL241
 5939 0ad2 0100     		.2byte	0x1
 5940 0ad4 54       		.byte	0x54
 5941 0ad5 00000000 		.4byte	0
ARM GAS  C:\Users\Alan\AppData\Local\Temp\ccTIy4ty.s 			page 148


 5942 0ad9 00000000 		.4byte	0
 5943              		.section	.debug_aranges,"",%progbits
 5944 0000 54010000 		.4byte	0x154
 5945 0004 0200     		.2byte	0x2
 5946 0006 00000000 		.4byte	.Ldebug_info0
 5947 000a 04       		.byte	0x4
 5948 000b 00       		.byte	0
 5949 000c 0000     		.2byte	0
 5950 000e 0000     		.2byte	0
 5951 0010 00000000 		.4byte	.LFB36
 5952 0014 80000000 		.4byte	.LFE36-.LFB36
 5953 0018 00000000 		.4byte	.LFB37
 5954 001c 40000000 		.4byte	.LFE37-.LFB37
 5955 0020 00000000 		.4byte	.LFB39
 5956 0024 2C000000 		.4byte	.LFE39-.LFB39
 5957 0028 00000000 		.4byte	.LFB44
 5958 002c 10000000 		.4byte	.LFE44-.LFB44
 5959 0030 00000000 		.4byte	.LFB45
 5960 0034 10000000 		.4byte	.LFE45-.LFB45
 5961 0038 00000000 		.4byte	.LFB46
 5962 003c 10000000 		.4byte	.LFE46-.LFB46
 5963 0040 00000000 		.4byte	.LFB47
 5964 0044 0C000000 		.4byte	.LFE47-.LFB47
 5965 0048 00000000 		.4byte	.LFB48
 5966 004c 0C000000 		.4byte	.LFE48-.LFB48
 5967 0050 00000000 		.4byte	.LFB50
 5968 0054 48000000 		.4byte	.LFE50-.LFB50
 5969 0058 00000000 		.4byte	.LFB51
 5970 005c 70000000 		.4byte	.LFE51-.LFB51
 5971 0060 00000000 		.4byte	.LFB49
 5972 0064 14000000 		.4byte	.LFE49-.LFB49
 5973 0068 00000000 		.4byte	.LFB54
 5974 006c 24000000 		.4byte	.LFE54-.LFB54
 5975 0070 00000000 		.4byte	.LFB52
 5976 0074 30000000 		.4byte	.LFE52-.LFB52
 5977 0078 00000000 		.4byte	.LFB53
 5978 007c 1C000000 		.4byte	.LFE53-.LFB53
 5979 0080 00000000 		.4byte	.LFB57
 5980 0084 34000000 		.4byte	.LFE57-.LFB57
 5981 0088 00000000 		.4byte	.LFB58
 5982 008c 14000000 		.4byte	.LFE58-.LFB58
 5983 0090 00000000 		.4byte	.LFB35
 5984 0094 28000000 		.4byte	.LFE35-.LFB35
 5985 0098 00000000 		.4byte	.LFB38
 5986 009c 38000000 		.4byte	.LFE38-.LFB38
 5987 00a0 00000000 		.4byte	.LFB59
 5988 00a4 1C000000 		.4byte	.LFE59-.LFB59
 5989 00a8 00000000 		.4byte	.LFB60
 5990 00ac 1A000000 		.4byte	.LFE60-.LFB60
 5991 00b0 00000000 		.4byte	.LFB40
 5992 00b4 24000000 		.4byte	.LFE40-.LFB40
 5993 00b8 00000000 		.4byte	.LFB55
 5994 00bc 0C010000 		.4byte	.LFE55-.LFB55
 5995 00c0 00000000 		.4byte	.LFB41
 5996 00c4 1C000000 		.4byte	.LFE41-.LFB41
 5997 00c8 00000000 		.4byte	.LFB43
 5998 00cc 34000000 		.4byte	.LFE43-.LFB43
ARM GAS  C:\Users\Alan\AppData\Local\Temp\ccTIy4ty.s 			page 149


 5999 00d0 00000000 		.4byte	.LFB56
 6000 00d4 8C000000 		.4byte	.LFE56-.LFB56
 6001 00d8 00000000 		.4byte	.LFB61
 6002 00dc 26000000 		.4byte	.LFE61-.LFB61
 6003 00e0 00000000 		.4byte	.LFB42
 6004 00e4 8C000000 		.4byte	.LFE42-.LFB42
 6005 00e8 00000000 		.4byte	.LFB62
 6006 00ec 0C000000 		.4byte	.LFE62-.LFB62
 6007 00f0 00000000 		.4byte	.LFB63
 6008 00f4 0C000000 		.4byte	.LFE63-.LFB63
 6009 00f8 00000000 		.4byte	.LFB64
 6010 00fc 0C000000 		.4byte	.LFE64-.LFB64
 6011 0100 00000000 		.4byte	.LFB65
 6012 0104 0C000000 		.4byte	.LFE65-.LFB65
 6013 0108 00000000 		.4byte	.LFB66
 6014 010c 0C000000 		.4byte	.LFE66-.LFB66
 6015 0110 00000000 		.4byte	.LFB67
 6016 0114 0C000000 		.4byte	.LFE67-.LFB67
 6017 0118 00000000 		.4byte	.LFB68
 6018 011c 0C000000 		.4byte	.LFE68-.LFB68
 6019 0120 00000000 		.4byte	.LFB69
 6020 0124 0C000000 		.4byte	.LFE69-.LFB69
 6021 0128 00000000 		.4byte	.LFB70
 6022 012c 14000000 		.4byte	.LFE70-.LFB70
 6023 0130 00000000 		.4byte	.LFB71
 6024 0134 28000000 		.4byte	.LFE71-.LFB71
 6025 0138 00000000 		.4byte	.LFB72
 6026 013c 2A000000 		.4byte	.LFE72-.LFB72
 6027 0140 00000000 		.4byte	.LFB73
 6028 0144 0C000000 		.4byte	.LFE73-.LFB73
 6029 0148 00000000 		.4byte	.LFB74
 6030 014c 40000000 		.4byte	.LFE74-.LFB74
 6031 0150 00000000 		.4byte	0
 6032 0154 00000000 		.4byte	0
 6033              		.section	.debug_ranges,"",%progbits
 6034              	.Ldebug_ranges0:
 6035 0000 00000000 		.4byte	.LFB36
 6036 0004 80000000 		.4byte	.LFE36
 6037 0008 00000000 		.4byte	.LFB37
 6038 000c 40000000 		.4byte	.LFE37
 6039 0010 00000000 		.4byte	.LFB39
 6040 0014 2C000000 		.4byte	.LFE39
 6041 0018 00000000 		.4byte	.LFB44
 6042 001c 10000000 		.4byte	.LFE44
 6043 0020 00000000 		.4byte	.LFB45
 6044 0024 10000000 		.4byte	.LFE45
 6045 0028 00000000 		.4byte	.LFB46
 6046 002c 10000000 		.4byte	.LFE46
 6047 0030 00000000 		.4byte	.LFB47
 6048 0034 0C000000 		.4byte	.LFE47
 6049 0038 00000000 		.4byte	.LFB48
 6050 003c 0C000000 		.4byte	.LFE48
 6051 0040 00000000 		.4byte	.LFB50
 6052 0044 48000000 		.4byte	.LFE50
 6053 0048 00000000 		.4byte	.LFB51
 6054 004c 70000000 		.4byte	.LFE51
 6055 0050 00000000 		.4byte	.LFB49
ARM GAS  C:\Users\Alan\AppData\Local\Temp\ccTIy4ty.s 			page 150


 6056 0054 14000000 		.4byte	.LFE49
 6057 0058 00000000 		.4byte	.LFB54
 6058 005c 24000000 		.4byte	.LFE54
 6059 0060 00000000 		.4byte	.LFB52
 6060 0064 30000000 		.4byte	.LFE52
 6061 0068 00000000 		.4byte	.LFB53
 6062 006c 1C000000 		.4byte	.LFE53
 6063 0070 00000000 		.4byte	.LFB57
 6064 0074 34000000 		.4byte	.LFE57
 6065 0078 00000000 		.4byte	.LFB58
 6066 007c 14000000 		.4byte	.LFE58
 6067 0080 00000000 		.4byte	.LFB35
 6068 0084 28000000 		.4byte	.LFE35
 6069 0088 00000000 		.4byte	.LFB38
 6070 008c 38000000 		.4byte	.LFE38
 6071 0090 00000000 		.4byte	.LFB59
 6072 0094 1C000000 		.4byte	.LFE59
 6073 0098 00000000 		.4byte	.LFB60
 6074 009c 1A000000 		.4byte	.LFE60
 6075 00a0 00000000 		.4byte	.LFB40
 6076 00a4 24000000 		.4byte	.LFE40
 6077 00a8 00000000 		.4byte	.LFB55
 6078 00ac 0C010000 		.4byte	.LFE55
 6079 00b0 00000000 		.4byte	.LFB41
 6080 00b4 1C000000 		.4byte	.LFE41
 6081 00b8 00000000 		.4byte	.LFB43
 6082 00bc 34000000 		.4byte	.LFE43
 6083 00c0 00000000 		.4byte	.LFB56
 6084 00c4 8C000000 		.4byte	.LFE56
 6085 00c8 00000000 		.4byte	.LFB61
 6086 00cc 26000000 		.4byte	.LFE61
 6087 00d0 00000000 		.4byte	.LFB42
 6088 00d4 8C000000 		.4byte	.LFE42
 6089 00d8 00000000 		.4byte	.LFB62
 6090 00dc 0C000000 		.4byte	.LFE62
 6091 00e0 00000000 		.4byte	.LFB63
 6092 00e4 0C000000 		.4byte	.LFE63
 6093 00e8 00000000 		.4byte	.LFB64
 6094 00ec 0C000000 		.4byte	.LFE64
 6095 00f0 00000000 		.4byte	.LFB65
 6096 00f4 0C000000 		.4byte	.LFE65
 6097 00f8 00000000 		.4byte	.LFB66
 6098 00fc 0C000000 		.4byte	.LFE66
 6099 0100 00000000 		.4byte	.LFB67
 6100 0104 0C000000 		.4byte	.LFE67
 6101 0108 00000000 		.4byte	.LFB68
 6102 010c 0C000000 		.4byte	.LFE68
 6103 0110 00000000 		.4byte	.LFB69
 6104 0114 0C000000 		.4byte	.LFE69
 6105 0118 00000000 		.4byte	.LFB70
 6106 011c 14000000 		.4byte	.LFE70
 6107 0120 00000000 		.4byte	.LFB71
 6108 0124 28000000 		.4byte	.LFE71
 6109 0128 00000000 		.4byte	.LFB72
 6110 012c 2A000000 		.4byte	.LFE72
 6111 0130 00000000 		.4byte	.LFB73
 6112 0134 0C000000 		.4byte	.LFE73
ARM GAS  C:\Users\Alan\AppData\Local\Temp\ccTIy4ty.s 			page 151


 6113 0138 00000000 		.4byte	.LFB74
 6114 013c 40000000 		.4byte	.LFE74
 6115 0140 00000000 		.4byte	0
 6116 0144 00000000 		.4byte	0
 6117              		.section	.debug_line,"",%progbits
 6118              	.Ldebug_line0:
 6119 0000 F8040000 		.section	.debug_str,"MS",%progbits,1
 6119      0200A200 
 6119      00000201 
 6119      FB0E0D00 
 6119      01010101 
 6120              	.LASF126:
 6121 0000 4379496E 		.ascii	"CyIntSetPriority\000"
 6121      74536574 
 6121      5072696F 
 6121      72697479 
 6121      00
 6122              	.LASF54:
 6123 0011 63617073 		.ascii	"capsense_Init\000"
 6123      656E7365 
 6123      5F496E69 
 6123      7400
 6124              	.LASF139:
 6125 001f 5C5C766D 		.ascii	"\\\\vmware-host\\Shared Folders\\Documents\\BLEIOSA"
 6125      77617265 
 6125      2D686F73 
 6125      745C5368 
 6125      61726564 
 6126 004d 50505C63 		.ascii	"PP\\capsenseled\\capsenseled.cydsn\000"
 6126      61707365 
 6126      6E73656C 
 6126      65645C63 
 6126      61707365 
 6127              	.LASF23:
 6128 006e 63617073 		.ascii	"capsense_WriteSensorRaw\000"
 6128      656E7365 
 6128      5F577269 
 6128      74655365 
 6128      6E736F72 
 6129              	.LASF31:
 6130 0086 63617073 		.ascii	"capsense_EnableSensor\000"
 6130      656E7365 
 6130      5F456E61 
 6130      626C6553 
 6130      656E736F 
 6131              	.LASF91:
 6132 009c 63617073 		.ascii	"capsense_GetSensorRaw\000"
 6132      656E7365 
 6132      5F476574 
 6132      53656E73 
 6132      6F725261 
 6133              	.LASF8:
 6134 00b2 756E7369 		.ascii	"unsigned int\000"
 6134      676E6564 
 6134      20696E74 
 6134      00
 6135              	.LASF86:
ARM GAS  C:\Users\Alan\AppData\Local\Temp\ccTIy4ty.s 			page 152


 6136 00bf 63617073 		.ascii	"capsense_SetCompensationIDAC\000"
 6136      656E7365 
 6136      5F536574 
 6136      436F6D70 
 6136      656E7361 
 6137              	.LASF55:
 6138 00dc 63617073 		.ascii	"capsense_Start\000"
 6138      656E7365 
 6138      5F537461 
 6138      727400
 6139              	.LASF72:
 6140 00eb 63617073 		.ascii	"capsense_SetBitValue\000"
 6140      656E7365 
 6140      5F536574 
 6140      42697456 
 6140      616C7565 
 6141              	.LASF34:
 6142 0100 696E7465 		.ascii	"interruptState\000"
 6142      72727570 
 6142      74537461 
 6142      746500
 6143              	.LASF15:
 6144 010f 72656738 		.ascii	"reg8\000"
 6144      00
 6145              	.LASF115:
 6146 0114 63617073 		.ascii	"capsense_prtSelTbl\000"
 6146      656E7365 
 6146      5F707274 
 6146      53656C54 
 6146      626C00
 6147              	.LASF96:
 6148 0127 77696467 		.ascii	"widgetsNum\000"
 6148      6574734E 
 6148      756D00
 6149              	.LASF33:
 6150 0132 70696E48 		.ascii	"pinHSIOMShift\000"
 6150      53494F4D 
 6150      53686966 
 6150      7400
 6151              	.LASF109:
 6152 0140 63617073 		.ascii	"capsense_modulationIDAC\000"
 6152      656E7365 
 6152      5F6D6F64 
 6152      756C6174 
 6152      696F6E49 
 6153              	.LASF125:
 6154 0158 4379496E 		.ascii	"CyIntDisable\000"
 6154      74446973 
 6154      61626C65 
 6154      00
 6155              	.LASF93:
 6156 0165 61766756 		.ascii	"avgVal\000"
 6156      616C00
 6157              	.LASF111:
 6158 016c 63617073 		.ascii	"capsense_widgetResolution\000"
 6158      656E7365 
 6158      5F776964 
ARM GAS  C:\Users\Alan\AppData\Local\Temp\ccTIy4ty.s 			page 153


 6158      67657452 
 6158      65736F6C 
 6159              	.LASF32:
 6160 0186 70696E4D 		.ascii	"pinModeShift\000"
 6160      6F646553 
 6160      68696674 
 6160      00
 6161              	.LASF114:
 6162 0193 63617073 		.ascii	"capsense_widgetNumber\000"
 6162      656E7365 
 6162      5F776964 
 6162      6765744E 
 6162      756D6265 
 6163              	.LASF89:
 6164 01a9 63617073 		.ascii	"capsense_SetIDACRange\000"
 6164      656E7365 
 6164      5F536574 
 6164      49444143 
 6164      52616E67 
 6165              	.LASF64:
 6166 01bf 63617073 		.ascii	"capsense_FindNextSensor\000"
 6166      656E7365 
 6166      5F46696E 
 6166      644E6578 
 6166      7453656E 
 6167              	.LASF38:
 6168 01d7 696E6163 		.ascii	"inactiveConnect\000"
 6168      74697665 
 6168      436F6E6E 
 6168      65637400 
 6169              	.LASF132:
 6170 01e7 63617073 		.ascii	"capsense_SenseClk_StartEx\000"
 6170      656E7365 
 6170      5F53656E 
 6170      7365436C 
 6170      6B5F5374 
 6171              	.LASF59:
 6172 0201 63617073 		.ascii	"capsense_GetBitValue\000"
 6172      656E7365 
 6172      5F476574 
 6172      42697456 
 6172      616C7565 
 6173              	.LASF12:
 6174 0216 666C6F61 		.ascii	"float\000"
 6174      7400
 6175              	.LASF30:
 6176 021c 63617073 		.ascii	"capsense_GetScanResolution\000"
 6176      656E7365 
 6176      5F476574 
 6176      5363616E 
 6176      5265736F 
 6177              	.LASF7:
 6178 0237 6C6F6E67 		.ascii	"long long unsigned int\000"
 6178      206C6F6E 
 6178      6720756E 
 6178      7369676E 
 6178      65642069 
ARM GAS  C:\Users\Alan\AppData\Local\Temp\ccTIy4ty.s 			page 154


 6179              	.LASF37:
 6180 024e 63617073 		.ascii	"capsense_DisableSensor\000"
 6180      656E7365 
 6180      5F446973 
 6180      61626C65 
 6180      53656E73 
 6181              	.LASF27:
 6182 0265 77696467 		.ascii	"widget\000"
 6182      657400
 6183              	.LASF136:
 6184 026c 4379496E 		.ascii	"CyIntClearPending\000"
 6184      74436C65 
 6184      61725065 
 6184      6E64696E 
 6184      6700
 6185              	.LASF26:
 6186 027e 63617073 		.ascii	"capsense_SetScanResolution\000"
 6186      656E7365 
 6186      5F536574 
 6186      5363616E 
 6186      5265736F 
 6187              	.LASF25:
 6188 0299 76616C75 		.ascii	"value\000"
 6188      6500
 6189              	.LASF73:
 6190 029f 63617073 		.ascii	"capsense_ScanWidget\000"
 6190      656E7365 
 6190      5F536361 
 6190      6E576964 
 6190      67657400 
 6191              	.LASF101:
 6192 02b3 63617073 		.ascii	"capsense_lowLevelTuningDone\000"
 6192      656E7365 
 6192      5F6C6F77 
 6192      4C657665 
 6192      6C54756E 
 6193              	.LASF35:
 6194 02cf 6E657752 		.ascii	"newRegisterValue\000"
 6194      65676973 
 6194      74657256 
 6194      616C7565 
 6194      00
 6195              	.LASF39:
 6196 02e0 73656E73 		.ascii	"sensorState\000"
 6196      6F725374 
 6196      61746500 
 6197              	.LASF62:
 6198 02ec 6F666673 		.ascii	"offset\000"
 6198      657400
 6199              	.LASF80:
 6200 02f3 63617073 		.ascii	"capsense_SetModulatorClkDivider\000"
 6200      656E7365 
 6200      5F536574 
 6200      4D6F6475 
 6200      6C61746F 
 6201              	.LASF48:
 6202 0313 7072744E 		.ascii	"prtNumberTmp\000"
ARM GAS  C:\Users\Alan\AppData\Local\Temp\ccTIy4ty.s 			page 155


 6202      756D6265 
 6202      72546D70 
 6202      00
 6203              	.LASF74:
 6204 0320 73656E73 		.ascii	"sensorsPerWidget\000"
 6204      6F727350 
 6204      65725769 
 6204      64676574 
 6204      00
 6205              	.LASF92:
 6206 0331 63757253 		.ascii	"curSample\000"
 6206      616D706C 
 6206      6500
 6207              	.LASF105:
 6208 033b 63617073 		.ascii	"capsense_sensorRaw\000"
 6208      656E7365 
 6208      5F73656E 
 6208      736F7252 
 6208      617700
 6209              	.LASF135:
 6210 034e 63617073 		.ascii	"capsense_AutoTune\000"
 6210      656E7365 
 6210      5F417574 
 6210      6F54756E 
 6210      6500
 6211              	.LASF24:
 6212 0360 73656E73 		.ascii	"sensor\000"
 6212      6F7200
 6213              	.LASF128:
 6214 0367 63617073 		.ascii	"capsense_SampleClk_Stop\000"
 6214      656E7365 
 6214      5F53616D 
 6214      706C6543 
 6214      6C6B5F53 
 6215              	.LASF14:
 6216 037f 63686172 		.ascii	"char\000"
 6216      00
 6217              	.LASF134:
 6218 0384 43794578 		.ascii	"CyExitCriticalSection\000"
 6218      69744372 
 6218      69746963 
 6218      616C5365 
 6218      6374696F 
 6219              	.LASF142:
 6220 039a 43794465 		.ascii	"CyDelayCycles\000"
 6220      6C617943 
 6220      79636C65 
 6220      7300
 6221              	.LASF79:
 6222 03a8 63617073 		.ascii	"capsense_GetModulatorClkDivider\000"
 6222      656E7365 
 6222      5F476574 
 6222      4D6F6475 
 6222      6C61746F 
 6223              	.LASF69:
 6224 03c8 63617073 		.ascii	"capsense_ScanSensor\000"
 6224      656E7365 
ARM GAS  C:\Users\Alan\AppData\Local\Temp\ccTIy4ty.s 			page 156


 6224      5F536361 
 6224      6E53656E 
 6224      736F7200 
 6225              	.LASF60:
 6226 03dc 7461626C 		.ascii	"table\000"
 6226      6500
 6227              	.LASF10:
 6228 03e2 75696E74 		.ascii	"uint16\000"
 6228      313600
 6229              	.LASF140:
 6230 03e9 4379496E 		.ascii	"CyIntSetVector\000"
 6230      74536574 
 6230      56656374 
 6230      6F7200
 6231              	.LASF28:
 6232 03f8 7265736F 		.ascii	"resolution\000"
 6232      6C757469 
 6232      6F6E00
 6233              	.LASF49:
 6234 0403 70696E4E 		.ascii	"pinNumberTmp\000"
 6234      756D6265 
 6234      72546D70 
 6234      00
 6235              	.LASF51:
 6236 0410 63617073 		.ascii	"capsense_EnableShieldElectrode\000"
 6236      656E7365 
 6236      5F456E61 
 6236      626C6553 
 6236      6869656C 
 6237              	.LASF6:
 6238 042f 6C6F6E67 		.ascii	"long long int\000"
 6238      206C6F6E 
 6238      6720696E 
 6238      7400
 6239              	.LASF107:
 6240 043d 63617073 		.ascii	"capsense_sensorEnableMaskBackup\000"
 6240      656E7365 
 6240      5F73656E 
 6240      736F7245 
 6240      6E61626C 
 6241              	.LASF65:
 6242 045d 656E6162 		.ascii	"enableFlag\000"
 6242      6C65466C 
 6242      616700
 6243              	.LASF98:
 6244 0468 63757272 		.ascii	"currentWidget\000"
 6244      656E7457 
 6244      69646765 
 6244      7400
 6245              	.LASF57:
 6246 0476 63617073 		.ascii	"capsense_IsBusy\000"
 6246      656E7365 
 6246      5F497342 
 6246      75737900 
 6247              	.LASF102:
 6248 0486 63617073 		.ascii	"capsense_scanSpeedTbl\000"
 6248      656E7365 
ARM GAS  C:\Users\Alan\AppData\Local\Temp\ccTIy4ty.s 			page 157


 6248      5F736361 
 6248      6E537065 
 6248      65645462 
 6249              	.LASF17:
 6250 049c 63796973 		.ascii	"cyisraddress\000"
 6250      72616464 
 6250      72657373 
 6250      00
 6251              	.LASF77:
 6252 04a9 63617073 		.ascii	"capsense_SetSenseClkDivider\000"
 6252      656E7365 
 6252      5F536574 
 6252      53656E73 
 6252      65436C6B 
 6253              	.LASF11:
 6254 04c5 75696E74 		.ascii	"uint32\000"
 6254      333200
 6255              	.LASF103:
 6256 04cc 63617073 		.ascii	"capsense_csdStatusVar\000"
 6256      656E7365 
 6256      5F637364 
 6256      53746174 
 6256      75735661 
 6257              	.LASF22:
 6258 04e2 63617073 		.ascii	"capsense_Stop\000"
 6258      656E7365 
 6258      5F53746F 
 6258      7000
 6259              	.LASF71:
 6260 04f0 63617073 		.ascii	"capsense_PostScan\000"
 6260      656E7365 
 6260      5F506F73 
 6260      74536361 
 6260      6E00
 6261              	.LASF104:
 6262 0502 63617073 		.ascii	"capsense_sensorIndex\000"
 6262      656E7365 
 6262      5F73656E 
 6262      736F7249 
 6262      6E646578 
 6263              	.LASF44:
 6264 0517 70696E4E 		.ascii	"pinNumber\000"
 6264      756D6265 
 6264      7200
 6265              	.LASF94:
 6266 0521 63617073 		.ascii	"capsense_SetUnscannedSensorState\000"
 6266      656E7365 
 6266      5F536574 
 6266      556E7363 
 6266      616E6E65 
 6267              	.LASF41:
 6268 0542 736E7349 		.ascii	"snsIndex\000"
 6268      6E646578 
 6268      00
 6269              	.LASF50:
 6270 054b 63617073 		.ascii	"capsense_RestoreDriveModeAllPins\000"
 6270      656E7365 
ARM GAS  C:\Users\Alan\AppData\Local\Temp\ccTIy4ty.s 			page 158


 6270      5F526573 
 6270      746F7265 
 6270      44726976 
 6271              	.LASF112:
 6272 056c 63617073 		.ascii	"capsense_senseClkDividerVal\000"
 6272      656E7365 
 6272      5F73656E 
 6272      7365436C 
 6272      6B446976 
 6273              	.LASF75:
 6274 0588 6C617374 		.ascii	"lastSensor\000"
 6274      53656E73 
 6274      6F7200
 6275              	.LASF138:
 6276 0593 2E5C4765 		.ascii	".\\Generated_Source\\PSoC4\\capsense.c\000"
 6276      6E657261 
 6276      7465645F 
 6276      536F7572 
 6276      63655C50 
 6277              	.LASF16:
 6278 05b7 72656733 		.ascii	"reg32\000"
 6278      3200
 6279              	.LASF110:
 6280 05bd 63617073 		.ascii	"capsense_compensationIDAC\000"
 6280      656E7365 
 6280      5F636F6D 
 6280      70656E73 
 6280      6174696F 
 6281              	.LASF45:
 6282 05d7 706F7274 		.ascii	"portNumber\000"
 6282      4E756D62 
 6282      657200
 6283              	.LASF100:
 6284 05e2 6D617850 		.ascii	"maxPerWidget\000"
 6284      65725769 
 6284      64676574 
 6284      00
 6285              	.LASF119:
 6286 05ef 63617073 		.ascii	"capsense_portTable\000"
 6286      656E7365 
 6286      5F706F72 
 6286      74546162 
 6286      6C6500
 6287              	.LASF123:
 6288 0602 63617073 		.ascii	"capsense_numberOfSensors\000"
 6288      656E7365 
 6288      5F6E756D 
 6288      6265724F 
 6288      6653656E 
 6289              	.LASF78:
 6290 061b 73656E73 		.ascii	"senseClk\000"
 6290      65436C6B 
 6290      00
 6291              	.LASF2:
 6292 0624 73686F72 		.ascii	"short int\000"
 6292      7420696E 
 6292      7400
ARM GAS  C:\Users\Alan\AppData\Local\Temp\ccTIy4ty.s 			page 159


 6293              	.LASF4:
 6294 062e 6C6F6E67 		.ascii	"long int\000"
 6294      20696E74 
 6294      00
 6295              	.LASF53:
 6296 0637 64656C61 		.ascii	"delay\000"
 6296      7900
 6297              	.LASF122:
 6298 063d 63617073 		.ascii	"capsense_rawDataIndex\000"
 6298      656E7365 
 6298      5F726177 
 6298      44617461 
 6298      496E6465 
 6299              	.LASF106:
 6300 0653 63617073 		.ascii	"capsense_unscannedSnsDriveMode\000"
 6300      656E7365 
 6300      5F756E73 
 6300      63616E6E 
 6300      6564536E 
 6301              	.LASF127:
 6302 0672 63617073 		.ascii	"capsense_SenseClk_Stop\000"
 6302      656E7365 
 6302      5F53656E 
 6302      7365436C 
 6302      6B5F5374 
 6303              	.LASF137:
 6304 0689 474E5520 		.ascii	"GNU C 4.9.3 20150303 (release) [ARM/embedded-4_9-br"
 6304      4320342E 
 6304      392E3320 
 6304      32303135 
 6304      30333033 
 6305 06bc 616E6368 		.ascii	"anch revision 221220] -mcpu=cortex-m0 -mthumb -g -O"
 6305      20726576 
 6305      6973696F 
 6305      6E203232 
 6305      31323230 
 6306 06ef 67202D66 		.ascii	"g -ffunction-sections -ffat-lto-objects\000"
 6306      66756E63 
 6306      74696F6E 
 6306      2D736563 
 6306      74696F6E 
 6307              	.LASF40:
 6308 0717 63617073 		.ascii	"capsense_ClearSensors\000"
 6308      656E7365 
 6308      5F436C65 
 6308      61725365 
 6308      6E736F72 
 6309              	.LASF46:
 6310 072d 63617073 		.ascii	"capsense_SetDriveModeAllPins\000"
 6310      656E7365 
 6310      5F536574 
 6310      44726976 
 6310      654D6F64 
 6311              	.LASF90:
 6312 074a 69446163 		.ascii	"iDacRange\000"
 6312      52616E67 
 6312      6500
ARM GAS  C:\Users\Alan\AppData\Local\Temp\ccTIy4ty.s 			page 160


 6313              	.LASF124:
 6314 0754 63617073 		.ascii	"capsense_csdTrim1\000"
 6314      656E7365 
 6314      5F637364 
 6314      5472696D 
 6314      3100
 6315              	.LASF58:
 6316 0766 63617073 		.ascii	"capsense_ReadCurrentScanningSensor\000"
 6316      656E7365 
 6316      5F526561 
 6316      64437572 
 6316      72656E74 
 6317              	.LASF99:
 6318 0789 63757272 		.ascii	"currentSensor\000"
 6318      656E7453 
 6318      656E736F 
 6318      7200
 6319              	.LASF117:
 6320 0797 63617073 		.ascii	"capsense_prtDRTbl\000"
 6320      656E7365 
 6320      5F707274 
 6320      44525462 
 6320      6C00
 6321              	.LASF87:
 6322 07a9 636F6D70 		.ascii	"compIdacValue\000"
 6322      49646163 
 6322      56616C75 
 6322      6500
 6323              	.LASF84:
 6324 07b7 6D6F6449 		.ascii	"modIdacValue\000"
 6324      64616356 
 6324      616C7565 
 6324      00
 6325              	.LASF120:
 6326 07c4 63617073 		.ascii	"capsense_maskTable\000"
 6326      656E7365 
 6326      5F6D6173 
 6326      6B546162 
 6326      6C6500
 6327              	.LASF129:
 6328 07d7 63617073 		.ascii	"capsense_SampleClk_SetFractionalDividerRegister\000"
 6328      656E7365 
 6328      5F53616D 
 6328      706C6543 
 6328      6C6B5F53 
 6329              	.LASF18:
 6330 0807 73697A65 		.ascii	"sizetype\000"
 6330      74797065 
 6330      00
 6331              	.LASF5:
 6332 0810 6C6F6E67 		.ascii	"long unsigned int\000"
 6332      20756E73 
 6332      69676E65 
 6332      6420696E 
 6332      7400
 6333              	.LASF83:
 6334 0822 63617073 		.ascii	"capsense_SetModulationIDAC\000"
ARM GAS  C:\Users\Alan\AppData\Local\Temp\ccTIy4ty.s 			page 161


 6334      656E7365 
 6334      5F536574 
 6334      4D6F6475 
 6334      6C617469 
 6335              	.LASF20:
 6336 083d 63617073 		.ascii	"capsense_Enable\000"
 6336      656E7365 
 6336      5F456E61 
 6336      626C6500 
 6337              	.LASF131:
 6338 084d 63617073 		.ascii	"capsense_SampleClk_StartEx\000"
 6338      656E7365 
 6338      5F53616D 
 6338      706C6543 
 6338      6C6B5F53 
 6339              	.LASF36:
 6340 0868 706F7274 		.ascii	"port\000"
 6340      00
 6341              	.LASF19:
 6342 086d 63617073 		.ascii	"capsense_CsdHwBlockInit\000"
 6342      656E7365 
 6342      5F437364 
 6342      4877426C 
 6342      6F636B49 
 6343              	.LASF63:
 6344 0885 656E4D61 		.ascii	"enMask\000"
 6344      736B00
 6345              	.LASF116:
 6346 088c 63617073 		.ascii	"capsense_prtCfgTbl\000"
 6346      656E7365 
 6346      5F707274 
 6346      43666754 
 6346      626C00
 6347              	.LASF1:
 6348 089f 756E7369 		.ascii	"unsigned char\000"
 6348      676E6564 
 6348      20636861 
 6348      7200
 6349              	.LASF67:
 6350 08ad 636F756E 		.ascii	"counterResolution\000"
 6350      74657252 
 6350      65736F6C 
 6350      7574696F 
 6350      6E00
 6351              	.LASF66:
 6352 08bf 63617073 		.ascii	"capsense_PreScan\000"
 6352      656E7365 
 6352      5F507265 
 6352      5363616E 
 6352      00
 6353              	.LASF82:
 6354 08d0 63617073 		.ascii	"capsense_GetModulationIDAC\000"
 6354      656E7365 
 6354      5F476574 
 6354      4D6F6475 
 6354      6C617469 
 6355              	.LASF121:
ARM GAS  C:\Users\Alan\AppData\Local\Temp\ccTIy4ty.s 			page 162


 6356 08eb 63617073 		.ascii	"capsense_pinShiftTbl\000"
 6356      656E7365 
 6356      5F70696E 
 6356      53686966 
 6356      7454626C 
 6357              	.LASF81:
 6358 0900 6D6F6475 		.ascii	"modulatorClk\000"
 6358      6C61746F 
 6358      72436C6B 
 6358      00
 6359              	.LASF56:
 6360 090d 63617073 		.ascii	"capsense_initVar\000"
 6360      656E7365 
 6360      5F696E69 
 6360      74566172 
 6360      00
 6361              	.LASF133:
 6362 091e 4379496E 		.ascii	"CyIntEnable\000"
 6362      74456E61 
 6362      626C6500 
 6363              	.LASF88:
 6364 092a 63617073 		.ascii	"capsense_GetIDACRange\000"
 6364      656E7365 
 6364      5F476574 
 6364      49444143 
 6364      52616E67 
 6365              	.LASF52:
 6366 0940 63617073 		.ascii	"capsense_SetShieldDelay\000"
 6366      656E7365 
 6366      5F536574 
 6366      53686965 
 6366      6C644465 
 6367              	.LASF141:
 6368 0958 4379456E 		.ascii	"CyEnterCriticalSection\000"
 6368      74657243 
 6368      72697469 
 6368      63616C53 
 6368      65637469 
 6369              	.LASF70:
 6370 096f 63617073 		.ascii	"capsense_ScanEnabledWidgets\000"
 6370      656E7365 
 6370      5F536361 
 6370      6E456E61 
 6370      626C6564 
 6371              	.LASF85:
 6372 098b 63617073 		.ascii	"capsense_GetCompensationIDAC\000"
 6372      656E7365 
 6372      5F476574 
 6372      436F6D70 
 6372      656E7361 
 6373              	.LASF0:
 6374 09a8 7369676E 		.ascii	"signed char\000"
 6374      65642063 
 6374      68617200 
 6375              	.LASF97:
 6376 09b4 64617461 		.ascii	"dataPtr\000"
 6376      50747200 
ARM GAS  C:\Users\Alan\AppData\Local\Temp\ccTIy4ty.s 			page 163


 6377              	.LASF3:
 6378 09bc 73686F72 		.ascii	"short unsigned int\000"
 6378      7420756E 
 6378      7369676E 
 6378      65642069 
 6378      6E7400
 6379              	.LASF29:
 6380 09cf 63617073 		.ascii	"capsense_ReadSensorRaw\000"
 6380      656E7365 
 6380      5F526561 
 6380      6453656E 
 6380      736F7252 
 6381              	.LASF113:
 6382 09e6 63617073 		.ascii	"capsense_sampleClkDividerVal\000"
 6382      656E7365 
 6382      5F73616D 
 6382      706C6543 
 6382      6C6B4469 
 6383              	.LASF21:
 6384 0a03 6E657752 		.ascii	"newRegValue\000"
 6384      65675661 
 6384      6C756500 
 6385              	.LASF108:
 6386 0a0f 63617073 		.ascii	"capsense_sensorEnableMask\000"
 6386      656E7365 
 6386      5F73656E 
 6386      736F7245 
 6386      6E61626C 
 6387              	.LASF9:
 6388 0a29 75696E74 		.ascii	"uint8\000"
 6388      3800
 6389              	.LASF13:
 6390 0a2f 646F7562 		.ascii	"double\000"
 6390      6C6500
 6391              	.LASF118:
 6392 0a36 63617073 		.ascii	"capsense_pcTable\000"
 6392      656E7365 
 6392      5F706354 
 6392      61626C65 
 6392      00
 6393              	.LASF130:
 6394 0a47 63617073 		.ascii	"capsense_SenseClk_SetFractionalDividerRegister\000"
 6394      656E7365 
 6394      5F53656E 
 6394      7365436C 
 6394      6B5F5365 
 6395              	.LASF47:
 6396 0a76 63757253 		.ascii	"curSensor\000"
 6396      656E736F 
 6396      7200
 6397              	.LASF42:
 6398 0a80 63617073 		.ascii	"capsense_SetPinDriveMode\000"
 6398      656E7365 
 6398      5F536574 
 6398      50696E44 
 6398      72697665 
 6399              	.LASF68:
ARM GAS  C:\Users\Alan\AppData\Local\Temp\ccTIy4ty.s 			page 164


 6400 0a99 6F766572 		.ascii	"oversamplingFactor\000"
 6400      73616D70 
 6400      6C696E67 
 6400      46616374 
 6400      6F7200
 6401              	.LASF43:
 6402 0aac 64726976 		.ascii	"driveMode\000"
 6402      654D6F64 
 6402      6500
 6403              	.LASF95:
 6404 0ab6 63617073 		.ascii	"capsense_NormalizeWidgets\000"
 6404      656E7365 
 6404      5F4E6F72 
 6404      6D616C69 
 6404      7A655769 
 6405              	.LASF76:
 6406 0ad0 63617073 		.ascii	"capsense_GetSenseClkDivider\000"
 6406      656E7365 
 6406      5F476574 
 6406      53656E73 
 6406      65436C6B 
 6407              	.LASF61:
 6408 0aec 706F7369 		.ascii	"position\000"
 6408      74696F6E 
 6408      00
 6409              		.ident	"GCC: (GNU Tools for ARM Embedded Processors) 4.9.3 20150303 (release) [ARM/embedded-4_9-br
