ARM GAS  C:\Users\Alan\AppData\Local\Temp\ccdWfZQE.s 			page 1


   1              		.cpu cortex-m0
   2              		.fpu softvfp
   3              		.eabi_attribute 20, 1
   4              		.eabi_attribute 21, 1
   5              		.eabi_attribute 23, 3
   6              		.eabi_attribute 24, 1
   7              		.eabi_attribute 25, 1
   8              		.eabi_attribute 26, 1
   9              		.eabi_attribute 30, 1
  10              		.eabi_attribute 34, 0
  11              		.eabi_attribute 18, 4
  12              		.code	16
  13              		.file	"main.c"
  14              		.text
  15              	.Ltext0:
  16              		.cfi_sections	.debug_frame
  17              		.section	.text.updateLed,"ax",%progbits
  18              		.align	2
  19              		.global	updateLed
  20              		.code	16
  21              		.thumb_func
  22              		.type	updateLed, %function
  23              	updateLed:
  24              	.LFB35:
  25              		.file 1 ".\\main.c"
   1:.\main.c      **** #include <project.h>
   2:.\main.c      **** 
   3:.\main.c      **** uint16 fingerPos    = 0xFFFF;
   4:.\main.c      **** uint16 fingerPosOld = 0xFFFF;
   5:.\main.c      **** 
   6:.\main.c      **** int capsenseNotify;
   7:.\main.c      **** 
   8:.\main.c      **** /***************************************************************
   9:.\main.c      ****  * Function to update the LED state in the GATT database
  10:.\main.c      ****  **************************************************************/
  11:.\main.c      **** void updateLed()
  12:.\main.c      **** {
  26              		.loc 1 12 0
  27              		.cfi_startproc
  28 0000 00B5     		push	{lr}
  29              		.cfi_def_cfa_offset 4
  30              		.cfi_offset 14, -4
  31 0002 85B0     		sub	sp, sp, #20
  32              		.cfi_def_cfa_offset 24
  13:.\main.c      ****     CYBLE_GATTS_HANDLE_VALUE_NTF_T 	tempHandle;
  14:.\main.c      ****    
  15:.\main.c      ****     uint8 red_State = !red_Read();
  33              		.loc 1 15 0
  34 0004 FFF7FEFF 		bl	red_Read
  35              	.LVL0:
  36 0008 4342     		neg	r3, r0
  37 000a 4341     		adc	r3, r3, r0
  38 000c 6A46     		mov	r2, sp
  39 000e D370     		strb	r3, [r2, #3]
  40 0010 0332     		add	r2, r2, #3
  16:.\main.c      ****     
  17:.\main.c      ****     if(CyBle_GetState() != CYBLE_STATE_CONNECTED)
ARM GAS  C:\Users\Alan\AppData\Local\Temp\ccdWfZQE.s 			page 2


  41              		.loc 1 17 0
  42 0012 084B     		ldr	r3, .L4
  43 0014 1B78     		ldrb	r3, [r3]
  44 0016 022B     		cmp	r3, #2
  45 0018 0AD1     		bne	.L1
  18:.\main.c      ****         return;
  19:.\main.c      ****     
  20:.\main.c      ****     tempHandle.attrHandle = CYBLE_LEDCAPSENSE_LED_CHAR_HANDLE;
  46              		.loc 1 20 0
  47 001a 01A8     		add	r0, sp, #4
  48 001c 0C33     		add	r3, r3, #12
  49 001e 0381     		strh	r3, [r0, #8]
  21:.\main.c      ****   	tempHandle.value.val = (uint8 *) &red_State;
  50              		.loc 1 21 0
  51 0020 0192     		str	r2, [sp, #4]
  22:.\main.c      ****     tempHandle.value.len = 1;
  52              		.loc 1 22 0
  53 0022 0123     		mov	r3, #1
  54 0024 8380     		strh	r3, [r0, #4]
  23:.\main.c      ****     CyBle_GattsWriteAttributeValue(&tempHandle,0,&cyBle_connHandle,CYBLE_GATT_DB_LOCALLY_INITIATED)
  55              		.loc 1 23 0
  56 0026 0021     		mov	r1, #0
  57 0028 034A     		ldr	r2, .L4+4
  58 002a 0023     		mov	r3, #0
  59 002c FFF7FEFF 		bl	CyBle_GattsWriteAttributeValue
  60              	.LVL1:
  61              	.L1:
  24:.\main.c      **** }
  62              		.loc 1 24 0
  63 0030 05B0     		add	sp, sp, #20
  64              		@ sp needed
  65 0032 00BD     		pop	{pc}
  66              	.L5:
  67              		.align	2
  68              	.L4:
  69 0034 00000000 		.word	cyBle_state
  70 0038 00000000 		.word	cyBle_connHandle
  71              		.cfi_endproc
  72              	.LFE35:
  73              		.size	updateLed, .-updateLed
  74              		.section	.text.updateCapsense,"ax",%progbits
  75              		.align	2
  76              		.global	updateCapsense
  77              		.code	16
  78              		.thumb_func
  79              		.type	updateCapsense, %function
  80              	updateCapsense:
  81              	.LFB36:
  25:.\main.c      **** 
  26:.\main.c      **** /***************************************************************
  27:.\main.c      ****  * Function to update the CapSesnse state in the GATT database
  28:.\main.c      ****  **************************************************************/
  29:.\main.c      **** void updateCapsense()
  30:.\main.c      **** {
  82              		.loc 1 30 0
  83              		.cfi_startproc
  84 0000 00B5     		push	{lr}
ARM GAS  C:\Users\Alan\AppData\Local\Temp\ccdWfZQE.s 			page 3


  85              		.cfi_def_cfa_offset 4
  86              		.cfi_offset 14, -4
  87 0002 85B0     		sub	sp, sp, #20
  88              		.cfi_def_cfa_offset 24
  31:.\main.c      ****     if(CyBle_GetState() != CYBLE_STATE_CONNECTED)
  89              		.loc 1 31 0
  90 0004 124B     		ldr	r3, .L10
  91 0006 1B78     		ldrb	r3, [r3]
  92 0008 022B     		cmp	r3, #2
  93 000a 1FD1     		bne	.L6
  32:.\main.c      ****         return;
  33:.\main.c      ****     
  34:.\main.c      **** 	CYBLE_GATTS_HANDLE_VALUE_NTF_T 	tempHandle;
  35:.\main.c      ****     
  36:.\main.c      ****     tempHandle.attrHandle = CYBLE_LEDCAPSENSE_CAPSENSE_CHAR_HANDLE;
  94              		.loc 1 36 0
  95 000c 01A8     		add	r0, sp, #4
  96 000e 0F33     		add	r3, r3, #15
  97 0010 0381     		strh	r3, [r0, #8]
  37:.\main.c      ****   	tempHandle.value.val = (uint8 *)&fingerPos;
  98              		.loc 1 37 0
  99 0012 104B     		ldr	r3, .L10+4
 100 0014 0193     		str	r3, [sp, #4]
  38:.\main.c      ****     tempHandle.value.len = 2; 
 101              		.loc 1 38 0
 102 0016 0223     		mov	r3, #2
 103 0018 8380     		strh	r3, [r0, #4]
  39:.\main.c      ****     CyBle_GattsWriteAttributeValue(&tempHandle,0,&cyBle_connHandle,CYBLE_GATT_DB_LOCALLY_INITIATED 
 104              		.loc 1 39 0
 105 001a 0021     		mov	r1, #0
 106 001c 0E4A     		ldr	r2, .L10+8
 107 001e 0023     		mov	r3, #0
 108 0020 FFF7FEFF 		bl	CyBle_GattsWriteAttributeValue
 109              	.LVL2:
  40:.\main.c      ****     
  41:.\main.c      ****     /* send notification to client if notifications are enabled and finger location has changed */
  42:.\main.c      ****     if (capsenseNotify && (fingerPos != fingerPosOld) )
 110              		.loc 1 42 0
 111 0024 0D4B     		ldr	r3, .L10+12
 112 0026 1B68     		ldr	r3, [r3]
 113 0028 002B     		cmp	r3, #0
 114 002a 0CD0     		beq	.L8
 115              		.loc 1 42 0 is_stmt 0 discriminator 1
 116 002c 094B     		ldr	r3, .L10+4
 117 002e 1A88     		ldrh	r2, [r3]
 118 0030 5B88     		ldrh	r3, [r3, #2]
 119 0032 9A42     		cmp	r2, r3
 120 0034 07D0     		beq	.L8
  43:.\main.c      ****         CyBle_GattsNotification(cyBle_connHandle,&tempHandle);
 121              		.loc 1 43 0 is_stmt 1
 122 0036 084A     		ldr	r2, .L10+8
 123 0038 1378     		ldrb	r3, [r2]
 124 003a 5078     		ldrb	r0, [r2, #1]
 125 003c 0002     		lsl	r0, r0, #8
 126 003e 1843     		orr	r0, r3
 127 0040 01A9     		add	r1, sp, #4
 128 0042 FFF7FEFF 		bl	CyBle_GattsNotification
ARM GAS  C:\Users\Alan\AppData\Local\Temp\ccdWfZQE.s 			page 4


 129              	.LVL3:
 130              	.L8:
  44:.\main.c      ****         fingerPosOld = fingerPos;
 131              		.loc 1 44 0
 132 0046 034B     		ldr	r3, .L10+4
 133 0048 1A88     		ldrh	r2, [r3]
 134 004a 5A80     		strh	r2, [r3, #2]
 135              	.L6:
  45:.\main.c      **** }
 136              		.loc 1 45 0
 137 004c 05B0     		add	sp, sp, #20
 138              		@ sp needed
 139 004e 00BD     		pop	{pc}
 140              	.L11:
 141              		.align	2
 142              	.L10:
 143 0050 00000000 		.word	cyBle_state
 144 0054 00000000 		.word	.LANCHOR0
 145 0058 00000000 		.word	cyBle_connHandle
 146 005c 00000000 		.word	capsenseNotify
 147              		.cfi_endproc
 148              	.LFE36:
 149              		.size	updateCapsense, .-updateCapsense
 150              		.section	.text.BleCallBack,"ax",%progbits
 151              		.align	2
 152              		.global	BleCallBack
 153              		.code	16
 154              		.thumb_func
 155              		.type	BleCallBack, %function
 156              	BleCallBack:
 157              	.LFB37:
  46:.\main.c      **** 
  47:.\main.c      **** /***************************************************************
  48:.\main.c      ****  * Function to handle the BLE stack
  49:.\main.c      ****  **************************************************************/
  50:.\main.c      **** void BleCallBack(uint32 event, void* eventParam)
  51:.\main.c      **** {
 158              		.loc 1 51 0
 159              		.cfi_startproc
 160              	.LVL4:
 161 0000 38B5     		push	{r3, r4, r5, lr}
 162              		.cfi_def_cfa_offset 16
 163              		.cfi_offset 3, -16
 164              		.cfi_offset 4, -12
 165              		.cfi_offset 5, -8
 166              		.cfi_offset 14, -4
 167 0002 0C1C     		mov	r4, r1
  52:.\main.c      ****     CYBLE_GATTS_WRITE_REQ_PARAM_T *wrReqParam;
  53:.\main.c      **** 
  54:.\main.c      ****     switch(event)
 168              		.loc 1 54 0
 169 0004 2828     		cmp	r0, #40
 170 0006 08D0     		beq	.L14
 171 0008 02D8     		bhi	.L15
 172 000a 0128     		cmp	r0, #1
 173 000c 05D0     		beq	.L14
 174 000e 43E0     		b	.L12
ARM GAS  C:\Users\Alan\AppData\Local\Temp\ccdWfZQE.s 			page 5


 175              	.L15:
 176 0010 4128     		cmp	r0, #65
 177 0012 0BD0     		beq	.L16
 178 0014 4C28     		cmp	r0, #76
 179 0016 10D0     		beq	.L17
 180 0018 3EE0     		b	.L12
 181              	.L14:
  55:.\main.c      ****     {
  56:.\main.c      ****         /* if there is a disconnect or the stack just turned on from a reset then start the adverti
  57:.\main.c      ****         case CYBLE_EVT_STACK_ON:
  58:.\main.c      ****         case CYBLE_EVT_GAP_DEVICE_DISCONNECTED:
  59:.\main.c      ****             capsenseNotify = 0;
 182              		.loc 1 59 0
 183 001a 0022     		mov	r2, #0
 184 001c 1F4B     		ldr	r3, .L19
 185 001e 1A60     		str	r2, [r3]
  60:.\main.c      ****             CyBle_GappStartAdvertisement(CYBLE_ADVERTISING_FAST);
 186              		.loc 1 60 0
 187 0020 0020     		mov	r0, #0
 188              	.LVL5:
 189 0022 FFF7FEFF 		bl	CyBle_GappStartAdvertisement
 190              	.LVL6:
  61:.\main.c      ****             pwm_Start();
 191              		.loc 1 61 0
 192 0026 FFF7FEFF 		bl	pwm_Start
 193              	.LVL7:
  62:.\main.c      ****         break;
 194              		.loc 1 62 0
 195 002a 35E0     		b	.L12
 196              	.LVL8:
 197              	.L16:
  63:.\main.c      ****         
  64:.\main.c      ****         /* when a connection is made, update the LED and Capsense states in the GATT database and s
  65:.\main.c      ****         case CYBLE_EVT_GATT_CONNECT_IND:
  66:.\main.c      ****             updateLed();
 198              		.loc 1 66 0
 199 002c FFF7FEFF 		bl	updateLed
 200              	.LVL9:
  67:.\main.c      ****             updateCapsense();  
 201              		.loc 1 67 0
 202 0030 FFF7FEFF 		bl	updateCapsense
 203              	.LVL10:
  68:.\main.c      ****             pwm_Stop();
 204              		.loc 1 68 0
 205 0034 FFF7FEFF 		bl	pwm_Stop
 206              	.LVL11:
  69:.\main.c      **** 		break;
 207              		.loc 1 69 0
 208 0038 2EE0     		b	.L12
 209              	.LVL12:
 210              	.L17:
  70:.\main.c      **** 
  71:.\main.c      ****         /* handle a write request */
  72:.\main.c      ****         case CYBLE_EVT_GATTS_WRITE_REQ:
  73:.\main.c      ****             wrReqParam = (CYBLE_GATTS_WRITE_REQ_PARAM_T *) eventParam;
  74:.\main.c      **** 			      
  75:.\main.c      ****             /* request write the LED value */
ARM GAS  C:\Users\Alan\AppData\Local\Temp\ccdWfZQE.s 			page 6


  76:.\main.c      ****             if(wrReqParam->handleValPair.attrHandle == CYBLE_LEDCAPSENSE_LED_CHAR_HANDLE)
 211              		.loc 1 76 0
 212 003a 8B89     		ldrh	r3, [r1, #12]
 213 003c 0E2B     		cmp	r3, #14
 214 003e 15D1     		bne	.L18
  77:.\main.c      ****             {
  78:.\main.c      ****                 /* only update the value and write the response if the requested write is allowed *
  79:.\main.c      ****                 if(CYBLE_GATT_ERR_NONE == CyBle_GattsWriteAttributeValue(&wrReqParam->handleValPair
 215              		.loc 1 79 0
 216 0040 081D     		add	r0, r1, #4
 217              	.LVL13:
 218 0042 0021     		mov	r1, #0
 219              	.LVL14:
 220 0044 164A     		ldr	r2, .L19+4
 221 0046 3233     		add	r3, r3, #50
 222 0048 FFF7FEFF 		bl	CyBle_GattsWriteAttributeValue
 223              	.LVL15:
 224 004c 0028     		cmp	r0, #0
 225 004e 0DD1     		bne	.L18
  80:.\main.c      ****                 {
  81:.\main.c      ****                     red_Write(!wrReqParam->handleValPair.value.val[0]);
 226              		.loc 1 81 0
 227 0050 6368     		ldr	r3, [r4, #4]
 228 0052 1B78     		ldrb	r3, [r3]
 229 0054 5842     		neg	r0, r3
 230 0056 5841     		adc	r0, r0, r3
 231 0058 C0B2     		uxtb	r0, r0
 232 005a FFF7FEFF 		bl	red_Write
 233              	.LVL16:
  82:.\main.c      ****                     CyBle_GattsWriteRsp(cyBle_connHandle);
 234              		.loc 1 82 0
 235 005e 104A     		ldr	r2, .L19+4
 236 0060 1378     		ldrb	r3, [r2]
 237 0062 5078     		ldrb	r0, [r2, #1]
 238 0064 0002     		lsl	r0, r0, #8
 239 0066 1843     		orr	r0, r3
 240 0068 FFF7FEFF 		bl	CyBle_GattsWriteRsp
 241              	.LVL17:
 242              	.L18:
  83:.\main.c      ****                 }
  84:.\main.c      ****             }
  85:.\main.c      ****             
  86:.\main.c      ****             /* request to update the CapSense notification */
  87:.\main.c      ****             if(wrReqParam->handleValPair.attrHandle == CYBLE_LEDCAPSENSE_CAPSENSE_CAPSENSECCCD_DESC
 243              		.loc 1 87 0
 244 006c A389     		ldrh	r3, [r4, #12]
 245 006e 122B     		cmp	r3, #18
 246 0070 12D1     		bne	.L12
  88:.\main.c      ****             {
  89:.\main.c      ****                 CyBle_GattsWriteAttributeValue(&wrReqParam->handleValPair, 0, &cyBle_connHandle, CY
 247              		.loc 1 89 0
 248 0072 201D     		add	r0, r4, #4
 249 0074 0A4D     		ldr	r5, .L19+4
 250 0076 0021     		mov	r1, #0
 251 0078 2A1C     		mov	r2, r5
 252 007a 2E33     		add	r3, r3, #46
 253 007c FFF7FEFF 		bl	CyBle_GattsWriteAttributeValue
ARM GAS  C:\Users\Alan\AppData\Local\Temp\ccdWfZQE.s 			page 7


 254              	.LVL18:
  90:.\main.c      ****                 capsenseNotify = wrReqParam->handleValPair.value.val[0] & 0x01;
 255              		.loc 1 90 0
 256 0080 6368     		ldr	r3, [r4, #4]
 257 0082 1B78     		ldrb	r3, [r3]
 258 0084 0122     		mov	r2, #1
 259 0086 1340     		and	r3, r2
 260 0088 044A     		ldr	r2, .L19
 261 008a 1360     		str	r3, [r2]
  91:.\main.c      ****                 CyBle_GattsWriteRsp(cyBle_connHandle);
 262              		.loc 1 91 0
 263 008c 2B78     		ldrb	r3, [r5]
 264 008e 6878     		ldrb	r0, [r5, #1]
 265 0090 0002     		lsl	r0, r0, #8
 266 0092 1843     		orr	r0, r3
 267 0094 FFF7FEFF 		bl	CyBle_GattsWriteRsp
 268              	.LVL19:
 269              	.L12:
  92:.\main.c      ****             }		
  93:.\main.c      **** 			break;  
  94:.\main.c      ****         
  95:.\main.c      ****         default:
  96:.\main.c      ****             break;
  97:.\main.c      ****     }
  98:.\main.c      **** } 
 270              		.loc 1 98 0
 271              		@ sp needed
 272              	.LVL20:
 273 0098 38BD     		pop	{r3, r4, r5, pc}
 274              	.L20:
 275 009a C046     		.align	2
 276              	.L19:
 277 009c 00000000 		.word	capsenseNotify
 278 00a0 00000000 		.word	cyBle_connHandle
 279              		.cfi_endproc
 280              	.LFE37:
 281              		.size	BleCallBack, .-BleCallBack
 282              		.section	.text.main,"ax",%progbits
 283              		.align	2
 284              		.global	main
 285              		.code	16
 286              		.thumb_func
 287              		.type	main, %function
 288              	main:
 289              	.LFB38:
  99:.\main.c      **** 
 100:.\main.c      **** /***************************************************************
 101:.\main.c      ****  * Main
 102:.\main.c      ****  **************************************************************/
 103:.\main.c      **** int main()
 104:.\main.c      **** {
 290              		.loc 1 104 0
 291              		.cfi_startproc
 292 0000 08B5     		push	{r3, lr}
 293              		.cfi_def_cfa_offset 8
 294              		.cfi_offset 3, -8
 295              		.cfi_offset 14, -4
ARM GAS  C:\Users\Alan\AppData\Local\Temp\ccdWfZQE.s 			page 8


 105:.\main.c      ****     CyGlobalIntEnable; 
 296              		.loc 1 105 0
 297              	@ 105 ".\main.c" 1
 298 0002 62B6     		CPSIE   i
 299              	@ 0 "" 2
 106:.\main.c      ****     
 107:.\main.c      ****     capsense_Start();
 300              		.loc 1 107 0
 301              		.code	16
 302 0004 FFF7FEFF 		bl	capsense_Start
 303              	.LVL21:
 108:.\main.c      ****     capsense_InitializeEnabledBaselines();
 304              		.loc 1 108 0
 305 0008 FFF7FEFF 		bl	capsense_InitializeEnabledBaselines
 306              	.LVL22:
 109:.\main.c      ****     
 110:.\main.c      ****     /* Start BLE stack and register the callback function */
 111:.\main.c      ****     CyBle_Start(BleCallBack);
 307              		.loc 1 111 0
 308 000c 0B48     		ldr	r0, .L24
 309 000e FFF7FEFF 		bl	CyBle_Start
 310              	.LVL23:
 311              	.L23:
 112:.\main.c      **** 
 113:.\main.c      ****     for(;;)
 114:.\main.c      ****     {        
 115:.\main.c      ****         /* if Capsense scan is done, read the value and start another scan */
 116:.\main.c      ****         if(!capsense_IsBusy())
 312              		.loc 1 116 0
 313 0012 FFF7FEFF 		bl	capsense_IsBusy
 314              	.LVL24:
 315 0016 0028     		cmp	r0, #0
 316 0018 09D1     		bne	.L22
 117:.\main.c      ****         {
 118:.\main.c      ****             fingerPos=capsense_GetCentroidPos(capsense_LINEARSLIDER0__LS);
 317              		.loc 1 118 0
 318 001a FFF7FEFF 		bl	capsense_GetCentroidPos
 319              	.LVL25:
 320 001e 084B     		ldr	r3, .L24+4
 321 0020 1880     		strh	r0, [r3]
 119:.\main.c      ****             capsense_UpdateEnabledBaselines();
 322              		.loc 1 119 0
 323 0022 FFF7FEFF 		bl	capsense_UpdateEnabledBaselines
 324              	.LVL26:
 120:.\main.c      ****             capsense_ScanEnabledWidgets();
 325              		.loc 1 120 0
 326 0026 FFF7FEFF 		bl	capsense_ScanEnabledWidgets
 327              	.LVL27:
 121:.\main.c      ****             updateCapsense();
 328              		.loc 1 121 0
 329 002a FFF7FEFF 		bl	updateCapsense
 330              	.LVL28:
 331              	.L22:
 122:.\main.c      ****         }
 123:.\main.c      ****    
 124:.\main.c      ****         CyBle_ProcessEvents();
 332              		.loc 1 124 0
ARM GAS  C:\Users\Alan\AppData\Local\Temp\ccdWfZQE.s 			page 9


 333 002e FFF7FEFF 		bl	CyBle_ProcessEvents
 334              	.LVL29:
 125:.\main.c      ****         CyBle_EnterLPM(CYBLE_BLESS_DEEPSLEEP);    
 335              		.loc 1 125 0
 336 0032 0320     		mov	r0, #3
 337 0034 FFF7FEFF 		bl	CyBle_EnterLPM
 338              	.LVL30:
 126:.\main.c      ****     }
 339              		.loc 1 126 0
 340 0038 EBE7     		b	.L23
 341              	.L25:
 342 003a C046     		.align	2
 343              	.L24:
 344 003c 00000000 		.word	BleCallBack
 345 0040 00000000 		.word	.LANCHOR0
 346              		.cfi_endproc
 347              	.LFE38:
 348              		.size	main, .-main
 349              		.comm	capsenseNotify,4,4
 350              		.global	fingerPosOld
 351              		.global	fingerPos
 352              		.data
 353              		.align	1
 354              		.set	.LANCHOR0,. + 0
 355              		.type	fingerPos, %object
 356              		.size	fingerPos, 2
 357              	fingerPos:
 358 0000 FFFF     		.short	-1
 359              		.type	fingerPosOld, %object
 360              		.size	fingerPosOld, 2
 361              	fingerPosOld:
 362 0002 FFFF     		.short	-1
 363              		.text
 364              	.Letext0:
 365              		.file 2 "Generated_Source\\PSoC4/cytypes.h"
 366              		.file 3 "Generated_Source\\PSoC4/ble_Stack.h"
 367              		.file 4 "Generated_Source\\PSoC4/ble_StackGatt.h"
 368              		.file 5 "Generated_Source\\PSoC4/ble_StackGattServer.h"
 369              		.file 6 "Generated_Source\\PSoC4/ble.h"
 370              		.file 7 "Generated_Source\\PSoC4/ble_eventHandler.h"
 371              		.file 8 "Generated_Source\\PSoC4/ble_StackGattDb.h"
 372              		.file 9 "Generated_Source\\PSoC4/pwm.h"
 373              		.file 10 "Generated_Source\\PSoC4/capsense.h"
 374              		.file 11 "Generated_Source\\PSoC4/capsense_CSHL.h"
 375              		.file 12 "Generated_Source\\PSoC4/red.h"